(dp1
S'output'
p2
S"<type 'exceptions.IOError'> [Errno 2] No such file or directory: 'Template.conf'"
p3
sS'layer'
p4
S'/home/mayank/Desktop/web2pyAdmin/web2py/web2py/applications/FunkLoad/models/codeGenerator.py'
p5
sS'code'
p6
S'TEMPLATE_FILE = \'Template.conf\'\ndef createCode(URL, nb_time, duration, cycles, destFile):\n        s = \'\'\n\tconf_file = open(TEMPLATE_FILE, \'r\').read()\n\tl = cycles.split(",")\n        s = \':\'.join(l)\n\tstress_file_mapped = conf_file % (URL, nb_time, s, duration)\n        destHandle = open(destFile, \'w+\')\n        with open(destFile, \'w+\') as d:\n            d.write(stress_file_mapped)\n\ncreateCode(\'localhost\', \'20\', \'10\', \'50,75,100\', \'newConf.conf\')\n'
p7
sS'snapshot'
p8
(dp9
S'exception'
p10
(dp11
S'__getslice__'
p12
S"<method-wrapper '__getslice__' of exceptions.IOError object>"
p13
sS'__str__'
p14
S"<method-wrapper '__str__' of exceptions.IOError object>"
p15
sS'__reduce__'
p16
S'<built-in method __reduce__ of exceptions.IOError object>'
p17
sS'__dict__'
p18
S'{}'
p19
sS'__sizeof__'
p20
S'<built-in method __sizeof__ of exceptions.IOError object>'
p21
sS'__init__'
p22
S"<method-wrapper '__init__' of exceptions.IOError object>"
p23
sS'__setattr__'
p24
S"<method-wrapper '__setattr__' of exceptions.IOError object>"
p25
sS'__reduce_ex__'
p26
S'<built-in method __reduce_ex__ of exceptions.IOError object>'
p27
sS'__new__'
p28
S'<built-in method __new__ of type object>'
p29
sS'errno'
p30
S'2'
sS'__format__'
p31
S'<built-in method __format__ of exceptions.IOError object>'
p32
sS'__class__'
p33
S"<type 'exceptions.IOError'>"
p34
sS'filename'
p35
S"'Template.conf'"
p36
sS'__doc__'
p37
S"'I/O operation failed.'"
p38
sS'__getitem__'
p39
S"<method-wrapper '__getitem__' of exceptions.IOError object>"
p40
sS'__setstate__'
p41
S'<built-in method __setstate__ of exceptions.IOError object>'
p42
sS'__getattribute__'
p43
S"<method-wrapper '__getattribute__' of exceptions.IOError object>"
p44
sS'args'
p45
S"(2, 'No such file or directory')"
p46
sS'__subclasshook__'
p47
S'<built-in method __subclasshook__ of type object>'
p48
sS'__unicode__'
p49
S'<built-in method __unicode__ of exceptions.IOError object>'
p50
sS'strerror'
p51
S"'No such file or directory'"
p52
sS'__delattr__'
p53
S"<method-wrapper '__delattr__' of exceptions.IOError object>"
p54
sS'__repr__'
p55
S"<method-wrapper '__repr__' of exceptions.IOError object>"
p56
sS'__hash__'
p57
S"<method-wrapper '__hash__' of exceptions.IOError object>"
p58
ssS'evalue'
p59
S"[Errno 2] No such file or directory: 'Template.conf'"
p60
sS'request'
p61
ccopy_reg
_reconstructor
p62
(cgluon.html
BEAUTIFY
p63
c__builtin__
object
p64
NtRp65
(dp66
S'attributes'
p67
(dp68
sS'components'
p69
(lp70
g62
(cgluon.html
TABLE
p71
g64
NtRp72
(dp73
g67
(dp74
S'level'
p75
I5
ssS'parent'
p76
Nsg69
(lp77
g62
(cgluon.html
TR
p78
g64
NtRp79
(dp80
g67
(dp81
sg76
g72
sg69
(lp82
g62
(cgluon.html
TD
p83
g64
NtRp84
(dp85
g67
(dp86
S'_style'
p87
S'font-weight:bold;vertical-align:top'
p88
ssg76
g79
sg69
(lp89
S'ajax'
p90
asbag62
(g83
g64
NtRp91
(dp92
g67
(dp93
S'_valign'
p94
S'top'
p95
ssg76
g79
sg69
(lp96
S':'
asbag62
(g83
g64
NtRp97
(dp98
g67
(dp99
sg76
g79
sg69
(lp100
g62
(g63
g64
NtRp101
(dp102
g67
(dp103
g75
I5
ssg76
g97
sg69
(lp104
S'False'
p105
asbasbasbag62
(g78
g64
NtRp106
(dp107
g67
(dp108
sg76
g72
sg69
(lp109
g62
(g83
g64
NtRp110
(dp111
g67
(dp112
g87
g88
ssg76
g106
sg69
(lp113
S'application'
p114
asbag62
(g83
g64
NtRp115
(dp116
g67
(dp117
g94
g95
ssg76
g106
sg69
(lp118
S':'
asbag62
(g83
g64
NtRp119
(dp120
g67
(dp121
sg76
g106
sg69
(lp122
g62
(g63
g64
NtRp123
(dp124
g67
(dp125
g75
I5
ssg76
g119
sg69
(lp126
S'FunkLoad'
p127
asbasbasbag62
(g78
g64
NtRp128
(dp129
g67
(dp130
sg76
g72
sg69
(lp131
g62
(g83
g64
NtRp132
(dp133
g67
(dp134
g87
g88
ssg76
g128
sg69
(lp135
g45
asbag62
(g83
g64
NtRp136
(dp137
g67
(dp138
g94
g95
ssg76
g128
sg69
(lp139
S':'
asbag62
(g83
g64
NtRp140
(dp141
g67
(dp142
sg76
g128
sg69
(lp143
g62
(g63
g64
NtRp144
(dp145
g67
(dp146
g75
I5
ssg76
g140
sg69
(lp147
g62
(g71
g64
NtRp148
(dp149
g67
(dp150
g75
I4
ssg76
Nsg69
(lp151
sbasbasbasbag62
(g78
g64
NtRp152
(dp153
g67
(dp154
sg76
g72
sg69
(lp155
g62
(g83
g64
NtRp156
(dp157
g67
(dp158
g87
g88
ssg76
g152
sg69
(lp159
S'body'
p160
asbag62
(g83
g64
NtRp161
(dp162
g67
(dp163
g94
g95
ssg76
g152
sg69
(lp164
S':'
asbag62
(g83
g64
NtRp165
(dp166
g67
(dp167
sg76
g152
sg69
(lp168
g62
(g63
g64
NtRp169
(dp170
g67
(dp171
g75
I5
ssg76
g165
sg69
(lp172
S'<cStringIO.StringO object at 0x7f7a60402308>'
p173
asbasbasbag62
(g78
g64
NtRp174
(dp175
g67
(dp176
sg76
g72
sg69
(lp177
g62
(g83
g64
NtRp178
(dp179
g67
(dp180
g87
g88
ssg76
g174
sg69
(lp181
S'cid'
p182
asbag62
(g83
g64
NtRp183
(dp184
g67
(dp185
g94
g95
ssg76
g174
sg69
(lp186
S':'
asbag62
(g83
g64
NtRp187
(dp188
g67
(dp189
sg76
g174
sg69
(lp190
g62
(g63
g64
NtRp191
(dp192
g67
(dp193
g75
I5
ssg76
g187
sg69
(lp194
S'None'
p195
asbasbasbag62
(g78
g64
NtRp196
(dp197
g67
(dp198
sg76
g72
sg69
(lp199
g62
(g83
g64
NtRp200
(dp201
g67
(dp202
g87
g88
ssg76
g196
sg69
(lp203
S'client'
p204
asbag62
(g83
g64
NtRp205
(dp206
g67
(dp207
g94
g95
ssg76
g196
sg69
(lp208
S':'
asbag62
(g83
g64
NtRp209
(dp210
g67
(dp211
sg76
g196
sg69
(lp212
g62
(g63
g64
NtRp213
(dp214
g67
(dp215
g75
I5
ssg76
g209
sg69
(lp216
S'10.1.33.107'
p217
asbasbasbag62
(g78
g64
NtRp218
(dp219
g67
(dp220
sg76
g72
sg69
(lp221
g62
(g83
g64
NtRp222
(dp223
g67
(dp224
g87
g88
ssg76
g218
sg69
(lp225
S'controller'
p226
asbag62
(g83
g64
NtRp227
(dp228
g67
(dp229
g94
g95
ssg76
g218
sg69
(lp230
S':'
asbag62
(g83
g64
NtRp231
(dp232
g67
(dp233
sg76
g218
sg69
(lp234
g62
(g63
g64
NtRp235
(dp236
g67
(dp237
g75
I5
ssg76
g231
sg69
(lp238
S'default'
p239
asbasbasbag62
(g78
g64
NtRp240
(dp241
g67
(dp242
sg76
g72
sg69
(lp243
g62
(g83
g64
NtRp244
(dp245
g67
(dp246
g87
g88
ssg76
g240
sg69
(lp247
S'cookies'
p248
asbag62
(g83
g64
NtRp249
(dp250
g67
(dp251
g94
g95
ssg76
g240
sg69
(lp252
S':'
asbag62
(g83
g64
NtRp253
(dp254
g67
(dp255
sg76
g240
sg69
(lp256
g62
(g63
g64
NtRp257
(dp258
g67
(dp259
g75
I5
ssg76
g253
sg69
(lp260
g62
(g71
g64
NtRp261
(dp262
g67
(dp263
g75
I4
ssg76
Nsg69
(lp264
g62
(g78
g64
NtRp265
(dp266
g67
(dp267
sg76
g261
sg69
(lp268
g62
(g83
g64
NtRp269
(dp270
g67
(dp271
g87
g88
ssg76
g265
sg69
(lp272
S'session_id_admin'
p273
asbag62
(g83
g64
NtRp274
(dp275
g67
(dp276
g94
g95
ssg76
g265
sg69
(lp277
S':'
asbag62
(g83
g64
NtRp278
(dp279
g67
(dp280
sg76
g265
sg69
(lp281
g62
(g63
g64
NtRp282
(dp283
g67
(dp284
g75
I4
ssg76
g278
sg69
(lp285
S'10.1.33.107-cc833ea9-972a-468c-9599-25843d70bea7'
p286
ag62
(g71
g64
NtRp287
(dp288
g67
(dp289
g75
I3
ssg76
Nsg69
(lp290
g62
(g78
g64
NtRp291
(dp292
g67
(dp293
sg76
g287
sg69
(lp294
g62
(g83
g64
NtRp295
(dp296
g67
(dp297
g87
g88
ssg76
g291
sg69
(lp298
S'comment'
p299
asbag62
(g83
g64
NtRp300
(dp301
g67
(dp302
g94
g95
ssg76
g291
sg69
(lp303
S':'
asbag62
(g83
g64
NtRp304
(dp305
g67
(dp306
sg76
g291
sg69
(lp307
g62
(g63
g64
NtRp308
(dp309
g67
(dp310
g75
I3
ssg76
g304
sg69
(lp311
S''
asbasbasbag62
(g78
g64
NtRp312
(dp313
g67
(dp314
sg76
g287
sg69
(lp315
g62
(g83
g64
NtRp316
(dp317
g67
(dp318
g87
g88
ssg76
g312
sg69
(lp319
S'domain'
p320
asbag62
(g83
g64
NtRp321
(dp322
g67
(dp323
g94
g95
ssg76
g312
sg69
(lp324
S':'
asbag62
(g83
g64
NtRp325
(dp326
g67
(dp327
sg76
g312
sg69
(lp328
g62
(g63
g64
NtRp329
(dp330
g67
(dp331
g75
I3
ssg76
g325
sg69
(lp332
S''
asbasbasbag62
(g78
g64
NtRp333
(dp334
g67
(dp335
sg76
g287
sg69
(lp336
g62
(g83
g64
NtRp337
(dp338
g67
(dp339
g87
g88
ssg76
g333
sg69
(lp340
S'expires'
p341
asbag62
(g83
g64
NtRp342
(dp343
g67
(dp344
g94
g95
ssg76
g333
sg69
(lp345
S':'
asbag62
(g83
g64
NtRp346
(dp347
g67
(dp348
sg76
g333
sg69
(lp349
g62
(g63
g64
NtRp350
(dp351
g67
(dp352
g75
I3
ssg76
g346
sg69
(lp353
S''
asbasbasbag62
(g78
g64
NtRp354
(dp355
g67
(dp356
sg76
g287
sg69
(lp357
g62
(g83
g64
NtRp358
(dp359
g67
(dp360
g87
g88
ssg76
g354
sg69
(lp361
S'httponly'
p362
asbag62
(g83
g64
NtRp363
(dp364
g67
(dp365
g94
g95
ssg76
g354
sg69
(lp366
S':'
asbag62
(g83
g64
NtRp367
(dp368
g67
(dp369
sg76
g354
sg69
(lp370
g62
(g63
g64
NtRp371
(dp372
g67
(dp373
g75
I3
ssg76
g367
sg69
(lp374
S''
asbasbasbag62
(g78
g64
NtRp375
(dp376
g67
(dp377
sg76
g287
sg69
(lp378
g62
(g83
g64
NtRp379
(dp380
g67
(dp381
g87
g88
ssg76
g375
sg69
(lp382
S'max-age'
p383
asbag62
(g83
g64
NtRp384
(dp385
g67
(dp386
g94
g95
ssg76
g375
sg69
(lp387
S':'
asbag62
(g83
g64
NtRp388
(dp389
g67
(dp390
sg76
g375
sg69
(lp391
g62
(g63
g64
NtRp392
(dp393
g67
(dp394
g75
I3
ssg76
g388
sg69
(lp395
S''
asbasbasbag62
(g78
g64
NtRp396
(dp397
g67
(dp398
sg76
g287
sg69
(lp399
g62
(g83
g64
NtRp400
(dp401
g67
(dp402
g87
g88
ssg76
g396
sg69
(lp403
S'path'
p404
asbag62
(g83
g64
NtRp405
(dp406
g67
(dp407
g94
g95
ssg76
g396
sg69
(lp408
S':'
asbag62
(g83
g64
NtRp409
(dp410
g67
(dp411
sg76
g396
sg69
(lp412
g62
(g63
g64
NtRp413
(dp414
g67
(dp415
g75
I3
ssg76
g409
sg69
(lp416
S''
asbasbasbag62
(g78
g64
NtRp417
(dp418
g67
(dp419
sg76
g287
sg69
(lp420
g62
(g83
g64
NtRp421
(dp422
g67
(dp423
g87
g88
ssg76
g417
sg69
(lp424
S'secure'
p425
asbag62
(g83
g64
NtRp426
(dp427
g67
(dp428
g94
g95
ssg76
g417
sg69
(lp429
S':'
asbag62
(g83
g64
NtRp430
(dp431
g67
(dp432
sg76
g417
sg69
(lp433
g62
(g63
g64
NtRp434
(dp435
g67
(dp436
g75
I3
ssg76
g430
sg69
(lp437
S''
asbasbasbag62
(g78
g64
NtRp438
(dp439
g67
(dp440
sg76
g287
sg69
(lp441
g62
(g83
g64
NtRp442
(dp443
g67
(dp444
g87
g88
ssg76
g438
sg69
(lp445
S'version'
p446
asbag62
(g83
g64
NtRp447
(dp448
g67
(dp449
g94
g95
ssg76
g438
sg69
(lp450
S':'
asbag62
(g83
g64
NtRp451
(dp452
g67
(dp453
sg76
g438
sg69
(lp454
g62
(g63
g64
NtRp455
(dp456
g67
(dp457
g75
I3
ssg76
g451
sg69
(lp458
S''
asbasbasbasbasbasbasbag62
(g78
g64
NtRp459
(dp460
g67
(dp461
sg76
g261
sg69
(lp462
g62
(g83
g64
NtRp463
(dp464
g67
(dp465
g87
g88
ssg76
g459
sg69
(lp466
S'session_id_funkload'
p467
asbag62
(g83
g64
NtRp468
(dp469
g67
(dp470
g94
g95
ssg76
g459
sg69
(lp471
S':'
asbag62
(g83
g64
NtRp472
(dp473
g67
(dp474
sg76
g459
sg69
(lp475
g62
(g63
g64
NtRp476
(dp477
g67
(dp478
g75
I4
ssg76
g472
sg69
(lp479
S'10.1.33.107-36ba3c88-7bcb-4a0e-bb0a-8936efb689ab'
p480
ag62
(g71
g64
NtRp481
(dp482
g67
(dp483
g75
I3
ssg76
Nsg69
(lp484
g62
(g78
g64
NtRp485
(dp486
g67
(dp487
sg76
g481
sg69
(lp488
g62
(g83
g64
NtRp489
(dp490
g67
(dp491
g87
g88
ssg76
g485
sg69
(lp492
g299
asbag62
(g83
g64
NtRp493
(dp494
g67
(dp495
g94
g95
ssg76
g485
sg69
(lp496
S':'
asbag62
(g83
g64
NtRp497
(dp498
g67
(dp499
sg76
g485
sg69
(lp500
g62
(g63
g64
NtRp501
(dp502
g67
(dp503
g75
I3
ssg76
g497
sg69
(lp504
S''
asbasbasbag62
(g78
g64
NtRp505
(dp506
g67
(dp507
sg76
g481
sg69
(lp508
g62
(g83
g64
NtRp509
(dp510
g67
(dp511
g87
g88
ssg76
g505
sg69
(lp512
g320
asbag62
(g83
g64
NtRp513
(dp514
g67
(dp515
g94
g95
ssg76
g505
sg69
(lp516
S':'
asbag62
(g83
g64
NtRp517
(dp518
g67
(dp519
sg76
g505
sg69
(lp520
g62
(g63
g64
NtRp521
(dp522
g67
(dp523
g75
I3
ssg76
g517
sg69
(lp524
S''
asbasbasbag62
(g78
g64
NtRp525
(dp526
g67
(dp527
sg76
g481
sg69
(lp528
g62
(g83
g64
NtRp529
(dp530
g67
(dp531
g87
g88
ssg76
g525
sg69
(lp532
g341
asbag62
(g83
g64
NtRp533
(dp534
g67
(dp535
g94
g95
ssg76
g525
sg69
(lp536
S':'
asbag62
(g83
g64
NtRp537
(dp538
g67
(dp539
sg76
g525
sg69
(lp540
g62
(g63
g64
NtRp541
(dp542
g67
(dp543
g75
I3
ssg76
g537
sg69
(lp544
S''
asbasbasbag62
(g78
g64
NtRp545
(dp546
g67
(dp547
sg76
g481
sg69
(lp548
g62
(g83
g64
NtRp549
(dp550
g67
(dp551
g87
g88
ssg76
g545
sg69
(lp552
g362
asbag62
(g83
g64
NtRp553
(dp554
g67
(dp555
g94
g95
ssg76
g545
sg69
(lp556
S':'
asbag62
(g83
g64
NtRp557
(dp558
g67
(dp559
sg76
g545
sg69
(lp560
g62
(g63
g64
NtRp561
(dp562
g67
(dp563
g75
I3
ssg76
g557
sg69
(lp564
S''
asbasbasbag62
(g78
g64
NtRp565
(dp566
g67
(dp567
sg76
g481
sg69
(lp568
g62
(g83
g64
NtRp569
(dp570
g67
(dp571
g87
g88
ssg76
g565
sg69
(lp572
g383
asbag62
(g83
g64
NtRp573
(dp574
g67
(dp575
g94
g95
ssg76
g565
sg69
(lp576
S':'
asbag62
(g83
g64
NtRp577
(dp578
g67
(dp579
sg76
g565
sg69
(lp580
g62
(g63
g64
NtRp581
(dp582
g67
(dp583
g75
I3
ssg76
g577
sg69
(lp584
S''
asbasbasbag62
(g78
g64
NtRp585
(dp586
g67
(dp587
sg76
g481
sg69
(lp588
g62
(g83
g64
NtRp589
(dp590
g67
(dp591
g87
g88
ssg76
g585
sg69
(lp592
g404
asbag62
(g83
g64
NtRp593
(dp594
g67
(dp595
g94
g95
ssg76
g585
sg69
(lp596
S':'
asbag62
(g83
g64
NtRp597
(dp598
g67
(dp599
sg76
g585
sg69
(lp600
g62
(g63
g64
NtRp601
(dp602
g67
(dp603
g75
I3
ssg76
g597
sg69
(lp604
S''
asbasbasbag62
(g78
g64
NtRp605
(dp606
g67
(dp607
sg76
g481
sg69
(lp608
g62
(g83
g64
NtRp609
(dp610
g67
(dp611
g87
g88
ssg76
g605
sg69
(lp612
g425
asbag62
(g83
g64
NtRp613
(dp614
g67
(dp615
g94
g95
ssg76
g605
sg69
(lp616
S':'
asbag62
(g83
g64
NtRp617
(dp618
g67
(dp619
sg76
g605
sg69
(lp620
g62
(g63
g64
NtRp621
(dp622
g67
(dp623
g75
I3
ssg76
g617
sg69
(lp624
S''
asbasbasbag62
(g78
g64
NtRp625
(dp626
g67
(dp627
sg76
g481
sg69
(lp628
g62
(g83
g64
NtRp629
(dp630
g67
(dp631
g87
g88
ssg76
g625
sg69
(lp632
g446
asbag62
(g83
g64
NtRp633
(dp634
g67
(dp635
g94
g95
ssg76
g625
sg69
(lp636
S':'
asbag62
(g83
g64
NtRp637
(dp638
g67
(dp639
sg76
g625
sg69
(lp640
g62
(g63
g64
NtRp641
(dp642
g67
(dp643
g75
I3
ssg76
g637
sg69
(lp644
S''
asbasbasbasbasbasbasbag62
(g78
g64
NtRp645
(dp646
g67
(dp647
sg76
g261
sg69
(lp648
g62
(g83
g64
NtRp649
(dp650
g67
(dp651
g87
g88
ssg76
g645
sg69
(lp652
S'session_id_welcome'
p653
asbag62
(g83
g64
NtRp654
(dp655
g67
(dp656
g94
g95
ssg76
g645
sg69
(lp657
S':'
asbag62
(g83
g64
NtRp658
(dp659
g67
(dp660
sg76
g645
sg69
(lp661
g62
(g63
g64
NtRp662
(dp663
g67
(dp664
g75
I4
ssg76
g658
sg69
(lp665
S'10.1.33.107-c50187d4-7446-40e0-9eea-8071c640ac0b'
p666
ag62
(g71
g64
NtRp667
(dp668
g67
(dp669
g75
I3
ssg76
Nsg69
(lp670
g62
(g78
g64
NtRp671
(dp672
g67
(dp673
sg76
g667
sg69
(lp674
g62
(g83
g64
NtRp675
(dp676
g67
(dp677
g87
g88
ssg76
g671
sg69
(lp678
g299
asbag62
(g83
g64
NtRp679
(dp680
g67
(dp681
g94
g95
ssg76
g671
sg69
(lp682
S':'
asbag62
(g83
g64
NtRp683
(dp684
g67
(dp685
sg76
g671
sg69
(lp686
g62
(g63
g64
NtRp687
(dp688
g67
(dp689
g75
I3
ssg76
g683
sg69
(lp690
S''
asbasbasbag62
(g78
g64
NtRp691
(dp692
g67
(dp693
sg76
g667
sg69
(lp694
g62
(g83
g64
NtRp695
(dp696
g67
(dp697
g87
g88
ssg76
g691
sg69
(lp698
g320
asbag62
(g83
g64
NtRp699
(dp700
g67
(dp701
g94
g95
ssg76
g691
sg69
(lp702
S':'
asbag62
(g83
g64
NtRp703
(dp704
g67
(dp705
sg76
g691
sg69
(lp706
g62
(g63
g64
NtRp707
(dp708
g67
(dp709
g75
I3
ssg76
g703
sg69
(lp710
S''
asbasbasbag62
(g78
g64
NtRp711
(dp712
g67
(dp713
sg76
g667
sg69
(lp714
g62
(g83
g64
NtRp715
(dp716
g67
(dp717
g87
g88
ssg76
g711
sg69
(lp718
g341
asbag62
(g83
g64
NtRp719
(dp720
g67
(dp721
g94
g95
ssg76
g711
sg69
(lp722
S':'
asbag62
(g83
g64
NtRp723
(dp724
g67
(dp725
sg76
g711
sg69
(lp726
g62
(g63
g64
NtRp727
(dp728
g67
(dp729
g75
I3
ssg76
g723
sg69
(lp730
S''
asbasbasbag62
(g78
g64
NtRp731
(dp732
g67
(dp733
sg76
g667
sg69
(lp734
g62
(g83
g64
NtRp735
(dp736
g67
(dp737
g87
g88
ssg76
g731
sg69
(lp738
g362
asbag62
(g83
g64
NtRp739
(dp740
g67
(dp741
g94
g95
ssg76
g731
sg69
(lp742
S':'
asbag62
(g83
g64
NtRp743
(dp744
g67
(dp745
sg76
g731
sg69
(lp746
g62
(g63
g64
NtRp747
(dp748
g67
(dp749
g75
I3
ssg76
g743
sg69
(lp750
S''
asbasbasbag62
(g78
g64
NtRp751
(dp752
g67
(dp753
sg76
g667
sg69
(lp754
g62
(g83
g64
NtRp755
(dp756
g67
(dp757
g87
g88
ssg76
g751
sg69
(lp758
g383
asbag62
(g83
g64
NtRp759
(dp760
g67
(dp761
g94
g95
ssg76
g751
sg69
(lp762
S':'
asbag62
(g83
g64
NtRp763
(dp764
g67
(dp765
sg76
g751
sg69
(lp766
g62
(g63
g64
NtRp767
(dp768
g67
(dp769
g75
I3
ssg76
g763
sg69
(lp770
S''
asbasbasbag62
(g78
g64
NtRp771
(dp772
g67
(dp773
sg76
g667
sg69
(lp774
g62
(g83
g64
NtRp775
(dp776
g67
(dp777
g87
g88
ssg76
g771
sg69
(lp778
g404
asbag62
(g83
g64
NtRp779
(dp780
g67
(dp781
g94
g95
ssg76
g771
sg69
(lp782
S':'
asbag62
(g83
g64
NtRp783
(dp784
g67
(dp785
sg76
g771
sg69
(lp786
g62
(g63
g64
NtRp787
(dp788
g67
(dp789
g75
I3
ssg76
g783
sg69
(lp790
S''
asbasbasbag62
(g78
g64
NtRp791
(dp792
g67
(dp793
sg76
g667
sg69
(lp794
g62
(g83
g64
NtRp795
(dp796
g67
(dp797
g87
g88
ssg76
g791
sg69
(lp798
g425
asbag62
(g83
g64
NtRp799
(dp800
g67
(dp801
g94
g95
ssg76
g791
sg69
(lp802
S':'
asbag62
(g83
g64
NtRp803
(dp804
g67
(dp805
sg76
g791
sg69
(lp806
g62
(g63
g64
NtRp807
(dp808
g67
(dp809
g75
I3
ssg76
g803
sg69
(lp810
S''
asbasbasbag62
(g78
g64
NtRp811
(dp812
g67
(dp813
sg76
g667
sg69
(lp814
g62
(g83
g64
NtRp815
(dp816
g67
(dp817
g87
g88
ssg76
g811
sg69
(lp818
g446
asbag62
(g83
g64
NtRp819
(dp820
g67
(dp821
g94
g95
ssg76
g811
sg69
(lp822
S':'
asbag62
(g83
g64
NtRp823
(dp824
g67
(dp825
sg76
g811
sg69
(lp826
g62
(g63
g64
NtRp827
(dp828
g67
(dp829
g75
I3
ssg76
g823
sg69
(lp830
S''
asbasbasbasbasbasbasbasbasbasbasbag62
(g78
g64
NtRp831
(dp832
g67
(dp833
sg76
g72
sg69
(lp834
g62
(g83
g64
NtRp835
(dp836
g67
(dp837
g87
g88
ssg76
g831
sg69
(lp838
S'env'
p839
asbag62
(g83
g64
NtRp840
(dp841
g67
(dp842
g94
g95
ssg76
g831
sg69
(lp843
S':'
asbag62
(g83
g64
NtRp844
(dp845
g67
(dp846
sg76
g831
sg69
(lp847
g62
(g63
g64
NtRp848
(dp849
g67
(dp850
g75
I5
ssg76
g844
sg69
(lp851
g62
(g71
g64
NtRp852
(dp853
g67
(dp854
g75
I4
ssg76
Nsg69
(lp855
g62
(g78
g64
NtRp856
(dp857
g67
(dp858
sg76
g852
sg69
(lp859
g62
(g83
g64
NtRp860
(dp861
g67
(dp862
g87
g88
ssg76
g856
sg69
(lp863
S'app_folders'
p864
asbag62
(g83
g64
NtRp865
(dp866
g67
(dp867
g94
g95
ssg76
g856
sg69
(lp868
S':'
asbag62
(g83
g64
NtRp869
(dp870
g67
(dp871
sg76
g856
sg69
(lp872
g62
(g63
g64
NtRp873
(dp874
g67
(dp875
g75
I4
ssg76
g869
sg69
(lp876
S"set(['/home/mayank/Desktop/web2pyAdmin/web2py/web2py/applications/welcome/', '/home/mayank/Desktop/web2pyAdmin/web2py/web2py/applications/admin/', '/home/mayank/Desktop/web2pyAdmin/web2py/web2py/applications/FunkLoad/'])"
p877
asbasbasbag62
(g78
g64
NtRp878
(dp879
g67
(dp880
sg76
g852
sg69
(lp881
g62
(g83
g64
NtRp882
(dp883
g67
(dp884
g87
g88
ssg76
g878
sg69
(lp885
S'applications_parent'
p886
asbag62
(g83
g64
NtRp887
(dp888
g67
(dp889
g94
g95
ssg76
g878
sg69
(lp890
S':'
asbag62
(g83
g64
NtRp891
(dp892
g67
(dp893
sg76
g878
sg69
(lp894
g62
(g63
g64
NtRp895
(dp896
g67
(dp897
g75
I4
ssg76
g891
sg69
(lp898
S'/home/mayank/Desktop/web2pyAdmin/web2py/web2py'
p899
asbasbasbag62
(g78
g64
NtRp900
(dp901
g67
(dp902
sg76
g852
sg69
(lp903
g62
(g83
g64
NtRp904
(dp905
g67
(dp906
g87
g88
ssg76
g900
sg69
(lp907
S'cmd_args'
p908
asbag62
(g83
g64
NtRp909
(dp910
g67
(dp911
g94
g95
ssg76
g900
sg69
(lp912
S':'
asbag62
(g83
g64
NtRp913
(dp914
g67
(dp915
sg76
g900
sg69
(lp916
g62
(g63
g64
NtRp917
(dp918
g67
(dp919
g75
I4
ssg76
g913
sg69
(lp920
g62
(g71
g64
NtRp921
(dp922
g67
(dp923
g75
I3
ssg76
Nsg69
(lp924
sbasbasbasbag62
(g78
g64
NtRp925
(dp926
g67
(dp927
sg76
g852
sg69
(lp928
g62
(g83
g64
NtRp929
(dp930
g67
(dp931
g87
g88
ssg76
g925
sg69
(lp932
S'cmd_options'
p933
asbag62
(g83
g64
NtRp934
(dp935
g67
(dp936
g94
g95
ssg76
g925
sg69
(lp937
S':'
asbag62
(g83
g64
NtRp938
(dp939
g67
(dp940
sg76
g925
sg69
(lp941
g62
(g63
g64
NtRp942
(dp943
g67
(dp944
g75
I4
ssg76
g938
sg69
(lp945
S"<Values at 0x2bfd9e0: {'verbose': False, 'ip': '10.1.33.107', 'with_scheduler': False, 'ips': ['127.0.1.1', '10.1.33.121'], 'shutdown_timeout': 5, 'taskbar': False, 'port': 8000, 'maxthreads': None, 'softcron': False, 'server_name': 'mayank', 'bpython': False, 'nogui': False, 'nocron': False, 'extcron': False, 'run_system_tests': False, 'test': None, 'folder': '/home/mayank/Desktop/web2pyAdmin/web2py/web2py', 'config': '', 'import_models': False, 'winservice': '', 'shell': None, 'run': '', 'log_filename': 'httpserver.log', 'debuglevel': 30, 'args': [''], 'socket_timeout': 5, 'ssl_ca_certificate': None, 'scheduler': None, 'profiler_filename': None, 'ssl_private_key': '', 'scheduler_groups': None, 'password': '<ask>', 'request_queue_size': 5, 'ssl_certificate': '', 'cronjob': False, 'numthreads': None, 'quiet': False, 'interfaces': None, 'minthreads': None, 'timeout': 10, 'plain': False, 'nobanner': False, 'pid_filename': 'httpserver.pid'}>"
p946
asbasbasbag62
(g78
g64
NtRp947
(dp948
g67
(dp949
sg76
g852
sg69
(lp950
g62
(g83
g64
NtRp951
(dp952
g67
(dp953
g87
g88
ssg76
g947
sg69
(lp954
S'db_sessions'
p955
asbag62
(g83
g64
NtRp956
(dp957
g67
(dp958
g94
g95
ssg76
g947
sg69
(lp959
S':'
asbag62
(g83
g64
NtRp960
(dp961
g67
(dp962
sg76
g947
sg69
(lp963
g62
(g63
g64
NtRp964
(dp965
g67
(dp966
g75
I4
ssg76
g960
sg69
(lp967
S'set([])'
p968
asbasbasbag62
(g78
g64
NtRp969
(dp970
g67
(dp971
sg76
g852
sg69
(lp972
g62
(g83
g64
NtRp973
(dp974
g67
(dp975
g87
g88
ssg76
g969
sg69
(lp976
S'debugging'
p977
asbag62
(g83
g64
NtRp978
(dp979
g67
(dp980
g94
g95
ssg76
g969
sg69
(lp981
S':'
asbag62
(g83
g64
NtRp982
(dp983
g67
(dp984
sg76
g969
sg69
(lp985
g62
(g63
g64
NtRp986
(dp987
g67
(dp988
g75
I4
ssg76
g982
sg69
(lp989
g105
asbasbasbag62
(g78
g64
NtRp990
(dp991
g67
(dp992
sg76
g852
sg69
(lp993
g62
(g83
g64
NtRp994
(dp995
g67
(dp996
g87
g88
ssg76
g990
sg69
(lp997
S'gluon_parent'
p998
asbag62
(g83
g64
NtRp999
(dp1000
g67
(dp1001
g94
g95
ssg76
g990
sg69
(lp1002
S':'
asbag62
(g83
g64
NtRp1003
(dp1004
g67
(dp1005
sg76
g990
sg69
(lp1006
g62
(g63
g64
NtRp1007
(dp1008
g67
(dp1009
g75
I4
ssg76
g1003
sg69
(lp1010
S'/home/mayank/Desktop/web2pyAdmin/web2py/web2py'
p1011
asbasbasbag62
(g78
g64
NtRp1012
(dp1013
g67
(dp1014
sg76
g852
sg69
(lp1015
g62
(g83
g64
NtRp1016
(dp1017
g67
(dp1018
g87
g88
ssg76
g1012
sg69
(lp1019
S'http_accept'
p1020
asbag62
(g83
g64
NtRp1021
(dp1022
g67
(dp1023
g94
g95
ssg76
g1012
sg69
(lp1024
S':'
asbag62
(g83
g64
NtRp1025
(dp1026
g67
(dp1027
sg76
g1012
sg69
(lp1028
g62
(g63
g64
NtRp1029
(dp1030
g67
(dp1031
g75
I4
ssg76
g1025
sg69
(lp1032
S'text/html,application/xhtml+xml,application/xml;q=0.9,image/webp,*/*;q=0.8'
p1033
asbasbasbag62
(g78
g64
NtRp1034
(dp1035
g67
(dp1036
sg76
g852
sg69
(lp1037
g62
(g83
g64
NtRp1038
(dp1039
g67
(dp1040
g87
g88
ssg76
g1034
sg69
(lp1041
S'http_accept_encoding'
p1042
asbag62
(g83
g64
NtRp1043
(dp1044
g67
(dp1045
g94
g95
ssg76
g1034
sg69
(lp1046
S':'
asbag62
(g83
g64
NtRp1047
(dp1048
g67
(dp1049
sg76
g1034
sg69
(lp1050
g62
(g63
g64
NtRp1051
(dp1052
g67
(dp1053
g75
I4
ssg76
g1047
sg69
(lp1054
S'gzip,deflate,sdch'
p1055
asbasbasbag62
(g78
g64
NtRp1056
(dp1057
g67
(dp1058
sg76
g852
sg69
(lp1059
g62
(g83
g64
NtRp1060
(dp1061
g67
(dp1062
g87
g88
ssg76
g1056
sg69
(lp1063
S'http_accept_language'
p1064
asbag62
(g83
g64
NtRp1065
(dp1066
g67
(dp1067
g94
g95
ssg76
g1056
sg69
(lp1068
S':'
asbag62
(g83
g64
NtRp1069
(dp1070
g67
(dp1071
sg76
g1056
sg69
(lp1072
g62
(g63
g64
NtRp1073
(dp1074
g67
(dp1075
g75
I4
ssg76
g1069
sg69
(lp1076
S'en-US,en;q=0.8'
p1077
asbasbasbag62
(g78
g64
NtRp1078
(dp1079
g67
(dp1080
sg76
g852
sg69
(lp1081
g62
(g83
g64
NtRp1082
(dp1083
g67
(dp1084
g87
g88
ssg76
g1078
sg69
(lp1085
S'http_connection'
p1086
asbag62
(g83
g64
NtRp1087
(dp1088
g67
(dp1089
g94
g95
ssg76
g1078
sg69
(lp1090
S':'
asbag62
(g83
g64
NtRp1091
(dp1092
g67
(dp1093
sg76
g1078
sg69
(lp1094
g62
(g63
g64
NtRp1095
(dp1096
g67
(dp1097
g75
I4
ssg76
g1091
sg69
(lp1098
S'keep-alive'
p1099
asbasbasbag62
(g78
g64
NtRp1100
(dp1101
g67
(dp1102
sg76
g852
sg69
(lp1103
g62
(g83
g64
NtRp1104
(dp1105
g67
(dp1106
g87
g88
ssg76
g1100
sg69
(lp1107
S'http_cookie'
p1108
asbag62
(g83
g64
NtRp1109
(dp1110
g67
(dp1111
g94
g95
ssg76
g1100
sg69
(lp1112
S':'
asbag62
(g83
g64
NtRp1113
(dp1114
g67
(dp1115
sg76
g1100
sg69
(lp1116
g62
(g63
g64
NtRp1117
(dp1118
g67
(dp1119
g75
I4
ssg76
g1113
sg69
(lp1120
S'session_id_welcome=10.1.33.107-c50187d4-7446-40e0-9eea-8071c640ac0b; session_id_admin=10.1.33.107-cc833ea9-972a-468c-9599-25843d70bea7; session_id_funkload=10.1.33.107-36ba3c88-7bcb-4a0e-bb0a-8936efb689ab'
p1121
asbasbasbag62
(g78
g64
NtRp1122
(dp1123
g67
(dp1124
sg76
g852
sg69
(lp1125
g62
(g83
g64
NtRp1126
(dp1127
g67
(dp1128
g87
g88
ssg76
g1122
sg69
(lp1129
S'http_host'
p1130
asbag62
(g83
g64
NtRp1131
(dp1132
g67
(dp1133
g94
g95
ssg76
g1122
sg69
(lp1134
S':'
asbag62
(g83
g64
NtRp1135
(dp1136
g67
(dp1137
sg76
g1122
sg69
(lp1138
g62
(g63
g64
NtRp1139
(dp1140
g67
(dp1141
g75
I4
ssg76
g1135
sg69
(lp1142
S'10.1.33.107:8000'
p1143
asbasbasbag62
(g78
g64
NtRp1144
(dp1145
g67
(dp1146
sg76
g852
sg69
(lp1147
g62
(g83
g64
NtRp1148
(dp1149
g67
(dp1150
g87
g88
ssg76
g1144
sg69
(lp1151
S'http_referer'
p1152
asbag62
(g83
g64
NtRp1153
(dp1154
g67
(dp1155
g94
g95
ssg76
g1144
sg69
(lp1156
S':'
asbag62
(g83
g64
NtRp1157
(dp1158
g67
(dp1159
sg76
g1144
sg69
(lp1160
g62
(g63
g64
NtRp1161
(dp1162
g67
(dp1163
g75
I4
ssg76
g1157
sg69
(lp1164
S'http://10.1.33.107:8000/FunkLoad/default/testDetails'
p1165
asbasbasbag62
(g78
g64
NtRp1166
(dp1167
g67
(dp1168
sg76
g852
sg69
(lp1169
g62
(g83
g64
NtRp1170
(dp1171
g67
(dp1172
g87
g88
ssg76
g1166
sg69
(lp1173
S'http_user_agent'
p1174
asbag62
(g83
g64
NtRp1175
(dp1176
g67
(dp1177
g94
g95
ssg76
g1166
sg69
(lp1178
S':'
asbag62
(g83
g64
NtRp1179
(dp1180
g67
(dp1181
sg76
g1166
sg69
(lp1182
g62
(g63
g64
NtRp1183
(dp1184
g67
(dp1185
g75
I4
ssg76
g1179
sg69
(lp1186
S'Mozilla/5.0 (X11; Linux x86_64) AppleWebKit/537.36 (KHTML, like Gecko) Chrome/30.0.1599.114 Safari/537.36'
p1187
asbasbasbag62
(g78
g64
NtRp1188
(dp1189
g67
(dp1190
sg76
g852
sg69
(lp1191
g62
(g83
g64
NtRp1192
(dp1193
g67
(dp1194
g87
g88
ssg76
g1188
sg69
(lp1195
S'is_jython'
p1196
asbag62
(g83
g64
NtRp1197
(dp1198
g67
(dp1199
g94
g95
ssg76
g1188
sg69
(lp1200
S':'
asbag62
(g83
g64
NtRp1201
(dp1202
g67
(dp1203
sg76
g1188
sg69
(lp1204
g62
(g63
g64
NtRp1205
(dp1206
g67
(dp1207
g75
I4
ssg76
g1201
sg69
(lp1208
g105
asbasbasbag62
(g78
g64
NtRp1209
(dp1210
g67
(dp1211
sg76
g852
sg69
(lp1212
g62
(g83
g64
NtRp1213
(dp1214
g67
(dp1215
g87
g88
ssg76
g1209
sg69
(lp1216
S'is_pypy'
p1217
asbag62
(g83
g64
NtRp1218
(dp1219
g67
(dp1220
g94
g95
ssg76
g1209
sg69
(lp1221
S':'
asbag62
(g83
g64
NtRp1222
(dp1223
g67
(dp1224
sg76
g1209
sg69
(lp1225
g62
(g63
g64
NtRp1226
(dp1227
g67
(dp1228
g75
I4
ssg76
g1222
sg69
(lp1229
g105
asbasbasbag62
(g78
g64
NtRp1230
(dp1231
g67
(dp1232
sg76
g852
sg69
(lp1233
g62
(g83
g64
NtRp1234
(dp1235
g67
(dp1236
g87
g88
ssg76
g1230
sg69
(lp1237
S'path_info'
p1238
asbag62
(g83
g64
NtRp1239
(dp1240
g67
(dp1241
g94
g95
ssg76
g1230
sg69
(lp1242
S':'
asbag62
(g83
g64
NtRp1243
(dp1244
g67
(dp1245
sg76
g1230
sg69
(lp1246
g62
(g63
g64
NtRp1247
(dp1248
g67
(dp1249
g75
I4
ssg76
g1243
sg69
(lp1250
S'/FunkLoad/default/testDetails'
p1251
asbasbasbag62
(g78
g64
NtRp1252
(dp1253
g67
(dp1254
sg76
g852
sg69
(lp1255
g62
(g83
g64
NtRp1256
(dp1257
g67
(dp1258
g87
g88
ssg76
g1252
sg69
(lp1259
S'query_string'
p1260
asbag62
(g83
g64
NtRp1261
(dp1262
g67
(dp1263
g94
g95
ssg76
g1252
sg69
(lp1264
S':'
asbag62
(g83
g64
NtRp1265
(dp1266
g67
(dp1267
sg76
g1252
sg69
(lp1268
g62
(g63
g64
NtRp1269
(dp1270
g67
(dp1271
g75
I4
ssg76
g1265
sg69
(lp1272
S''
asbasbasbag62
(g78
g64
NtRp1273
(dp1274
g67
(dp1275
sg76
g852
sg69
(lp1276
g62
(g83
g64
NtRp1277
(dp1278
g67
(dp1279
g87
g88
ssg76
g1273
sg69
(lp1280
S'remote_addr'
p1281
asbag62
(g83
g64
NtRp1282
(dp1283
g67
(dp1284
g94
g95
ssg76
g1273
sg69
(lp1285
S':'
asbag62
(g83
g64
NtRp1286
(dp1287
g67
(dp1288
sg76
g1273
sg69
(lp1289
g62
(g63
g64
NtRp1290
(dp1291
g67
(dp1292
g75
I4
ssg76
g1286
sg69
(lp1293
g217
asbasbasbag62
(g78
g64
NtRp1294
(dp1295
g67
(dp1296
sg76
g852
sg69
(lp1297
g62
(g83
g64
NtRp1298
(dp1299
g67
(dp1300
g87
g88
ssg76
g1294
sg69
(lp1301
S'remote_port'
p1302
asbag62
(g83
g64
NtRp1303
(dp1304
g67
(dp1305
g94
g95
ssg76
g1294
sg69
(lp1306
S':'
asbag62
(g83
g64
NtRp1307
(dp1308
g67
(dp1309
sg76
g1294
sg69
(lp1310
g62
(g63
g64
NtRp1311
(dp1312
g67
(dp1313
g75
I4
ssg76
g1307
sg69
(lp1314
S'58208'
p1315
asbasbasbag62
(g78
g64
NtRp1316
(dp1317
g67
(dp1318
sg76
g852
sg69
(lp1319
g62
(g83
g64
NtRp1320
(dp1321
g67
(dp1322
g87
g88
ssg76
g1316
sg69
(lp1323
S'request_method'
p1324
asbag62
(g83
g64
NtRp1325
(dp1326
g67
(dp1327
g94
g95
ssg76
g1316
sg69
(lp1328
S':'
asbag62
(g83
g64
NtRp1329
(dp1330
g67
(dp1331
sg76
g1316
sg69
(lp1332
g62
(g63
g64
NtRp1333
(dp1334
g67
(dp1335
g75
I4
ssg76
g1329
sg69
(lp1336
S'GET'
p1337
asbasbasbag62
(g78
g64
NtRp1338
(dp1339
g67
(dp1340
sg76
g852
sg69
(lp1341
g62
(g83
g64
NtRp1342
(dp1343
g67
(dp1344
g87
g88
ssg76
g1338
sg69
(lp1345
S'request_uri'
p1346
asbag62
(g83
g64
NtRp1347
(dp1348
g67
(dp1349
g94
g95
ssg76
g1338
sg69
(lp1350
S':'
asbag62
(g83
g64
NtRp1351
(dp1352
g67
(dp1353
sg76
g1338
sg69
(lp1354
g62
(g63
g64
NtRp1355
(dp1356
g67
(dp1357
g75
I4
ssg76
g1351
sg69
(lp1358
g1251
asbasbasbag62
(g78
g64
NtRp1359
(dp1360
g67
(dp1361
sg76
g852
sg69
(lp1362
g62
(g83
g64
NtRp1363
(dp1364
g67
(dp1365
g87
g88
ssg76
g1359
sg69
(lp1366
S'script_name'
p1367
asbag62
(g83
g64
NtRp1368
(dp1369
g67
(dp1370
g94
g95
ssg76
g1359
sg69
(lp1371
S':'
asbag62
(g83
g64
NtRp1372
(dp1373
g67
(dp1374
sg76
g1359
sg69
(lp1375
g62
(g63
g64
NtRp1376
(dp1377
g67
(dp1378
g75
I4
ssg76
g1372
sg69
(lp1379
S''
asbasbasbag62
(g78
g64
NtRp1380
(dp1381
g67
(dp1382
sg76
g852
sg69
(lp1383
g62
(g83
g64
NtRp1384
(dp1385
g67
(dp1386
g87
g88
ssg76
g1380
sg69
(lp1387
S'server_name'
p1388
asbag62
(g83
g64
NtRp1389
(dp1390
g67
(dp1391
g94
g95
ssg76
g1380
sg69
(lp1392
S':'
asbag62
(g83
g64
NtRp1393
(dp1394
g67
(dp1395
sg76
g1380
sg69
(lp1396
g62
(g63
g64
NtRp1397
(dp1398
g67
(dp1399
g75
I4
ssg76
g1393
sg69
(lp1400
S'mayank'
p1401
asbasbasbag62
(g78
g64
NtRp1402
(dp1403
g67
(dp1404
sg76
g852
sg69
(lp1405
g62
(g83
g64
NtRp1406
(dp1407
g67
(dp1408
g87
g88
ssg76
g1402
sg69
(lp1409
S'server_port'
p1410
asbag62
(g83
g64
NtRp1411
(dp1412
g67
(dp1413
g94
g95
ssg76
g1402
sg69
(lp1414
S':'
asbag62
(g83
g64
NtRp1415
(dp1416
g67
(dp1417
sg76
g1402
sg69
(lp1418
g62
(g63
g64
NtRp1419
(dp1420
g67
(dp1421
g75
I4
ssg76
g1415
sg69
(lp1422
S'8000'
p1423
asbasbasbag62
(g78
g64
NtRp1424
(dp1425
g67
(dp1426
sg76
g852
sg69
(lp1427
g62
(g83
g64
NtRp1428
(dp1429
g67
(dp1430
g87
g88
ssg76
g1424
sg69
(lp1431
S'server_protocol'
p1432
asbag62
(g83
g64
NtRp1433
(dp1434
g67
(dp1435
g94
g95
ssg76
g1424
sg69
(lp1436
S':'
asbag62
(g83
g64
NtRp1437
(dp1438
g67
(dp1439
sg76
g1424
sg69
(lp1440
g62
(g63
g64
NtRp1441
(dp1442
g67
(dp1443
g75
I4
ssg76
g1437
sg69
(lp1444
S'HTTP/1.1'
p1445
asbasbasbag62
(g78
g64
NtRp1446
(dp1447
g67
(dp1448
sg76
g852
sg69
(lp1449
g62
(g83
g64
NtRp1450
(dp1451
g67
(dp1452
g87
g88
ssg76
g1446
sg69
(lp1453
S'server_software'
p1454
asbag62
(g83
g64
NtRp1455
(dp1456
g67
(dp1457
g94
g95
ssg76
g1446
sg69
(lp1458
S':'
asbag62
(g83
g64
NtRp1459
(dp1460
g67
(dp1461
sg76
g1446
sg69
(lp1462
g62
(g63
g64
NtRp1463
(dp1464
g67
(dp1465
g75
I4
ssg76
g1459
sg69
(lp1466
S'Rocket 1.2.4'
p1467
asbasbasbag62
(g78
g64
NtRp1468
(dp1469
g67
(dp1470
sg76
g852
sg69
(lp1471
g62
(g83
g64
NtRp1472
(dp1473
g67
(dp1474
g87
g88
ssg76
g1468
sg69
(lp1475
S'web2py_crontype'
p1476
asbag62
(g83
g64
NtRp1477
(dp1478
g67
(dp1479
g94
g95
ssg76
g1468
sg69
(lp1480
S':'
asbag62
(g83
g64
NtRp1481
(dp1482
g67
(dp1483
sg76
g1468
sg69
(lp1484
g62
(g63
g64
NtRp1485
(dp1486
g67
(dp1487
g75
I4
ssg76
g1481
sg69
(lp1488
S'hard'
p1489
asbasbasbag62
(g78
g64
NtRp1490
(dp1491
g67
(dp1492
sg76
g852
sg69
(lp1493
g62
(g83
g64
NtRp1494
(dp1495
g67
(dp1496
g87
g88
ssg76
g1490
sg69
(lp1497
S'web2py_path'
p1498
asbag62
(g83
g64
NtRp1499
(dp1500
g67
(dp1501
g94
g95
ssg76
g1490
sg69
(lp1502
S':'
asbag62
(g83
g64
NtRp1503
(dp1504
g67
(dp1505
sg76
g1490
sg69
(lp1506
g62
(g63
g64
NtRp1507
(dp1508
g67
(dp1509
g75
I4
ssg76
g1503
sg69
(lp1510
g899
asbasbasbag62
(g78
g64
NtRp1511
(dp1512
g67
(dp1513
sg76
g852
sg69
(lp1514
g62
(g83
g64
NtRp1515
(dp1516
g67
(dp1517
g87
g88
ssg76
g1511
sg69
(lp1518
S'web2py_version'
p1519
asbag62
(g83
g64
NtRp1520
(dp1521
g67
(dp1522
g94
g95
ssg76
g1511
sg69
(lp1523
S':'
asbag62
(g83
g64
NtRp1524
(dp1525
g67
(dp1526
sg76
g1511
sg69
(lp1527
g62
(g63
g64
NtRp1528
(dp1529
g67
(dp1530
g75
I4
ssg76
g1524
sg69
(lp1531
g62
(g71
g64
NtRp1532
(dp1533
g67
(dp1534
g75
I3
ssg76
Nsg69
(lp1535
g62
(g78
g64
NtRp1536
(dp1537
g67
(dp1538
sg76
g1532
sg69
(lp1539
g62
(g83
g64
NtRp1540
(dp1541
g67
(dp1542
sg76
g1536
sg69
(lp1543
g62
(g63
g64
NtRp1544
(dp1545
g67
(dp1546
g75
I3
ssg76
g1540
sg69
(lp1547
S'2'
asbasbasbag62
(g78
g64
NtRp1548
(dp1549
g67
(dp1550
sg76
g1532
sg69
(lp1551
g62
(g83
g64
NtRp1552
(dp1553
g67
(dp1554
sg76
g1548
sg69
(lp1555
g62
(g63
g64
NtRp1556
(dp1557
g67
(dp1558
g75
I3
ssg76
g1552
sg69
(lp1559
S'0'
asbasbasbag62
(g78
g64
NtRp1560
(dp1561
g67
(dp1562
sg76
g1532
sg69
(lp1563
g62
(g83
g64
NtRp1564
(dp1565
g67
(dp1566
sg76
g1560
sg69
(lp1567
g62
(g63
g64
NtRp1568
(dp1569
g67
(dp1570
g75
I3
ssg76
g1564
sg69
(lp1571
S'8'
asbasbasbag62
(g78
g64
NtRp1572
(dp1573
g67
(dp1574
sg76
g1532
sg69
(lp1575
g62
(g83
g64
NtRp1576
(dp1577
g67
(dp1578
sg76
g1572
sg69
(lp1579
g62
(g63
g64
NtRp1580
(dp1581
g67
(dp1582
g75
I3
ssg76
g1576
sg69
(lp1583
S'datetime.datetime(2012, 9, 7, 3, 47, 51)'
p1584
asbasbasbag62
(g78
g64
NtRp1585
(dp1586
g67
(dp1587
sg76
g1532
sg69
(lp1588
g62
(g83
g64
NtRp1589
(dp1590
g67
(dp1591
sg76
g1585
sg69
(lp1592
g62
(g63
g64
NtRp1593
(dp1594
g67
(dp1595
g75
I3
ssg76
g1589
sg69
(lp1596
S'stable'
p1597
asbasbasbasbasbasbasbag62
(g78
g64
NtRp1598
(dp1599
g67
(dp1600
sg76
g852
sg69
(lp1601
g62
(g83
g64
NtRp1602
(dp1603
g67
(dp1604
g87
g88
ssg76
g1598
sg69
(lp1605
S'wsgi_errors'
p1606
asbag62
(g83
g64
NtRp1607
(dp1608
g67
(dp1609
g94
g95
ssg76
g1598
sg69
(lp1610
S':'
asbag62
(g83
g64
NtRp1611
(dp1612
g67
(dp1613
sg76
g1598
sg69
(lp1614
g62
(g63
g64
NtRp1615
(dp1616
g67
(dp1617
g75
I4
ssg76
g1611
sg69
(lp1618
S"<open file '<stderr>', mode 'w' at 0x7f7b39bf91e0>"
p1619
asbasbasbag62
(g78
g64
NtRp1620
(dp1621
g67
(dp1622
sg76
g852
sg69
(lp1623
g62
(g83
g64
NtRp1624
(dp1625
g67
(dp1626
g87
g88
ssg76
g1620
sg69
(lp1627
S'wsgi_file_wrapper'
p1628
asbag62
(g83
g64
NtRp1629
(dp1630
g67
(dp1631
g94
g95
ssg76
g1620
sg69
(lp1632
S':'
asbag62
(g83
g64
NtRp1633
(dp1634
g67
(dp1635
sg76
g1620
sg69
(lp1636
g62
(g63
g64
NtRp1637
(dp1638
g67
(dp1639
g75
I4
ssg76
g1633
sg69
(lp1640
S'<class wsgiref.util.FileWrapper at 0x2756f58>'
p1641
asbasbasbag62
(g78
g64
NtRp1642
(dp1643
g67
(dp1644
sg76
g852
sg69
(lp1645
g62
(g83
g64
NtRp1646
(dp1647
g67
(dp1648
g87
g88
ssg76
g1642
sg69
(lp1649
S'wsgi_input'
p1650
asbag62
(g83
g64
NtRp1651
(dp1652
g67
(dp1653
g94
g95
ssg76
g1642
sg69
(lp1654
S':'
asbag62
(g83
g64
NtRp1655
(dp1656
g67
(dp1657
sg76
g1642
sg69
(lp1658
g62
(g63
g64
NtRp1659
(dp1660
g67
(dp1661
g75
I4
ssg76
g1655
sg69
(lp1662
S'<socket._fileobject object at 0x7f7a5433dbd0>'
p1663
asbasbasbag62
(g78
g64
NtRp1664
(dp1665
g67
(dp1666
sg76
g852
sg69
(lp1667
g62
(g83
g64
NtRp1668
(dp1669
g67
(dp1670
g87
g88
ssg76
g1664
sg69
(lp1671
S'wsgi_multiprocess'
p1672
asbag62
(g83
g64
NtRp1673
(dp1674
g67
(dp1675
g94
g95
ssg76
g1664
sg69
(lp1676
S':'
asbag62
(g83
g64
NtRp1677
(dp1678
g67
(dp1679
sg76
g1664
sg69
(lp1680
g62
(g63
g64
NtRp1681
(dp1682
g67
(dp1683
g75
I4
ssg76
g1677
sg69
(lp1684
g105
asbasbasbag62
(g78
g64
NtRp1685
(dp1686
g67
(dp1687
sg76
g852
sg69
(lp1688
g62
(g83
g64
NtRp1689
(dp1690
g67
(dp1691
g87
g88
ssg76
g1685
sg69
(lp1692
S'wsgi_multithread'
p1693
asbag62
(g83
g64
NtRp1694
(dp1695
g67
(dp1696
g94
g95
ssg76
g1685
sg69
(lp1697
S':'
asbag62
(g83
g64
NtRp1698
(dp1699
g67
(dp1700
sg76
g1685
sg69
(lp1701
g62
(g63
g64
NtRp1702
(dp1703
g67
(dp1704
g75
I4
ssg76
g1698
sg69
(lp1705
S'True'
p1706
asbasbasbag62
(g78
g64
NtRp1707
(dp1708
g67
(dp1709
sg76
g852
sg69
(lp1710
g62
(g83
g64
NtRp1711
(dp1712
g67
(dp1713
g87
g88
ssg76
g1707
sg69
(lp1714
S'wsgi_run_once'
p1715
asbag62
(g83
g64
NtRp1716
(dp1717
g67
(dp1718
g94
g95
ssg76
g1707
sg69
(lp1719
S':'
asbag62
(g83
g64
NtRp1720
(dp1721
g67
(dp1722
sg76
g1707
sg69
(lp1723
g62
(g63
g64
NtRp1724
(dp1725
g67
(dp1726
g75
I4
ssg76
g1720
sg69
(lp1727
g105
asbasbasbag62
(g78
g64
NtRp1728
(dp1729
g67
(dp1730
sg76
g852
sg69
(lp1731
g62
(g83
g64
NtRp1732
(dp1733
g67
(dp1734
g87
g88
ssg76
g1728
sg69
(lp1735
S'wsgi_url_scheme'
p1736
asbag62
(g83
g64
NtRp1737
(dp1738
g67
(dp1739
g94
g95
ssg76
g1728
sg69
(lp1740
S':'
asbag62
(g83
g64
NtRp1741
(dp1742
g67
(dp1743
sg76
g1728
sg69
(lp1744
g62
(g63
g64
NtRp1745
(dp1746
g67
(dp1747
g75
I4
ssg76
g1741
sg69
(lp1748
S'http'
p1749
asbasbasbag62
(g78
g64
NtRp1750
(dp1751
g67
(dp1752
sg76
g852
sg69
(lp1753
g62
(g83
g64
NtRp1754
(dp1755
g67
(dp1756
g87
g88
ssg76
g1750
sg69
(lp1757
S'wsgi_version'
p1758
asbag62
(g83
g64
NtRp1759
(dp1760
g67
(dp1761
g94
g95
ssg76
g1750
sg69
(lp1762
S':'
asbag62
(g83
g64
NtRp1763
(dp1764
g67
(dp1765
sg76
g1750
sg69
(lp1766
g62
(g63
g64
NtRp1767
(dp1768
g67
(dp1769
g75
I4
ssg76
g1763
sg69
(lp1770
g62
(g71
g64
NtRp1771
(dp1772
g67
(dp1773
g75
I3
ssg76
Nsg69
(lp1774
g62
(g78
g64
NtRp1775
(dp1776
g67
(dp1777
sg76
g1771
sg69
(lp1778
g62
(g83
g64
NtRp1779
(dp1780
g67
(dp1781
sg76
g1775
sg69
(lp1782
g62
(g63
g64
NtRp1783
(dp1784
g67
(dp1785
g75
I3
ssg76
g1779
sg69
(lp1786
S'1'
asbasbasbag62
(g78
g64
NtRp1787
(dp1788
g67
(dp1789
sg76
g1771
sg69
(lp1790
g62
(g83
g64
NtRp1791
(dp1792
g67
(dp1793
sg76
g1787
sg69
(lp1794
g62
(g63
g64
NtRp1795
(dp1796
g67
(dp1797
g75
I3
ssg76
g1791
sg69
(lp1798
S'0'
asbasbasbasbasbasbasbasbasbasbasbag62
(g78
g64
NtRp1799
(dp1800
g67
(dp1801
sg76
g72
sg69
(lp1802
g62
(g83
g64
NtRp1803
(dp1804
g67
(dp1805
g87
g88
ssg76
g1799
sg69
(lp1806
S'extension'
p1807
asbag62
(g83
g64
NtRp1808
(dp1809
g67
(dp1810
g94
g95
ssg76
g1799
sg69
(lp1811
S':'
asbag62
(g83
g64
NtRp1812
(dp1813
g67
(dp1814
sg76
g1799
sg69
(lp1815
g62
(g63
g64
NtRp1816
(dp1817
g67
(dp1818
g75
I5
ssg76
g1812
sg69
(lp1819
S'html'
p1820
asbasbasbag62
(g78
g64
NtRp1821
(dp1822
g67
(dp1823
sg76
g72
sg69
(lp1824
g62
(g83
g64
NtRp1825
(dp1826
g67
(dp1827
g87
g88
ssg76
g1821
sg69
(lp1828
S'folder'
p1829
asbag62
(g83
g64
NtRp1830
(dp1831
g67
(dp1832
g94
g95
ssg76
g1821
sg69
(lp1833
S':'
asbag62
(g83
g64
NtRp1834
(dp1835
g67
(dp1836
sg76
g1821
sg69
(lp1837
g62
(g63
g64
NtRp1838
(dp1839
g67
(dp1840
g75
I5
ssg76
g1834
sg69
(lp1841
S'/home/mayank/Desktop/web2pyAdmin/web2py/web2py/applications/FunkLoad/'
p1842
asbasbasbag62
(g78
g64
NtRp1843
(dp1844
g67
(dp1845
sg76
g72
sg69
(lp1846
g62
(g83
g64
NtRp1847
(dp1848
g67
(dp1849
g87
g88
ssg76
g1843
sg69
(lp1850
S'function'
p1851
asbag62
(g83
g64
NtRp1852
(dp1853
g67
(dp1854
g94
g95
ssg76
g1843
sg69
(lp1855
S':'
asbag62
(g83
g64
NtRp1856
(dp1857
g67
(dp1858
sg76
g1843
sg69
(lp1859
g62
(g63
g64
NtRp1860
(dp1861
g67
(dp1862
g75
I5
ssg76
g1856
sg69
(lp1863
S'testDetails'
p1864
asbasbasbag62
(g78
g64
NtRp1865
(dp1866
g67
(dp1867
sg76
g72
sg69
(lp1868
g62
(g83
g64
NtRp1869
(dp1870
g67
(dp1871
g87
g88
ssg76
g1865
sg69
(lp1872
S'get_vars'
p1873
asbag62
(g83
g64
NtRp1874
(dp1875
g67
(dp1876
g94
g95
ssg76
g1865
sg69
(lp1877
S':'
asbag62
(g83
g64
NtRp1878
(dp1879
g67
(dp1880
sg76
g1865
sg69
(lp1881
g62
(g63
g64
NtRp1882
(dp1883
g67
(dp1884
g75
I5
ssg76
g1878
sg69
(lp1885
g62
(g71
g64
NtRp1886
(dp1887
g67
(dp1888
g75
I4
ssg76
Nsg69
(lp1889
sbasbasbasbag62
(g78
g64
NtRp1890
(dp1891
g67
(dp1892
sg76
g72
sg69
(lp1893
g62
(g83
g64
NtRp1894
(dp1895
g67
(dp1896
g87
g88
ssg76
g1890
sg69
(lp1897
S'global_settings'
p1898
asbag62
(g83
g64
NtRp1899
(dp1900
g67
(dp1901
g94
g95
ssg76
g1890
sg69
(lp1902
S':'
asbag62
(g83
g64
NtRp1903
(dp1904
g67
(dp1905
sg76
g1890
sg69
(lp1906
g62
(g63
g64
NtRp1907
(dp1908
g67
(dp1909
g75
I5
ssg76
g1903
sg69
(lp1910
g62
(g71
g64
NtRp1911
(dp1912
g67
(dp1913
g75
I4
ssg76
Nsg69
(lp1914
g62
(g78
g64
NtRp1915
(dp1916
g67
(dp1917
sg76
g1911
sg69
(lp1918
g62
(g83
g64
NtRp1919
(dp1920
g67
(dp1921
g87
g88
ssg76
g1915
sg69
(lp1922
g864
asbag62
(g83
g64
NtRp1923
(dp1924
g67
(dp1925
g94
g95
ssg76
g1915
sg69
(lp1926
S':'
asbag62
(g83
g64
NtRp1927
(dp1928
g67
(dp1929
sg76
g1915
sg69
(lp1930
g62
(g63
g64
NtRp1931
(dp1932
g67
(dp1933
g75
I4
ssg76
g1927
sg69
(lp1934
S"set(['/home/mayank/Desktop/web2pyAdmin/web2py/web2py/applications/welcome/', '/home/mayank/Desktop/web2pyAdmin/web2py/web2py/applications/admin/', '/home/mayank/Desktop/web2pyAdmin/web2py/web2py/applications/FunkLoad/'])"
p1935
asbasbasbag62
(g78
g64
NtRp1936
(dp1937
g67
(dp1938
sg76
g1911
sg69
(lp1939
g62
(g83
g64
NtRp1940
(dp1941
g67
(dp1942
g87
g88
ssg76
g1936
sg69
(lp1943
g886
asbag62
(g83
g64
NtRp1944
(dp1945
g67
(dp1946
g94
g95
ssg76
g1936
sg69
(lp1947
S':'
asbag62
(g83
g64
NtRp1948
(dp1949
g67
(dp1950
sg76
g1936
sg69
(lp1951
g62
(g63
g64
NtRp1952
(dp1953
g67
(dp1954
g75
I4
ssg76
g1948
sg69
(lp1955
g899
asbasbasbag62
(g78
g64
NtRp1956
(dp1957
g67
(dp1958
sg76
g1911
sg69
(lp1959
g62
(g83
g64
NtRp1960
(dp1961
g67
(dp1962
g87
g88
ssg76
g1956
sg69
(lp1963
g908
asbag62
(g83
g64
NtRp1964
(dp1965
g67
(dp1966
g94
g95
ssg76
g1956
sg69
(lp1967
S':'
asbag62
(g83
g64
NtRp1968
(dp1969
g67
(dp1970
sg76
g1956
sg69
(lp1971
g62
(g63
g64
NtRp1972
(dp1973
g67
(dp1974
g75
I4
ssg76
g1968
sg69
(lp1975
g62
(g71
g64
NtRp1976
(dp1977
g67
(dp1978
g75
I3
ssg76
Nsg69
(lp1979
sbasbasbasbag62
(g78
g64
NtRp1980
(dp1981
g67
(dp1982
sg76
g1911
sg69
(lp1983
g62
(g83
g64
NtRp1984
(dp1985
g67
(dp1986
g87
g88
ssg76
g1980
sg69
(lp1987
g933
asbag62
(g83
g64
NtRp1988
(dp1989
g67
(dp1990
g94
g95
ssg76
g1980
sg69
(lp1991
S':'
asbag62
(g83
g64
NtRp1992
(dp1993
g67
(dp1994
sg76
g1980
sg69
(lp1995
g62
(g63
g64
NtRp1996
(dp1997
g67
(dp1998
g75
I4
ssg76
g1992
sg69
(lp1999
S"<Values at 0x2bfd9e0: {'verbose': False, 'ip': '10.1.33.107', 'with_scheduler': False, 'ips': ['127.0.1.1', '10.1.33.121'], 'shutdown_timeout': 5, 'taskbar': False, 'port': 8000, 'maxthreads': None, 'softcron': False, 'server_name': 'mayank', 'bpython': False, 'nogui': False, 'nocron': False, 'extcron': False, 'run_system_tests': False, 'test': None, 'folder': '/home/mayank/Desktop/web2pyAdmin/web2py/web2py', 'config': '', 'import_models': False, 'winservice': '', 'shell': None, 'run': '', 'log_filename': 'httpserver.log', 'debuglevel': 30, 'args': [''], 'socket_timeout': 5, 'ssl_ca_certificate': None, 'scheduler': None, 'profiler_filename': None, 'ssl_private_key': '', 'scheduler_groups': None, 'password': '<ask>', 'request_queue_size': 5, 'ssl_certificate': '', 'cronjob': False, 'numthreads': None, 'quiet': False, 'interfaces': None, 'minthreads': None, 'timeout': 10, 'plain': False, 'nobanner': False, 'pid_filename': 'httpserver.pid'}>"
p2000
asbasbasbag62
(g78
g64
NtRp2001
(dp2002
g67
(dp2003
sg76
g1911
sg69
(lp2004
g62
(g83
g64
NtRp2005
(dp2006
g67
(dp2007
g87
g88
ssg76
g2001
sg69
(lp2008
g955
asbag62
(g83
g64
NtRp2009
(dp2010
g67
(dp2011
g94
g95
ssg76
g2001
sg69
(lp2012
S':'
asbag62
(g83
g64
NtRp2013
(dp2014
g67
(dp2015
sg76
g2001
sg69
(lp2016
g62
(g63
g64
NtRp2017
(dp2018
g67
(dp2019
g75
I4
ssg76
g2013
sg69
(lp2020
S'set([])'
p2021
asbasbasbag62
(g78
g64
NtRp2022
(dp2023
g67
(dp2024
sg76
g1911
sg69
(lp2025
g62
(g83
g64
NtRp2026
(dp2027
g67
(dp2028
g87
g88
ssg76
g2022
sg69
(lp2029
g977
asbag62
(g83
g64
NtRp2030
(dp2031
g67
(dp2032
g94
g95
ssg76
g2022
sg69
(lp2033
S':'
asbag62
(g83
g64
NtRp2034
(dp2035
g67
(dp2036
sg76
g2022
sg69
(lp2037
g62
(g63
g64
NtRp2038
(dp2039
g67
(dp2040
g75
I4
ssg76
g2034
sg69
(lp2041
g105
asbasbasbag62
(g78
g64
NtRp2042
(dp2043
g67
(dp2044
sg76
g1911
sg69
(lp2045
g62
(g83
g64
NtRp2046
(dp2047
g67
(dp2048
g87
g88
ssg76
g2042
sg69
(lp2049
g998
asbag62
(g83
g64
NtRp2050
(dp2051
g67
(dp2052
g94
g95
ssg76
g2042
sg69
(lp2053
S':'
asbag62
(g83
g64
NtRp2054
(dp2055
g67
(dp2056
sg76
g2042
sg69
(lp2057
g62
(g63
g64
NtRp2058
(dp2059
g67
(dp2060
g75
I4
ssg76
g2054
sg69
(lp2061
g1011
asbasbasbag62
(g78
g64
NtRp2062
(dp2063
g67
(dp2064
sg76
g1911
sg69
(lp2065
g62
(g83
g64
NtRp2066
(dp2067
g67
(dp2068
g87
g88
ssg76
g2062
sg69
(lp2069
g1196
asbag62
(g83
g64
NtRp2070
(dp2071
g67
(dp2072
g94
g95
ssg76
g2062
sg69
(lp2073
S':'
asbag62
(g83
g64
NtRp2074
(dp2075
g67
(dp2076
sg76
g2062
sg69
(lp2077
g62
(g63
g64
NtRp2078
(dp2079
g67
(dp2080
g75
I4
ssg76
g2074
sg69
(lp2081
g105
asbasbasbag62
(g78
g64
NtRp2082
(dp2083
g67
(dp2084
sg76
g1911
sg69
(lp2085
g62
(g83
g64
NtRp2086
(dp2087
g67
(dp2088
g87
g88
ssg76
g2082
sg69
(lp2089
g1217
asbag62
(g83
g64
NtRp2090
(dp2091
g67
(dp2092
g94
g95
ssg76
g2082
sg69
(lp2093
S':'
asbag62
(g83
g64
NtRp2094
(dp2095
g67
(dp2096
sg76
g2082
sg69
(lp2097
g62
(g63
g64
NtRp2098
(dp2099
g67
(dp2100
g75
I4
ssg76
g2094
sg69
(lp2101
g105
asbasbasbag62
(g78
g64
NtRp2102
(dp2103
g67
(dp2104
sg76
g1911
sg69
(lp2105
g62
(g83
g64
NtRp2106
(dp2107
g67
(dp2108
g87
g88
ssg76
g2102
sg69
(lp2109
g1476
asbag62
(g83
g64
NtRp2110
(dp2111
g67
(dp2112
g94
g95
ssg76
g2102
sg69
(lp2113
S':'
asbag62
(g83
g64
NtRp2114
(dp2115
g67
(dp2116
sg76
g2102
sg69
(lp2117
g62
(g63
g64
NtRp2118
(dp2119
g67
(dp2120
g75
I4
ssg76
g2114
sg69
(lp2121
g1489
asbasbasbag62
(g78
g64
NtRp2122
(dp2123
g67
(dp2124
sg76
g1911
sg69
(lp2125
g62
(g83
g64
NtRp2126
(dp2127
g67
(dp2128
g87
g88
ssg76
g2122
sg69
(lp2129
g1519
asbag62
(g83
g64
NtRp2130
(dp2131
g67
(dp2132
g94
g95
ssg76
g2122
sg69
(lp2133
S':'
asbag62
(g83
g64
NtRp2134
(dp2135
g67
(dp2136
sg76
g2122
sg69
(lp2137
g62
(g63
g64
NtRp2138
(dp2139
g67
(dp2140
g75
I4
ssg76
g2134
sg69
(lp2141
g62
(g71
g64
NtRp2142
(dp2143
g67
(dp2144
g75
I3
ssg76
Nsg69
(lp2145
g62
(g78
g64
NtRp2146
(dp2147
g67
(dp2148
sg76
g2142
sg69
(lp2149
g62
(g83
g64
NtRp2150
(dp2151
g67
(dp2152
sg76
g2146
sg69
(lp2153
g62
(g63
g64
NtRp2154
(dp2155
g67
(dp2156
g75
I3
ssg76
g2150
sg69
(lp2157
S'2'
asbasbasbag62
(g78
g64
NtRp2158
(dp2159
g67
(dp2160
sg76
g2142
sg69
(lp2161
g62
(g83
g64
NtRp2162
(dp2163
g67
(dp2164
sg76
g2158
sg69
(lp2165
g62
(g63
g64
NtRp2166
(dp2167
g67
(dp2168
g75
I3
ssg76
g2162
sg69
(lp2169
S'0'
asbasbasbag62
(g78
g64
NtRp2170
(dp2171
g67
(dp2172
sg76
g2142
sg69
(lp2173
g62
(g83
g64
NtRp2174
(dp2175
g67
(dp2176
sg76
g2170
sg69
(lp2177
g62
(g63
g64
NtRp2178
(dp2179
g67
(dp2180
g75
I3
ssg76
g2174
sg69
(lp2181
S'8'
asbasbasbag62
(g78
g64
NtRp2182
(dp2183
g67
(dp2184
sg76
g2142
sg69
(lp2185
g62
(g83
g64
NtRp2186
(dp2187
g67
(dp2188
sg76
g2182
sg69
(lp2189
g62
(g63
g64
NtRp2190
(dp2191
g67
(dp2192
g75
I3
ssg76
g2186
sg69
(lp2193
S'datetime.datetime(2012, 9, 7, 3, 47, 51)'
p2194
asbasbasbag62
(g78
g64
NtRp2195
(dp2196
g67
(dp2197
sg76
g2142
sg69
(lp2198
g62
(g83
g64
NtRp2199
(dp2200
g67
(dp2201
sg76
g2195
sg69
(lp2202
g62
(g63
g64
NtRp2203
(dp2204
g67
(dp2205
g75
I3
ssg76
g2199
sg69
(lp2206
g1597
asbasbasbasbasbasbasbasbasbasbasbag62
(g78
g64
NtRp2207
(dp2208
g67
(dp2209
sg76
g72
sg69
(lp2210
g62
(g83
g64
NtRp2211
(dp2212
g67
(dp2213
g87
g88
ssg76
g2207
sg69
(lp2214
S'is_https'
p2215
asbag62
(g83
g64
NtRp2216
(dp2217
g67
(dp2218
g94
g95
ssg76
g2207
sg69
(lp2219
S':'
asbag62
(g83
g64
NtRp2220
(dp2221
g67
(dp2222
sg76
g2207
sg69
(lp2223
g62
(g63
g64
NtRp2224
(dp2225
g67
(dp2226
g75
I5
ssg76
g2220
sg69
(lp2227
g105
asbasbasbag62
(g78
g64
NtRp2228
(dp2229
g67
(dp2230
sg76
g72
sg69
(lp2231
g62
(g83
g64
NtRp2232
(dp2233
g67
(dp2234
g87
g88
ssg76
g2228
sg69
(lp2235
S'is_local'
p2236
asbag62
(g83
g64
NtRp2237
(dp2238
g67
(dp2239
g94
g95
ssg76
g2228
sg69
(lp2240
S':'
asbag62
(g83
g64
NtRp2241
(dp2242
g67
(dp2243
sg76
g2228
sg69
(lp2244
g62
(g63
g64
NtRp2245
(dp2246
g67
(dp2247
g75
I5
ssg76
g2241
sg69
(lp2248
g1706
asbasbasbag62
(g78
g64
NtRp2249
(dp2250
g67
(dp2251
sg76
g72
sg69
(lp2252
g62
(g83
g64
NtRp2253
(dp2254
g67
(dp2255
g87
g88
ssg76
g2249
sg69
(lp2256
S'is_restful'
p2257
asbag62
(g83
g64
NtRp2258
(dp2259
g67
(dp2260
g94
g95
ssg76
g2249
sg69
(lp2261
S':'
asbag62
(g83
g64
NtRp2262
(dp2263
g67
(dp2264
sg76
g2249
sg69
(lp2265
g62
(g63
g64
NtRp2266
(dp2267
g67
(dp2268
g75
I5
ssg76
g2262
sg69
(lp2269
g105
asbasbasbag62
(g78
g64
NtRp2270
(dp2271
g67
(dp2272
sg76
g72
sg69
(lp2273
g62
(g83
g64
NtRp2274
(dp2275
g67
(dp2276
g87
g88
ssg76
g2270
sg69
(lp2277
S'now'
p2278
asbag62
(g83
g64
NtRp2279
(dp2280
g67
(dp2281
g94
g95
ssg76
g2270
sg69
(lp2282
S':'
asbag62
(g83
g64
NtRp2283
(dp2284
g67
(dp2285
sg76
g2270
sg69
(lp2286
g62
(g63
g64
NtRp2287
(dp2288
g67
(dp2289
g75
I5
ssg76
g2283
sg69
(lp2290
S'datetime.datetime(2013, 11, 10, 18, 47, 26, 609701)'
p2291
asbasbasbag62
(g78
g64
NtRp2292
(dp2293
g67
(dp2294
sg76
g72
sg69
(lp2295
g62
(g83
g64
NtRp2296
(dp2297
g67
(dp2298
g87
g88
ssg76
g2292
sg69
(lp2299
S'post_vars'
p2300
asbag62
(g83
g64
NtRp2301
(dp2302
g67
(dp2303
g94
g95
ssg76
g2292
sg69
(lp2304
S':'
asbag62
(g83
g64
NtRp2305
(dp2306
g67
(dp2307
sg76
g2292
sg69
(lp2308
g62
(g63
g64
NtRp2309
(dp2310
g67
(dp2311
g75
I5
ssg76
g2305
sg69
(lp2312
g62
(g71
g64
NtRp2313
(dp2314
g67
(dp2315
g75
I4
ssg76
Nsg69
(lp2316
sbasbasbasbag62
(g78
g64
NtRp2317
(dp2318
g67
(dp2319
sg76
g72
sg69
(lp2320
g62
(g83
g64
NtRp2321
(dp2322
g67
(dp2323
g87
g88
ssg76
g2317
sg69
(lp2324
S'raw_args'
p2325
asbag62
(g83
g64
NtRp2326
(dp2327
g67
(dp2328
g94
g95
ssg76
g2317
sg69
(lp2329
S':'
asbag62
(g83
g64
NtRp2330
(dp2331
g67
(dp2332
sg76
g2317
sg69
(lp2333
g62
(g63
g64
NtRp2334
(dp2335
g67
(dp2336
g75
I5
ssg76
g2330
sg69
(lp2337
S'None'
p2338
asbasbasbag62
(g78
g64
NtRp2339
(dp2340
g67
(dp2341
sg76
g72
sg69
(lp2342
g62
(g83
g64
NtRp2343
(dp2344
g67
(dp2345
g87
g88
ssg76
g2339
sg69
(lp2346
S'raw_extension'
p2347
asbag62
(g83
g64
NtRp2348
(dp2349
g67
(dp2350
g94
g95
ssg76
g2339
sg69
(lp2351
S':'
asbag62
(g83
g64
NtRp2352
(dp2353
g67
(dp2354
sg76
g2339
sg69
(lp2355
g62
(g63
g64
NtRp2356
(dp2357
g67
(dp2358
g75
I5
ssg76
g2352
sg69
(lp2359
S'None'
p2360
asbasbasbag62
(g78
g64
NtRp2361
(dp2362
g67
(dp2363
sg76
g72
sg69
(lp2364
g62
(g83
g64
NtRp2365
(dp2366
g67
(dp2367
g87
g88
ssg76
g2361
sg69
(lp2368
S'url'
p2369
asbag62
(g83
g64
NtRp2370
(dp2371
g67
(dp2372
g94
g95
ssg76
g2361
sg69
(lp2373
S':'
asbag62
(g83
g64
NtRp2374
(dp2375
g67
(dp2376
sg76
g2361
sg69
(lp2377
g62
(g63
g64
NtRp2378
(dp2379
g67
(dp2380
g75
I5
ssg76
g2374
sg69
(lp2381
g1251
asbasbasbag62
(g78
g64
NtRp2382
(dp2383
g67
(dp2384
sg76
g72
sg69
(lp2385
g62
(g83
g64
NtRp2386
(dp2387
g67
(dp2388
g87
g88
ssg76
g2382
sg69
(lp2389
S'utcnow'
p2390
asbag62
(g83
g64
NtRp2391
(dp2392
g67
(dp2393
g94
g95
ssg76
g2382
sg69
(lp2394
S':'
asbag62
(g83
g64
NtRp2395
(dp2396
g67
(dp2397
sg76
g2382
sg69
(lp2398
g62
(g63
g64
NtRp2399
(dp2400
g67
(dp2401
g75
I5
ssg76
g2395
sg69
(lp2402
S'datetime.datetime(2013, 11, 10, 13, 17, 26, 609739)'
p2403
asbasbasbag62
(g78
g64
NtRp2404
(dp2405
g67
(dp2406
sg76
g72
sg69
(lp2407
g62
(g83
g64
NtRp2408
(dp2409
g67
(dp2410
g87
g88
ssg76
g2404
sg69
(lp2411
S'uuid'
p2412
asbag62
(g83
g64
NtRp2413
(dp2414
g67
(dp2415
g94
g95
ssg76
g2404
sg69
(lp2416
S':'
asbag62
(g83
g64
NtRp2417
(dp2418
g67
(dp2419
sg76
g2404
sg69
(lp2420
g62
(g63
g64
NtRp2421
(dp2422
g67
(dp2423
g75
I5
ssg76
g2417
sg69
(lp2424
S'FunkLoad/10.1.33.107.2013-11-10.18-47-26.2aba1c7e-711c-4f80-87f1-6b9d3614d24a'
p2425
asbasbasbag62
(g78
g64
NtRp2426
(dp2427
g67
(dp2428
sg76
g72
sg69
(lp2429
g62
(g83
g64
NtRp2430
(dp2431
g67
(dp2432
g87
g88
ssg76
g2426
sg69
(lp2433
S'vars'
p2434
asbag62
(g83
g64
NtRp2435
(dp2436
g67
(dp2437
g94
g95
ssg76
g2426
sg69
(lp2438
S':'
asbag62
(g83
g64
NtRp2439
(dp2440
g67
(dp2441
sg76
g2426
sg69
(lp2442
g62
(g63
g64
NtRp2443
(dp2444
g67
(dp2445
g75
I5
ssg76
g2439
sg69
(lp2446
g62
(g71
g64
NtRp2447
(dp2448
g67
(dp2449
g75
I4
ssg76
Nsg69
(lp2450
sbasbasbasbag62
(g78
g64
NtRp2451
(dp2452
g67
(dp2453
sg76
g72
sg69
(lp2454
g62
(g83
g64
NtRp2455
(dp2456
g67
(dp2457
g87
g88
ssg76
g2451
sg69
(lp2458
S'wsgi'
p2459
asbag62
(g83
g64
NtRp2460
(dp2461
g67
(dp2462
g94
g95
ssg76
g2451
sg69
(lp2463
S':'
asbag62
(g83
g64
NtRp2464
(dp2465
g67
(dp2466
sg76
g2451
sg69
(lp2467
g62
(g63
g64
NtRp2468
(dp2469
g67
(dp2470
g75
I5
ssg76
g2464
sg69
(lp2471
g62
(g71
g64
NtRp2472
(dp2473
g67
(dp2474
g75
I4
ssg76
Nsg69
(lp2475
g62
(g78
g64
NtRp2476
(dp2477
g67
(dp2478
sg76
g2472
sg69
(lp2479
g62
(g83
g64
NtRp2480
(dp2481
g67
(dp2482
g87
g88
ssg76
g2476
sg69
(lp2483
S'environ'
p2484
asbag62
(g83
g64
NtRp2485
(dp2486
g67
(dp2487
g94
g95
ssg76
g2476
sg69
(lp2488
S':'
asbag62
(g83
g64
NtRp2489
(dp2490
g67
(dp2491
sg76
g2476
sg69
(lp2492
g62
(g63
g64
NtRp2493
(dp2494
g67
(dp2495
g75
I4
ssg76
g2489
sg69
(lp2496
g62
(g71
g64
NtRp2497
(dp2498
g67
(dp2499
g75
I3
ssg76
Nsg69
(lp2500
g62
(g78
g64
NtRp2501
(dp2502
g67
(dp2503
sg76
g2497
sg69
(lp2504
g62
(g83
g64
NtRp2505
(dp2506
g67
(dp2507
g87
g88
ssg76
g2501
sg69
(lp2508
S'HTTP_ACCEPT'
p2509
asbag62
(g83
g64
NtRp2510
(dp2511
g67
(dp2512
g94
g95
ssg76
g2501
sg69
(lp2513
S':'
asbag62
(g83
g64
NtRp2514
(dp2515
g67
(dp2516
sg76
g2501
sg69
(lp2517
g62
(g63
g64
NtRp2518
(dp2519
g67
(dp2520
g75
I3
ssg76
g2514
sg69
(lp2521
g1033
asbasbasbag62
(g78
g64
NtRp2522
(dp2523
g67
(dp2524
sg76
g2497
sg69
(lp2525
g62
(g83
g64
NtRp2526
(dp2527
g67
(dp2528
g87
g88
ssg76
g2522
sg69
(lp2529
S'HTTP_ACCEPT_ENCODING'
p2530
asbag62
(g83
g64
NtRp2531
(dp2532
g67
(dp2533
g94
g95
ssg76
g2522
sg69
(lp2534
S':'
asbag62
(g83
g64
NtRp2535
(dp2536
g67
(dp2537
sg76
g2522
sg69
(lp2538
g62
(g63
g64
NtRp2539
(dp2540
g67
(dp2541
g75
I3
ssg76
g2535
sg69
(lp2542
g1055
asbasbasbag62
(g78
g64
NtRp2543
(dp2544
g67
(dp2545
sg76
g2497
sg69
(lp2546
g62
(g83
g64
NtRp2547
(dp2548
g67
(dp2549
g87
g88
ssg76
g2543
sg69
(lp2550
S'HTTP_ACCEPT_LANGUAGE'
p2551
asbag62
(g83
g64
NtRp2552
(dp2553
g67
(dp2554
g94
g95
ssg76
g2543
sg69
(lp2555
S':'
asbag62
(g83
g64
NtRp2556
(dp2557
g67
(dp2558
sg76
g2543
sg69
(lp2559
g62
(g63
g64
NtRp2560
(dp2561
g67
(dp2562
g75
I3
ssg76
g2556
sg69
(lp2563
g1077
asbasbasbag62
(g78
g64
NtRp2564
(dp2565
g67
(dp2566
sg76
g2497
sg69
(lp2567
g62
(g83
g64
NtRp2568
(dp2569
g67
(dp2570
g87
g88
ssg76
g2564
sg69
(lp2571
S'HTTP_CONNECTION'
p2572
asbag62
(g83
g64
NtRp2573
(dp2574
g67
(dp2575
g94
g95
ssg76
g2564
sg69
(lp2576
S':'
asbag62
(g83
g64
NtRp2577
(dp2578
g67
(dp2579
sg76
g2564
sg69
(lp2580
g62
(g63
g64
NtRp2581
(dp2582
g67
(dp2583
g75
I3
ssg76
g2577
sg69
(lp2584
g1099
asbasbasbag62
(g78
g64
NtRp2585
(dp2586
g67
(dp2587
sg76
g2497
sg69
(lp2588
g62
(g83
g64
NtRp2589
(dp2590
g67
(dp2591
g87
g88
ssg76
g2585
sg69
(lp2592
S'HTTP_COOKIE'
p2593
asbag62
(g83
g64
NtRp2594
(dp2595
g67
(dp2596
g94
g95
ssg76
g2585
sg69
(lp2597
S':'
asbag62
(g83
g64
NtRp2598
(dp2599
g67
(dp2600
sg76
g2585
sg69
(lp2601
g62
(g63
g64
NtRp2602
(dp2603
g67
(dp2604
g75
I3
ssg76
g2598
sg69
(lp2605
g1121
asbasbasbag62
(g78
g64
NtRp2606
(dp2607
g67
(dp2608
sg76
g2497
sg69
(lp2609
g62
(g83
g64
NtRp2610
(dp2611
g67
(dp2612
g87
g88
ssg76
g2606
sg69
(lp2613
S'HTTP_HOST'
p2614
asbag62
(g83
g64
NtRp2615
(dp2616
g67
(dp2617
g94
g95
ssg76
g2606
sg69
(lp2618
S':'
asbag62
(g83
g64
NtRp2619
(dp2620
g67
(dp2621
sg76
g2606
sg69
(lp2622
g62
(g63
g64
NtRp2623
(dp2624
g67
(dp2625
g75
I3
ssg76
g2619
sg69
(lp2626
g1143
asbasbasbag62
(g78
g64
NtRp2627
(dp2628
g67
(dp2629
sg76
g2497
sg69
(lp2630
g62
(g83
g64
NtRp2631
(dp2632
g67
(dp2633
g87
g88
ssg76
g2627
sg69
(lp2634
S'HTTP_REFERER'
p2635
asbag62
(g83
g64
NtRp2636
(dp2637
g67
(dp2638
g94
g95
ssg76
g2627
sg69
(lp2639
S':'
asbag62
(g83
g64
NtRp2640
(dp2641
g67
(dp2642
sg76
g2627
sg69
(lp2643
g62
(g63
g64
NtRp2644
(dp2645
g67
(dp2646
g75
I3
ssg76
g2640
sg69
(lp2647
g1165
asbasbasbag62
(g78
g64
NtRp2648
(dp2649
g67
(dp2650
sg76
g2497
sg69
(lp2651
g62
(g83
g64
NtRp2652
(dp2653
g67
(dp2654
g87
g88
ssg76
g2648
sg69
(lp2655
S'HTTP_USER_AGENT'
p2656
asbag62
(g83
g64
NtRp2657
(dp2658
g67
(dp2659
g94
g95
ssg76
g2648
sg69
(lp2660
S':'
asbag62
(g83
g64
NtRp2661
(dp2662
g67
(dp2663
sg76
g2648
sg69
(lp2664
g62
(g63
g64
NtRp2665
(dp2666
g67
(dp2667
g75
I3
ssg76
g2661
sg69
(lp2668
g1187
asbasbasbag62
(g78
g64
NtRp2669
(dp2670
g67
(dp2671
sg76
g2497
sg69
(lp2672
g62
(g83
g64
NtRp2673
(dp2674
g67
(dp2675
g87
g88
ssg76
g2669
sg69
(lp2676
S'PATH_INFO'
p2677
asbag62
(g83
g64
NtRp2678
(dp2679
g67
(dp2680
g94
g95
ssg76
g2669
sg69
(lp2681
S':'
asbag62
(g83
g64
NtRp2682
(dp2683
g67
(dp2684
sg76
g2669
sg69
(lp2685
g62
(g63
g64
NtRp2686
(dp2687
g67
(dp2688
g75
I3
ssg76
g2682
sg69
(lp2689
g1251
asbasbasbag62
(g78
g64
NtRp2690
(dp2691
g67
(dp2692
sg76
g2497
sg69
(lp2693
g62
(g83
g64
NtRp2694
(dp2695
g67
(dp2696
g87
g88
ssg76
g2690
sg69
(lp2697
S'QUERY_STRING'
p2698
asbag62
(g83
g64
NtRp2699
(dp2700
g67
(dp2701
g94
g95
ssg76
g2690
sg69
(lp2702
S':'
asbag62
(g83
g64
NtRp2703
(dp2704
g67
(dp2705
sg76
g2690
sg69
(lp2706
g62
(g63
g64
NtRp2707
(dp2708
g67
(dp2709
g75
I3
ssg76
g2703
sg69
(lp2710
S''
asbasbasbag62
(g78
g64
NtRp2711
(dp2712
g67
(dp2713
sg76
g2497
sg69
(lp2714
g62
(g83
g64
NtRp2715
(dp2716
g67
(dp2717
g87
g88
ssg76
g2711
sg69
(lp2718
S'REMOTE_ADDR'
p2719
asbag62
(g83
g64
NtRp2720
(dp2721
g67
(dp2722
g94
g95
ssg76
g2711
sg69
(lp2723
S':'
asbag62
(g83
g64
NtRp2724
(dp2725
g67
(dp2726
sg76
g2711
sg69
(lp2727
g62
(g63
g64
NtRp2728
(dp2729
g67
(dp2730
g75
I3
ssg76
g2724
sg69
(lp2731
g217
asbasbasbag62
(g78
g64
NtRp2732
(dp2733
g67
(dp2734
sg76
g2497
sg69
(lp2735
g62
(g83
g64
NtRp2736
(dp2737
g67
(dp2738
g87
g88
ssg76
g2732
sg69
(lp2739
S'REMOTE_PORT'
p2740
asbag62
(g83
g64
NtRp2741
(dp2742
g67
(dp2743
g94
g95
ssg76
g2732
sg69
(lp2744
S':'
asbag62
(g83
g64
NtRp2745
(dp2746
g67
(dp2747
sg76
g2732
sg69
(lp2748
g62
(g63
g64
NtRp2749
(dp2750
g67
(dp2751
g75
I3
ssg76
g2745
sg69
(lp2752
g1315
asbasbasbag62
(g78
g64
NtRp2753
(dp2754
g67
(dp2755
sg76
g2497
sg69
(lp2756
g62
(g83
g64
NtRp2757
(dp2758
g67
(dp2759
g87
g88
ssg76
g2753
sg69
(lp2760
S'REQUEST_METHOD'
p2761
asbag62
(g83
g64
NtRp2762
(dp2763
g67
(dp2764
g94
g95
ssg76
g2753
sg69
(lp2765
S':'
asbag62
(g83
g64
NtRp2766
(dp2767
g67
(dp2768
sg76
g2753
sg69
(lp2769
g62
(g63
g64
NtRp2770
(dp2771
g67
(dp2772
g75
I3
ssg76
g2766
sg69
(lp2773
g1337
asbasbasbag62
(g78
g64
NtRp2774
(dp2775
g67
(dp2776
sg76
g2497
sg69
(lp2777
g62
(g83
g64
NtRp2778
(dp2779
g67
(dp2780
g87
g88
ssg76
g2774
sg69
(lp2781
S'REQUEST_URI'
p2782
asbag62
(g83
g64
NtRp2783
(dp2784
g67
(dp2785
g94
g95
ssg76
g2774
sg69
(lp2786
S':'
asbag62
(g83
g64
NtRp2787
(dp2788
g67
(dp2789
sg76
g2774
sg69
(lp2790
g62
(g63
g64
NtRp2791
(dp2792
g67
(dp2793
g75
I3
ssg76
g2787
sg69
(lp2794
g1251
asbasbasbag62
(g78
g64
NtRp2795
(dp2796
g67
(dp2797
sg76
g2497
sg69
(lp2798
g62
(g83
g64
NtRp2799
(dp2800
g67
(dp2801
g87
g88
ssg76
g2795
sg69
(lp2802
S'SCRIPT_NAME'
p2803
asbag62
(g83
g64
NtRp2804
(dp2805
g67
(dp2806
g94
g95
ssg76
g2795
sg69
(lp2807
S':'
asbag62
(g83
g64
NtRp2808
(dp2809
g67
(dp2810
sg76
g2795
sg69
(lp2811
g62
(g63
g64
NtRp2812
(dp2813
g67
(dp2814
g75
I3
ssg76
g2808
sg69
(lp2815
S''
asbasbasbag62
(g78
g64
NtRp2816
(dp2817
g67
(dp2818
sg76
g2497
sg69
(lp2819
g62
(g83
g64
NtRp2820
(dp2821
g67
(dp2822
g87
g88
ssg76
g2816
sg69
(lp2823
S'SERVER_NAME'
p2824
asbag62
(g83
g64
NtRp2825
(dp2826
g67
(dp2827
g94
g95
ssg76
g2816
sg69
(lp2828
S':'
asbag62
(g83
g64
NtRp2829
(dp2830
g67
(dp2831
sg76
g2816
sg69
(lp2832
g62
(g63
g64
NtRp2833
(dp2834
g67
(dp2835
g75
I3
ssg76
g2829
sg69
(lp2836
g1401
asbasbasbag62
(g78
g64
NtRp2837
(dp2838
g67
(dp2839
sg76
g2497
sg69
(lp2840
g62
(g83
g64
NtRp2841
(dp2842
g67
(dp2843
g87
g88
ssg76
g2837
sg69
(lp2844
S'SERVER_PORT'
p2845
asbag62
(g83
g64
NtRp2846
(dp2847
g67
(dp2848
g94
g95
ssg76
g2837
sg69
(lp2849
S':'
asbag62
(g83
g64
NtRp2850
(dp2851
g67
(dp2852
sg76
g2837
sg69
(lp2853
g62
(g63
g64
NtRp2854
(dp2855
g67
(dp2856
g75
I3
ssg76
g2850
sg69
(lp2857
g1423
asbasbasbag62
(g78
g64
NtRp2858
(dp2859
g67
(dp2860
sg76
g2497
sg69
(lp2861
g62
(g83
g64
NtRp2862
(dp2863
g67
(dp2864
g87
g88
ssg76
g2858
sg69
(lp2865
S'SERVER_PROTOCOL'
p2866
asbag62
(g83
g64
NtRp2867
(dp2868
g67
(dp2869
g94
g95
ssg76
g2858
sg69
(lp2870
S':'
asbag62
(g83
g64
NtRp2871
(dp2872
g67
(dp2873
sg76
g2858
sg69
(lp2874
g62
(g63
g64
NtRp2875
(dp2876
g67
(dp2877
g75
I3
ssg76
g2871
sg69
(lp2878
g1445
asbasbasbag62
(g78
g64
NtRp2879
(dp2880
g67
(dp2881
sg76
g2497
sg69
(lp2882
g62
(g83
g64
NtRp2883
(dp2884
g67
(dp2885
g87
g88
ssg76
g2879
sg69
(lp2886
S'SERVER_SOFTWARE'
p2887
asbag62
(g83
g64
NtRp2888
(dp2889
g67
(dp2890
g94
g95
ssg76
g2879
sg69
(lp2891
S':'
asbag62
(g83
g64
NtRp2892
(dp2893
g67
(dp2894
sg76
g2879
sg69
(lp2895
g62
(g63
g64
NtRp2896
(dp2897
g67
(dp2898
g75
I3
ssg76
g2892
sg69
(lp2899
g1467
asbasbasbag62
(g78
g64
NtRp2900
(dp2901
g67
(dp2902
sg76
g2497
sg69
(lp2903
g62
(g83
g64
NtRp2904
(dp2905
g67
(dp2906
g87
g88
ssg76
g2900
sg69
(lp2907
S'wsgi.errors'
p2908
asbag62
(g83
g64
NtRp2909
(dp2910
g67
(dp2911
g94
g95
ssg76
g2900
sg69
(lp2912
S':'
asbag62
(g83
g64
NtRp2913
(dp2914
g67
(dp2915
sg76
g2900
sg69
(lp2916
g62
(g63
g64
NtRp2917
(dp2918
g67
(dp2919
g75
I3
ssg76
g2913
sg69
(lp2920
S"<open file '<stderr>', mode 'w' at 0x7f7b39bf91e0>"
p2921
asbasbasbag62
(g78
g64
NtRp2922
(dp2923
g67
(dp2924
sg76
g2497
sg69
(lp2925
g62
(g83
g64
NtRp2926
(dp2927
g67
(dp2928
g87
g88
ssg76
g2922
sg69
(lp2929
S'wsgi.file_wrapper'
p2930
asbag62
(g83
g64
NtRp2931
(dp2932
g67
(dp2933
g94
g95
ssg76
g2922
sg69
(lp2934
S':'
asbag62
(g83
g64
NtRp2935
(dp2936
g67
(dp2937
sg76
g2922
sg69
(lp2938
g62
(g63
g64
NtRp2939
(dp2940
g67
(dp2941
g75
I3
ssg76
g2935
sg69
(lp2942
S'<class wsgiref.util.FileWrapper at 0x2756f58>'
p2943
asbasbasbag62
(g78
g64
NtRp2944
(dp2945
g67
(dp2946
sg76
g2497
sg69
(lp2947
g62
(g83
g64
NtRp2948
(dp2949
g67
(dp2950
g87
g88
ssg76
g2944
sg69
(lp2951
S'wsgi.input'
p2952
asbag62
(g83
g64
NtRp2953
(dp2954
g67
(dp2955
g94
g95
ssg76
g2944
sg69
(lp2956
S':'
asbag62
(g83
g64
NtRp2957
(dp2958
g67
(dp2959
sg76
g2944
sg69
(lp2960
g62
(g63
g64
NtRp2961
(dp2962
g67
(dp2963
g75
I3
ssg76
g2957
sg69
(lp2964
S'<cStringIO.StringO object at 0x7f7a60402308>'
p2965
asbasbasbag62
(g78
g64
NtRp2966
(dp2967
g67
(dp2968
sg76
g2497
sg69
(lp2969
g62
(g83
g64
NtRp2970
(dp2971
g67
(dp2972
g87
g88
ssg76
g2966
sg69
(lp2973
S'wsgi.multiprocess'
p2974
asbag62
(g83
g64
NtRp2975
(dp2976
g67
(dp2977
g94
g95
ssg76
g2966
sg69
(lp2978
S':'
asbag62
(g83
g64
NtRp2979
(dp2980
g67
(dp2981
sg76
g2966
sg69
(lp2982
g62
(g63
g64
NtRp2983
(dp2984
g67
(dp2985
g75
I3
ssg76
g2979
sg69
(lp2986
g105
asbasbasbag62
(g78
g64
NtRp2987
(dp2988
g67
(dp2989
sg76
g2497
sg69
(lp2990
g62
(g83
g64
NtRp2991
(dp2992
g67
(dp2993
g87
g88
ssg76
g2987
sg69
(lp2994
S'wsgi.multithread'
p2995
asbag62
(g83
g64
NtRp2996
(dp2997
g67
(dp2998
g94
g95
ssg76
g2987
sg69
(lp2999
S':'
asbag62
(g83
g64
NtRp3000
(dp3001
g67
(dp3002
sg76
g2987
sg69
(lp3003
g62
(g63
g64
NtRp3004
(dp3005
g67
(dp3006
g75
I3
ssg76
g3000
sg69
(lp3007
g1706
asbasbasbag62
(g78
g64
NtRp3008
(dp3009
g67
(dp3010
sg76
g2497
sg69
(lp3011
g62
(g83
g64
NtRp3012
(dp3013
g67
(dp3014
g87
g88
ssg76
g3008
sg69
(lp3015
S'wsgi.run_once'
p3016
asbag62
(g83
g64
NtRp3017
(dp3018
g67
(dp3019
g94
g95
ssg76
g3008
sg69
(lp3020
S':'
asbag62
(g83
g64
NtRp3021
(dp3022
g67
(dp3023
sg76
g3008
sg69
(lp3024
g62
(g63
g64
NtRp3025
(dp3026
g67
(dp3027
g75
I3
ssg76
g3021
sg69
(lp3028
g105
asbasbasbag62
(g78
g64
NtRp3029
(dp3030
g67
(dp3031
sg76
g2497
sg69
(lp3032
g62
(g83
g64
NtRp3033
(dp3034
g67
(dp3035
g87
g88
ssg76
g3029
sg69
(lp3036
S'wsgi.url_scheme'
p3037
asbag62
(g83
g64
NtRp3038
(dp3039
g67
(dp3040
g94
g95
ssg76
g3029
sg69
(lp3041
S':'
asbag62
(g83
g64
NtRp3042
(dp3043
g67
(dp3044
sg76
g3029
sg69
(lp3045
g62
(g63
g64
NtRp3046
(dp3047
g67
(dp3048
g75
I3
ssg76
g3042
sg69
(lp3049
g1749
asbasbasbag62
(g78
g64
NtRp3050
(dp3051
g67
(dp3052
sg76
g2497
sg69
(lp3053
g62
(g83
g64
NtRp3054
(dp3055
g67
(dp3056
g87
g88
ssg76
g3050
sg69
(lp3057
S'wsgi.version'
p3058
asbag62
(g83
g64
NtRp3059
(dp3060
g67
(dp3061
g94
g95
ssg76
g3050
sg69
(lp3062
S':'
asbag62
(g83
g64
NtRp3063
(dp3064
g67
(dp3065
sg76
g3050
sg69
(lp3066
g62
(g63
g64
NtRp3067
(dp3068
g67
(dp3069
g75
I3
ssg76
g3063
sg69
(lp3070
S'1'
asbasbasbasbasbasbasbasbasbasbasbasbasbsS'frames'
p3071
(lp3072
(dp3073
S'file'
p3074
S'/home/mayank/Desktop/web2pyAdmin/web2py/web2py/gluon/restricted.py'
p3075
sS'dump'
p3076
(dp3077
S'environment'
p3078
S"{'A': <class 'gluon.html.A'>, 'B': <class 'gluon.html.B'>, 'BEAUTIFY': <class 'gluon.html.BEAUTIFY'>, 'BODY': <class 'gluon.html.BODY'>, 'BR': <class 'gluon.html.BR'>, 'BUTTON': <class 'gluon.html.BUTTON'>, 'CAT': <class 'gluon.html.CAT'>, 'CENTER': <class 'gluon.html.CENTER'>, 'CLEANUP': <class 'gluon.validators.CLEANUP'>, 'CODE': <class 'gluon.html.CODE'>, ...}"
p3079
sS'ccode'
p3080
S'<code object <module> at 0x7f7a786a09b0, file "/...ations/FunkLoad/models/codeGenerator.py", line 1>'
p3081
ssS'lnum'
p3082
I209
sS'lines'
p3083
(dp3084
I204
S'    try:'
p3085
sI205
S'        if type(code) == types.CodeType:'
p3086
sI206
S'            ccode = code'
p3087
sI207
S'        else:'
p3088
sI208
S'            ccode = compile2(code,layer)'
p3089
sI209
S'        exec ccode in environment'
p3090
sI210
S'    except HTTP:'
p3091
sI211
S'        raise'
p3092
sI212
S'    except RestrictedError:'
p3093
sI213
S'        # do not encapsulate (obfuscate) the original RestrictedError'
p3094
ssS'call'
p3095
S'(code="TEMPLATE_FILE = \'Template.conf\'\\ndef createCode(U...lhost\', \'20\', \'10\', \'50,75,100\', \'newConf.conf\')\\n", environment={\'A\': <class \'gluon.html.A\'>, \'B\': <class \'gluon.html.B\'>, \'BEAUTIFY\': <class \'gluon.html.BEAUTIFY\'>, \'BODY\': <class \'gluon.html.BODY\'>, \'BR\': <class \'gluon.html.BR\'>, \'BUTTON\': <class \'gluon.html.BUTTON\'>, \'CAT\': <class \'gluon.html.CAT\'>, \'CENTER\': <class \'gluon.html.CENTER\'>, \'CLEANUP\': <class \'gluon.validators.CLEANUP\'>, \'CODE\': <class \'gluon.html.CODE\'>, ...}, layer=\'/home/mayank/Desktop/web2pyAdmin/web2py/web2py/applications/FunkLoad/models/codeGenerator.py\')'
p3096
sS'func'
p3097
S'restricted'
p3098
sa(dp3099
g3074
S'/home/mayank/Desktop/web2pyAdmin/web2py/web2py/applications/FunkLoad/models/codeGenerator.py'
p3100
sg3076
(dp3101
S'createCode'
p3102
S'<function createCode>'
p3103
ssg3082
I12
sg3083
(dp3104
I3
S"        s = ''"
p3105
sI4
S"\tconf_file = open(TEMPLATE_FILE, 'r').read()"
p3106
sI5
S'\tl = cycles.split(",")'
p3107
sI6
S"        s = ':'.join(l)"
p3108
sI7
S'\tstress_file_mapped = conf_file % (URL, nb_time, s, duration)'
p3109
sI8
S"        destHandle = open(destFile, 'w+')"
p3110
sI9
S"        with open(destFile, 'w+') as d:"
p3111
sI10
S'            d.write(stress_file_mapped)'
p3112
sI11
S''
sI12
S"createCode('localhost', '20', '10', '50,75,100', 'newConf.conf')"
p3113
ssg3095
S'()'
p3114
sg3097
S'<module>'
p3115
sa(dp3116
g3074
S'/home/mayank/Desktop/web2pyAdmin/web2py/web2py/applications/FunkLoad/models/codeGenerator.py'
p3117
sg3076
(dp3118
S'builtinopen'
p3119
S'<built-in function open>'
p3120
sS'global TEMPLATE_FILE'
p3121
S"'Template.conf'"
p3122
sS'conf_file'
p3123
S'undefined'
p3124
sS').read'
p3125
g3124
ssg3082
I4
sg3083
(dp3126
I2
S'def createCode(URL, nb_time, duration, cycles, destFile):'
p3127
sI3
S"        s = ''"
p3128
sI4
S"\tconf_file = open(TEMPLATE_FILE, 'r').read()"
p3129
sI5
S'\tl = cycles.split(",")'
p3130
sI6
S"        s = ':'.join(l)"
p3131
sI7
S'\tstress_file_mapped = conf_file % (URL, nb_time, s, duration)'
p3132
sI8
S"        destHandle = open(destFile, 'w+')"
p3133
sI9
S"        with open(destFile, 'w+') as d:"
p3134
sI10
S'            d.write(stress_file_mapped)'
p3135
sI11
S''
ssg3095
S"(URL='localhost', nb_time='20', duration='10', cycles='50,75,100', destFile='newConf.conf')"
p3136
sg3097
S'createCode'
p3137
sasS'pyver'
p3138
S'Python 2.7.4: /usr/bin/python'
p3139
sS'session'
p3140
g62
(g63
g64
NtRp3141
(dp3142
g67
(dp3143
sg69
(lp3144
g62
(g71
g64
NtRp3145
(dp3146
g67
(dp3147
g75
I5
ssg76
Nsg69
(lp3148
g62
(g78
g64
NtRp3149
(dp3150
g67
(dp3151
sg76
g3145
sg69
(lp3152
g62
(g83
g64
NtRp3153
(dp3154
g67
(dp3155
g87
g88
ssg76
g3149
sg69
(lp3156
S'auth'
p3157
asbag62
(g83
g64
NtRp3158
(dp3159
g67
(dp3160
g94
g95
ssg76
g3149
sg69
(lp3161
S':'
asbag62
(g83
g64
NtRp3162
(dp3163
g67
(dp3164
sg76
g3149
sg69
(lp3165
g62
(g63
g64
NtRp3166
(dp3167
g67
(dp3168
g75
I5
ssg76
g3162
sg69
(lp3169
g62
(g71
g64
NtRp3170
(dp3171
g67
(dp3172
g75
I4
ssg76
Nsg69
(lp3173
g62
(g78
g64
NtRp3174
(dp3175
g67
(dp3176
sg76
g3170
sg69
(lp3177
g62
(g83
g64
NtRp3178
(dp3179
g67
(dp3180
g87
g88
ssg76
g3174
sg69
(lp3181
S'expiration'
p3182
asbag62
(g83
g64
NtRp3183
(dp3184
g67
(dp3185
g94
g95
ssg76
g3174
sg69
(lp3186
S':'
asbag62
(g83
g64
NtRp3187
(dp3188
g67
(dp3189
sg76
g3174
sg69
(lp3190
g62
(g63
g64
NtRp3191
(dp3192
g67
(dp3193
g75
I4
ssg76
g3187
sg69
(lp3194
S'3600'
p3195
asbasbasbag62
(g78
g64
NtRp3196
(dp3197
g67
(dp3198
sg76
g3170
sg69
(lp3199
g62
(g83
g64
NtRp3200
(dp3201
g67
(dp3202
g87
g88
ssg76
g3196
sg69
(lp3203
S'hmac_key'
p3204
asbag62
(g83
g64
NtRp3205
(dp3206
g67
(dp3207
g94
g95
ssg76
g3196
sg69
(lp3208
S':'
asbag62
(g83
g64
NtRp3209
(dp3210
g67
(dp3211
sg76
g3196
sg69
(lp3212
g62
(g63
g64
NtRp3213
(dp3214
g67
(dp3215
g75
I4
ssg76
g3209
sg69
(lp3216
S'c8f8b9b0-5815-4174-b012-4663e1b65ace'
p3217
asbasbasbag62
(g78
g64
NtRp3218
(dp3219
g67
(dp3220
sg76
g3170
sg69
(lp3221
g62
(g83
g64
NtRp3222
(dp3223
g67
(dp3224
g87
g88
ssg76
g3218
sg69
(lp3225
S'last_visit'
p3226
asbag62
(g83
g64
NtRp3227
(dp3228
g67
(dp3229
g94
g95
ssg76
g3218
sg69
(lp3230
S':'
asbag62
(g83
g64
NtRp3231
(dp3232
g67
(dp3233
sg76
g3218
sg69
(lp3234
g62
(g63
g64
NtRp3235
(dp3236
g67
(dp3237
g75
I4
ssg76
g3231
sg69
(lp3238
S'datetime.datetime(2013, 11, 10, 18, 34, 22, 588692)'
p3239
asbasbasbag62
(g78
g64
NtRp3240
(dp3241
g67
(dp3242
sg76
g3170
sg69
(lp3243
g62
(g83
g64
NtRp3244
(dp3245
g67
(dp3246
g87
g88
ssg76
g3240
sg69
(lp3247
S'remember'
p3248
asbag62
(g83
g64
NtRp3249
(dp3250
g67
(dp3251
g94
g95
ssg76
g3240
sg69
(lp3252
S':'
asbag62
(g83
g64
NtRp3253
(dp3254
g67
(dp3255
sg76
g3240
sg69
(lp3256
g62
(g63
g64
NtRp3257
(dp3258
g67
(dp3259
g75
I4
ssg76
g3253
sg69
(lp3260
g105
asbasbasbag62
(g78
g64
NtRp3261
(dp3262
g67
(dp3263
sg76
g3170
sg69
(lp3264
g62
(g83
g64
NtRp3265
(dp3266
g67
(dp3267
g87
g88
ssg76
g3261
sg69
(lp3268
S'user'
p3269
asbag62
(g83
g64
NtRp3270
(dp3271
g67
(dp3272
g94
g95
ssg76
g3261
sg69
(lp3273
S':'
asbag62
(g83
g64
NtRp3274
(dp3275
g67
(dp3276
sg76
g3261
sg69
(lp3277
g62
(g63
g64
NtRp3278
(dp3279
g67
(dp3280
g75
I4
ssg76
g3274
sg69
(lp3281
g62
(g71
g64
NtRp3282
(dp3283
g67
(dp3284
g75
I3
ssg76
Nsg69
(lp3285
g62
(g78
g64
NtRp3286
(dp3287
g67
(dp3288
sg76
g3282
sg69
(lp3289
g62
(g83
g64
NtRp3290
(dp3291
g67
(dp3292
g87
g88
ssg76
g3286
sg69
(lp3293
S'email'
p3294
asbag62
(g83
g64
NtRp3295
(dp3296
g67
(dp3297
g94
g95
ssg76
g3286
sg69
(lp3298
S':'
asbag62
(g83
g64
NtRp3299
(dp3300
g67
(dp3301
sg76
g3286
sg69
(lp3302
g62
(g63
g64
NtRp3303
(dp3304
g67
(dp3305
g75
I3
ssg76
g3299
sg69
(lp3306
S'mayank.g@students.iiit.ac.in'
p3307
asbasbasbag62
(g78
g64
NtRp3308
(dp3309
g67
(dp3310
sg76
g3282
sg69
(lp3311
g62
(g83
g64
NtRp3312
(dp3313
g67
(dp3314
g87
g88
ssg76
g3308
sg69
(lp3315
S'first_name'
p3316
asbag62
(g83
g64
NtRp3317
(dp3318
g67
(dp3319
g94
g95
ssg76
g3308
sg69
(lp3320
S':'
asbag62
(g83
g64
NtRp3321
(dp3322
g67
(dp3323
sg76
g3308
sg69
(lp3324
g62
(g63
g64
NtRp3325
(dp3326
g67
(dp3327
g75
I3
ssg76
g3321
sg69
(lp3328
S'Mayank'
p3329
asbasbasbag62
(g78
g64
NtRp3330
(dp3331
g67
(dp3332
sg76
g3282
sg69
(lp3333
g62
(g83
g64
NtRp3334
(dp3335
g67
(dp3336
g87
g88
ssg76
g3330
sg69
(lp3337
S'id'
p3338
asbag62
(g83
g64
NtRp3339
(dp3340
g67
(dp3341
g94
g95
ssg76
g3330
sg69
(lp3342
S':'
asbag62
(g83
g64
NtRp3343
(dp3344
g67
(dp3345
sg76
g3330
sg69
(lp3346
g62
(g63
g64
NtRp3347
(dp3348
g67
(dp3349
g75
I3
ssg76
g3343
sg69
(lp3350
S'1'
asbasbasbag62
(g78
g64
NtRp3351
(dp3352
g67
(dp3353
sg76
g3282
sg69
(lp3354
g62
(g83
g64
NtRp3355
(dp3356
g67
(dp3357
g87
g88
ssg76
g3351
sg69
(lp3358
S'last_name'
p3359
asbag62
(g83
g64
NtRp3360
(dp3361
g67
(dp3362
g94
g95
ssg76
g3351
sg69
(lp3363
S':'
asbag62
(g83
g64
NtRp3364
(dp3365
g67
(dp3366
sg76
g3351
sg69
(lp3367
g62
(g63
g64
NtRp3368
(dp3369
g67
(dp3370
g75
I3
ssg76
g3364
sg69
(lp3371
S'Gupta'
p3372
asbasbasbag62
(g78
g64
NtRp3373
(dp3374
g67
(dp3375
sg76
g3282
sg69
(lp3376
g62
(g83
g64
NtRp3377
(dp3378
g67
(dp3379
g87
g88
ssg76
g3373
sg69
(lp3380
S'password'
p3381
asbag62
(g83
g64
NtRp3382
(dp3383
g67
(dp3384
g94
g95
ssg76
g3373
sg69
(lp3385
S':'
asbag62
(g83
g64
NtRp3386
(dp3387
g67
(dp3388
sg76
g3373
sg69
(lp3389
g62
(g63
g64
NtRp3390
(dp3391
g67
(dp3392
g75
I3
ssg76
g3386
sg69
(lp3393
S'pbkdf2(1000,20,sha512)$a496878cc8b951c5$137e42454abf6cff232aebcc4f0c3801419a78ac'
p3394
asbasbasbag62
(g78
g64
NtRp3395
(dp3396
g67
(dp3397
sg76
g3282
sg69
(lp3398
g62
(g83
g64
NtRp3399
(dp3400
g67
(dp3401
g87
g88
ssg76
g3395
sg69
(lp3402
S'registration_id'
p3403
asbag62
(g83
g64
NtRp3404
(dp3405
g67
(dp3406
g94
g95
ssg76
g3395
sg69
(lp3407
S':'
asbag62
(g83
g64
NtRp3408
(dp3409
g67
(dp3410
sg76
g3395
sg69
(lp3411
g62
(g63
g64
NtRp3412
(dp3413
g67
(dp3414
g75
I3
ssg76
g3408
sg69
(lp3415
S''
asbasbasbag62
(g78
g64
NtRp3416
(dp3417
g67
(dp3418
sg76
g3282
sg69
(lp3419
g62
(g83
g64
NtRp3420
(dp3421
g67
(dp3422
g87
g88
ssg76
g3416
sg69
(lp3423
S'registration_key'
p3424
asbag62
(g83
g64
NtRp3425
(dp3426
g67
(dp3427
g94
g95
ssg76
g3416
sg69
(lp3428
S':'
asbag62
(g83
g64
NtRp3429
(dp3430
g67
(dp3431
sg76
g3416
sg69
(lp3432
g62
(g63
g64
NtRp3433
(dp3434
g67
(dp3435
g75
I3
ssg76
g3429
sg69
(lp3436
S''
asbasbasbag62
(g78
g64
NtRp3437
(dp3438
g67
(dp3439
sg76
g3282
sg69
(lp3440
g62
(g83
g64
NtRp3441
(dp3442
g67
(dp3443
g87
g88
ssg76
g3437
sg69
(lp3444
S'reset_password_key'
p3445
asbag62
(g83
g64
NtRp3446
(dp3447
g67
(dp3448
g94
g95
ssg76
g3437
sg69
(lp3449
S':'
asbag62
(g83
g64
NtRp3450
(dp3451
g67
(dp3452
sg76
g3437
sg69
(lp3453
g62
(g63
g64
NtRp3454
(dp3455
g67
(dp3456
g75
I3
ssg76
g3450
sg69
(lp3457
S''
asbasbasbasbasbasbasbag62
(g78
g64
NtRp3458
(dp3459
g67
(dp3460
sg76
g3170
sg69
(lp3461
g62
(g83
g64
NtRp3462
(dp3463
g67
(dp3464
g87
g88
ssg76
g3458
sg69
(lp3465
S'user_groups'
p3466
asbag62
(g83
g64
NtRp3467
(dp3468
g67
(dp3469
g94
g95
ssg76
g3458
sg69
(lp3470
S':'
asbag62
(g83
g64
NtRp3471
(dp3472
g67
(dp3473
sg76
g3458
sg69
(lp3474
g62
(g63
g64
NtRp3475
(dp3476
g67
(dp3477
g75
I4
ssg76
g3471
sg69
(lp3478
g62
(g71
g64
NtRp3479
(dp3480
g67
(dp3481
g75
I3
ssg76
Nsg69
(lp3482
g62
(g78
g64
NtRp3483
(dp3484
g67
(dp3485
sg76
g3479
sg69
(lp3486
g62
(g83
g64
NtRp3487
(dp3488
g67
(dp3489
g87
g88
ssg76
g3483
sg69
(lp3490
S'1'
asbag62
(g83
g64
NtRp3491
(dp3492
g67
(dp3493
g94
g95
ssg76
g3483
sg69
(lp3494
S':'
asbag62
(g83
g64
NtRp3495
(dp3496
g67
(dp3497
sg76
g3483
sg69
(lp3498
g62
(g63
g64
NtRp3499
(dp3500
g67
(dp3501
g75
I3
ssg76
g3495
sg69
(lp3502
S'user_1'
p3503
asbasbasbasbasbasbasbasbasbasbasbag62
(g78
g64
NtRp3504
(dp3505
g67
(dp3506
sg76
g3145
sg69
(lp3507
g62
(g83
g64
NtRp3508
(dp3509
g67
(dp3510
g87
g88
ssg76
g3504
sg69
(lp3511
S'email'
p3512
asbag62
(g83
g64
NtRp3513
(dp3514
g67
(dp3515
g94
g95
ssg76
g3504
sg69
(lp3516
S':'
asbag62
(g83
g64
NtRp3517
(dp3518
g67
(dp3519
sg76
g3504
sg69
(lp3520
g62
(g63
g64
NtRp3521
(dp3522
g67
(dp3523
g75
I5
ssg76
g3517
sg69
(lp3524
S'mayank.g@students.iiit.ac.in'
p3525
asbasbasbag62
(g78
g64
NtRp3526
(dp3527
g67
(dp3528
sg76
g3145
sg69
(lp3529
g62
(g83
g64
NtRp3530
(dp3531
g67
(dp3532
g87
g88
ssg76
g3526
sg69
(lp3533
S'flash'
p3534
asbag62
(g83
g64
NtRp3535
(dp3536
g67
(dp3537
g94
g95
ssg76
g3526
sg69
(lp3538
S':'
asbag62
(g83
g64
NtRp3539
(dp3540
g67
(dp3541
sg76
g3526
sg69
(lp3542
g62
(g63
g64
NtRp3543
(dp3544
g67
(dp3545
g75
I5
ssg76
g3539
sg69
(lp3546
S'None'
p3547
asbasbasbag62
(g78
g64
NtRp3548
(dp3549
g67
(dp3550
sg76
g3145
sg69
(lp3551
g62
(g83
g64
NtRp3552
(dp3553
g67
(dp3554
g87
g88
ssg76
g3548
sg69
(lp3555
S'last_orderby'
p3556
asbag62
(g83
g64
NtRp3557
(dp3558
g67
(dp3559
g94
g95
ssg76
g3548
sg69
(lp3560
S':'
asbag62
(g83
g64
NtRp3561
(dp3562
g67
(dp3563
sg76
g3548
sg69
(lp3564
g62
(g63
g64
NtRp3565
(dp3566
g67
(dp3567
g75
I5
ssg76
g3561
sg69
(lp3568
S'None'
p3569
asbasbasbag62
(g78
g64
NtRp3570
(dp3571
g67
(dp3572
sg76
g3145
sg69
(lp3573
g62
(g83
g64
NtRp3574
(dp3575
g67
(dp3576
g87
g88
ssg76
g3570
sg69
(lp3577
S'last_query'
p3578
asbag62
(g83
g64
NtRp3579
(dp3580
g67
(dp3581
g94
g95
ssg76
g3570
sg69
(lp3582
S':'
asbag62
(g83
g64
NtRp3583
(dp3584
g67
(dp3585
sg76
g3570
sg69
(lp3586
g62
(g63
g64
NtRp3587
(dp3588
g67
(dp3589
g75
I5
ssg76
g3583
sg69
(lp3590
S'db.TestDetails.id>0'
p3591
asbasbasbasbasbsS'etype'
p3592
S"<type 'exceptions.IOError'>"
p3593
sS'date'
p3594
S'Sun Nov 10 18:47:26 2013'
p3595
sS'response'
p3596
g62
(g63
g64
NtRp3597
(dp3598
g67
(dp3599
sg69
(lp3600
g62
(g71
g64
NtRp3601
(dp3602
g67
(dp3603
g75
I5
ssg76
Nsg69
(lp3604
g62
(g78
g64
NtRp3605
(dp3606
g67
(dp3607
sg76
g3601
sg69
(lp3608
g62
(g83
g64
NtRp3609
(dp3610
g67
(dp3611
g87
g88
ssg76
g3605
sg69
(lp3612
g160
asbag62
(g83
g64
NtRp3613
(dp3614
g67
(dp3615
g94
g95
ssg76
g3605
sg69
(lp3616
S':'
asbag62
(g83
g64
NtRp3617
(dp3618
g67
(dp3619
sg76
g3605
sg69
(lp3620
g62
(g63
g64
NtRp3621
(dp3622
g67
(dp3623
g75
I5
ssg76
g3617
sg69
(lp3624
S'<cStringIO.StringO object at 0x7f7a643da650>'
p3625
asbasbasbag62
(g78
g64
NtRp3626
(dp3627
g67
(dp3628
sg76
g3601
sg69
(lp3629
g62
(g83
g64
NtRp3630
(dp3631
g67
(dp3632
g87
g88
ssg76
g3626
sg69
(lp3633
g248
asbag62
(g83
g64
NtRp3634
(dp3635
g67
(dp3636
g94
g95
ssg76
g3626
sg69
(lp3637
S':'
asbag62
(g83
g64
NtRp3638
(dp3639
g67
(dp3640
sg76
g3626
sg69
(lp3641
g62
(g63
g64
NtRp3642
(dp3643
g67
(dp3644
g75
I5
ssg76
g3638
sg69
(lp3645
g62
(g71
g64
NtRp3646
(dp3647
g67
(dp3648
g75
I4
ssg76
Nsg69
(lp3649
g62
(g78
g64
NtRp3650
(dp3651
g67
(dp3652
sg76
g3646
sg69
(lp3653
g62
(g83
g64
NtRp3654
(dp3655
g67
(dp3656
g87
g88
ssg76
g3650
sg69
(lp3657
S'session_id_funkload'
p3658
asbag62
(g83
g64
NtRp3659
(dp3660
g67
(dp3661
g94
g95
ssg76
g3650
sg69
(lp3662
S':'
asbag62
(g83
g64
NtRp3663
(dp3664
g67
(dp3665
sg76
g3650
sg69
(lp3666
g62
(g63
g64
NtRp3667
(dp3668
g67
(dp3669
g75
I4
ssg76
g3663
sg69
(lp3670
g480
ag62
(g71
g64
NtRp3671
(dp3672
g67
(dp3673
g75
I3
ssg76
Nsg69
(lp3674
g62
(g78
g64
NtRp3675
(dp3676
g67
(dp3677
sg76
g3671
sg69
(lp3678
g62
(g83
g64
NtRp3679
(dp3680
g67
(dp3681
g87
g88
ssg76
g3675
sg69
(lp3682
g299
asbag62
(g83
g64
NtRp3683
(dp3684
g67
(dp3685
g94
g95
ssg76
g3675
sg69
(lp3686
S':'
asbag62
(g83
g64
NtRp3687
(dp3688
g67
(dp3689
sg76
g3675
sg69
(lp3690
g62
(g63
g64
NtRp3691
(dp3692
g67
(dp3693
g75
I3
ssg76
g3687
sg69
(lp3694
S''
asbasbasbag62
(g78
g64
NtRp3695
(dp3696
g67
(dp3697
sg76
g3671
sg69
(lp3698
g62
(g83
g64
NtRp3699
(dp3700
g67
(dp3701
g87
g88
ssg76
g3695
sg69
(lp3702
g320
asbag62
(g83
g64
NtRp3703
(dp3704
g67
(dp3705
g94
g95
ssg76
g3695
sg69
(lp3706
S':'
asbag62
(g83
g64
NtRp3707
(dp3708
g67
(dp3709
sg76
g3695
sg69
(lp3710
g62
(g63
g64
NtRp3711
(dp3712
g67
(dp3713
g75
I3
ssg76
g3707
sg69
(lp3714
S''
asbasbasbag62
(g78
g64
NtRp3715
(dp3716
g67
(dp3717
sg76
g3671
sg69
(lp3718
g62
(g83
g64
NtRp3719
(dp3720
g67
(dp3721
g87
g88
ssg76
g3715
sg69
(lp3722
g341
asbag62
(g83
g64
NtRp3723
(dp3724
g67
(dp3725
g94
g95
ssg76
g3715
sg69
(lp3726
S':'
asbag62
(g83
g64
NtRp3727
(dp3728
g67
(dp3729
sg76
g3715
sg69
(lp3730
g62
(g63
g64
NtRp3731
(dp3732
g67
(dp3733
g75
I3
ssg76
g3727
sg69
(lp3734
S''
asbasbasbag62
(g78
g64
NtRp3735
(dp3736
g67
(dp3737
sg76
g3671
sg69
(lp3738
g62
(g83
g64
NtRp3739
(dp3740
g67
(dp3741
g87
g88
ssg76
g3735
sg69
(lp3742
g362
asbag62
(g83
g64
NtRp3743
(dp3744
g67
(dp3745
g94
g95
ssg76
g3735
sg69
(lp3746
S':'
asbag62
(g83
g64
NtRp3747
(dp3748
g67
(dp3749
sg76
g3735
sg69
(lp3750
g62
(g63
g64
NtRp3751
(dp3752
g67
(dp3753
g75
I3
ssg76
g3747
sg69
(lp3754
S''
asbasbasbag62
(g78
g64
NtRp3755
(dp3756
g67
(dp3757
sg76
g3671
sg69
(lp3758
g62
(g83
g64
NtRp3759
(dp3760
g67
(dp3761
g87
g88
ssg76
g3755
sg69
(lp3762
g383
asbag62
(g83
g64
NtRp3763
(dp3764
g67
(dp3765
g94
g95
ssg76
g3755
sg69
(lp3766
S':'
asbag62
(g83
g64
NtRp3767
(dp3768
g67
(dp3769
sg76
g3755
sg69
(lp3770
g62
(g63
g64
NtRp3771
(dp3772
g67
(dp3773
g75
I3
ssg76
g3767
sg69
(lp3774
S''
asbasbasbag62
(g78
g64
NtRp3775
(dp3776
g67
(dp3777
sg76
g3671
sg69
(lp3778
g62
(g83
g64
NtRp3779
(dp3780
g67
(dp3781
g87
g88
ssg76
g3775
sg69
(lp3782
g404
asbag62
(g83
g64
NtRp3783
(dp3784
g67
(dp3785
g94
g95
ssg76
g3775
sg69
(lp3786
S':'
asbag62
(g83
g64
NtRp3787
(dp3788
g67
(dp3789
sg76
g3775
sg69
(lp3790
g62
(g63
g64
NtRp3791
(dp3792
g67
(dp3793
g75
I3
ssg76
g3787
sg69
(lp3794
S'/'
asbasbasbag62
(g78
g64
NtRp3795
(dp3796
g67
(dp3797
sg76
g3671
sg69
(lp3798
g62
(g83
g64
NtRp3799
(dp3800
g67
(dp3801
g87
g88
ssg76
g3795
sg69
(lp3802
g425
asbag62
(g83
g64
NtRp3803
(dp3804
g67
(dp3805
g94
g95
ssg76
g3795
sg69
(lp3806
S':'
asbag62
(g83
g64
NtRp3807
(dp3808
g67
(dp3809
sg76
g3795
sg69
(lp3810
g62
(g63
g64
NtRp3811
(dp3812
g67
(dp3813
g75
I3
ssg76
g3807
sg69
(lp3814
S''
asbasbasbag62
(g78
g64
NtRp3815
(dp3816
g67
(dp3817
sg76
g3671
sg69
(lp3818
g62
(g83
g64
NtRp3819
(dp3820
g67
(dp3821
g87
g88
ssg76
g3815
sg69
(lp3822
g446
asbag62
(g83
g64
NtRp3823
(dp3824
g67
(dp3825
g94
g95
ssg76
g3815
sg69
(lp3826
S':'
asbag62
(g83
g64
NtRp3827
(dp3828
g67
(dp3829
sg76
g3815
sg69
(lp3830
g62
(g63
g64
NtRp3831
(dp3832
g67
(dp3833
g75
I3
ssg76
g3827
sg69
(lp3834
S''
asbasbasbasbasbasbasbasbasbasbasbag62
(g78
g64
NtRp3835
(dp3836
g67
(dp3837
sg76
g3601
sg69
(lp3838
g62
(g83
g64
NtRp3839
(dp3840
g67
(dp3841
g87
g88
ssg76
g3835
sg69
(lp3842
S'delimiters'
p3843
asbag62
(g83
g64
NtRp3844
(dp3845
g67
(dp3846
g94
g95
ssg76
g3835
sg69
(lp3847
S':'
asbag62
(g83
g64
NtRp3848
(dp3849
g67
(dp3850
sg76
g3835
sg69
(lp3851
g62
(g63
g64
NtRp3852
(dp3853
g67
(dp3854
g75
I5
ssg76
g3848
sg69
(lp3855
g62
(g71
g64
NtRp3856
(dp3857
g67
(dp3858
g75
I4
ssg76
Nsg69
(lp3859
g62
(g78
g64
NtRp3860
(dp3861
g67
(dp3862
sg76
g3856
sg69
(lp3863
g62
(g83
g64
NtRp3864
(dp3865
g67
(dp3866
sg76
g3860
sg69
(lp3867
g62
(g63
g64
NtRp3868
(dp3869
g67
(dp3870
g75
I4
ssg76
g3864
sg69
(lp3871
S'{{'
p3872
asbasbasbag62
(g78
g64
NtRp3873
(dp3874
g67
(dp3875
sg76
g3856
sg69
(lp3876
g62
(g83
g64
NtRp3877
(dp3878
g67
(dp3879
sg76
g3873
sg69
(lp3880
g62
(g63
g64
NtRp3881
(dp3882
g67
(dp3883
g75
I4
ssg76
g3877
sg69
(lp3884
S'}}'
p3885
asbasbasbasbasbasbasbag62
(g78
g64
NtRp3886
(dp3887
g67
(dp3888
sg76
g3601
sg69
(lp3889
g62
(g83
g64
NtRp3890
(dp3891
g67
(dp3892
g87
g88
ssg76
g3886
sg69
(lp3893
S'files'
p3894
asbag62
(g83
g64
NtRp3895
(dp3896
g67
(dp3897
g94
g95
ssg76
g3886
sg69
(lp3898
S':'
asbag62
(g83
g64
NtRp3899
(dp3900
g67
(dp3901
sg76
g3886
sg69
(lp3902
g62
(g63
g64
NtRp3903
(dp3904
g67
(dp3905
g75
I5
ssg76
g3899
sg69
(lp3906
g62
(g71
g64
NtRp3907
(dp3908
g67
(dp3909
g75
I4
ssg76
Nsg69
(lp3910
sbasbasbasbag62
(g78
g64
NtRp3911
(dp3912
g67
(dp3913
sg76
g3601
sg69
(lp3914
g62
(g83
g64
NtRp3915
(dp3916
g67
(dp3917
g87
g88
ssg76
g3911
sg69
(lp3918
S'flash'
p3919
asbag62
(g83
g64
NtRp3920
(dp3921
g67
(dp3922
g94
g95
ssg76
g3911
sg69
(lp3923
S':'
asbag62
(g83
g64
NtRp3924
(dp3925
g67
(dp3926
sg76
g3911
sg69
(lp3927
g62
(g63
g64
NtRp3928
(dp3929
g67
(dp3930
g75
I5
ssg76
g3924
sg69
(lp3931
S''
asbasbasbag62
(g78
g64
NtRp3932
(dp3933
g67
(dp3934
sg76
g3601
sg69
(lp3935
g62
(g83
g64
NtRp3936
(dp3937
g67
(dp3938
g87
g88
ssg76
g3932
sg69
(lp3939
S'generic_patterns'
p3940
asbag62
(g83
g64
NtRp3941
(dp3942
g67
(dp3943
g94
g95
ssg76
g3932
sg69
(lp3944
S':'
asbag62
(g83
g64
NtRp3945
(dp3946
g67
(dp3947
sg76
g3932
sg69
(lp3948
g62
(g63
g64
NtRp3949
(dp3950
g67
(dp3951
g75
I5
ssg76
g3945
sg69
(lp3952
g62
(g71
g64
NtRp3953
(dp3954
g67
(dp3955
g75
I4
ssg76
Nsg69
(lp3956
sbasbasbasbag62
(g78
g64
NtRp3957
(dp3958
g67
(dp3959
sg76
g3601
sg69
(lp3960
g62
(g83
g64
NtRp3961
(dp3962
g67
(dp3963
g87
g88
ssg76
g3957
sg69
(lp3964
S'headers'
p3965
asbag62
(g83
g64
NtRp3966
(dp3967
g67
(dp3968
g94
g95
ssg76
g3957
sg69
(lp3969
S':'
asbag62
(g83
g64
NtRp3970
(dp3971
g67
(dp3972
sg76
g3957
sg69
(lp3973
g62
(g63
g64
NtRp3974
(dp3975
g67
(dp3976
g75
I5
ssg76
g3970
sg69
(lp3977
g62
(g71
g64
NtRp3978
(dp3979
g67
(dp3980
g75
I4
ssg76
Nsg69
(lp3981
g62
(g78
g64
NtRp3982
(dp3983
g67
(dp3984
sg76
g3978
sg69
(lp3985
g62
(g83
g64
NtRp3986
(dp3987
g67
(dp3988
g87
g88
ssg76
g3982
sg69
(lp3989
S'Cache-Control'
p3990
asbag62
(g83
g64
NtRp3991
(dp3992
g67
(dp3993
g94
g95
ssg76
g3982
sg69
(lp3994
S':'
asbag62
(g83
g64
NtRp3995
(dp3996
g67
(dp3997
sg76
g3982
sg69
(lp3998
g62
(g63
g64
NtRp3999
(dp4000
g67
(dp4001
g75
I4
ssg76
g3995
sg69
(lp4002
S'no-store, no-cache, must-revalidate, post-check=0, pre-check=0'
p4003
asbasbasbag62
(g78
g64
NtRp4004
(dp4005
g67
(dp4006
sg76
g3978
sg69
(lp4007
g62
(g83
g64
NtRp4008
(dp4009
g67
(dp4010
g87
g88
ssg76
g4004
sg69
(lp4011
S'Content-Type'
p4012
asbag62
(g83
g64
NtRp4013
(dp4014
g67
(dp4015
g94
g95
ssg76
g4004
sg69
(lp4016
S':'
asbag62
(g83
g64
NtRp4017
(dp4018
g67
(dp4019
sg76
g4004
sg69
(lp4020
g62
(g63
g64
NtRp4021
(dp4022
g67
(dp4023
g75
I4
ssg76
g4017
sg69
(lp4024
S'text/html; charset=utf-8'
p4025
asbasbasbag62
(g78
g64
NtRp4026
(dp4027
g67
(dp4028
sg76
g3978
sg69
(lp4029
g62
(g83
g64
NtRp4030
(dp4031
g67
(dp4032
g87
g88
ssg76
g4026
sg69
(lp4033
S'Expires'
p4034
asbag62
(g83
g64
NtRp4035
(dp4036
g67
(dp4037
g94
g95
ssg76
g4026
sg69
(lp4038
S':'
asbag62
(g83
g64
NtRp4039
(dp4040
g67
(dp4041
sg76
g4026
sg69
(lp4042
g62
(g63
g64
NtRp4043
(dp4044
g67
(dp4045
g75
I4
ssg76
g4039
sg69
(lp4046
S'Sun, 10 Nov 2013 13:17:26 GMT'
p4047
asbasbasbag62
(g78
g64
NtRp4048
(dp4049
g67
(dp4050
sg76
g3978
sg69
(lp4051
g62
(g83
g64
NtRp4052
(dp4053
g67
(dp4054
g87
g88
ssg76
g4048
sg69
(lp4055
S'Pragma'
p4056
asbag62
(g83
g64
NtRp4057
(dp4058
g67
(dp4059
g94
g95
ssg76
g4048
sg69
(lp4060
S':'
asbag62
(g83
g64
NtRp4061
(dp4062
g67
(dp4063
sg76
g4048
sg69
(lp4064
g62
(g63
g64
NtRp4065
(dp4066
g67
(dp4067
g75
I4
ssg76
g4061
sg69
(lp4068
S'no-cache'
p4069
asbasbasbag62
(g78
g64
NtRp4070
(dp4071
g67
(dp4072
sg76
g3978
sg69
(lp4073
g62
(g83
g64
NtRp4074
(dp4075
g67
(dp4076
g87
g88
ssg76
g4070
sg69
(lp4077
S'X-Powered-By'
p4078
asbag62
(g83
g64
NtRp4079
(dp4080
g67
(dp4081
g94
g95
ssg76
g4070
sg69
(lp4082
S':'
asbag62
(g83
g64
NtRp4083
(dp4084
g67
(dp4085
sg76
g4070
sg69
(lp4086
g62
(g63
g64
NtRp4087
(dp4088
g67
(dp4089
g75
I4
ssg76
g4083
sg69
(lp4090
S'web2py'
p4091
asbasbasbasbasbasbasbag62
(g78
g64
NtRp4092
(dp4093
g67
(dp4094
sg76
g3601
sg69
(lp4095
g62
(g83
g64
NtRp4096
(dp4097
g67
(dp4098
g87
g88
ssg76
g4092
sg69
(lp4099
S'menu'
p4100
asbag62
(g83
g64
NtRp4101
(dp4102
g67
(dp4103
g94
g95
ssg76
g4092
sg69
(lp4104
S':'
asbag62
(g83
g64
NtRp4105
(dp4106
g67
(dp4107
sg76
g4092
sg69
(lp4108
g62
(g63
g64
NtRp4109
(dp4110
g67
(dp4111
g75
I5
ssg76
g4105
sg69
(lp4112
g62
(g71
g64
NtRp4113
(dp4114
g67
(dp4115
g75
I4
ssg76
Nsg69
(lp4116
sbasbasbasbag62
(g78
g64
NtRp4117
(dp4118
g67
(dp4119
sg76
g3601
sg69
(lp4120
g62
(g83
g64
NtRp4121
(dp4122
g67
(dp4123
g87
g88
ssg76
g4117
sg69
(lp4124
S'meta'
p4125
asbag62
(g83
g64
NtRp4126
(dp4127
g67
(dp4128
g94
g95
ssg76
g4117
sg69
(lp4129
S':'
asbag62
(g83
g64
NtRp4130
(dp4131
g67
(dp4132
sg76
g4117
sg69
(lp4133
g62
(g63
g64
NtRp4134
(dp4135
g67
(dp4136
g75
I5
ssg76
g4130
sg69
(lp4137
g62
(g71
g64
NtRp4138
(dp4139
g67
(dp4140
g75
I4
ssg76
Nsg69
(lp4141
sbasbasbasbag62
(g78
g64
NtRp4142
(dp4143
g67
(dp4144
sg76
g3601
sg69
(lp4145
g62
(g83
g64
NtRp4146
(dp4147
g67
(dp4148
g87
g88
ssg76
g4142
sg69
(lp4149
S'models_to_run'
p4150
asbag62
(g83
g64
NtRp4151
(dp4152
g67
(dp4153
g94
g95
ssg76
g4142
sg69
(lp4154
S':'
asbag62
(g83
g64
NtRp4155
(dp4156
g67
(dp4157
sg76
g4142
sg69
(lp4158
g62
(g63
g64
NtRp4159
(dp4160
g67
(dp4161
g75
I5
ssg76
g4155
sg69
(lp4162
g62
(g71
g64
NtRp4163
(dp4164
g67
(dp4165
g75
I4
ssg76
Nsg69
(lp4166
g62
(g78
g64
NtRp4167
(dp4168
g67
(dp4169
sg76
g4163
sg69
(lp4170
g62
(g83
g64
NtRp4171
(dp4172
g67
(dp4173
sg76
g4167
sg69
(lp4174
g62
(g63
g64
NtRp4175
(dp4176
g67
(dp4177
g75
I4
ssg76
g4171
sg69
(lp4178
S'^\\w+\\.py$'
p4179
asbasbasbag62
(g78
g64
NtRp4180
(dp4181
g67
(dp4182
sg76
g4163
sg69
(lp4183
g62
(g83
g64
NtRp4184
(dp4185
g67
(dp4186
sg76
g4180
sg69
(lp4187
g62
(g63
g64
NtRp4188
(dp4189
g67
(dp4190
g75
I4
ssg76
g4184
sg69
(lp4191
S'^default/\\w+\\.py$'
p4192
asbasbasbag62
(g78
g64
NtRp4193
(dp4194
g67
(dp4195
sg76
g4163
sg69
(lp4196
g62
(g83
g64
NtRp4197
(dp4198
g67
(dp4199
sg76
g4193
sg69
(lp4200
g62
(g63
g64
NtRp4201
(dp4202
g67
(dp4203
g75
I4
ssg76
g4197
sg69
(lp4204
S'^default/testDetails/\\w+\\.py$'
p4205
asbasbasbasbasbasbasbag62
(g78
g64
NtRp4206
(dp4207
g67
(dp4208
sg76
g3601
sg69
(lp4209
g62
(g83
g64
NtRp4210
(dp4211
g67
(dp4212
g87
g88
ssg76
g4206
sg69
(lp4213
S'postprocessing'
p4214
asbag62
(g83
g64
NtRp4215
(dp4216
g67
(dp4217
g94
g95
ssg76
g4206
sg69
(lp4218
S':'
asbag62
(g83
g64
NtRp4219
(dp4220
g67
(dp4221
sg76
g4206
sg69
(lp4222
g62
(g63
g64
NtRp4223
(dp4224
g67
(dp4225
g75
I5
ssg76
g4219
sg69
(lp4226
g62
(g71
g64
NtRp4227
(dp4228
g67
(dp4229
g75
I4
ssg76
Nsg69
(lp4230
sbasbasbasbag62
(g78
g64
NtRp4231
(dp4232
g67
(dp4233
sg76
g3601
sg69
(lp4234
g62
(g83
g64
NtRp4235
(dp4236
g67
(dp4237
g87
g88
ssg76
g4231
sg69
(lp4238
S'session_file'
p4239
asbag62
(g83
g64
NtRp4240
(dp4241
g67
(dp4242
g94
g95
ssg76
g4231
sg69
(lp4243
S':'
asbag62
(g83
g64
NtRp4244
(dp4245
g67
(dp4246
sg76
g4231
sg69
(lp4247
g62
(g63
g64
NtRp4248
(dp4249
g67
(dp4250
g75
I5
ssg76
g4244
sg69
(lp4251
S"<open file '/home/mayank/Desktop/web2pyAdmin/web2py/web2py/applications/FunkLoad/sessions/10.1.33.107-36ba3c88-7bcb-4a0e-bb0a-8936efb689ab', mode 'rb+' at 0x7f7a7421d150>"
p4252
asbasbasbag62
(g78
g64
NtRp4253
(dp4254
g67
(dp4255
sg76
g3601
sg69
(lp4256
g62
(g83
g64
NtRp4257
(dp4258
g67
(dp4259
g87
g88
ssg76
g4253
sg69
(lp4260
S'session_filename'
p4261
asbag62
(g83
g64
NtRp4262
(dp4263
g67
(dp4264
g94
g95
ssg76
g4253
sg69
(lp4265
S':'
asbag62
(g83
g64
NtRp4266
(dp4267
g67
(dp4268
sg76
g4253
sg69
(lp4269
g62
(g63
g64
NtRp4270
(dp4271
g67
(dp4272
g75
I5
ssg76
g4266
sg69
(lp4273
S'/home/mayank/Desktop/web2pyAdmin/web2py/web2py/applications/FunkLoad/sessions/10.1.33.107-36ba3c88-7bcb-4a0e-bb0a-8936efb689ab'
p4274
asbasbasbag62
(g78
g64
NtRp4275
(dp4276
g67
(dp4277
sg76
g3601
sg69
(lp4278
g62
(g83
g64
NtRp4279
(dp4280
g67
(dp4281
g87
g88
ssg76
g4275
sg69
(lp4282
S'session_id'
p4283
asbag62
(g83
g64
NtRp4284
(dp4285
g67
(dp4286
g94
g95
ssg76
g4275
sg69
(lp4287
S':'
asbag62
(g83
g64
NtRp4288
(dp4289
g67
(dp4290
sg76
g4275
sg69
(lp4291
g62
(g63
g64
NtRp4292
(dp4293
g67
(dp4294
g75
I5
ssg76
g4288
sg69
(lp4295
g480
asbasbasbag62
(g78
g64
NtRp4296
(dp4297
g67
(dp4298
sg76
g3601
sg69
(lp4299
g62
(g83
g64
NtRp4300
(dp4301
g67
(dp4302
g87
g88
ssg76
g4296
sg69
(lp4303
S'session_id_name'
p4304
asbag62
(g83
g64
NtRp4305
(dp4306
g67
(dp4307
g94
g95
ssg76
g4296
sg69
(lp4308
S':'
asbag62
(g83
g64
NtRp4309
(dp4310
g67
(dp4311
sg76
g4296
sg69
(lp4312
g62
(g63
g64
NtRp4313
(dp4314
g67
(dp4315
g75
I5
ssg76
g4309
sg69
(lp4316
g3658
asbasbasbag62
(g78
g64
NtRp4317
(dp4318
g67
(dp4319
sg76
g3601
sg69
(lp4320
g62
(g83
g64
NtRp4321
(dp4322
g67
(dp4323
g87
g88
ssg76
g4317
sg69
(lp4324
S'session_locked'
p4325
asbag62
(g83
g64
NtRp4326
(dp4327
g67
(dp4328
g94
g95
ssg76
g4317
sg69
(lp4329
S':'
asbag62
(g83
g64
NtRp4330
(dp4331
g67
(dp4332
sg76
g4317
sg69
(lp4333
g62
(g63
g64
NtRp4334
(dp4335
g67
(dp4336
g75
I5
ssg76
g4330
sg69
(lp4337
g1706
asbasbasbag62
(g78
g64
NtRp4338
(dp4339
g67
(dp4340
sg76
g3601
sg69
(lp4341
g62
(g83
g64
NtRp4342
(dp4343
g67
(dp4344
g87
g88
ssg76
g4338
sg69
(lp4345
S'session_new'
p4346
asbag62
(g83
g64
NtRp4347
(dp4348
g67
(dp4349
g94
g95
ssg76
g4338
sg69
(lp4350
S':'
asbag62
(g83
g64
NtRp4351
(dp4352
g67
(dp4353
sg76
g4338
sg69
(lp4354
g62
(g63
g64
NtRp4355
(dp4356
g67
(dp4357
g75
I5
ssg76
g4351
sg69
(lp4358
g105
asbasbasbag62
(g78
g64
NtRp4359
(dp4360
g67
(dp4361
sg76
g3601
sg69
(lp4362
g62
(g83
g64
NtRp4363
(dp4364
g67
(dp4365
g87
g88
ssg76
g4359
sg69
(lp4366
S'status'
p4367
asbag62
(g83
g64
NtRp4368
(dp4369
g67
(dp4370
g94
g95
ssg76
g4359
sg69
(lp4371
S':'
asbag62
(g83
g64
NtRp4372
(dp4373
g67
(dp4374
sg76
g4359
sg69
(lp4375
g62
(g63
g64
NtRp4376
(dp4377
g67
(dp4378
g75
I5
ssg76
g4372
sg69
(lp4379
S'200'
p4380
asbasbasbag62
(g78
g64
NtRp4381
(dp4382
g67
(dp4383
sg76
g3601
sg69
(lp4384
g62
(g83
g64
NtRp4385
(dp4386
g67
(dp4387
g87
g88
ssg76
g4381
sg69
(lp4388
S'view'
p4389
asbag62
(g83
g64
NtRp4390
(dp4391
g67
(dp4392
g94
g95
ssg76
g4381
sg69
(lp4393
S':'
asbag62
(g83
g64
NtRp4394
(dp4395
g67
(dp4396
sg76
g4381
sg69
(lp4397
g62
(g63
g64
NtRp4398
(dp4399
g67
(dp4400
g75
I5
ssg76
g4394
sg69
(lp4401
S'default/testDetails.html'
p4402
asbasbasbasbasbsS'locals'
p4403
(dp4404
S'cycles'
p4405
S"'50,75,100'"
p4406
sS'URL'
p4407
S"'localhost'"
p4408
sS'destFile'
p4409
S"'newConf.conf'"
p4410
sS's'
S"''"
p4411
sS'duration'
p4412
S"'10'"
p4413
sS'nb_time'
p4414
S"'20'"
p4415
sssS'traceback'
p4416
S'Traceback (most recent call last):\n  File "/home/mayank/Desktop/web2pyAdmin/web2py/web2py/gluon/restricted.py", line 209, in restricted\n    exec ccode in environment\n  File "/home/mayank/Desktop/web2pyAdmin/web2py/web2py/applications/FunkLoad/models/codeGenerator.py", line 12, in <module>\n    createCode(\'localhost\', \'20\', \'10\', \'50,75,100\', \'newConf.conf\')\n  File "/home/mayank/Desktop/web2pyAdmin/web2py/web2py/applications/FunkLoad/models/codeGenerator.py", line 4, in createCode\n    conf_file = open(TEMPLATE_FILE, \'r\').read()\nIOError: [Errno 2] No such file or directory: \'Template.conf\'\n'
p4417
s.