(dp1
S'output'
p2
S"<type 'exceptions.SyntaxError'> invalid syntax (db.py, line 101)"
p3
sS'layer'
p4
S'/home/mayank/Desktop/web2pyAdmin/web2py/web2py/applications/FunkLoad/models/db.py'
p5
sS'code'
p6
S"# -*- coding: utf-8 -*-\n\n#########################################################################\n## This scaffolding model makes your app work on Google App Engine too\n## File is released under public domain and you can use without limitations\n#########################################################################\n\n## if SSL/HTTPS is properly configured and you want all HTTP requests to\n## be redirected to HTTPS, uncomment the line below:\n# request.requires_https()\n\nif not request.env.web2py_runtime_gae:\n    ## if NOT running on Google App Engine use SQLite or other DB\n    db = DAL('mysql://root:root@localhost/funkLoad')\nelse:\n    ## connect to Google BigTable (optional 'google:datastore://namespace')\n    db = DAL('google:datastore')\n    ## store sessions and tickets there\n    session.connect(request, response, db = db)\n    ## or store session in Memcache, Redis, etc.\n    ## from gluon.contrib.memdb import MEMDB\n    ## from google.appengine.api.memcache import Client\n    ## session.connect(request, response, db = MEMDB(Client()))\n\n## by default give a view/generic.extension to all actions from localhost\n## none otherwise. a pattern can be 'controller/function.extension'\nresponse.generic_patterns = ['*'] if request.is_local else []\n## (optional) optimize handling of static files\n# response.optimize_css = 'concat,minify,inline'\n# response.optimize_js = 'concat,minify,inline'\n\n#########################################################################\n## Here is sample code if you need for\n## - email capabilities\n## - authentication (registration, login, logout, ... )\n## - authorization (role based authorization)\n## - services (xml, csv, json, xmlrpc, jsonrpc, amf, rss)\n## - old style crud actions\n## (more options discussed in gluon/tools.py)\n#########################################################################\n\nfrom gluon.tools import Auth, Crud, Service, PluginManager, prettydate\nauth = Auth(db)\ncrud, service, plugins = Crud(db), Service(), PluginManager()\n\n## create all tables needed by auth if not custom tables\nauth.define_tables(username=False, signature=False)\n\n## configure email\nmail=auth.settings.mailer\nmail.settings.server = 'smtp.gmail.com:587'\nmail.settings.sender = '93mayankgupta@gmail.com'\nmail.settings.login = '93mayankgupta:mayank123'\n\n## configure auth policy\nauth.settings.registration_requires_verification = True\nauth.messages.verify_email = 'Click on the link http://10.1.33.107:8000' + URL(r=request,c='default',f='user',args=['verify_email'])+'/%(key)s to verify your email'\nauth.settings.registration_requires_approval = False\nauth.settings.reset_password_requires_verification = True\nauth.messages.reset_password = 'Click on the link http://10.1.33.107:8000' + URL(r=request,c='default',f='user',args=['reset_password']) +     '/%(key)s to change password'\n\n## if you need to use OpenID, Facebook, MySpace, Twitter, Linkedin, etc.\n## register with janrain.com, write your domain:api_key in private/janrain.key\nfrom gluon.contrib.login_methods.rpx_account import use_janrain\nuse_janrain(auth,filename='private/janrain.key')\n\n#########################################################################\n## Define your tables below (or better in another model file) for example\n##\n## >>> db.define_table('mytable',Field('myfield','string'))\n##\n## Fields can be 'string','text','password','integer','double','boolean'\n##       'date','time','datetime','blob','upload', 'reference TABLENAME'\n## There is an implicit 'id integer autoincrement' field\n## Consult manual for more options, validators, etc.\n##\n## More API examples for controllers:\n##\n## >>> db.mytable.insert(myfield='value')\n## >>> rows=db(db.mytable.myfield=='value').select(db.mytable.ALL)\n## >>> for row in rows: print row.id, row.myfield\n#########################################################################\n\n\ndb.define_table(\n\t'TestDetails',\n\tField('TestName','string',required=True),\n\tField('UserEmail','string',required=True),\n\tField('Status','string',default='0'),\n\tField('Url','string',required=True),\n\tField('CycleDuration','string',required=True),\n\tField('CycleUser','string',required=True),\n\tField('CycleSleepTime','string',default='1'),\n\tField('Sanity','string',default='1'),\n\tField('Functional','string',default='1'),\n\tField('path','string',required=True)\n\t)\n\ndb.define_table(\n\t'FunctionalTesting'\n\tField('TestId',db.Course,required=True),\n\tField('Url','string',required=True),\n\tField('Status','string',required=True)\n\t)\n\n## after defining tables, uncomment below to enable auditing\n# auth.enable_record_versioning(db)\n"
p7
sS'snapshot'
p8
(dp9
S'exception'
p10
(dp11
S'__getslice__'
p12
S"<method-wrapper '__getslice__' of exceptions.SyntaxError object>"
p13
sS'text'
p14
S'"\\tField(\'TestId\',db.Course,required=True),\\n"'
p15
sS'__str__'
p16
S"<method-wrapper '__str__' of exceptions.SyntaxError object>"
p17
sS'__reduce__'
p18
S'<built-in method __reduce__ of exceptions.SyntaxError object>'
p19
sS'__dict__'
p20
S'{}'
p21
sS'__sizeof__'
p22
S'<built-in method __sizeof__ of exceptions.SyntaxError object>'
p23
sS'__init__'
p24
S"<method-wrapper '__init__' of exceptions.SyntaxError object>"
p25
sS'__setattr__'
p26
S"<method-wrapper '__setattr__' of exceptions.SyntaxError object>"
p27
sS'__reduce_ex__'
p28
S'<built-in method __reduce_ex__ of exceptions.SyntaxError object>'
p29
sS'__new__'
p30
S'<built-in method __new__ of type object>'
p31
sS'__format__'
p32
S'<built-in method __format__ of exceptions.SyntaxError object>'
p33
sS'__class__'
p34
S"<type 'exceptions.SyntaxError'>"
p35
sS'filename'
p36
S"'/home/mayank/Desktop/web2pyAdmin/web2py/web2py/applications/FunkLoad/models/db.py'"
p37
sS'lineno'
p38
S'101'
p39
sS'msg'
p40
S"'invalid syntax'"
p41
sS'__doc__'
p42
S"'Invalid syntax.'"
p43
sS'__getitem__'
p44
S"<method-wrapper '__getitem__' of exceptions.SyntaxError object>"
p45
sS'__setstate__'
p46
S'<built-in method __setstate__ of exceptions.SyntaxError object>'
p47
sS'__getattribute__'
p48
S"<method-wrapper '__getattribute__' of exceptions.SyntaxError object>"
p49
sS'print_file_and_line'
p50
S'None'
p51
sS'args'
p52
S'(\'invalid syntax\', (\'/home/mayank/Desktop/web2pyAdmin/web2py/web2py/applications/FunkLoad/models/db.py\', 101, 6, "\\tField(\'TestId\',db.Course,required=True),\\n"))'
p53
sS'__subclasshook__'
p54
S'<built-in method __subclasshook__ of type object>'
p55
sS'offset'
p56
S'6'
sS'__unicode__'
p57
S'<built-in method __unicode__ of exceptions.SyntaxError object>'
p58
sS'__delattr__'
p59
S"<method-wrapper '__delattr__' of exceptions.SyntaxError object>"
p60
sS'__repr__'
p61
S"<method-wrapper '__repr__' of exceptions.SyntaxError object>"
p62
sS'__hash__'
p63
S"<method-wrapper '__hash__' of exceptions.SyntaxError object>"
p64
ssS'evalue'
p65
S'invalid syntax (db.py, line 101)'
p66
sS'request'
p67
ccopy_reg
_reconstructor
p68
(cgluon.html
BEAUTIFY
p69
c__builtin__
object
p70
NtRp71
(dp72
S'attributes'
p73
(dp74
sS'components'
p75
(lp76
g68
(cgluon.html
TABLE
p77
g70
NtRp78
(dp79
g73
(dp80
S'level'
p81
I5
ssS'parent'
p82
Nsg75
(lp83
g68
(cgluon.html
TR
p84
g70
NtRp85
(dp86
g73
(dp87
sg82
g78
sg75
(lp88
g68
(cgluon.html
TD
p89
g70
NtRp90
(dp91
g73
(dp92
S'_style'
p93
S'font-weight:bold;vertical-align:top'
p94
ssg82
g85
sg75
(lp95
S'ajax'
p96
asbag68
(g89
g70
NtRp97
(dp98
g73
(dp99
S'_valign'
p100
S'top'
p101
ssg82
g85
sg75
(lp102
S':'
asbag68
(g89
g70
NtRp103
(dp104
g73
(dp105
sg82
g85
sg75
(lp106
g68
(g69
g70
NtRp107
(dp108
g73
(dp109
g81
I5
ssg82
g103
sg75
(lp110
S'False'
p111
asbasbasbag68
(g84
g70
NtRp112
(dp113
g73
(dp114
sg82
g78
sg75
(lp115
g68
(g89
g70
NtRp116
(dp117
g73
(dp118
g93
g94
ssg82
g112
sg75
(lp119
S'application'
p120
asbag68
(g89
g70
NtRp121
(dp122
g73
(dp123
g100
g101
ssg82
g112
sg75
(lp124
S':'
asbag68
(g89
g70
NtRp125
(dp126
g73
(dp127
sg82
g112
sg75
(lp128
g68
(g69
g70
NtRp129
(dp130
g73
(dp131
g81
I5
ssg82
g125
sg75
(lp132
S'FunkLoad'
p133
asbasbasbag68
(g84
g70
NtRp134
(dp135
g73
(dp136
sg82
g78
sg75
(lp137
g68
(g89
g70
NtRp138
(dp139
g73
(dp140
g93
g94
ssg82
g134
sg75
(lp141
g52
asbag68
(g89
g70
NtRp142
(dp143
g73
(dp144
g100
g101
ssg82
g134
sg75
(lp145
S':'
asbag68
(g89
g70
NtRp146
(dp147
g73
(dp148
sg82
g134
sg75
(lp149
g68
(g69
g70
NtRp150
(dp151
g73
(dp152
g81
I5
ssg82
g146
sg75
(lp153
g68
(g77
g70
NtRp154
(dp155
g73
(dp156
g81
I4
ssg82
Nsg75
(lp157
sbasbasbasbag68
(g84
g70
NtRp158
(dp159
g73
(dp160
sg82
g78
sg75
(lp161
g68
(g89
g70
NtRp162
(dp163
g73
(dp164
g93
g94
ssg82
g158
sg75
(lp165
S'body'
p166
asbag68
(g89
g70
NtRp167
(dp168
g73
(dp169
g100
g101
ssg82
g158
sg75
(lp170
S':'
asbag68
(g89
g70
NtRp171
(dp172
g73
(dp173
sg82
g158
sg75
(lp174
g68
(g69
g70
NtRp175
(dp176
g73
(dp177
g81
I5
ssg82
g171
sg75
(lp178
S'<cStringIO.StringO object at 0x7f7a6817b148>'
p179
asbasbasbag68
(g84
g70
NtRp180
(dp181
g73
(dp182
sg82
g78
sg75
(lp183
g68
(g89
g70
NtRp184
(dp185
g73
(dp186
g93
g94
ssg82
g180
sg75
(lp187
S'cid'
p188
asbag68
(g89
g70
NtRp189
(dp190
g73
(dp191
g100
g101
ssg82
g180
sg75
(lp192
S':'
asbag68
(g89
g70
NtRp193
(dp194
g73
(dp195
sg82
g180
sg75
(lp196
g68
(g69
g70
NtRp197
(dp198
g73
(dp199
g81
I5
ssg82
g193
sg75
(lp200
S'None'
p201
asbasbasbag68
(g84
g70
NtRp202
(dp203
g73
(dp204
sg82
g78
sg75
(lp205
g68
(g89
g70
NtRp206
(dp207
g73
(dp208
g93
g94
ssg82
g202
sg75
(lp209
S'client'
p210
asbag68
(g89
g70
NtRp211
(dp212
g73
(dp213
g100
g101
ssg82
g202
sg75
(lp214
S':'
asbag68
(g89
g70
NtRp215
(dp216
g73
(dp217
sg82
g202
sg75
(lp218
g68
(g69
g70
NtRp219
(dp220
g73
(dp221
g81
I5
ssg82
g215
sg75
(lp222
S'10.1.33.107'
p223
asbasbasbag68
(g84
g70
NtRp224
(dp225
g73
(dp226
sg82
g78
sg75
(lp227
g68
(g89
g70
NtRp228
(dp229
g73
(dp230
g93
g94
ssg82
g224
sg75
(lp231
S'controller'
p232
asbag68
(g89
g70
NtRp233
(dp234
g73
(dp235
g100
g101
ssg82
g224
sg75
(lp236
S':'
asbag68
(g89
g70
NtRp237
(dp238
g73
(dp239
sg82
g224
sg75
(lp240
g68
(g69
g70
NtRp241
(dp242
g73
(dp243
g81
I5
ssg82
g237
sg75
(lp244
S'default'
p245
asbasbasbag68
(g84
g70
NtRp246
(dp247
g73
(dp248
sg82
g78
sg75
(lp249
g68
(g89
g70
NtRp250
(dp251
g73
(dp252
g93
g94
ssg82
g246
sg75
(lp253
S'cookies'
p254
asbag68
(g89
g70
NtRp255
(dp256
g73
(dp257
g100
g101
ssg82
g246
sg75
(lp258
S':'
asbag68
(g89
g70
NtRp259
(dp260
g73
(dp261
sg82
g246
sg75
(lp262
g68
(g69
g70
NtRp263
(dp264
g73
(dp265
g81
I5
ssg82
g259
sg75
(lp266
g68
(g77
g70
NtRp267
(dp268
g73
(dp269
g81
I4
ssg82
Nsg75
(lp270
g68
(g84
g70
NtRp271
(dp272
g73
(dp273
sg82
g267
sg75
(lp274
g68
(g89
g70
NtRp275
(dp276
g73
(dp277
g93
g94
ssg82
g271
sg75
(lp278
S'session_id_funkload'
p279
asbag68
(g89
g70
NtRp280
(dp281
g73
(dp282
g100
g101
ssg82
g271
sg75
(lp283
S':'
asbag68
(g89
g70
NtRp284
(dp285
g73
(dp286
sg82
g271
sg75
(lp287
g68
(g69
g70
NtRp288
(dp289
g73
(dp290
g81
I4
ssg82
g284
sg75
(lp291
S'10.1.33.107-36ba3c88-7bcb-4a0e-bb0a-8936efb689ab'
p292
ag68
(g77
g70
NtRp293
(dp294
g73
(dp295
g81
I3
ssg82
Nsg75
(lp296
g68
(g84
g70
NtRp297
(dp298
g73
(dp299
sg82
g293
sg75
(lp300
g68
(g89
g70
NtRp301
(dp302
g73
(dp303
g93
g94
ssg82
g297
sg75
(lp304
S'comment'
p305
asbag68
(g89
g70
NtRp306
(dp307
g73
(dp308
g100
g101
ssg82
g297
sg75
(lp309
S':'
asbag68
(g89
g70
NtRp310
(dp311
g73
(dp312
sg82
g297
sg75
(lp313
g68
(g69
g70
NtRp314
(dp315
g73
(dp316
g81
I3
ssg82
g310
sg75
(lp317
S''
asbasbasbag68
(g84
g70
NtRp318
(dp319
g73
(dp320
sg82
g293
sg75
(lp321
g68
(g89
g70
NtRp322
(dp323
g73
(dp324
g93
g94
ssg82
g318
sg75
(lp325
S'domain'
p326
asbag68
(g89
g70
NtRp327
(dp328
g73
(dp329
g100
g101
ssg82
g318
sg75
(lp330
S':'
asbag68
(g89
g70
NtRp331
(dp332
g73
(dp333
sg82
g318
sg75
(lp334
g68
(g69
g70
NtRp335
(dp336
g73
(dp337
g81
I3
ssg82
g331
sg75
(lp338
S''
asbasbasbag68
(g84
g70
NtRp339
(dp340
g73
(dp341
sg82
g293
sg75
(lp342
g68
(g89
g70
NtRp343
(dp344
g73
(dp345
g93
g94
ssg82
g339
sg75
(lp346
S'expires'
p347
asbag68
(g89
g70
NtRp348
(dp349
g73
(dp350
g100
g101
ssg82
g339
sg75
(lp351
S':'
asbag68
(g89
g70
NtRp352
(dp353
g73
(dp354
sg82
g339
sg75
(lp355
g68
(g69
g70
NtRp356
(dp357
g73
(dp358
g81
I3
ssg82
g352
sg75
(lp359
S''
asbasbasbag68
(g84
g70
NtRp360
(dp361
g73
(dp362
sg82
g293
sg75
(lp363
g68
(g89
g70
NtRp364
(dp365
g73
(dp366
g93
g94
ssg82
g360
sg75
(lp367
S'httponly'
p368
asbag68
(g89
g70
NtRp369
(dp370
g73
(dp371
g100
g101
ssg82
g360
sg75
(lp372
S':'
asbag68
(g89
g70
NtRp373
(dp374
g73
(dp375
sg82
g360
sg75
(lp376
g68
(g69
g70
NtRp377
(dp378
g73
(dp379
g81
I3
ssg82
g373
sg75
(lp380
S''
asbasbasbag68
(g84
g70
NtRp381
(dp382
g73
(dp383
sg82
g293
sg75
(lp384
g68
(g89
g70
NtRp385
(dp386
g73
(dp387
g93
g94
ssg82
g381
sg75
(lp388
S'max-age'
p389
asbag68
(g89
g70
NtRp390
(dp391
g73
(dp392
g100
g101
ssg82
g381
sg75
(lp393
S':'
asbag68
(g89
g70
NtRp394
(dp395
g73
(dp396
sg82
g381
sg75
(lp397
g68
(g69
g70
NtRp398
(dp399
g73
(dp400
g81
I3
ssg82
g394
sg75
(lp401
S''
asbasbasbag68
(g84
g70
NtRp402
(dp403
g73
(dp404
sg82
g293
sg75
(lp405
g68
(g89
g70
NtRp406
(dp407
g73
(dp408
g93
g94
ssg82
g402
sg75
(lp409
S'path'
p410
asbag68
(g89
g70
NtRp411
(dp412
g73
(dp413
g100
g101
ssg82
g402
sg75
(lp414
S':'
asbag68
(g89
g70
NtRp415
(dp416
g73
(dp417
sg82
g402
sg75
(lp418
g68
(g69
g70
NtRp419
(dp420
g73
(dp421
g81
I3
ssg82
g415
sg75
(lp422
S''
asbasbasbag68
(g84
g70
NtRp423
(dp424
g73
(dp425
sg82
g293
sg75
(lp426
g68
(g89
g70
NtRp427
(dp428
g73
(dp429
g93
g94
ssg82
g423
sg75
(lp430
S'secure'
p431
asbag68
(g89
g70
NtRp432
(dp433
g73
(dp434
g100
g101
ssg82
g423
sg75
(lp435
S':'
asbag68
(g89
g70
NtRp436
(dp437
g73
(dp438
sg82
g423
sg75
(lp439
g68
(g69
g70
NtRp440
(dp441
g73
(dp442
g81
I3
ssg82
g436
sg75
(lp443
S''
asbasbasbag68
(g84
g70
NtRp444
(dp445
g73
(dp446
sg82
g293
sg75
(lp447
g68
(g89
g70
NtRp448
(dp449
g73
(dp450
g93
g94
ssg82
g444
sg75
(lp451
S'version'
p452
asbag68
(g89
g70
NtRp453
(dp454
g73
(dp455
g100
g101
ssg82
g444
sg75
(lp456
S':'
asbag68
(g89
g70
NtRp457
(dp458
g73
(dp459
sg82
g444
sg75
(lp460
g68
(g69
g70
NtRp461
(dp462
g73
(dp463
g81
I3
ssg82
g457
sg75
(lp464
S''
asbasbasbasbasbasbasbasbasbasbasbag68
(g84
g70
NtRp465
(dp466
g73
(dp467
sg82
g78
sg75
(lp468
g68
(g89
g70
NtRp469
(dp470
g73
(dp471
g93
g94
ssg82
g465
sg75
(lp472
S'env'
p473
asbag68
(g89
g70
NtRp474
(dp475
g73
(dp476
g100
g101
ssg82
g465
sg75
(lp477
S':'
asbag68
(g89
g70
NtRp478
(dp479
g73
(dp480
sg82
g465
sg75
(lp481
g68
(g69
g70
NtRp482
(dp483
g73
(dp484
g81
I5
ssg82
g478
sg75
(lp485
g68
(g77
g70
NtRp486
(dp487
g73
(dp488
g81
I4
ssg82
Nsg75
(lp489
g68
(g84
g70
NtRp490
(dp491
g73
(dp492
sg82
g486
sg75
(lp493
g68
(g89
g70
NtRp494
(dp495
g73
(dp496
g93
g94
ssg82
g490
sg75
(lp497
S'app_folders'
p498
asbag68
(g89
g70
NtRp499
(dp500
g73
(dp501
g100
g101
ssg82
g490
sg75
(lp502
S':'
asbag68
(g89
g70
NtRp503
(dp504
g73
(dp505
sg82
g490
sg75
(lp506
g68
(g69
g70
NtRp507
(dp508
g73
(dp509
g81
I4
ssg82
g503
sg75
(lp510
S"set(['/home/mayank/Desktop/web2pyAdmin/web2py/web2py/applications/welcome/', '/home/mayank/Desktop/web2pyAdmin/web2py/web2py/applications/admin/', '/home/mayank/Desktop/web2pyAdmin/web2py/web2py/applications/FunkLoad/'])"
p511
asbasbasbag68
(g84
g70
NtRp512
(dp513
g73
(dp514
sg82
g486
sg75
(lp515
g68
(g89
g70
NtRp516
(dp517
g73
(dp518
g93
g94
ssg82
g512
sg75
(lp519
S'applications_parent'
p520
asbag68
(g89
g70
NtRp521
(dp522
g73
(dp523
g100
g101
ssg82
g512
sg75
(lp524
S':'
asbag68
(g89
g70
NtRp525
(dp526
g73
(dp527
sg82
g512
sg75
(lp528
g68
(g69
g70
NtRp529
(dp530
g73
(dp531
g81
I4
ssg82
g525
sg75
(lp532
S'/home/mayank/Desktop/web2pyAdmin/web2py/web2py'
p533
asbasbasbag68
(g84
g70
NtRp534
(dp535
g73
(dp536
sg82
g486
sg75
(lp537
g68
(g89
g70
NtRp538
(dp539
g73
(dp540
g93
g94
ssg82
g534
sg75
(lp541
S'cmd_args'
p542
asbag68
(g89
g70
NtRp543
(dp544
g73
(dp545
g100
g101
ssg82
g534
sg75
(lp546
S':'
asbag68
(g89
g70
NtRp547
(dp548
g73
(dp549
sg82
g534
sg75
(lp550
g68
(g69
g70
NtRp551
(dp552
g73
(dp553
g81
I4
ssg82
g547
sg75
(lp554
g68
(g77
g70
NtRp555
(dp556
g73
(dp557
g81
I3
ssg82
Nsg75
(lp558
sbasbasbasbag68
(g84
g70
NtRp559
(dp560
g73
(dp561
sg82
g486
sg75
(lp562
g68
(g89
g70
NtRp563
(dp564
g73
(dp565
g93
g94
ssg82
g559
sg75
(lp566
S'cmd_options'
p567
asbag68
(g89
g70
NtRp568
(dp569
g73
(dp570
g100
g101
ssg82
g559
sg75
(lp571
S':'
asbag68
(g89
g70
NtRp572
(dp573
g73
(dp574
sg82
g559
sg75
(lp575
g68
(g69
g70
NtRp576
(dp577
g73
(dp578
g81
I4
ssg82
g572
sg75
(lp579
S"<Values at 0x2bfd9e0: {'verbose': False, 'ip': '10.1.33.107', 'with_scheduler': False, 'ips': ['127.0.1.1', '10.1.33.121'], 'shutdown_timeout': 5, 'taskbar': False, 'port': 8000, 'maxthreads': None, 'softcron': False, 'server_name': 'mayank', 'bpython': False, 'nogui': False, 'nocron': False, 'extcron': False, 'run_system_tests': False, 'test': None, 'folder': '/home/mayank/Desktop/web2pyAdmin/web2py/web2py', 'config': '', 'import_models': False, 'winservice': '', 'shell': None, 'run': '', 'log_filename': 'httpserver.log', 'debuglevel': 30, 'args': [''], 'socket_timeout': 5, 'ssl_ca_certificate': None, 'scheduler': None, 'profiler_filename': None, 'ssl_private_key': '', 'scheduler_groups': None, 'password': '<ask>', 'request_queue_size': 5, 'ssl_certificate': '', 'cronjob': False, 'numthreads': None, 'quiet': False, 'interfaces': None, 'minthreads': None, 'timeout': 10, 'plain': False, 'nobanner': False, 'pid_filename': 'httpserver.pid'}>"
p580
asbasbasbag68
(g84
g70
NtRp581
(dp582
g73
(dp583
sg82
g486
sg75
(lp584
g68
(g89
g70
NtRp585
(dp586
g73
(dp587
g93
g94
ssg82
g581
sg75
(lp588
S'db_sessions'
p589
asbag68
(g89
g70
NtRp590
(dp591
g73
(dp592
g100
g101
ssg82
g581
sg75
(lp593
S':'
asbag68
(g89
g70
NtRp594
(dp595
g73
(dp596
sg82
g581
sg75
(lp597
g68
(g69
g70
NtRp598
(dp599
g73
(dp600
g81
I4
ssg82
g594
sg75
(lp601
S'set([])'
p602
asbasbasbag68
(g84
g70
NtRp603
(dp604
g73
(dp605
sg82
g486
sg75
(lp606
g68
(g89
g70
NtRp607
(dp608
g73
(dp609
g93
g94
ssg82
g603
sg75
(lp610
S'debugging'
p611
asbag68
(g89
g70
NtRp612
(dp613
g73
(dp614
g100
g101
ssg82
g603
sg75
(lp615
S':'
asbag68
(g89
g70
NtRp616
(dp617
g73
(dp618
sg82
g603
sg75
(lp619
g68
(g69
g70
NtRp620
(dp621
g73
(dp622
g81
I4
ssg82
g616
sg75
(lp623
g111
asbasbasbag68
(g84
g70
NtRp624
(dp625
g73
(dp626
sg82
g486
sg75
(lp627
g68
(g89
g70
NtRp628
(dp629
g73
(dp630
g93
g94
ssg82
g624
sg75
(lp631
S'gluon_parent'
p632
asbag68
(g89
g70
NtRp633
(dp634
g73
(dp635
g100
g101
ssg82
g624
sg75
(lp636
S':'
asbag68
(g89
g70
NtRp637
(dp638
g73
(dp639
sg82
g624
sg75
(lp640
g68
(g69
g70
NtRp641
(dp642
g73
(dp643
g81
I4
ssg82
g637
sg75
(lp644
S'/home/mayank/Desktop/web2pyAdmin/web2py/web2py'
p645
asbasbasbag68
(g84
g70
NtRp646
(dp647
g73
(dp648
sg82
g486
sg75
(lp649
g68
(g89
g70
NtRp650
(dp651
g73
(dp652
g93
g94
ssg82
g646
sg75
(lp653
S'http_accept'
p654
asbag68
(g89
g70
NtRp655
(dp656
g73
(dp657
g100
g101
ssg82
g646
sg75
(lp658
S':'
asbag68
(g89
g70
NtRp659
(dp660
g73
(dp661
sg82
g646
sg75
(lp662
g68
(g69
g70
NtRp663
(dp664
g73
(dp665
g81
I4
ssg82
g659
sg75
(lp666
S'text/html,application/xhtml+xml,application/xml;q=0.9,image/webp,*/*;q=0.8'
p667
asbasbasbag68
(g84
g70
NtRp668
(dp669
g73
(dp670
sg82
g486
sg75
(lp671
g68
(g89
g70
NtRp672
(dp673
g73
(dp674
g93
g94
ssg82
g668
sg75
(lp675
S'http_accept_encoding'
p676
asbag68
(g89
g70
NtRp677
(dp678
g73
(dp679
g100
g101
ssg82
g668
sg75
(lp680
S':'
asbag68
(g89
g70
NtRp681
(dp682
g73
(dp683
sg82
g668
sg75
(lp684
g68
(g69
g70
NtRp685
(dp686
g73
(dp687
g81
I4
ssg82
g681
sg75
(lp688
S'gzip,deflate,sdch'
p689
asbasbasbag68
(g84
g70
NtRp690
(dp691
g73
(dp692
sg82
g486
sg75
(lp693
g68
(g89
g70
NtRp694
(dp695
g73
(dp696
g93
g94
ssg82
g690
sg75
(lp697
S'http_accept_language'
p698
asbag68
(g89
g70
NtRp699
(dp700
g73
(dp701
g100
g101
ssg82
g690
sg75
(lp702
S':'
asbag68
(g89
g70
NtRp703
(dp704
g73
(dp705
sg82
g690
sg75
(lp706
g68
(g69
g70
NtRp707
(dp708
g73
(dp709
g81
I4
ssg82
g703
sg75
(lp710
S'en-US,en;q=0.8'
p711
asbasbasbag68
(g84
g70
NtRp712
(dp713
g73
(dp714
sg82
g486
sg75
(lp715
g68
(g89
g70
NtRp716
(dp717
g73
(dp718
g93
g94
ssg82
g712
sg75
(lp719
S'http_cache_control'
p720
asbag68
(g89
g70
NtRp721
(dp722
g73
(dp723
g100
g101
ssg82
g712
sg75
(lp724
S':'
asbag68
(g89
g70
NtRp725
(dp726
g73
(dp727
sg82
g712
sg75
(lp728
g68
(g69
g70
NtRp729
(dp730
g73
(dp731
g81
I4
ssg82
g725
sg75
(lp732
S'no-cache'
p733
asbasbasbag68
(g84
g70
NtRp734
(dp735
g73
(dp736
sg82
g486
sg75
(lp737
g68
(g89
g70
NtRp738
(dp739
g73
(dp740
g93
g94
ssg82
g734
sg75
(lp741
S'http_connection'
p742
asbag68
(g89
g70
NtRp743
(dp744
g73
(dp745
g100
g101
ssg82
g734
sg75
(lp746
S':'
asbag68
(g89
g70
NtRp747
(dp748
g73
(dp749
sg82
g734
sg75
(lp750
g68
(g69
g70
NtRp751
(dp752
g73
(dp753
g81
I4
ssg82
g747
sg75
(lp754
S'keep-alive'
p755
asbasbasbag68
(g84
g70
NtRp756
(dp757
g73
(dp758
sg82
g486
sg75
(lp759
g68
(g89
g70
NtRp760
(dp761
g73
(dp762
g93
g94
ssg82
g756
sg75
(lp763
S'http_cookie'
p764
asbag68
(g89
g70
NtRp765
(dp766
g73
(dp767
g100
g101
ssg82
g756
sg75
(lp768
S':'
asbag68
(g89
g70
NtRp769
(dp770
g73
(dp771
sg82
g756
sg75
(lp772
g68
(g69
g70
NtRp773
(dp774
g73
(dp775
g81
I4
ssg82
g769
sg75
(lp776
S'session_id_funkload=10.1.33.107-36ba3c88-7bcb-4a0e-bb0a-8936efb689ab'
p777
asbasbasbag68
(g84
g70
NtRp778
(dp779
g73
(dp780
sg82
g486
sg75
(lp781
g68
(g89
g70
NtRp782
(dp783
g73
(dp784
g93
g94
ssg82
g778
sg75
(lp785
S'http_host'
p786
asbag68
(g89
g70
NtRp787
(dp788
g73
(dp789
g100
g101
ssg82
g778
sg75
(lp790
S':'
asbag68
(g89
g70
NtRp791
(dp792
g73
(dp793
sg82
g778
sg75
(lp794
g68
(g69
g70
NtRp795
(dp796
g73
(dp797
g81
I4
ssg82
g791
sg75
(lp798
S'10.1.33.107:8000'
p799
asbasbasbag68
(g84
g70
NtRp800
(dp801
g73
(dp802
sg82
g486
sg75
(lp803
g68
(g89
g70
NtRp804
(dp805
g73
(dp806
g93
g94
ssg82
g800
sg75
(lp807
S'http_pragma'
p808
asbag68
(g89
g70
NtRp809
(dp810
g73
(dp811
g100
g101
ssg82
g800
sg75
(lp812
S':'
asbag68
(g89
g70
NtRp813
(dp814
g73
(dp815
sg82
g800
sg75
(lp816
g68
(g69
g70
NtRp817
(dp818
g73
(dp819
g81
I4
ssg82
g813
sg75
(lp820
S'no-cache'
p821
asbasbasbag68
(g84
g70
NtRp822
(dp823
g73
(dp824
sg82
g486
sg75
(lp825
g68
(g89
g70
NtRp826
(dp827
g73
(dp828
g93
g94
ssg82
g822
sg75
(lp829
S'http_referer'
p830
asbag68
(g89
g70
NtRp831
(dp832
g73
(dp833
g100
g101
ssg82
g822
sg75
(lp834
S':'
asbag68
(g89
g70
NtRp835
(dp836
g73
(dp837
sg82
g822
sg75
(lp838
g68
(g69
g70
NtRp839
(dp840
g73
(dp841
g81
I4
ssg82
g835
sg75
(lp842
S'http://10.1.33.107:8000/FunkLoad/default/addTest'
p843
asbasbasbag68
(g84
g70
NtRp844
(dp845
g73
(dp846
sg82
g486
sg75
(lp847
g68
(g89
g70
NtRp848
(dp849
g73
(dp850
g93
g94
ssg82
g844
sg75
(lp851
S'http_user_agent'
p852
asbag68
(g89
g70
NtRp853
(dp854
g73
(dp855
g100
g101
ssg82
g844
sg75
(lp856
S':'
asbag68
(g89
g70
NtRp857
(dp858
g73
(dp859
sg82
g844
sg75
(lp860
g68
(g69
g70
NtRp861
(dp862
g73
(dp863
g81
I4
ssg82
g857
sg75
(lp864
S'Mozilla/5.0 (X11; Linux x86_64) AppleWebKit/537.36 (KHTML, like Gecko) Chrome/30.0.1599.114 Safari/537.36'
p865
asbasbasbag68
(g84
g70
NtRp866
(dp867
g73
(dp868
sg82
g486
sg75
(lp869
g68
(g89
g70
NtRp870
(dp871
g73
(dp872
g93
g94
ssg82
g866
sg75
(lp873
S'is_jython'
p874
asbag68
(g89
g70
NtRp875
(dp876
g73
(dp877
g100
g101
ssg82
g866
sg75
(lp878
S':'
asbag68
(g89
g70
NtRp879
(dp880
g73
(dp881
sg82
g866
sg75
(lp882
g68
(g69
g70
NtRp883
(dp884
g73
(dp885
g81
I4
ssg82
g879
sg75
(lp886
g111
asbasbasbag68
(g84
g70
NtRp887
(dp888
g73
(dp889
sg82
g486
sg75
(lp890
g68
(g89
g70
NtRp891
(dp892
g73
(dp893
g93
g94
ssg82
g887
sg75
(lp894
S'is_pypy'
p895
asbag68
(g89
g70
NtRp896
(dp897
g73
(dp898
g100
g101
ssg82
g887
sg75
(lp899
S':'
asbag68
(g89
g70
NtRp900
(dp901
g73
(dp902
sg82
g887
sg75
(lp903
g68
(g69
g70
NtRp904
(dp905
g73
(dp906
g81
I4
ssg82
g900
sg75
(lp907
g111
asbasbasbag68
(g84
g70
NtRp908
(dp909
g73
(dp910
sg82
g486
sg75
(lp911
g68
(g89
g70
NtRp912
(dp913
g73
(dp914
g93
g94
ssg82
g908
sg75
(lp915
S'path_info'
p916
asbag68
(g89
g70
NtRp917
(dp918
g73
(dp919
g100
g101
ssg82
g908
sg75
(lp920
S':'
asbag68
(g89
g70
NtRp921
(dp922
g73
(dp923
sg82
g908
sg75
(lp924
g68
(g69
g70
NtRp925
(dp926
g73
(dp927
g81
I4
ssg82
g921
sg75
(lp928
S'/FunkLoad/default/testDetails'
p929
asbasbasbag68
(g84
g70
NtRp930
(dp931
g73
(dp932
sg82
g486
sg75
(lp933
g68
(g89
g70
NtRp934
(dp935
g73
(dp936
g93
g94
ssg82
g930
sg75
(lp937
S'query_string'
p938
asbag68
(g89
g70
NtRp939
(dp940
g73
(dp941
g100
g101
ssg82
g930
sg75
(lp942
S':'
asbag68
(g89
g70
NtRp943
(dp944
g73
(dp945
sg82
g930
sg75
(lp946
g68
(g69
g70
NtRp947
(dp948
g73
(dp949
g81
I4
ssg82
g943
sg75
(lp950
S''
asbasbasbag68
(g84
g70
NtRp951
(dp952
g73
(dp953
sg82
g486
sg75
(lp954
g68
(g89
g70
NtRp955
(dp956
g73
(dp957
g93
g94
ssg82
g951
sg75
(lp958
S'remote_addr'
p959
asbag68
(g89
g70
NtRp960
(dp961
g73
(dp962
g100
g101
ssg82
g951
sg75
(lp963
S':'
asbag68
(g89
g70
NtRp964
(dp965
g73
(dp966
sg82
g951
sg75
(lp967
g68
(g69
g70
NtRp968
(dp969
g73
(dp970
g81
I4
ssg82
g964
sg75
(lp971
g223
asbasbasbag68
(g84
g70
NtRp972
(dp973
g73
(dp974
sg82
g486
sg75
(lp975
g68
(g89
g70
NtRp976
(dp977
g73
(dp978
g93
g94
ssg82
g972
sg75
(lp979
S'remote_port'
p980
asbag68
(g89
g70
NtRp981
(dp982
g73
(dp983
g100
g101
ssg82
g972
sg75
(lp984
S':'
asbag68
(g89
g70
NtRp985
(dp986
g73
(dp987
sg82
g972
sg75
(lp988
g68
(g69
g70
NtRp989
(dp990
g73
(dp991
g81
I4
ssg82
g985
sg75
(lp992
S'52776'
p993
asbasbasbag68
(g84
g70
NtRp994
(dp995
g73
(dp996
sg82
g486
sg75
(lp997
g68
(g89
g70
NtRp998
(dp999
g73
(dp1000
g93
g94
ssg82
g994
sg75
(lp1001
S'request_method'
p1002
asbag68
(g89
g70
NtRp1003
(dp1004
g73
(dp1005
g100
g101
ssg82
g994
sg75
(lp1006
S':'
asbag68
(g89
g70
NtRp1007
(dp1008
g73
(dp1009
sg82
g994
sg75
(lp1010
g68
(g69
g70
NtRp1011
(dp1012
g73
(dp1013
g81
I4
ssg82
g1007
sg75
(lp1014
S'GET'
p1015
asbasbasbag68
(g84
g70
NtRp1016
(dp1017
g73
(dp1018
sg82
g486
sg75
(lp1019
g68
(g89
g70
NtRp1020
(dp1021
g73
(dp1022
g93
g94
ssg82
g1016
sg75
(lp1023
S'request_uri'
p1024
asbag68
(g89
g70
NtRp1025
(dp1026
g73
(dp1027
g100
g101
ssg82
g1016
sg75
(lp1028
S':'
asbag68
(g89
g70
NtRp1029
(dp1030
g73
(dp1031
sg82
g1016
sg75
(lp1032
g68
(g69
g70
NtRp1033
(dp1034
g73
(dp1035
g81
I4
ssg82
g1029
sg75
(lp1036
g929
asbasbasbag68
(g84
g70
NtRp1037
(dp1038
g73
(dp1039
sg82
g486
sg75
(lp1040
g68
(g89
g70
NtRp1041
(dp1042
g73
(dp1043
g93
g94
ssg82
g1037
sg75
(lp1044
S'script_name'
p1045
asbag68
(g89
g70
NtRp1046
(dp1047
g73
(dp1048
g100
g101
ssg82
g1037
sg75
(lp1049
S':'
asbag68
(g89
g70
NtRp1050
(dp1051
g73
(dp1052
sg82
g1037
sg75
(lp1053
g68
(g69
g70
NtRp1054
(dp1055
g73
(dp1056
g81
I4
ssg82
g1050
sg75
(lp1057
S''
asbasbasbag68
(g84
g70
NtRp1058
(dp1059
g73
(dp1060
sg82
g486
sg75
(lp1061
g68
(g89
g70
NtRp1062
(dp1063
g73
(dp1064
g93
g94
ssg82
g1058
sg75
(lp1065
S'server_name'
p1066
asbag68
(g89
g70
NtRp1067
(dp1068
g73
(dp1069
g100
g101
ssg82
g1058
sg75
(lp1070
S':'
asbag68
(g89
g70
NtRp1071
(dp1072
g73
(dp1073
sg82
g1058
sg75
(lp1074
g68
(g69
g70
NtRp1075
(dp1076
g73
(dp1077
g81
I4
ssg82
g1071
sg75
(lp1078
S'mayank'
p1079
asbasbasbag68
(g84
g70
NtRp1080
(dp1081
g73
(dp1082
sg82
g486
sg75
(lp1083
g68
(g89
g70
NtRp1084
(dp1085
g73
(dp1086
g93
g94
ssg82
g1080
sg75
(lp1087
S'server_port'
p1088
asbag68
(g89
g70
NtRp1089
(dp1090
g73
(dp1091
g100
g101
ssg82
g1080
sg75
(lp1092
S':'
asbag68
(g89
g70
NtRp1093
(dp1094
g73
(dp1095
sg82
g1080
sg75
(lp1096
g68
(g69
g70
NtRp1097
(dp1098
g73
(dp1099
g81
I4
ssg82
g1093
sg75
(lp1100
S'8000'
p1101
asbasbasbag68
(g84
g70
NtRp1102
(dp1103
g73
(dp1104
sg82
g486
sg75
(lp1105
g68
(g89
g70
NtRp1106
(dp1107
g73
(dp1108
g93
g94
ssg82
g1102
sg75
(lp1109
S'server_protocol'
p1110
asbag68
(g89
g70
NtRp1111
(dp1112
g73
(dp1113
g100
g101
ssg82
g1102
sg75
(lp1114
S':'
asbag68
(g89
g70
NtRp1115
(dp1116
g73
(dp1117
sg82
g1102
sg75
(lp1118
g68
(g69
g70
NtRp1119
(dp1120
g73
(dp1121
g81
I4
ssg82
g1115
sg75
(lp1122
S'HTTP/1.1'
p1123
asbasbasbag68
(g84
g70
NtRp1124
(dp1125
g73
(dp1126
sg82
g486
sg75
(lp1127
g68
(g89
g70
NtRp1128
(dp1129
g73
(dp1130
g93
g94
ssg82
g1124
sg75
(lp1131
S'server_software'
p1132
asbag68
(g89
g70
NtRp1133
(dp1134
g73
(dp1135
g100
g101
ssg82
g1124
sg75
(lp1136
S':'
asbag68
(g89
g70
NtRp1137
(dp1138
g73
(dp1139
sg82
g1124
sg75
(lp1140
g68
(g69
g70
NtRp1141
(dp1142
g73
(dp1143
g81
I4
ssg82
g1137
sg75
(lp1144
S'Rocket 1.2.4'
p1145
asbasbasbag68
(g84
g70
NtRp1146
(dp1147
g73
(dp1148
sg82
g486
sg75
(lp1149
g68
(g89
g70
NtRp1150
(dp1151
g73
(dp1152
g93
g94
ssg82
g1146
sg75
(lp1153
S'web2py_crontype'
p1154
asbag68
(g89
g70
NtRp1155
(dp1156
g73
(dp1157
g100
g101
ssg82
g1146
sg75
(lp1158
S':'
asbag68
(g89
g70
NtRp1159
(dp1160
g73
(dp1161
sg82
g1146
sg75
(lp1162
g68
(g69
g70
NtRp1163
(dp1164
g73
(dp1165
g81
I4
ssg82
g1159
sg75
(lp1166
S'hard'
p1167
asbasbasbag68
(g84
g70
NtRp1168
(dp1169
g73
(dp1170
sg82
g486
sg75
(lp1171
g68
(g89
g70
NtRp1172
(dp1173
g73
(dp1174
g93
g94
ssg82
g1168
sg75
(lp1175
S'web2py_path'
p1176
asbag68
(g89
g70
NtRp1177
(dp1178
g73
(dp1179
g100
g101
ssg82
g1168
sg75
(lp1180
S':'
asbag68
(g89
g70
NtRp1181
(dp1182
g73
(dp1183
sg82
g1168
sg75
(lp1184
g68
(g69
g70
NtRp1185
(dp1186
g73
(dp1187
g81
I4
ssg82
g1181
sg75
(lp1188
g533
asbasbasbag68
(g84
g70
NtRp1189
(dp1190
g73
(dp1191
sg82
g486
sg75
(lp1192
g68
(g89
g70
NtRp1193
(dp1194
g73
(dp1195
g93
g94
ssg82
g1189
sg75
(lp1196
S'web2py_version'
p1197
asbag68
(g89
g70
NtRp1198
(dp1199
g73
(dp1200
g100
g101
ssg82
g1189
sg75
(lp1201
S':'
asbag68
(g89
g70
NtRp1202
(dp1203
g73
(dp1204
sg82
g1189
sg75
(lp1205
g68
(g69
g70
NtRp1206
(dp1207
g73
(dp1208
g81
I4
ssg82
g1202
sg75
(lp1209
g68
(g77
g70
NtRp1210
(dp1211
g73
(dp1212
g81
I3
ssg82
Nsg75
(lp1213
g68
(g84
g70
NtRp1214
(dp1215
g73
(dp1216
sg82
g1210
sg75
(lp1217
g68
(g89
g70
NtRp1218
(dp1219
g73
(dp1220
sg82
g1214
sg75
(lp1221
g68
(g69
g70
NtRp1222
(dp1223
g73
(dp1224
g81
I3
ssg82
g1218
sg75
(lp1225
S'2'
asbasbasbag68
(g84
g70
NtRp1226
(dp1227
g73
(dp1228
sg82
g1210
sg75
(lp1229
g68
(g89
g70
NtRp1230
(dp1231
g73
(dp1232
sg82
g1226
sg75
(lp1233
g68
(g69
g70
NtRp1234
(dp1235
g73
(dp1236
g81
I3
ssg82
g1230
sg75
(lp1237
S'0'
asbasbasbag68
(g84
g70
NtRp1238
(dp1239
g73
(dp1240
sg82
g1210
sg75
(lp1241
g68
(g89
g70
NtRp1242
(dp1243
g73
(dp1244
sg82
g1238
sg75
(lp1245
g68
(g69
g70
NtRp1246
(dp1247
g73
(dp1248
g81
I3
ssg82
g1242
sg75
(lp1249
S'8'
asbasbasbag68
(g84
g70
NtRp1250
(dp1251
g73
(dp1252
sg82
g1210
sg75
(lp1253
g68
(g89
g70
NtRp1254
(dp1255
g73
(dp1256
sg82
g1250
sg75
(lp1257
g68
(g69
g70
NtRp1258
(dp1259
g73
(dp1260
g81
I3
ssg82
g1254
sg75
(lp1261
S'datetime.datetime(2012, 9, 7, 3, 47, 51)'
p1262
asbasbasbag68
(g84
g70
NtRp1263
(dp1264
g73
(dp1265
sg82
g1210
sg75
(lp1266
g68
(g89
g70
NtRp1267
(dp1268
g73
(dp1269
sg82
g1263
sg75
(lp1270
g68
(g69
g70
NtRp1271
(dp1272
g73
(dp1273
g81
I3
ssg82
g1267
sg75
(lp1274
S'stable'
p1275
asbasbasbasbasbasbasbag68
(g84
g70
NtRp1276
(dp1277
g73
(dp1278
sg82
g486
sg75
(lp1279
g68
(g89
g70
NtRp1280
(dp1281
g73
(dp1282
g93
g94
ssg82
g1276
sg75
(lp1283
S'wsgi_errors'
p1284
asbag68
(g89
g70
NtRp1285
(dp1286
g73
(dp1287
g100
g101
ssg82
g1276
sg75
(lp1288
S':'
asbag68
(g89
g70
NtRp1289
(dp1290
g73
(dp1291
sg82
g1276
sg75
(lp1292
g68
(g69
g70
NtRp1293
(dp1294
g73
(dp1295
g81
I4
ssg82
g1289
sg75
(lp1296
S"<open file '<stderr>', mode 'w' at 0x7f7b39bf91e0>"
p1297
asbasbasbag68
(g84
g70
NtRp1298
(dp1299
g73
(dp1300
sg82
g486
sg75
(lp1301
g68
(g89
g70
NtRp1302
(dp1303
g73
(dp1304
g93
g94
ssg82
g1298
sg75
(lp1305
S'wsgi_file_wrapper'
p1306
asbag68
(g89
g70
NtRp1307
(dp1308
g73
(dp1309
g100
g101
ssg82
g1298
sg75
(lp1310
S':'
asbag68
(g89
g70
NtRp1311
(dp1312
g73
(dp1313
sg82
g1298
sg75
(lp1314
g68
(g69
g70
NtRp1315
(dp1316
g73
(dp1317
g81
I4
ssg82
g1311
sg75
(lp1318
S'<class wsgiref.util.FileWrapper at 0x2756f58>'
p1319
asbasbasbag68
(g84
g70
NtRp1320
(dp1321
g73
(dp1322
sg82
g486
sg75
(lp1323
g68
(g89
g70
NtRp1324
(dp1325
g73
(dp1326
g93
g94
ssg82
g1320
sg75
(lp1327
S'wsgi_input'
p1328
asbag68
(g89
g70
NtRp1329
(dp1330
g73
(dp1331
g100
g101
ssg82
g1320
sg75
(lp1332
S':'
asbag68
(g89
g70
NtRp1333
(dp1334
g73
(dp1335
sg82
g1320
sg75
(lp1336
g68
(g69
g70
NtRp1337
(dp1338
g73
(dp1339
g81
I4
ssg82
g1333
sg75
(lp1340
S'<socket._fileobject object at 0x7f7a785db350>'
p1341
asbasbasbag68
(g84
g70
NtRp1342
(dp1343
g73
(dp1344
sg82
g486
sg75
(lp1345
g68
(g89
g70
NtRp1346
(dp1347
g73
(dp1348
g93
g94
ssg82
g1342
sg75
(lp1349
S'wsgi_multiprocess'
p1350
asbag68
(g89
g70
NtRp1351
(dp1352
g73
(dp1353
g100
g101
ssg82
g1342
sg75
(lp1354
S':'
asbag68
(g89
g70
NtRp1355
(dp1356
g73
(dp1357
sg82
g1342
sg75
(lp1358
g68
(g69
g70
NtRp1359
(dp1360
g73
(dp1361
g81
I4
ssg82
g1355
sg75
(lp1362
g111
asbasbasbag68
(g84
g70
NtRp1363
(dp1364
g73
(dp1365
sg82
g486
sg75
(lp1366
g68
(g89
g70
NtRp1367
(dp1368
g73
(dp1369
g93
g94
ssg82
g1363
sg75
(lp1370
S'wsgi_multithread'
p1371
asbag68
(g89
g70
NtRp1372
(dp1373
g73
(dp1374
g100
g101
ssg82
g1363
sg75
(lp1375
S':'
asbag68
(g89
g70
NtRp1376
(dp1377
g73
(dp1378
sg82
g1363
sg75
(lp1379
g68
(g69
g70
NtRp1380
(dp1381
g73
(dp1382
g81
I4
ssg82
g1376
sg75
(lp1383
S'True'
p1384
asbasbasbag68
(g84
g70
NtRp1385
(dp1386
g73
(dp1387
sg82
g486
sg75
(lp1388
g68
(g89
g70
NtRp1389
(dp1390
g73
(dp1391
g93
g94
ssg82
g1385
sg75
(lp1392
S'wsgi_run_once'
p1393
asbag68
(g89
g70
NtRp1394
(dp1395
g73
(dp1396
g100
g101
ssg82
g1385
sg75
(lp1397
S':'
asbag68
(g89
g70
NtRp1398
(dp1399
g73
(dp1400
sg82
g1385
sg75
(lp1401
g68
(g69
g70
NtRp1402
(dp1403
g73
(dp1404
g81
I4
ssg82
g1398
sg75
(lp1405
g111
asbasbasbag68
(g84
g70
NtRp1406
(dp1407
g73
(dp1408
sg82
g486
sg75
(lp1409
g68
(g89
g70
NtRp1410
(dp1411
g73
(dp1412
g93
g94
ssg82
g1406
sg75
(lp1413
S'wsgi_url_scheme'
p1414
asbag68
(g89
g70
NtRp1415
(dp1416
g73
(dp1417
g100
g101
ssg82
g1406
sg75
(lp1418
S':'
asbag68
(g89
g70
NtRp1419
(dp1420
g73
(dp1421
sg82
g1406
sg75
(lp1422
g68
(g69
g70
NtRp1423
(dp1424
g73
(dp1425
g81
I4
ssg82
g1419
sg75
(lp1426
S'http'
p1427
asbasbasbag68
(g84
g70
NtRp1428
(dp1429
g73
(dp1430
sg82
g486
sg75
(lp1431
g68
(g89
g70
NtRp1432
(dp1433
g73
(dp1434
g93
g94
ssg82
g1428
sg75
(lp1435
S'wsgi_version'
p1436
asbag68
(g89
g70
NtRp1437
(dp1438
g73
(dp1439
g100
g101
ssg82
g1428
sg75
(lp1440
S':'
asbag68
(g89
g70
NtRp1441
(dp1442
g73
(dp1443
sg82
g1428
sg75
(lp1444
g68
(g69
g70
NtRp1445
(dp1446
g73
(dp1447
g81
I4
ssg82
g1441
sg75
(lp1448
g68
(g77
g70
NtRp1449
(dp1450
g73
(dp1451
g81
I3
ssg82
Nsg75
(lp1452
g68
(g84
g70
NtRp1453
(dp1454
g73
(dp1455
sg82
g1449
sg75
(lp1456
g68
(g89
g70
NtRp1457
(dp1458
g73
(dp1459
sg82
g1453
sg75
(lp1460
g68
(g69
g70
NtRp1461
(dp1462
g73
(dp1463
g81
I3
ssg82
g1457
sg75
(lp1464
S'1'
asbasbasbag68
(g84
g70
NtRp1465
(dp1466
g73
(dp1467
sg82
g1449
sg75
(lp1468
g68
(g89
g70
NtRp1469
(dp1470
g73
(dp1471
sg82
g1465
sg75
(lp1472
g68
(g69
g70
NtRp1473
(dp1474
g73
(dp1475
g81
I3
ssg82
g1469
sg75
(lp1476
S'0'
asbasbasbasbasbasbasbasbasbasbasbag68
(g84
g70
NtRp1477
(dp1478
g73
(dp1479
sg82
g78
sg75
(lp1480
g68
(g89
g70
NtRp1481
(dp1482
g73
(dp1483
g93
g94
ssg82
g1477
sg75
(lp1484
S'extension'
p1485
asbag68
(g89
g70
NtRp1486
(dp1487
g73
(dp1488
g100
g101
ssg82
g1477
sg75
(lp1489
S':'
asbag68
(g89
g70
NtRp1490
(dp1491
g73
(dp1492
sg82
g1477
sg75
(lp1493
g68
(g69
g70
NtRp1494
(dp1495
g73
(dp1496
g81
I5
ssg82
g1490
sg75
(lp1497
S'html'
p1498
asbasbasbag68
(g84
g70
NtRp1499
(dp1500
g73
(dp1501
sg82
g78
sg75
(lp1502
g68
(g89
g70
NtRp1503
(dp1504
g73
(dp1505
g93
g94
ssg82
g1499
sg75
(lp1506
S'folder'
p1507
asbag68
(g89
g70
NtRp1508
(dp1509
g73
(dp1510
g100
g101
ssg82
g1499
sg75
(lp1511
S':'
asbag68
(g89
g70
NtRp1512
(dp1513
g73
(dp1514
sg82
g1499
sg75
(lp1515
g68
(g69
g70
NtRp1516
(dp1517
g73
(dp1518
g81
I5
ssg82
g1512
sg75
(lp1519
S'/home/mayank/Desktop/web2pyAdmin/web2py/web2py/applications/FunkLoad/'
p1520
asbasbasbag68
(g84
g70
NtRp1521
(dp1522
g73
(dp1523
sg82
g78
sg75
(lp1524
g68
(g89
g70
NtRp1525
(dp1526
g73
(dp1527
g93
g94
ssg82
g1521
sg75
(lp1528
S'function'
p1529
asbag68
(g89
g70
NtRp1530
(dp1531
g73
(dp1532
g100
g101
ssg82
g1521
sg75
(lp1533
S':'
asbag68
(g89
g70
NtRp1534
(dp1535
g73
(dp1536
sg82
g1521
sg75
(lp1537
g68
(g69
g70
NtRp1538
(dp1539
g73
(dp1540
g81
I5
ssg82
g1534
sg75
(lp1541
S'testDetails'
p1542
asbasbasbag68
(g84
g70
NtRp1543
(dp1544
g73
(dp1545
sg82
g78
sg75
(lp1546
g68
(g89
g70
NtRp1547
(dp1548
g73
(dp1549
g93
g94
ssg82
g1543
sg75
(lp1550
S'get_vars'
p1551
asbag68
(g89
g70
NtRp1552
(dp1553
g73
(dp1554
g100
g101
ssg82
g1543
sg75
(lp1555
S':'
asbag68
(g89
g70
NtRp1556
(dp1557
g73
(dp1558
sg82
g1543
sg75
(lp1559
g68
(g69
g70
NtRp1560
(dp1561
g73
(dp1562
g81
I5
ssg82
g1556
sg75
(lp1563
g68
(g77
g70
NtRp1564
(dp1565
g73
(dp1566
g81
I4
ssg82
Nsg75
(lp1567
sbasbasbasbag68
(g84
g70
NtRp1568
(dp1569
g73
(dp1570
sg82
g78
sg75
(lp1571
g68
(g89
g70
NtRp1572
(dp1573
g73
(dp1574
g93
g94
ssg82
g1568
sg75
(lp1575
S'global_settings'
p1576
asbag68
(g89
g70
NtRp1577
(dp1578
g73
(dp1579
g100
g101
ssg82
g1568
sg75
(lp1580
S':'
asbag68
(g89
g70
NtRp1581
(dp1582
g73
(dp1583
sg82
g1568
sg75
(lp1584
g68
(g69
g70
NtRp1585
(dp1586
g73
(dp1587
g81
I5
ssg82
g1581
sg75
(lp1588
g68
(g77
g70
NtRp1589
(dp1590
g73
(dp1591
g81
I4
ssg82
Nsg75
(lp1592
g68
(g84
g70
NtRp1593
(dp1594
g73
(dp1595
sg82
g1589
sg75
(lp1596
g68
(g89
g70
NtRp1597
(dp1598
g73
(dp1599
g93
g94
ssg82
g1593
sg75
(lp1600
g498
asbag68
(g89
g70
NtRp1601
(dp1602
g73
(dp1603
g100
g101
ssg82
g1593
sg75
(lp1604
S':'
asbag68
(g89
g70
NtRp1605
(dp1606
g73
(dp1607
sg82
g1593
sg75
(lp1608
g68
(g69
g70
NtRp1609
(dp1610
g73
(dp1611
g81
I4
ssg82
g1605
sg75
(lp1612
S"set(['/home/mayank/Desktop/web2pyAdmin/web2py/web2py/applications/welcome/', '/home/mayank/Desktop/web2pyAdmin/web2py/web2py/applications/admin/', '/home/mayank/Desktop/web2pyAdmin/web2py/web2py/applications/FunkLoad/'])"
p1613
asbasbasbag68
(g84
g70
NtRp1614
(dp1615
g73
(dp1616
sg82
g1589
sg75
(lp1617
g68
(g89
g70
NtRp1618
(dp1619
g73
(dp1620
g93
g94
ssg82
g1614
sg75
(lp1621
g520
asbag68
(g89
g70
NtRp1622
(dp1623
g73
(dp1624
g100
g101
ssg82
g1614
sg75
(lp1625
S':'
asbag68
(g89
g70
NtRp1626
(dp1627
g73
(dp1628
sg82
g1614
sg75
(lp1629
g68
(g69
g70
NtRp1630
(dp1631
g73
(dp1632
g81
I4
ssg82
g1626
sg75
(lp1633
g533
asbasbasbag68
(g84
g70
NtRp1634
(dp1635
g73
(dp1636
sg82
g1589
sg75
(lp1637
g68
(g89
g70
NtRp1638
(dp1639
g73
(dp1640
g93
g94
ssg82
g1634
sg75
(lp1641
g542
asbag68
(g89
g70
NtRp1642
(dp1643
g73
(dp1644
g100
g101
ssg82
g1634
sg75
(lp1645
S':'
asbag68
(g89
g70
NtRp1646
(dp1647
g73
(dp1648
sg82
g1634
sg75
(lp1649
g68
(g69
g70
NtRp1650
(dp1651
g73
(dp1652
g81
I4
ssg82
g1646
sg75
(lp1653
g68
(g77
g70
NtRp1654
(dp1655
g73
(dp1656
g81
I3
ssg82
Nsg75
(lp1657
sbasbasbasbag68
(g84
g70
NtRp1658
(dp1659
g73
(dp1660
sg82
g1589
sg75
(lp1661
g68
(g89
g70
NtRp1662
(dp1663
g73
(dp1664
g93
g94
ssg82
g1658
sg75
(lp1665
g567
asbag68
(g89
g70
NtRp1666
(dp1667
g73
(dp1668
g100
g101
ssg82
g1658
sg75
(lp1669
S':'
asbag68
(g89
g70
NtRp1670
(dp1671
g73
(dp1672
sg82
g1658
sg75
(lp1673
g68
(g69
g70
NtRp1674
(dp1675
g73
(dp1676
g81
I4
ssg82
g1670
sg75
(lp1677
S"<Values at 0x2bfd9e0: {'verbose': False, 'ip': '10.1.33.107', 'with_scheduler': False, 'ips': ['127.0.1.1', '10.1.33.121'], 'shutdown_timeout': 5, 'taskbar': False, 'port': 8000, 'maxthreads': None, 'softcron': False, 'server_name': 'mayank', 'bpython': False, 'nogui': False, 'nocron': False, 'extcron': False, 'run_system_tests': False, 'test': None, 'folder': '/home/mayank/Desktop/web2pyAdmin/web2py/web2py', 'config': '', 'import_models': False, 'winservice': '', 'shell': None, 'run': '', 'log_filename': 'httpserver.log', 'debuglevel': 30, 'args': [''], 'socket_timeout': 5, 'ssl_ca_certificate': None, 'scheduler': None, 'profiler_filename': None, 'ssl_private_key': '', 'scheduler_groups': None, 'password': '<ask>', 'request_queue_size': 5, 'ssl_certificate': '', 'cronjob': False, 'numthreads': None, 'quiet': False, 'interfaces': None, 'minthreads': None, 'timeout': 10, 'plain': False, 'nobanner': False, 'pid_filename': 'httpserver.pid'}>"
p1678
asbasbasbag68
(g84
g70
NtRp1679
(dp1680
g73
(dp1681
sg82
g1589
sg75
(lp1682
g68
(g89
g70
NtRp1683
(dp1684
g73
(dp1685
g93
g94
ssg82
g1679
sg75
(lp1686
g589
asbag68
(g89
g70
NtRp1687
(dp1688
g73
(dp1689
g100
g101
ssg82
g1679
sg75
(lp1690
S':'
asbag68
(g89
g70
NtRp1691
(dp1692
g73
(dp1693
sg82
g1679
sg75
(lp1694
g68
(g69
g70
NtRp1695
(dp1696
g73
(dp1697
g81
I4
ssg82
g1691
sg75
(lp1698
S'set([])'
p1699
asbasbasbag68
(g84
g70
NtRp1700
(dp1701
g73
(dp1702
sg82
g1589
sg75
(lp1703
g68
(g89
g70
NtRp1704
(dp1705
g73
(dp1706
g93
g94
ssg82
g1700
sg75
(lp1707
g611
asbag68
(g89
g70
NtRp1708
(dp1709
g73
(dp1710
g100
g101
ssg82
g1700
sg75
(lp1711
S':'
asbag68
(g89
g70
NtRp1712
(dp1713
g73
(dp1714
sg82
g1700
sg75
(lp1715
g68
(g69
g70
NtRp1716
(dp1717
g73
(dp1718
g81
I4
ssg82
g1712
sg75
(lp1719
g111
asbasbasbag68
(g84
g70
NtRp1720
(dp1721
g73
(dp1722
sg82
g1589
sg75
(lp1723
g68
(g89
g70
NtRp1724
(dp1725
g73
(dp1726
g93
g94
ssg82
g1720
sg75
(lp1727
g632
asbag68
(g89
g70
NtRp1728
(dp1729
g73
(dp1730
g100
g101
ssg82
g1720
sg75
(lp1731
S':'
asbag68
(g89
g70
NtRp1732
(dp1733
g73
(dp1734
sg82
g1720
sg75
(lp1735
g68
(g69
g70
NtRp1736
(dp1737
g73
(dp1738
g81
I4
ssg82
g1732
sg75
(lp1739
g645
asbasbasbag68
(g84
g70
NtRp1740
(dp1741
g73
(dp1742
sg82
g1589
sg75
(lp1743
g68
(g89
g70
NtRp1744
(dp1745
g73
(dp1746
g93
g94
ssg82
g1740
sg75
(lp1747
g874
asbag68
(g89
g70
NtRp1748
(dp1749
g73
(dp1750
g100
g101
ssg82
g1740
sg75
(lp1751
S':'
asbag68
(g89
g70
NtRp1752
(dp1753
g73
(dp1754
sg82
g1740
sg75
(lp1755
g68
(g69
g70
NtRp1756
(dp1757
g73
(dp1758
g81
I4
ssg82
g1752
sg75
(lp1759
g111
asbasbasbag68
(g84
g70
NtRp1760
(dp1761
g73
(dp1762
sg82
g1589
sg75
(lp1763
g68
(g89
g70
NtRp1764
(dp1765
g73
(dp1766
g93
g94
ssg82
g1760
sg75
(lp1767
g895
asbag68
(g89
g70
NtRp1768
(dp1769
g73
(dp1770
g100
g101
ssg82
g1760
sg75
(lp1771
S':'
asbag68
(g89
g70
NtRp1772
(dp1773
g73
(dp1774
sg82
g1760
sg75
(lp1775
g68
(g69
g70
NtRp1776
(dp1777
g73
(dp1778
g81
I4
ssg82
g1772
sg75
(lp1779
g111
asbasbasbag68
(g84
g70
NtRp1780
(dp1781
g73
(dp1782
sg82
g1589
sg75
(lp1783
g68
(g89
g70
NtRp1784
(dp1785
g73
(dp1786
g93
g94
ssg82
g1780
sg75
(lp1787
g1154
asbag68
(g89
g70
NtRp1788
(dp1789
g73
(dp1790
g100
g101
ssg82
g1780
sg75
(lp1791
S':'
asbag68
(g89
g70
NtRp1792
(dp1793
g73
(dp1794
sg82
g1780
sg75
(lp1795
g68
(g69
g70
NtRp1796
(dp1797
g73
(dp1798
g81
I4
ssg82
g1792
sg75
(lp1799
g1167
asbasbasbag68
(g84
g70
NtRp1800
(dp1801
g73
(dp1802
sg82
g1589
sg75
(lp1803
g68
(g89
g70
NtRp1804
(dp1805
g73
(dp1806
g93
g94
ssg82
g1800
sg75
(lp1807
g1197
asbag68
(g89
g70
NtRp1808
(dp1809
g73
(dp1810
g100
g101
ssg82
g1800
sg75
(lp1811
S':'
asbag68
(g89
g70
NtRp1812
(dp1813
g73
(dp1814
sg82
g1800
sg75
(lp1815
g68
(g69
g70
NtRp1816
(dp1817
g73
(dp1818
g81
I4
ssg82
g1812
sg75
(lp1819
g68
(g77
g70
NtRp1820
(dp1821
g73
(dp1822
g81
I3
ssg82
Nsg75
(lp1823
g68
(g84
g70
NtRp1824
(dp1825
g73
(dp1826
sg82
g1820
sg75
(lp1827
g68
(g89
g70
NtRp1828
(dp1829
g73
(dp1830
sg82
g1824
sg75
(lp1831
g68
(g69
g70
NtRp1832
(dp1833
g73
(dp1834
g81
I3
ssg82
g1828
sg75
(lp1835
S'2'
asbasbasbag68
(g84
g70
NtRp1836
(dp1837
g73
(dp1838
sg82
g1820
sg75
(lp1839
g68
(g89
g70
NtRp1840
(dp1841
g73
(dp1842
sg82
g1836
sg75
(lp1843
g68
(g69
g70
NtRp1844
(dp1845
g73
(dp1846
g81
I3
ssg82
g1840
sg75
(lp1847
S'0'
asbasbasbag68
(g84
g70
NtRp1848
(dp1849
g73
(dp1850
sg82
g1820
sg75
(lp1851
g68
(g89
g70
NtRp1852
(dp1853
g73
(dp1854
sg82
g1848
sg75
(lp1855
g68
(g69
g70
NtRp1856
(dp1857
g73
(dp1858
g81
I3
ssg82
g1852
sg75
(lp1859
S'8'
asbasbasbag68
(g84
g70
NtRp1860
(dp1861
g73
(dp1862
sg82
g1820
sg75
(lp1863
g68
(g89
g70
NtRp1864
(dp1865
g73
(dp1866
sg82
g1860
sg75
(lp1867
g68
(g69
g70
NtRp1868
(dp1869
g73
(dp1870
g81
I3
ssg82
g1864
sg75
(lp1871
S'datetime.datetime(2012, 9, 7, 3, 47, 51)'
p1872
asbasbasbag68
(g84
g70
NtRp1873
(dp1874
g73
(dp1875
sg82
g1820
sg75
(lp1876
g68
(g89
g70
NtRp1877
(dp1878
g73
(dp1879
sg82
g1873
sg75
(lp1880
g68
(g69
g70
NtRp1881
(dp1882
g73
(dp1883
g81
I3
ssg82
g1877
sg75
(lp1884
g1275
asbasbasbasbasbasbasbasbasbasbasbag68
(g84
g70
NtRp1885
(dp1886
g73
(dp1887
sg82
g78
sg75
(lp1888
g68
(g89
g70
NtRp1889
(dp1890
g73
(dp1891
g93
g94
ssg82
g1885
sg75
(lp1892
S'is_https'
p1893
asbag68
(g89
g70
NtRp1894
(dp1895
g73
(dp1896
g100
g101
ssg82
g1885
sg75
(lp1897
S':'
asbag68
(g89
g70
NtRp1898
(dp1899
g73
(dp1900
sg82
g1885
sg75
(lp1901
g68
(g69
g70
NtRp1902
(dp1903
g73
(dp1904
g81
I5
ssg82
g1898
sg75
(lp1905
g111
asbasbasbag68
(g84
g70
NtRp1906
(dp1907
g73
(dp1908
sg82
g78
sg75
(lp1909
g68
(g89
g70
NtRp1910
(dp1911
g73
(dp1912
g93
g94
ssg82
g1906
sg75
(lp1913
S'is_local'
p1914
asbag68
(g89
g70
NtRp1915
(dp1916
g73
(dp1917
g100
g101
ssg82
g1906
sg75
(lp1918
S':'
asbag68
(g89
g70
NtRp1919
(dp1920
g73
(dp1921
sg82
g1906
sg75
(lp1922
g68
(g69
g70
NtRp1923
(dp1924
g73
(dp1925
g81
I5
ssg82
g1919
sg75
(lp1926
g1384
asbasbasbag68
(g84
g70
NtRp1927
(dp1928
g73
(dp1929
sg82
g78
sg75
(lp1930
g68
(g89
g70
NtRp1931
(dp1932
g73
(dp1933
g93
g94
ssg82
g1927
sg75
(lp1934
S'is_restful'
p1935
asbag68
(g89
g70
NtRp1936
(dp1937
g73
(dp1938
g100
g101
ssg82
g1927
sg75
(lp1939
S':'
asbag68
(g89
g70
NtRp1940
(dp1941
g73
(dp1942
sg82
g1927
sg75
(lp1943
g68
(g69
g70
NtRp1944
(dp1945
g73
(dp1946
g81
I5
ssg82
g1940
sg75
(lp1947
g111
asbasbasbag68
(g84
g70
NtRp1948
(dp1949
g73
(dp1950
sg82
g78
sg75
(lp1951
g68
(g89
g70
NtRp1952
(dp1953
g73
(dp1954
g93
g94
ssg82
g1948
sg75
(lp1955
S'now'
p1956
asbag68
(g89
g70
NtRp1957
(dp1958
g73
(dp1959
g100
g101
ssg82
g1948
sg75
(lp1960
S':'
asbag68
(g89
g70
NtRp1961
(dp1962
g73
(dp1963
sg82
g1948
sg75
(lp1964
g68
(g69
g70
NtRp1965
(dp1966
g73
(dp1967
g81
I5
ssg82
g1961
sg75
(lp1968
S'datetime.datetime(2013, 11, 10, 18, 5, 7, 494754)'
p1969
asbasbasbag68
(g84
g70
NtRp1970
(dp1971
g73
(dp1972
sg82
g78
sg75
(lp1973
g68
(g89
g70
NtRp1974
(dp1975
g73
(dp1976
g93
g94
ssg82
g1970
sg75
(lp1977
S'post_vars'
p1978
asbag68
(g89
g70
NtRp1979
(dp1980
g73
(dp1981
g100
g101
ssg82
g1970
sg75
(lp1982
S':'
asbag68
(g89
g70
NtRp1983
(dp1984
g73
(dp1985
sg82
g1970
sg75
(lp1986
g68
(g69
g70
NtRp1987
(dp1988
g73
(dp1989
g81
I5
ssg82
g1983
sg75
(lp1990
g68
(g77
g70
NtRp1991
(dp1992
g73
(dp1993
g81
I4
ssg82
Nsg75
(lp1994
sbasbasbasbag68
(g84
g70
NtRp1995
(dp1996
g73
(dp1997
sg82
g78
sg75
(lp1998
g68
(g89
g70
NtRp1999
(dp2000
g73
(dp2001
g93
g94
ssg82
g1995
sg75
(lp2002
S'raw_args'
p2003
asbag68
(g89
g70
NtRp2004
(dp2005
g73
(dp2006
g100
g101
ssg82
g1995
sg75
(lp2007
S':'
asbag68
(g89
g70
NtRp2008
(dp2009
g73
(dp2010
sg82
g1995
sg75
(lp2011
g68
(g69
g70
NtRp2012
(dp2013
g73
(dp2014
g81
I5
ssg82
g2008
sg75
(lp2015
S'None'
p2016
asbasbasbag68
(g84
g70
NtRp2017
(dp2018
g73
(dp2019
sg82
g78
sg75
(lp2020
g68
(g89
g70
NtRp2021
(dp2022
g73
(dp2023
g93
g94
ssg82
g2017
sg75
(lp2024
S'raw_extension'
p2025
asbag68
(g89
g70
NtRp2026
(dp2027
g73
(dp2028
g100
g101
ssg82
g2017
sg75
(lp2029
S':'
asbag68
(g89
g70
NtRp2030
(dp2031
g73
(dp2032
sg82
g2017
sg75
(lp2033
g68
(g69
g70
NtRp2034
(dp2035
g73
(dp2036
g81
I5
ssg82
g2030
sg75
(lp2037
S'None'
p2038
asbasbasbag68
(g84
g70
NtRp2039
(dp2040
g73
(dp2041
sg82
g78
sg75
(lp2042
g68
(g89
g70
NtRp2043
(dp2044
g73
(dp2045
g93
g94
ssg82
g2039
sg75
(lp2046
S'url'
p2047
asbag68
(g89
g70
NtRp2048
(dp2049
g73
(dp2050
g100
g101
ssg82
g2039
sg75
(lp2051
S':'
asbag68
(g89
g70
NtRp2052
(dp2053
g73
(dp2054
sg82
g2039
sg75
(lp2055
g68
(g69
g70
NtRp2056
(dp2057
g73
(dp2058
g81
I5
ssg82
g2052
sg75
(lp2059
g929
asbasbasbag68
(g84
g70
NtRp2060
(dp2061
g73
(dp2062
sg82
g78
sg75
(lp2063
g68
(g89
g70
NtRp2064
(dp2065
g73
(dp2066
g93
g94
ssg82
g2060
sg75
(lp2067
S'utcnow'
p2068
asbag68
(g89
g70
NtRp2069
(dp2070
g73
(dp2071
g100
g101
ssg82
g2060
sg75
(lp2072
S':'
asbag68
(g89
g70
NtRp2073
(dp2074
g73
(dp2075
sg82
g2060
sg75
(lp2076
g68
(g69
g70
NtRp2077
(dp2078
g73
(dp2079
g81
I5
ssg82
g2073
sg75
(lp2080
S'datetime.datetime(2013, 11, 10, 12, 35, 7, 494792)'
p2081
asbasbasbag68
(g84
g70
NtRp2082
(dp2083
g73
(dp2084
sg82
g78
sg75
(lp2085
g68
(g89
g70
NtRp2086
(dp2087
g73
(dp2088
g93
g94
ssg82
g2082
sg75
(lp2089
S'uuid'
p2090
asbag68
(g89
g70
NtRp2091
(dp2092
g73
(dp2093
g100
g101
ssg82
g2082
sg75
(lp2094
S':'
asbag68
(g89
g70
NtRp2095
(dp2096
g73
(dp2097
sg82
g2082
sg75
(lp2098
g68
(g69
g70
NtRp2099
(dp2100
g73
(dp2101
g81
I5
ssg82
g2095
sg75
(lp2102
S'FunkLoad/10.1.33.107.2013-11-10.18-05-07.205abaa5-ef93-4191-a65d-94318b22d0b9'
p2103
asbasbasbag68
(g84
g70
NtRp2104
(dp2105
g73
(dp2106
sg82
g78
sg75
(lp2107
g68
(g89
g70
NtRp2108
(dp2109
g73
(dp2110
g93
g94
ssg82
g2104
sg75
(lp2111
S'vars'
p2112
asbag68
(g89
g70
NtRp2113
(dp2114
g73
(dp2115
g100
g101
ssg82
g2104
sg75
(lp2116
S':'
asbag68
(g89
g70
NtRp2117
(dp2118
g73
(dp2119
sg82
g2104
sg75
(lp2120
g68
(g69
g70
NtRp2121
(dp2122
g73
(dp2123
g81
I5
ssg82
g2117
sg75
(lp2124
g68
(g77
g70
NtRp2125
(dp2126
g73
(dp2127
g81
I4
ssg82
Nsg75
(lp2128
sbasbasbasbag68
(g84
g70
NtRp2129
(dp2130
g73
(dp2131
sg82
g78
sg75
(lp2132
g68
(g89
g70
NtRp2133
(dp2134
g73
(dp2135
g93
g94
ssg82
g2129
sg75
(lp2136
S'wsgi'
p2137
asbag68
(g89
g70
NtRp2138
(dp2139
g73
(dp2140
g100
g101
ssg82
g2129
sg75
(lp2141
S':'
asbag68
(g89
g70
NtRp2142
(dp2143
g73
(dp2144
sg82
g2129
sg75
(lp2145
g68
(g69
g70
NtRp2146
(dp2147
g73
(dp2148
g81
I5
ssg82
g2142
sg75
(lp2149
g68
(g77
g70
NtRp2150
(dp2151
g73
(dp2152
g81
I4
ssg82
Nsg75
(lp2153
g68
(g84
g70
NtRp2154
(dp2155
g73
(dp2156
sg82
g2150
sg75
(lp2157
g68
(g89
g70
NtRp2158
(dp2159
g73
(dp2160
g93
g94
ssg82
g2154
sg75
(lp2161
S'environ'
p2162
asbag68
(g89
g70
NtRp2163
(dp2164
g73
(dp2165
g100
g101
ssg82
g2154
sg75
(lp2166
S':'
asbag68
(g89
g70
NtRp2167
(dp2168
g73
(dp2169
sg82
g2154
sg75
(lp2170
g68
(g69
g70
NtRp2171
(dp2172
g73
(dp2173
g81
I4
ssg82
g2167
sg75
(lp2174
g68
(g77
g70
NtRp2175
(dp2176
g73
(dp2177
g81
I3
ssg82
Nsg75
(lp2178
g68
(g84
g70
NtRp2179
(dp2180
g73
(dp2181
sg82
g2175
sg75
(lp2182
g68
(g89
g70
NtRp2183
(dp2184
g73
(dp2185
g93
g94
ssg82
g2179
sg75
(lp2186
S'HTTP_ACCEPT'
p2187
asbag68
(g89
g70
NtRp2188
(dp2189
g73
(dp2190
g100
g101
ssg82
g2179
sg75
(lp2191
S':'
asbag68
(g89
g70
NtRp2192
(dp2193
g73
(dp2194
sg82
g2179
sg75
(lp2195
g68
(g69
g70
NtRp2196
(dp2197
g73
(dp2198
g81
I3
ssg82
g2192
sg75
(lp2199
g667
asbasbasbag68
(g84
g70
NtRp2200
(dp2201
g73
(dp2202
sg82
g2175
sg75
(lp2203
g68
(g89
g70
NtRp2204
(dp2205
g73
(dp2206
g93
g94
ssg82
g2200
sg75
(lp2207
S'HTTP_ACCEPT_ENCODING'
p2208
asbag68
(g89
g70
NtRp2209
(dp2210
g73
(dp2211
g100
g101
ssg82
g2200
sg75
(lp2212
S':'
asbag68
(g89
g70
NtRp2213
(dp2214
g73
(dp2215
sg82
g2200
sg75
(lp2216
g68
(g69
g70
NtRp2217
(dp2218
g73
(dp2219
g81
I3
ssg82
g2213
sg75
(lp2220
g689
asbasbasbag68
(g84
g70
NtRp2221
(dp2222
g73
(dp2223
sg82
g2175
sg75
(lp2224
g68
(g89
g70
NtRp2225
(dp2226
g73
(dp2227
g93
g94
ssg82
g2221
sg75
(lp2228
S'HTTP_ACCEPT_LANGUAGE'
p2229
asbag68
(g89
g70
NtRp2230
(dp2231
g73
(dp2232
g100
g101
ssg82
g2221
sg75
(lp2233
S':'
asbag68
(g89
g70
NtRp2234
(dp2235
g73
(dp2236
sg82
g2221
sg75
(lp2237
g68
(g69
g70
NtRp2238
(dp2239
g73
(dp2240
g81
I3
ssg82
g2234
sg75
(lp2241
g711
asbasbasbag68
(g84
g70
NtRp2242
(dp2243
g73
(dp2244
sg82
g2175
sg75
(lp2245
g68
(g89
g70
NtRp2246
(dp2247
g73
(dp2248
g93
g94
ssg82
g2242
sg75
(lp2249
S'HTTP_CACHE_CONTROL'
p2250
asbag68
(g89
g70
NtRp2251
(dp2252
g73
(dp2253
g100
g101
ssg82
g2242
sg75
(lp2254
S':'
asbag68
(g89
g70
NtRp2255
(dp2256
g73
(dp2257
sg82
g2242
sg75
(lp2258
g68
(g69
g70
NtRp2259
(dp2260
g73
(dp2261
g81
I3
ssg82
g2255
sg75
(lp2262
g733
asbasbasbag68
(g84
g70
NtRp2263
(dp2264
g73
(dp2265
sg82
g2175
sg75
(lp2266
g68
(g89
g70
NtRp2267
(dp2268
g73
(dp2269
g93
g94
ssg82
g2263
sg75
(lp2270
S'HTTP_CONNECTION'
p2271
asbag68
(g89
g70
NtRp2272
(dp2273
g73
(dp2274
g100
g101
ssg82
g2263
sg75
(lp2275
S':'
asbag68
(g89
g70
NtRp2276
(dp2277
g73
(dp2278
sg82
g2263
sg75
(lp2279
g68
(g69
g70
NtRp2280
(dp2281
g73
(dp2282
g81
I3
ssg82
g2276
sg75
(lp2283
g755
asbasbasbag68
(g84
g70
NtRp2284
(dp2285
g73
(dp2286
sg82
g2175
sg75
(lp2287
g68
(g89
g70
NtRp2288
(dp2289
g73
(dp2290
g93
g94
ssg82
g2284
sg75
(lp2291
S'HTTP_COOKIE'
p2292
asbag68
(g89
g70
NtRp2293
(dp2294
g73
(dp2295
g100
g101
ssg82
g2284
sg75
(lp2296
S':'
asbag68
(g89
g70
NtRp2297
(dp2298
g73
(dp2299
sg82
g2284
sg75
(lp2300
g68
(g69
g70
NtRp2301
(dp2302
g73
(dp2303
g81
I3
ssg82
g2297
sg75
(lp2304
g777
asbasbasbag68
(g84
g70
NtRp2305
(dp2306
g73
(dp2307
sg82
g2175
sg75
(lp2308
g68
(g89
g70
NtRp2309
(dp2310
g73
(dp2311
g93
g94
ssg82
g2305
sg75
(lp2312
S'HTTP_HOST'
p2313
asbag68
(g89
g70
NtRp2314
(dp2315
g73
(dp2316
g100
g101
ssg82
g2305
sg75
(lp2317
S':'
asbag68
(g89
g70
NtRp2318
(dp2319
g73
(dp2320
sg82
g2305
sg75
(lp2321
g68
(g69
g70
NtRp2322
(dp2323
g73
(dp2324
g81
I3
ssg82
g2318
sg75
(lp2325
g799
asbasbasbag68
(g84
g70
NtRp2326
(dp2327
g73
(dp2328
sg82
g2175
sg75
(lp2329
g68
(g89
g70
NtRp2330
(dp2331
g73
(dp2332
g93
g94
ssg82
g2326
sg75
(lp2333
S'HTTP_PRAGMA'
p2334
asbag68
(g89
g70
NtRp2335
(dp2336
g73
(dp2337
g100
g101
ssg82
g2326
sg75
(lp2338
S':'
asbag68
(g89
g70
NtRp2339
(dp2340
g73
(dp2341
sg82
g2326
sg75
(lp2342
g68
(g69
g70
NtRp2343
(dp2344
g73
(dp2345
g81
I3
ssg82
g2339
sg75
(lp2346
g821
asbasbasbag68
(g84
g70
NtRp2347
(dp2348
g73
(dp2349
sg82
g2175
sg75
(lp2350
g68
(g89
g70
NtRp2351
(dp2352
g73
(dp2353
g93
g94
ssg82
g2347
sg75
(lp2354
S'HTTP_REFERER'
p2355
asbag68
(g89
g70
NtRp2356
(dp2357
g73
(dp2358
g100
g101
ssg82
g2347
sg75
(lp2359
S':'
asbag68
(g89
g70
NtRp2360
(dp2361
g73
(dp2362
sg82
g2347
sg75
(lp2363
g68
(g69
g70
NtRp2364
(dp2365
g73
(dp2366
g81
I3
ssg82
g2360
sg75
(lp2367
g843
asbasbasbag68
(g84
g70
NtRp2368
(dp2369
g73
(dp2370
sg82
g2175
sg75
(lp2371
g68
(g89
g70
NtRp2372
(dp2373
g73
(dp2374
g93
g94
ssg82
g2368
sg75
(lp2375
S'HTTP_USER_AGENT'
p2376
asbag68
(g89
g70
NtRp2377
(dp2378
g73
(dp2379
g100
g101
ssg82
g2368
sg75
(lp2380
S':'
asbag68
(g89
g70
NtRp2381
(dp2382
g73
(dp2383
sg82
g2368
sg75
(lp2384
g68
(g69
g70
NtRp2385
(dp2386
g73
(dp2387
g81
I3
ssg82
g2381
sg75
(lp2388
g865
asbasbasbag68
(g84
g70
NtRp2389
(dp2390
g73
(dp2391
sg82
g2175
sg75
(lp2392
g68
(g89
g70
NtRp2393
(dp2394
g73
(dp2395
g93
g94
ssg82
g2389
sg75
(lp2396
S'PATH_INFO'
p2397
asbag68
(g89
g70
NtRp2398
(dp2399
g73
(dp2400
g100
g101
ssg82
g2389
sg75
(lp2401
S':'
asbag68
(g89
g70
NtRp2402
(dp2403
g73
(dp2404
sg82
g2389
sg75
(lp2405
g68
(g69
g70
NtRp2406
(dp2407
g73
(dp2408
g81
I3
ssg82
g2402
sg75
(lp2409
g929
asbasbasbag68
(g84
g70
NtRp2410
(dp2411
g73
(dp2412
sg82
g2175
sg75
(lp2413
g68
(g89
g70
NtRp2414
(dp2415
g73
(dp2416
g93
g94
ssg82
g2410
sg75
(lp2417
S'QUERY_STRING'
p2418
asbag68
(g89
g70
NtRp2419
(dp2420
g73
(dp2421
g100
g101
ssg82
g2410
sg75
(lp2422
S':'
asbag68
(g89
g70
NtRp2423
(dp2424
g73
(dp2425
sg82
g2410
sg75
(lp2426
g68
(g69
g70
NtRp2427
(dp2428
g73
(dp2429
g81
I3
ssg82
g2423
sg75
(lp2430
S''
asbasbasbag68
(g84
g70
NtRp2431
(dp2432
g73
(dp2433
sg82
g2175
sg75
(lp2434
g68
(g89
g70
NtRp2435
(dp2436
g73
(dp2437
g93
g94
ssg82
g2431
sg75
(lp2438
S'REMOTE_ADDR'
p2439
asbag68
(g89
g70
NtRp2440
(dp2441
g73
(dp2442
g100
g101
ssg82
g2431
sg75
(lp2443
S':'
asbag68
(g89
g70
NtRp2444
(dp2445
g73
(dp2446
sg82
g2431
sg75
(lp2447
g68
(g69
g70
NtRp2448
(dp2449
g73
(dp2450
g81
I3
ssg82
g2444
sg75
(lp2451
g223
asbasbasbag68
(g84
g70
NtRp2452
(dp2453
g73
(dp2454
sg82
g2175
sg75
(lp2455
g68
(g89
g70
NtRp2456
(dp2457
g73
(dp2458
g93
g94
ssg82
g2452
sg75
(lp2459
S'REMOTE_PORT'
p2460
asbag68
(g89
g70
NtRp2461
(dp2462
g73
(dp2463
g100
g101
ssg82
g2452
sg75
(lp2464
S':'
asbag68
(g89
g70
NtRp2465
(dp2466
g73
(dp2467
sg82
g2452
sg75
(lp2468
g68
(g69
g70
NtRp2469
(dp2470
g73
(dp2471
g81
I3
ssg82
g2465
sg75
(lp2472
g993
asbasbasbag68
(g84
g70
NtRp2473
(dp2474
g73
(dp2475
sg82
g2175
sg75
(lp2476
g68
(g89
g70
NtRp2477
(dp2478
g73
(dp2479
g93
g94
ssg82
g2473
sg75
(lp2480
S'REQUEST_METHOD'
p2481
asbag68
(g89
g70
NtRp2482
(dp2483
g73
(dp2484
g100
g101
ssg82
g2473
sg75
(lp2485
S':'
asbag68
(g89
g70
NtRp2486
(dp2487
g73
(dp2488
sg82
g2473
sg75
(lp2489
g68
(g69
g70
NtRp2490
(dp2491
g73
(dp2492
g81
I3
ssg82
g2486
sg75
(lp2493
g1015
asbasbasbag68
(g84
g70
NtRp2494
(dp2495
g73
(dp2496
sg82
g2175
sg75
(lp2497
g68
(g89
g70
NtRp2498
(dp2499
g73
(dp2500
g93
g94
ssg82
g2494
sg75
(lp2501
S'REQUEST_URI'
p2502
asbag68
(g89
g70
NtRp2503
(dp2504
g73
(dp2505
g100
g101
ssg82
g2494
sg75
(lp2506
S':'
asbag68
(g89
g70
NtRp2507
(dp2508
g73
(dp2509
sg82
g2494
sg75
(lp2510
g68
(g69
g70
NtRp2511
(dp2512
g73
(dp2513
g81
I3
ssg82
g2507
sg75
(lp2514
g929
asbasbasbag68
(g84
g70
NtRp2515
(dp2516
g73
(dp2517
sg82
g2175
sg75
(lp2518
g68
(g89
g70
NtRp2519
(dp2520
g73
(dp2521
g93
g94
ssg82
g2515
sg75
(lp2522
S'SCRIPT_NAME'
p2523
asbag68
(g89
g70
NtRp2524
(dp2525
g73
(dp2526
g100
g101
ssg82
g2515
sg75
(lp2527
S':'
asbag68
(g89
g70
NtRp2528
(dp2529
g73
(dp2530
sg82
g2515
sg75
(lp2531
g68
(g69
g70
NtRp2532
(dp2533
g73
(dp2534
g81
I3
ssg82
g2528
sg75
(lp2535
S''
asbasbasbag68
(g84
g70
NtRp2536
(dp2537
g73
(dp2538
sg82
g2175
sg75
(lp2539
g68
(g89
g70
NtRp2540
(dp2541
g73
(dp2542
g93
g94
ssg82
g2536
sg75
(lp2543
S'SERVER_NAME'
p2544
asbag68
(g89
g70
NtRp2545
(dp2546
g73
(dp2547
g100
g101
ssg82
g2536
sg75
(lp2548
S':'
asbag68
(g89
g70
NtRp2549
(dp2550
g73
(dp2551
sg82
g2536
sg75
(lp2552
g68
(g69
g70
NtRp2553
(dp2554
g73
(dp2555
g81
I3
ssg82
g2549
sg75
(lp2556
g1079
asbasbasbag68
(g84
g70
NtRp2557
(dp2558
g73
(dp2559
sg82
g2175
sg75
(lp2560
g68
(g89
g70
NtRp2561
(dp2562
g73
(dp2563
g93
g94
ssg82
g2557
sg75
(lp2564
S'SERVER_PORT'
p2565
asbag68
(g89
g70
NtRp2566
(dp2567
g73
(dp2568
g100
g101
ssg82
g2557
sg75
(lp2569
S':'
asbag68
(g89
g70
NtRp2570
(dp2571
g73
(dp2572
sg82
g2557
sg75
(lp2573
g68
(g69
g70
NtRp2574
(dp2575
g73
(dp2576
g81
I3
ssg82
g2570
sg75
(lp2577
g1101
asbasbasbag68
(g84
g70
NtRp2578
(dp2579
g73
(dp2580
sg82
g2175
sg75
(lp2581
g68
(g89
g70
NtRp2582
(dp2583
g73
(dp2584
g93
g94
ssg82
g2578
sg75
(lp2585
S'SERVER_PROTOCOL'
p2586
asbag68
(g89
g70
NtRp2587
(dp2588
g73
(dp2589
g100
g101
ssg82
g2578
sg75
(lp2590
S':'
asbag68
(g89
g70
NtRp2591
(dp2592
g73
(dp2593
sg82
g2578
sg75
(lp2594
g68
(g69
g70
NtRp2595
(dp2596
g73
(dp2597
g81
I3
ssg82
g2591
sg75
(lp2598
g1123
asbasbasbag68
(g84
g70
NtRp2599
(dp2600
g73
(dp2601
sg82
g2175
sg75
(lp2602
g68
(g89
g70
NtRp2603
(dp2604
g73
(dp2605
g93
g94
ssg82
g2599
sg75
(lp2606
S'SERVER_SOFTWARE'
p2607
asbag68
(g89
g70
NtRp2608
(dp2609
g73
(dp2610
g100
g101
ssg82
g2599
sg75
(lp2611
S':'
asbag68
(g89
g70
NtRp2612
(dp2613
g73
(dp2614
sg82
g2599
sg75
(lp2615
g68
(g69
g70
NtRp2616
(dp2617
g73
(dp2618
g81
I3
ssg82
g2612
sg75
(lp2619
g1145
asbasbasbag68
(g84
g70
NtRp2620
(dp2621
g73
(dp2622
sg82
g2175
sg75
(lp2623
g68
(g89
g70
NtRp2624
(dp2625
g73
(dp2626
g93
g94
ssg82
g2620
sg75
(lp2627
S'wsgi.errors'
p2628
asbag68
(g89
g70
NtRp2629
(dp2630
g73
(dp2631
g100
g101
ssg82
g2620
sg75
(lp2632
S':'
asbag68
(g89
g70
NtRp2633
(dp2634
g73
(dp2635
sg82
g2620
sg75
(lp2636
g68
(g69
g70
NtRp2637
(dp2638
g73
(dp2639
g81
I3
ssg82
g2633
sg75
(lp2640
S"<open file '<stderr>', mode 'w' at 0x7f7b39bf91e0>"
p2641
asbasbasbag68
(g84
g70
NtRp2642
(dp2643
g73
(dp2644
sg82
g2175
sg75
(lp2645
g68
(g89
g70
NtRp2646
(dp2647
g73
(dp2648
g93
g94
ssg82
g2642
sg75
(lp2649
S'wsgi.file_wrapper'
p2650
asbag68
(g89
g70
NtRp2651
(dp2652
g73
(dp2653
g100
g101
ssg82
g2642
sg75
(lp2654
S':'
asbag68
(g89
g70
NtRp2655
(dp2656
g73
(dp2657
sg82
g2642
sg75
(lp2658
g68
(g69
g70
NtRp2659
(dp2660
g73
(dp2661
g81
I3
ssg82
g2655
sg75
(lp2662
S'<class wsgiref.util.FileWrapper at 0x2756f58>'
p2663
asbasbasbag68
(g84
g70
NtRp2664
(dp2665
g73
(dp2666
sg82
g2175
sg75
(lp2667
g68
(g89
g70
NtRp2668
(dp2669
g73
(dp2670
g93
g94
ssg82
g2664
sg75
(lp2671
S'wsgi.input'
p2672
asbag68
(g89
g70
NtRp2673
(dp2674
g73
(dp2675
g100
g101
ssg82
g2664
sg75
(lp2676
S':'
asbag68
(g89
g70
NtRp2677
(dp2678
g73
(dp2679
sg82
g2664
sg75
(lp2680
g68
(g69
g70
NtRp2681
(dp2682
g73
(dp2683
g81
I3
ssg82
g2677
sg75
(lp2684
S'<cStringIO.StringO object at 0x7f7a6817b148>'
p2685
asbasbasbag68
(g84
g70
NtRp2686
(dp2687
g73
(dp2688
sg82
g2175
sg75
(lp2689
g68
(g89
g70
NtRp2690
(dp2691
g73
(dp2692
g93
g94
ssg82
g2686
sg75
(lp2693
S'wsgi.multiprocess'
p2694
asbag68
(g89
g70
NtRp2695
(dp2696
g73
(dp2697
g100
g101
ssg82
g2686
sg75
(lp2698
S':'
asbag68
(g89
g70
NtRp2699
(dp2700
g73
(dp2701
sg82
g2686
sg75
(lp2702
g68
(g69
g70
NtRp2703
(dp2704
g73
(dp2705
g81
I3
ssg82
g2699
sg75
(lp2706
g111
asbasbasbag68
(g84
g70
NtRp2707
(dp2708
g73
(dp2709
sg82
g2175
sg75
(lp2710
g68
(g89
g70
NtRp2711
(dp2712
g73
(dp2713
g93
g94
ssg82
g2707
sg75
(lp2714
S'wsgi.multithread'
p2715
asbag68
(g89
g70
NtRp2716
(dp2717
g73
(dp2718
g100
g101
ssg82
g2707
sg75
(lp2719
S':'
asbag68
(g89
g70
NtRp2720
(dp2721
g73
(dp2722
sg82
g2707
sg75
(lp2723
g68
(g69
g70
NtRp2724
(dp2725
g73
(dp2726
g81
I3
ssg82
g2720
sg75
(lp2727
g1384
asbasbasbag68
(g84
g70
NtRp2728
(dp2729
g73
(dp2730
sg82
g2175
sg75
(lp2731
g68
(g89
g70
NtRp2732
(dp2733
g73
(dp2734
g93
g94
ssg82
g2728
sg75
(lp2735
S'wsgi.run_once'
p2736
asbag68
(g89
g70
NtRp2737
(dp2738
g73
(dp2739
g100
g101
ssg82
g2728
sg75
(lp2740
S':'
asbag68
(g89
g70
NtRp2741
(dp2742
g73
(dp2743
sg82
g2728
sg75
(lp2744
g68
(g69
g70
NtRp2745
(dp2746
g73
(dp2747
g81
I3
ssg82
g2741
sg75
(lp2748
g111
asbasbasbag68
(g84
g70
NtRp2749
(dp2750
g73
(dp2751
sg82
g2175
sg75
(lp2752
g68
(g89
g70
NtRp2753
(dp2754
g73
(dp2755
g93
g94
ssg82
g2749
sg75
(lp2756
S'wsgi.url_scheme'
p2757
asbag68
(g89
g70
NtRp2758
(dp2759
g73
(dp2760
g100
g101
ssg82
g2749
sg75
(lp2761
S':'
asbag68
(g89
g70
NtRp2762
(dp2763
g73
(dp2764
sg82
g2749
sg75
(lp2765
g68
(g69
g70
NtRp2766
(dp2767
g73
(dp2768
g81
I3
ssg82
g2762
sg75
(lp2769
g1427
asbasbasbag68
(g84
g70
NtRp2770
(dp2771
g73
(dp2772
sg82
g2175
sg75
(lp2773
g68
(g89
g70
NtRp2774
(dp2775
g73
(dp2776
g93
g94
ssg82
g2770
sg75
(lp2777
S'wsgi.version'
p2778
asbag68
(g89
g70
NtRp2779
(dp2780
g73
(dp2781
g100
g101
ssg82
g2770
sg75
(lp2782
S':'
asbag68
(g89
g70
NtRp2783
(dp2784
g73
(dp2785
sg82
g2770
sg75
(lp2786
g68
(g69
g70
NtRp2787
(dp2788
g73
(dp2789
g81
I3
ssg82
g2783
sg75
(lp2790
S'1'
asbasbasbasbasbasbasbasbasbasbasbasbasbsS'frames'
p2791
(lp2792
(dp2793
S'file'
p2794
S'/home/mayank/Desktop/web2pyAdmin/web2py/web2py/gluon/restricted.py'
p2795
sS'dump'
p2796
(dp2797
S'code'
p2798
S"'# -*- coding: utf-8 -*-\\n\\n#######################...ble auditing\\n# auth.enable_record_versioning(db)\\n'"
p2799
sS'layer'
p2800
S"'/home/mayank/Desktop/web2pyAdmin/web2py/web2py/applications/FunkLoad/models/db.py'"
p2801
sS'global compile2'
p2802
S'<function compile2>'
p2803
sS'ccode'
p2804
S'undefined'
p2805
ssS'lnum'
p2806
I208
sS'lines'
p2807
(dp2808
I203
S"    environment['__name__'] = '__restricted__'"
p2809
sI204
S'    try:'
p2810
sI205
S'        if type(code) == types.CodeType:'
p2811
sI206
S'            ccode = code'
p2812
sI207
S'        else:'
p2813
sI208
S'            ccode = compile2(code,layer)'
p2814
sI209
S'        exec ccode in environment'
p2815
sI210
S'    except HTTP:'
p2816
sI211
S'        raise'
p2817
sI212
S'    except RestrictedError:'
p2818
ssS'call'
p2819
S"(code='# -*- coding: utf-8 -*-\\n\\n#######################...ble auditing\\n# auth.enable_record_versioning(db)\\n', environment={'A': <class 'gluon.html.A'>, 'B': <class 'gluon.html.B'>, 'BEAUTIFY': <class 'gluon.html.BEAUTIFY'>, 'BODY': <class 'gluon.html.BODY'>, 'BR': <class 'gluon.html.BR'>, 'BUTTON': <class 'gluon.html.BUTTON'>, 'CAT': <class 'gluon.html.CAT'>, 'CENTER': <class 'gluon.html.CENTER'>, 'CLEANUP': <class 'gluon.validators.CLEANUP'>, 'CODE': <class 'gluon.html.CODE'>, ...}, layer='/home/mayank/Desktop/web2pyAdmin/web2py/web2py/applications/FunkLoad/models/db.py')"
p2820
sS'func'
p2821
S'restricted'
p2822
sa(dp2823
g2794
S'/home/mayank/Desktop/web2pyAdmin/web2py/web2py/gluon/restricted.py'
p2824
sg2796
(dp2825
S'builtincompile'
p2826
S'<built-in function compile>'
p2827
sS'code'
p2828
S"'# -*- coding: utf-8 -*-\\n\\n#######################...ble auditing\\n# auth.enable_record_versioning(db)\\n'"
p2829
sS'code.rstrip'
p2830
S'<built-in method rstrip of str object>'
p2831
sS').replace'
p2832
g2805
sS'layer'
p2833
S"'/home/mayank/Desktop/web2pyAdmin/web2py/web2py/applications/FunkLoad/models/db.py'"
p2834
ssg2806
I193
sg2807
(dp2835
I192
S'    """'
p2836
sI193
S"    return compile(code.rstrip().replace('\\r\\n','\\n')+'\\n', layer, 'exec')"
p2837
sI194
S''
sI195
S"def restricted(code, environment=None, layer='Unknown'):"
p2838
sI196
S'    """'
p2839
sI197
S'    runs code in environment and returns the output. if an exception occurs'
p2840
sI188
S''
sI189
S'def compile2(code,layer):'
p2841
sI190
S'    """'
p2842
sI191
S"    The +'\\n' is necessary else compile fails when code ends in a comment."
p2843
ssg2819
S"(code='# -*- coding: utf-8 -*-\\n\\n#######################...ble auditing\\n# auth.enable_record_versioning(db)\\n', layer='/home/mayank/Desktop/web2pyAdmin/web2py/web2py/applications/FunkLoad/models/db.py')"
p2844
sg2821
S'compile2'
p2845
sasS'pyver'
p2846
S'Python 2.7.4: /usr/bin/python'
p2847
sS'session'
p2848
g68
(g69
g70
NtRp2849
(dp2850
g73
(dp2851
sg75
(lp2852
g68
(g77
g70
NtRp2853
(dp2854
g73
(dp2855
g81
I5
ssg82
Nsg75
(lp2856
g68
(g84
g70
NtRp2857
(dp2858
g73
(dp2859
sg82
g2853
sg75
(lp2860
g68
(g89
g70
NtRp2861
(dp2862
g73
(dp2863
g93
g94
ssg82
g2857
sg75
(lp2864
S'auth'
p2865
asbag68
(g89
g70
NtRp2866
(dp2867
g73
(dp2868
g100
g101
ssg82
g2857
sg75
(lp2869
S':'
asbag68
(g89
g70
NtRp2870
(dp2871
g73
(dp2872
sg82
g2857
sg75
(lp2873
g68
(g69
g70
NtRp2874
(dp2875
g73
(dp2876
g81
I5
ssg82
g2870
sg75
(lp2877
g68
(g77
g70
NtRp2878
(dp2879
g73
(dp2880
g81
I4
ssg82
Nsg75
(lp2881
g68
(g84
g70
NtRp2882
(dp2883
g73
(dp2884
sg82
g2878
sg75
(lp2885
g68
(g89
g70
NtRp2886
(dp2887
g73
(dp2888
g93
g94
ssg82
g2882
sg75
(lp2889
S'expiration'
p2890
asbag68
(g89
g70
NtRp2891
(dp2892
g73
(dp2893
g100
g101
ssg82
g2882
sg75
(lp2894
S':'
asbag68
(g89
g70
NtRp2895
(dp2896
g73
(dp2897
sg82
g2882
sg75
(lp2898
g68
(g69
g70
NtRp2899
(dp2900
g73
(dp2901
g81
I4
ssg82
g2895
sg75
(lp2902
S'3600'
p2903
asbasbasbag68
(g84
g70
NtRp2904
(dp2905
g73
(dp2906
sg82
g2878
sg75
(lp2907
g68
(g89
g70
NtRp2908
(dp2909
g73
(dp2910
g93
g94
ssg82
g2904
sg75
(lp2911
S'hmac_key'
p2912
asbag68
(g89
g70
NtRp2913
(dp2914
g73
(dp2915
g100
g101
ssg82
g2904
sg75
(lp2916
S':'
asbag68
(g89
g70
NtRp2917
(dp2918
g73
(dp2919
sg82
g2904
sg75
(lp2920
g68
(g69
g70
NtRp2921
(dp2922
g73
(dp2923
g81
I4
ssg82
g2917
sg75
(lp2924
S'f35ec030-e176-482c-996c-223295ef3acc'
p2925
asbasbasbag68
(g84
g70
NtRp2926
(dp2927
g73
(dp2928
sg82
g2878
sg75
(lp2929
g68
(g89
g70
NtRp2930
(dp2931
g73
(dp2932
g93
g94
ssg82
g2926
sg75
(lp2933
S'last_visit'
p2934
asbag68
(g89
g70
NtRp2935
(dp2936
g73
(dp2937
g100
g101
ssg82
g2926
sg75
(lp2938
S':'
asbag68
(g89
g70
NtRp2939
(dp2940
g73
(dp2941
sg82
g2926
sg75
(lp2942
g68
(g69
g70
NtRp2943
(dp2944
g73
(dp2945
g81
I4
ssg82
g2939
sg75
(lp2946
S'datetime.datetime(2013, 11, 10, 17, 52, 47, 293476)'
p2947
asbasbasbag68
(g84
g70
NtRp2948
(dp2949
g73
(dp2950
sg82
g2878
sg75
(lp2951
g68
(g89
g70
NtRp2952
(dp2953
g73
(dp2954
g93
g94
ssg82
g2948
sg75
(lp2955
S'remember'
p2956
asbag68
(g89
g70
NtRp2957
(dp2958
g73
(dp2959
g100
g101
ssg82
g2948
sg75
(lp2960
S':'
asbag68
(g89
g70
NtRp2961
(dp2962
g73
(dp2963
sg82
g2948
sg75
(lp2964
g68
(g69
g70
NtRp2965
(dp2966
g73
(dp2967
g81
I4
ssg82
g2961
sg75
(lp2968
g111
asbasbasbag68
(g84
g70
NtRp2969
(dp2970
g73
(dp2971
sg82
g2878
sg75
(lp2972
g68
(g89
g70
NtRp2973
(dp2974
g73
(dp2975
g93
g94
ssg82
g2969
sg75
(lp2976
S'user'
p2977
asbag68
(g89
g70
NtRp2978
(dp2979
g73
(dp2980
g100
g101
ssg82
g2969
sg75
(lp2981
S':'
asbag68
(g89
g70
NtRp2982
(dp2983
g73
(dp2984
sg82
g2969
sg75
(lp2985
g68
(g69
g70
NtRp2986
(dp2987
g73
(dp2988
g81
I4
ssg82
g2982
sg75
(lp2989
g68
(g77
g70
NtRp2990
(dp2991
g73
(dp2992
g81
I3
ssg82
Nsg75
(lp2993
g68
(g84
g70
NtRp2994
(dp2995
g73
(dp2996
sg82
g2990
sg75
(lp2997
g68
(g89
g70
NtRp2998
(dp2999
g73
(dp3000
g93
g94
ssg82
g2994
sg75
(lp3001
S'email'
p3002
asbag68
(g89
g70
NtRp3003
(dp3004
g73
(dp3005
g100
g101
ssg82
g2994
sg75
(lp3006
S':'
asbag68
(g89
g70
NtRp3007
(dp3008
g73
(dp3009
sg82
g2994
sg75
(lp3010
g68
(g69
g70
NtRp3011
(dp3012
g73
(dp3013
g81
I3
ssg82
g3007
sg75
(lp3014
S'mayank.g@students.iiit.ac.in'
p3015
asbasbasbag68
(g84
g70
NtRp3016
(dp3017
g73
(dp3018
sg82
g2990
sg75
(lp3019
g68
(g89
g70
NtRp3020
(dp3021
g73
(dp3022
g93
g94
ssg82
g3016
sg75
(lp3023
S'first_name'
p3024
asbag68
(g89
g70
NtRp3025
(dp3026
g73
(dp3027
g100
g101
ssg82
g3016
sg75
(lp3028
S':'
asbag68
(g89
g70
NtRp3029
(dp3030
g73
(dp3031
sg82
g3016
sg75
(lp3032
g68
(g69
g70
NtRp3033
(dp3034
g73
(dp3035
g81
I3
ssg82
g3029
sg75
(lp3036
S'Mayank'
p3037
asbasbasbag68
(g84
g70
NtRp3038
(dp3039
g73
(dp3040
sg82
g2990
sg75
(lp3041
g68
(g89
g70
NtRp3042
(dp3043
g73
(dp3044
g93
g94
ssg82
g3038
sg75
(lp3045
S'id'
p3046
asbag68
(g89
g70
NtRp3047
(dp3048
g73
(dp3049
g100
g101
ssg82
g3038
sg75
(lp3050
S':'
asbag68
(g89
g70
NtRp3051
(dp3052
g73
(dp3053
sg82
g3038
sg75
(lp3054
g68
(g69
g70
NtRp3055
(dp3056
g73
(dp3057
g81
I3
ssg82
g3051
sg75
(lp3058
S'1'
asbasbasbag68
(g84
g70
NtRp3059
(dp3060
g73
(dp3061
sg82
g2990
sg75
(lp3062
g68
(g89
g70
NtRp3063
(dp3064
g73
(dp3065
g93
g94
ssg82
g3059
sg75
(lp3066
S'last_name'
p3067
asbag68
(g89
g70
NtRp3068
(dp3069
g73
(dp3070
g100
g101
ssg82
g3059
sg75
(lp3071
S':'
asbag68
(g89
g70
NtRp3072
(dp3073
g73
(dp3074
sg82
g3059
sg75
(lp3075
g68
(g69
g70
NtRp3076
(dp3077
g73
(dp3078
g81
I3
ssg82
g3072
sg75
(lp3079
S'Gupta'
p3080
asbasbasbag68
(g84
g70
NtRp3081
(dp3082
g73
(dp3083
sg82
g2990
sg75
(lp3084
g68
(g89
g70
NtRp3085
(dp3086
g73
(dp3087
g93
g94
ssg82
g3081
sg75
(lp3088
S'password'
p3089
asbag68
(g89
g70
NtRp3090
(dp3091
g73
(dp3092
g100
g101
ssg82
g3081
sg75
(lp3093
S':'
asbag68
(g89
g70
NtRp3094
(dp3095
g73
(dp3096
sg82
g3081
sg75
(lp3097
g68
(g69
g70
NtRp3098
(dp3099
g73
(dp3100
g81
I3
ssg82
g3094
sg75
(lp3101
S'pbkdf2(1000,20,sha512)$a496878cc8b951c5$137e42454abf6cff232aebcc4f0c3801419a78ac'
p3102
asbasbasbag68
(g84
g70
NtRp3103
(dp3104
g73
(dp3105
sg82
g2990
sg75
(lp3106
g68
(g89
g70
NtRp3107
(dp3108
g73
(dp3109
g93
g94
ssg82
g3103
sg75
(lp3110
S'registration_id'
p3111
asbag68
(g89
g70
NtRp3112
(dp3113
g73
(dp3114
g100
g101
ssg82
g3103
sg75
(lp3115
S':'
asbag68
(g89
g70
NtRp3116
(dp3117
g73
(dp3118
sg82
g3103
sg75
(lp3119
g68
(g69
g70
NtRp3120
(dp3121
g73
(dp3122
g81
I3
ssg82
g3116
sg75
(lp3123
S''
asbasbasbag68
(g84
g70
NtRp3124
(dp3125
g73
(dp3126
sg82
g2990
sg75
(lp3127
g68
(g89
g70
NtRp3128
(dp3129
g73
(dp3130
g93
g94
ssg82
g3124
sg75
(lp3131
S'registration_key'
p3132
asbag68
(g89
g70
NtRp3133
(dp3134
g73
(dp3135
g100
g101
ssg82
g3124
sg75
(lp3136
S':'
asbag68
(g89
g70
NtRp3137
(dp3138
g73
(dp3139
sg82
g3124
sg75
(lp3140
g68
(g69
g70
NtRp3141
(dp3142
g73
(dp3143
g81
I3
ssg82
g3137
sg75
(lp3144
S''
asbasbasbag68
(g84
g70
NtRp3145
(dp3146
g73
(dp3147
sg82
g2990
sg75
(lp3148
g68
(g89
g70
NtRp3149
(dp3150
g73
(dp3151
g93
g94
ssg82
g3145
sg75
(lp3152
S'reset_password_key'
p3153
asbag68
(g89
g70
NtRp3154
(dp3155
g73
(dp3156
g100
g101
ssg82
g3145
sg75
(lp3157
S':'
asbag68
(g89
g70
NtRp3158
(dp3159
g73
(dp3160
sg82
g3145
sg75
(lp3161
g68
(g69
g70
NtRp3162
(dp3163
g73
(dp3164
g81
I3
ssg82
g3158
sg75
(lp3165
S''
asbasbasbasbasbasbasbag68
(g84
g70
NtRp3166
(dp3167
g73
(dp3168
sg82
g2878
sg75
(lp3169
g68
(g89
g70
NtRp3170
(dp3171
g73
(dp3172
g93
g94
ssg82
g3166
sg75
(lp3173
S'user_groups'
p3174
asbag68
(g89
g70
NtRp3175
(dp3176
g73
(dp3177
g100
g101
ssg82
g3166
sg75
(lp3178
S':'
asbag68
(g89
g70
NtRp3179
(dp3180
g73
(dp3181
sg82
g3166
sg75
(lp3182
g68
(g69
g70
NtRp3183
(dp3184
g73
(dp3185
g81
I4
ssg82
g3179
sg75
(lp3186
g68
(g77
g70
NtRp3187
(dp3188
g73
(dp3189
g81
I3
ssg82
Nsg75
(lp3190
g68
(g84
g70
NtRp3191
(dp3192
g73
(dp3193
sg82
g3187
sg75
(lp3194
g68
(g89
g70
NtRp3195
(dp3196
g73
(dp3197
g93
g94
ssg82
g3191
sg75
(lp3198
S'1'
asbag68
(g89
g70
NtRp3199
(dp3200
g73
(dp3201
g100
g101
ssg82
g3191
sg75
(lp3202
S':'
asbag68
(g89
g70
NtRp3203
(dp3204
g73
(dp3205
sg82
g3191
sg75
(lp3206
g68
(g69
g70
NtRp3207
(dp3208
g73
(dp3209
g81
I3
ssg82
g3203
sg75
(lp3210
S'user_1'
p3211
asbasbasbasbasbasbasbasbasbasbasbag68
(g84
g70
NtRp3212
(dp3213
g73
(dp3214
sg82
g2853
sg75
(lp3215
g68
(g89
g70
NtRp3216
(dp3217
g73
(dp3218
g93
g94
ssg82
g3212
sg75
(lp3219
S'flash'
p3220
asbag68
(g89
g70
NtRp3221
(dp3222
g73
(dp3223
g100
g101
ssg82
g3212
sg75
(lp3224
S':'
asbag68
(g89
g70
NtRp3225
(dp3226
g73
(dp3227
sg82
g3212
sg75
(lp3228
g68
(g69
g70
NtRp3229
(dp3230
g73
(dp3231
g81
I5
ssg82
g3225
sg75
(lp3232
S'None'
p3233
asbasbasbasbasbsS'etype'
p3234
S"<type 'exceptions.SyntaxError'>"
p3235
sS'date'
p3236
S'Sun Nov 10 18:05:07 2013'
p3237
sS'response'
p3238
g68
(g69
g70
NtRp3239
(dp3240
g73
(dp3241
sg75
(lp3242
g68
(g77
g70
NtRp3243
(dp3244
g73
(dp3245
g81
I5
ssg82
Nsg75
(lp3246
g68
(g84
g70
NtRp3247
(dp3248
g73
(dp3249
sg82
g3243
sg75
(lp3250
g68
(g89
g70
NtRp3251
(dp3252
g73
(dp3253
g93
g94
ssg82
g3247
sg75
(lp3254
g166
asbag68
(g89
g70
NtRp3255
(dp3256
g73
(dp3257
g100
g101
ssg82
g3247
sg75
(lp3258
S':'
asbag68
(g89
g70
NtRp3259
(dp3260
g73
(dp3261
sg82
g3247
sg75
(lp3262
g68
(g69
g70
NtRp3263
(dp3264
g73
(dp3265
g81
I5
ssg82
g3259
sg75
(lp3266
S'<cStringIO.StringO object at 0x7f7a7825edf8>'
p3267
asbasbasbag68
(g84
g70
NtRp3268
(dp3269
g73
(dp3270
sg82
g3243
sg75
(lp3271
g68
(g89
g70
NtRp3272
(dp3273
g73
(dp3274
g93
g94
ssg82
g3268
sg75
(lp3275
g254
asbag68
(g89
g70
NtRp3276
(dp3277
g73
(dp3278
g100
g101
ssg82
g3268
sg75
(lp3279
S':'
asbag68
(g89
g70
NtRp3280
(dp3281
g73
(dp3282
sg82
g3268
sg75
(lp3283
g68
(g69
g70
NtRp3284
(dp3285
g73
(dp3286
g81
I5
ssg82
g3280
sg75
(lp3287
g68
(g77
g70
NtRp3288
(dp3289
g73
(dp3290
g81
I4
ssg82
Nsg75
(lp3291
g68
(g84
g70
NtRp3292
(dp3293
g73
(dp3294
sg82
g3288
sg75
(lp3295
g68
(g89
g70
NtRp3296
(dp3297
g73
(dp3298
g93
g94
ssg82
g3292
sg75
(lp3299
S'session_id_funkload'
p3300
asbag68
(g89
g70
NtRp3301
(dp3302
g73
(dp3303
g100
g101
ssg82
g3292
sg75
(lp3304
S':'
asbag68
(g89
g70
NtRp3305
(dp3306
g73
(dp3307
sg82
g3292
sg75
(lp3308
g68
(g69
g70
NtRp3309
(dp3310
g73
(dp3311
g81
I4
ssg82
g3305
sg75
(lp3312
g292
ag68
(g77
g70
NtRp3313
(dp3314
g73
(dp3315
g81
I3
ssg82
Nsg75
(lp3316
g68
(g84
g70
NtRp3317
(dp3318
g73
(dp3319
sg82
g3313
sg75
(lp3320
g68
(g89
g70
NtRp3321
(dp3322
g73
(dp3323
g93
g94
ssg82
g3317
sg75
(lp3324
g305
asbag68
(g89
g70
NtRp3325
(dp3326
g73
(dp3327
g100
g101
ssg82
g3317
sg75
(lp3328
S':'
asbag68
(g89
g70
NtRp3329
(dp3330
g73
(dp3331
sg82
g3317
sg75
(lp3332
g68
(g69
g70
NtRp3333
(dp3334
g73
(dp3335
g81
I3
ssg82
g3329
sg75
(lp3336
S''
asbasbasbag68
(g84
g70
NtRp3337
(dp3338
g73
(dp3339
sg82
g3313
sg75
(lp3340
g68
(g89
g70
NtRp3341
(dp3342
g73
(dp3343
g93
g94
ssg82
g3337
sg75
(lp3344
g326
asbag68
(g89
g70
NtRp3345
(dp3346
g73
(dp3347
g100
g101
ssg82
g3337
sg75
(lp3348
S':'
asbag68
(g89
g70
NtRp3349
(dp3350
g73
(dp3351
sg82
g3337
sg75
(lp3352
g68
(g69
g70
NtRp3353
(dp3354
g73
(dp3355
g81
I3
ssg82
g3349
sg75
(lp3356
S''
asbasbasbag68
(g84
g70
NtRp3357
(dp3358
g73
(dp3359
sg82
g3313
sg75
(lp3360
g68
(g89
g70
NtRp3361
(dp3362
g73
(dp3363
g93
g94
ssg82
g3357
sg75
(lp3364
g347
asbag68
(g89
g70
NtRp3365
(dp3366
g73
(dp3367
g100
g101
ssg82
g3357
sg75
(lp3368
S':'
asbag68
(g89
g70
NtRp3369
(dp3370
g73
(dp3371
sg82
g3357
sg75
(lp3372
g68
(g69
g70
NtRp3373
(dp3374
g73
(dp3375
g81
I3
ssg82
g3369
sg75
(lp3376
S''
asbasbasbag68
(g84
g70
NtRp3377
(dp3378
g73
(dp3379
sg82
g3313
sg75
(lp3380
g68
(g89
g70
NtRp3381
(dp3382
g73
(dp3383
g93
g94
ssg82
g3377
sg75
(lp3384
g368
asbag68
(g89
g70
NtRp3385
(dp3386
g73
(dp3387
g100
g101
ssg82
g3377
sg75
(lp3388
S':'
asbag68
(g89
g70
NtRp3389
(dp3390
g73
(dp3391
sg82
g3377
sg75
(lp3392
g68
(g69
g70
NtRp3393
(dp3394
g73
(dp3395
g81
I3
ssg82
g3389
sg75
(lp3396
S''
asbasbasbag68
(g84
g70
NtRp3397
(dp3398
g73
(dp3399
sg82
g3313
sg75
(lp3400
g68
(g89
g70
NtRp3401
(dp3402
g73
(dp3403
g93
g94
ssg82
g3397
sg75
(lp3404
g389
asbag68
(g89
g70
NtRp3405
(dp3406
g73
(dp3407
g100
g101
ssg82
g3397
sg75
(lp3408
S':'
asbag68
(g89
g70
NtRp3409
(dp3410
g73
(dp3411
sg82
g3397
sg75
(lp3412
g68
(g69
g70
NtRp3413
(dp3414
g73
(dp3415
g81
I3
ssg82
g3409
sg75
(lp3416
S''
asbasbasbag68
(g84
g70
NtRp3417
(dp3418
g73
(dp3419
sg82
g3313
sg75
(lp3420
g68
(g89
g70
NtRp3421
(dp3422
g73
(dp3423
g93
g94
ssg82
g3417
sg75
(lp3424
g410
asbag68
(g89
g70
NtRp3425
(dp3426
g73
(dp3427
g100
g101
ssg82
g3417
sg75
(lp3428
S':'
asbag68
(g89
g70
NtRp3429
(dp3430
g73
(dp3431
sg82
g3417
sg75
(lp3432
g68
(g69
g70
NtRp3433
(dp3434
g73
(dp3435
g81
I3
ssg82
g3429
sg75
(lp3436
S'/'
asbasbasbag68
(g84
g70
NtRp3437
(dp3438
g73
(dp3439
sg82
g3313
sg75
(lp3440
g68
(g89
g70
NtRp3441
(dp3442
g73
(dp3443
g93
g94
ssg82
g3437
sg75
(lp3444
g431
asbag68
(g89
g70
NtRp3445
(dp3446
g73
(dp3447
g100
g101
ssg82
g3437
sg75
(lp3448
S':'
asbag68
(g89
g70
NtRp3449
(dp3450
g73
(dp3451
sg82
g3437
sg75
(lp3452
g68
(g69
g70
NtRp3453
(dp3454
g73
(dp3455
g81
I3
ssg82
g3449
sg75
(lp3456
S''
asbasbasbag68
(g84
g70
NtRp3457
(dp3458
g73
(dp3459
sg82
g3313
sg75
(lp3460
g68
(g89
g70
NtRp3461
(dp3462
g73
(dp3463
g93
g94
ssg82
g3457
sg75
(lp3464
g452
asbag68
(g89
g70
NtRp3465
(dp3466
g73
(dp3467
g100
g101
ssg82
g3457
sg75
(lp3468
S':'
asbag68
(g89
g70
NtRp3469
(dp3470
g73
(dp3471
sg82
g3457
sg75
(lp3472
g68
(g69
g70
NtRp3473
(dp3474
g73
(dp3475
g81
I3
ssg82
g3469
sg75
(lp3476
S''
asbasbasbasbasbasbasbasbasbasbasbag68
(g84
g70
NtRp3477
(dp3478
g73
(dp3479
sg82
g3243
sg75
(lp3480
g68
(g89
g70
NtRp3481
(dp3482
g73
(dp3483
g93
g94
ssg82
g3477
sg75
(lp3484
S'delimiters'
p3485
asbag68
(g89
g70
NtRp3486
(dp3487
g73
(dp3488
g100
g101
ssg82
g3477
sg75
(lp3489
S':'
asbag68
(g89
g70
NtRp3490
(dp3491
g73
(dp3492
sg82
g3477
sg75
(lp3493
g68
(g69
g70
NtRp3494
(dp3495
g73
(dp3496
g81
I5
ssg82
g3490
sg75
(lp3497
g68
(g77
g70
NtRp3498
(dp3499
g73
(dp3500
g81
I4
ssg82
Nsg75
(lp3501
g68
(g84
g70
NtRp3502
(dp3503
g73
(dp3504
sg82
g3498
sg75
(lp3505
g68
(g89
g70
NtRp3506
(dp3507
g73
(dp3508
sg82
g3502
sg75
(lp3509
g68
(g69
g70
NtRp3510
(dp3511
g73
(dp3512
g81
I4
ssg82
g3506
sg75
(lp3513
S'{{'
p3514
asbasbasbag68
(g84
g70
NtRp3515
(dp3516
g73
(dp3517
sg82
g3498
sg75
(lp3518
g68
(g89
g70
NtRp3519
(dp3520
g73
(dp3521
sg82
g3515
sg75
(lp3522
g68
(g69
g70
NtRp3523
(dp3524
g73
(dp3525
g81
I4
ssg82
g3519
sg75
(lp3526
S'}}'
p3527
asbasbasbasbasbasbasbag68
(g84
g70
NtRp3528
(dp3529
g73
(dp3530
sg82
g3243
sg75
(lp3531
g68
(g89
g70
NtRp3532
(dp3533
g73
(dp3534
g93
g94
ssg82
g3528
sg75
(lp3535
S'files'
p3536
asbag68
(g89
g70
NtRp3537
(dp3538
g73
(dp3539
g100
g101
ssg82
g3528
sg75
(lp3540
S':'
asbag68
(g89
g70
NtRp3541
(dp3542
g73
(dp3543
sg82
g3528
sg75
(lp3544
g68
(g69
g70
NtRp3545
(dp3546
g73
(dp3547
g81
I5
ssg82
g3541
sg75
(lp3548
g68
(g77
g70
NtRp3549
(dp3550
g73
(dp3551
g81
I4
ssg82
Nsg75
(lp3552
sbasbasbasbag68
(g84
g70
NtRp3553
(dp3554
g73
(dp3555
sg82
g3243
sg75
(lp3556
g68
(g89
g70
NtRp3557
(dp3558
g73
(dp3559
g93
g94
ssg82
g3553
sg75
(lp3560
S'flash'
p3561
asbag68
(g89
g70
NtRp3562
(dp3563
g73
(dp3564
g100
g101
ssg82
g3553
sg75
(lp3565
S':'
asbag68
(g89
g70
NtRp3566
(dp3567
g73
(dp3568
sg82
g3553
sg75
(lp3569
g68
(g69
g70
NtRp3570
(dp3571
g73
(dp3572
g81
I5
ssg82
g3566
sg75
(lp3573
S''
asbasbasbag68
(g84
g70
NtRp3574
(dp3575
g73
(dp3576
sg82
g3243
sg75
(lp3577
g68
(g89
g70
NtRp3578
(dp3579
g73
(dp3580
g93
g94
ssg82
g3574
sg75
(lp3581
S'generic_patterns'
p3582
asbag68
(g89
g70
NtRp3583
(dp3584
g73
(dp3585
g100
g101
ssg82
g3574
sg75
(lp3586
S':'
asbag68
(g89
g70
NtRp3587
(dp3588
g73
(dp3589
sg82
g3574
sg75
(lp3590
g68
(g69
g70
NtRp3591
(dp3592
g73
(dp3593
g81
I5
ssg82
g3587
sg75
(lp3594
g68
(g77
g70
NtRp3595
(dp3596
g73
(dp3597
g81
I4
ssg82
Nsg75
(lp3598
sbasbasbasbag68
(g84
g70
NtRp3599
(dp3600
g73
(dp3601
sg82
g3243
sg75
(lp3602
g68
(g89
g70
NtRp3603
(dp3604
g73
(dp3605
g93
g94
ssg82
g3599
sg75
(lp3606
S'headers'
p3607
asbag68
(g89
g70
NtRp3608
(dp3609
g73
(dp3610
g100
g101
ssg82
g3599
sg75
(lp3611
S':'
asbag68
(g89
g70
NtRp3612
(dp3613
g73
(dp3614
sg82
g3599
sg75
(lp3615
g68
(g69
g70
NtRp3616
(dp3617
g73
(dp3618
g81
I5
ssg82
g3612
sg75
(lp3619
g68
(g77
g70
NtRp3620
(dp3621
g73
(dp3622
g81
I4
ssg82
Nsg75
(lp3623
g68
(g84
g70
NtRp3624
(dp3625
g73
(dp3626
sg82
g3620
sg75
(lp3627
g68
(g89
g70
NtRp3628
(dp3629
g73
(dp3630
g93
g94
ssg82
g3624
sg75
(lp3631
S'Cache-Control'
p3632
asbag68
(g89
g70
NtRp3633
(dp3634
g73
(dp3635
g100
g101
ssg82
g3624
sg75
(lp3636
S':'
asbag68
(g89
g70
NtRp3637
(dp3638
g73
(dp3639
sg82
g3624
sg75
(lp3640
g68
(g69
g70
NtRp3641
(dp3642
g73
(dp3643
g81
I4
ssg82
g3637
sg75
(lp3644
S'no-store, no-cache, must-revalidate, post-check=0, pre-check=0'
p3645
asbasbasbag68
(g84
g70
NtRp3646
(dp3647
g73
(dp3648
sg82
g3620
sg75
(lp3649
g68
(g89
g70
NtRp3650
(dp3651
g73
(dp3652
g93
g94
ssg82
g3646
sg75
(lp3653
S'Content-Type'
p3654
asbag68
(g89
g70
NtRp3655
(dp3656
g73
(dp3657
g100
g101
ssg82
g3646
sg75
(lp3658
S':'
asbag68
(g89
g70
NtRp3659
(dp3660
g73
(dp3661
sg82
g3646
sg75
(lp3662
g68
(g69
g70
NtRp3663
(dp3664
g73
(dp3665
g81
I4
ssg82
g3659
sg75
(lp3666
S'text/html; charset=utf-8'
p3667
asbasbasbag68
(g84
g70
NtRp3668
(dp3669
g73
(dp3670
sg82
g3620
sg75
(lp3671
g68
(g89
g70
NtRp3672
(dp3673
g73
(dp3674
g93
g94
ssg82
g3668
sg75
(lp3675
S'Expires'
p3676
asbag68
(g89
g70
NtRp3677
(dp3678
g73
(dp3679
g100
g101
ssg82
g3668
sg75
(lp3680
S':'
asbag68
(g89
g70
NtRp3681
(dp3682
g73
(dp3683
sg82
g3668
sg75
(lp3684
g68
(g69
g70
NtRp3685
(dp3686
g73
(dp3687
g81
I4
ssg82
g3681
sg75
(lp3688
S'Sun, 10 Nov 2013 12:35:07 GMT'
p3689
asbasbasbag68
(g84
g70
NtRp3690
(dp3691
g73
(dp3692
sg82
g3620
sg75
(lp3693
g68
(g89
g70
NtRp3694
(dp3695
g73
(dp3696
g93
g94
ssg82
g3690
sg75
(lp3697
S'Pragma'
p3698
asbag68
(g89
g70
NtRp3699
(dp3700
g73
(dp3701
g100
g101
ssg82
g3690
sg75
(lp3702
S':'
asbag68
(g89
g70
NtRp3703
(dp3704
g73
(dp3705
sg82
g3690
sg75
(lp3706
g68
(g69
g70
NtRp3707
(dp3708
g73
(dp3709
g81
I4
ssg82
g3703
sg75
(lp3710
S'no-cache'
p3711
asbasbasbag68
(g84
g70
NtRp3712
(dp3713
g73
(dp3714
sg82
g3620
sg75
(lp3715
g68
(g89
g70
NtRp3716
(dp3717
g73
(dp3718
g93
g94
ssg82
g3712
sg75
(lp3719
S'X-Powered-By'
p3720
asbag68
(g89
g70
NtRp3721
(dp3722
g73
(dp3723
g100
g101
ssg82
g3712
sg75
(lp3724
S':'
asbag68
(g89
g70
NtRp3725
(dp3726
g73
(dp3727
sg82
g3712
sg75
(lp3728
g68
(g69
g70
NtRp3729
(dp3730
g73
(dp3731
g81
I4
ssg82
g3725
sg75
(lp3732
S'web2py'
p3733
asbasbasbasbasbasbasbag68
(g84
g70
NtRp3734
(dp3735
g73
(dp3736
sg82
g3243
sg75
(lp3737
g68
(g89
g70
NtRp3738
(dp3739
g73
(dp3740
g93
g94
ssg82
g3734
sg75
(lp3741
S'menu'
p3742
asbag68
(g89
g70
NtRp3743
(dp3744
g73
(dp3745
g100
g101
ssg82
g3734
sg75
(lp3746
S':'
asbag68
(g89
g70
NtRp3747
(dp3748
g73
(dp3749
sg82
g3734
sg75
(lp3750
g68
(g69
g70
NtRp3751
(dp3752
g73
(dp3753
g81
I5
ssg82
g3747
sg75
(lp3754
g68
(g77
g70
NtRp3755
(dp3756
g73
(dp3757
g81
I4
ssg82
Nsg75
(lp3758
sbasbasbasbag68
(g84
g70
NtRp3759
(dp3760
g73
(dp3761
sg82
g3243
sg75
(lp3762
g68
(g89
g70
NtRp3763
(dp3764
g73
(dp3765
g93
g94
ssg82
g3759
sg75
(lp3766
S'meta'
p3767
asbag68
(g89
g70
NtRp3768
(dp3769
g73
(dp3770
g100
g101
ssg82
g3759
sg75
(lp3771
S':'
asbag68
(g89
g70
NtRp3772
(dp3773
g73
(dp3774
sg82
g3759
sg75
(lp3775
g68
(g69
g70
NtRp3776
(dp3777
g73
(dp3778
g81
I5
ssg82
g3772
sg75
(lp3779
g68
(g77
g70
NtRp3780
(dp3781
g73
(dp3782
g81
I4
ssg82
Nsg75
(lp3783
sbasbasbasbag68
(g84
g70
NtRp3784
(dp3785
g73
(dp3786
sg82
g3243
sg75
(lp3787
g68
(g89
g70
NtRp3788
(dp3789
g73
(dp3790
g93
g94
ssg82
g3784
sg75
(lp3791
S'models_to_run'
p3792
asbag68
(g89
g70
NtRp3793
(dp3794
g73
(dp3795
g100
g101
ssg82
g3784
sg75
(lp3796
S':'
asbag68
(g89
g70
NtRp3797
(dp3798
g73
(dp3799
sg82
g3784
sg75
(lp3800
g68
(g69
g70
NtRp3801
(dp3802
g73
(dp3803
g81
I5
ssg82
g3797
sg75
(lp3804
g68
(g77
g70
NtRp3805
(dp3806
g73
(dp3807
g81
I4
ssg82
Nsg75
(lp3808
g68
(g84
g70
NtRp3809
(dp3810
g73
(dp3811
sg82
g3805
sg75
(lp3812
g68
(g89
g70
NtRp3813
(dp3814
g73
(dp3815
sg82
g3809
sg75
(lp3816
g68
(g69
g70
NtRp3817
(dp3818
g73
(dp3819
g81
I4
ssg82
g3813
sg75
(lp3820
S'^\\w+\\.py$'
p3821
asbasbasbag68
(g84
g70
NtRp3822
(dp3823
g73
(dp3824
sg82
g3805
sg75
(lp3825
g68
(g89
g70
NtRp3826
(dp3827
g73
(dp3828
sg82
g3822
sg75
(lp3829
g68
(g69
g70
NtRp3830
(dp3831
g73
(dp3832
g81
I4
ssg82
g3826
sg75
(lp3833
S'^default/\\w+\\.py$'
p3834
asbasbasbag68
(g84
g70
NtRp3835
(dp3836
g73
(dp3837
sg82
g3805
sg75
(lp3838
g68
(g89
g70
NtRp3839
(dp3840
g73
(dp3841
sg82
g3835
sg75
(lp3842
g68
(g69
g70
NtRp3843
(dp3844
g73
(dp3845
g81
I4
ssg82
g3839
sg75
(lp3846
S'^default/testDetails/\\w+\\.py$'
p3847
asbasbasbasbasbasbasbag68
(g84
g70
NtRp3848
(dp3849
g73
(dp3850
sg82
g3243
sg75
(lp3851
g68
(g89
g70
NtRp3852
(dp3853
g73
(dp3854
g93
g94
ssg82
g3848
sg75
(lp3855
S'postprocessing'
p3856
asbag68
(g89
g70
NtRp3857
(dp3858
g73
(dp3859
g100
g101
ssg82
g3848
sg75
(lp3860
S':'
asbag68
(g89
g70
NtRp3861
(dp3862
g73
(dp3863
sg82
g3848
sg75
(lp3864
g68
(g69
g70
NtRp3865
(dp3866
g73
(dp3867
g81
I5
ssg82
g3861
sg75
(lp3868
g68
(g77
g70
NtRp3869
(dp3870
g73
(dp3871
g81
I4
ssg82
Nsg75
(lp3872
sbasbasbasbag68
(g84
g70
NtRp3873
(dp3874
g73
(dp3875
sg82
g3243
sg75
(lp3876
g68
(g89
g70
NtRp3877
(dp3878
g73
(dp3879
g93
g94
ssg82
g3873
sg75
(lp3880
S'session_file'
p3881
asbag68
(g89
g70
NtRp3882
(dp3883
g73
(dp3884
g100
g101
ssg82
g3873
sg75
(lp3885
S':'
asbag68
(g89
g70
NtRp3886
(dp3887
g73
(dp3888
sg82
g3873
sg75
(lp3889
g68
(g69
g70
NtRp3890
(dp3891
g73
(dp3892
g81
I5
ssg82
g3886
sg75
(lp3893
S"<open file '/home/mayank/Desktop/web2pyAdmin/web2py/web2py/applications/FunkLoad/sessions/10.1.33.107-36ba3c88-7bcb-4a0e-bb0a-8936efb689ab', mode 'rb+' at 0x7f7a582de540>"
p3894
asbasbasbag68
(g84
g70
NtRp3895
(dp3896
g73
(dp3897
sg82
g3243
sg75
(lp3898
g68
(g89
g70
NtRp3899
(dp3900
g73
(dp3901
g93
g94
ssg82
g3895
sg75
(lp3902
S'session_filename'
p3903
asbag68
(g89
g70
NtRp3904
(dp3905
g73
(dp3906
g100
g101
ssg82
g3895
sg75
(lp3907
S':'
asbag68
(g89
g70
NtRp3908
(dp3909
g73
(dp3910
sg82
g3895
sg75
(lp3911
g68
(g69
g70
NtRp3912
(dp3913
g73
(dp3914
g81
I5
ssg82
g3908
sg75
(lp3915
S'/home/mayank/Desktop/web2pyAdmin/web2py/web2py/applications/FunkLoad/sessions/10.1.33.107-36ba3c88-7bcb-4a0e-bb0a-8936efb689ab'
p3916
asbasbasbag68
(g84
g70
NtRp3917
(dp3918
g73
(dp3919
sg82
g3243
sg75
(lp3920
g68
(g89
g70
NtRp3921
(dp3922
g73
(dp3923
g93
g94
ssg82
g3917
sg75
(lp3924
S'session_id'
p3925
asbag68
(g89
g70
NtRp3926
(dp3927
g73
(dp3928
g100
g101
ssg82
g3917
sg75
(lp3929
S':'
asbag68
(g89
g70
NtRp3930
(dp3931
g73
(dp3932
sg82
g3917
sg75
(lp3933
g68
(g69
g70
NtRp3934
(dp3935
g73
(dp3936
g81
I5
ssg82
g3930
sg75
(lp3937
g292
asbasbasbag68
(g84
g70
NtRp3938
(dp3939
g73
(dp3940
sg82
g3243
sg75
(lp3941
g68
(g89
g70
NtRp3942
(dp3943
g73
(dp3944
g93
g94
ssg82
g3938
sg75
(lp3945
S'session_id_name'
p3946
asbag68
(g89
g70
NtRp3947
(dp3948
g73
(dp3949
g100
g101
ssg82
g3938
sg75
(lp3950
S':'
asbag68
(g89
g70
NtRp3951
(dp3952
g73
(dp3953
sg82
g3938
sg75
(lp3954
g68
(g69
g70
NtRp3955
(dp3956
g73
(dp3957
g81
I5
ssg82
g3951
sg75
(lp3958
g3300
asbasbasbag68
(g84
g70
NtRp3959
(dp3960
g73
(dp3961
sg82
g3243
sg75
(lp3962
g68
(g89
g70
NtRp3963
(dp3964
g73
(dp3965
g93
g94
ssg82
g3959
sg75
(lp3966
S'session_locked'
p3967
asbag68
(g89
g70
NtRp3968
(dp3969
g73
(dp3970
g100
g101
ssg82
g3959
sg75
(lp3971
S':'
asbag68
(g89
g70
NtRp3972
(dp3973
g73
(dp3974
sg82
g3959
sg75
(lp3975
g68
(g69
g70
NtRp3976
(dp3977
g73
(dp3978
g81
I5
ssg82
g3972
sg75
(lp3979
g1384
asbasbasbag68
(g84
g70
NtRp3980
(dp3981
g73
(dp3982
sg82
g3243
sg75
(lp3983
g68
(g89
g70
NtRp3984
(dp3985
g73
(dp3986
g93
g94
ssg82
g3980
sg75
(lp3987
S'session_new'
p3988
asbag68
(g89
g70
NtRp3989
(dp3990
g73
(dp3991
g100
g101
ssg82
g3980
sg75
(lp3992
S':'
asbag68
(g89
g70
NtRp3993
(dp3994
g73
(dp3995
sg82
g3980
sg75
(lp3996
g68
(g69
g70
NtRp3997
(dp3998
g73
(dp3999
g81
I5
ssg82
g3993
sg75
(lp4000
g111
asbasbasbag68
(g84
g70
NtRp4001
(dp4002
g73
(dp4003
sg82
g3243
sg75
(lp4004
g68
(g89
g70
NtRp4005
(dp4006
g73
(dp4007
g93
g94
ssg82
g4001
sg75
(lp4008
S'status'
p4009
asbag68
(g89
g70
NtRp4010
(dp4011
g73
(dp4012
g100
g101
ssg82
g4001
sg75
(lp4013
S':'
asbag68
(g89
g70
NtRp4014
(dp4015
g73
(dp4016
sg82
g4001
sg75
(lp4017
g68
(g69
g70
NtRp4018
(dp4019
g73
(dp4020
g81
I5
ssg82
g4014
sg75
(lp4021
S'200'
p4022
asbasbasbag68
(g84
g70
NtRp4023
(dp4024
g73
(dp4025
sg82
g3243
sg75
(lp4026
g68
(g89
g70
NtRp4027
(dp4028
g73
(dp4029
g93
g94
ssg82
g4023
sg75
(lp4030
S'view'
p4031
asbag68
(g89
g70
NtRp4032
(dp4033
g73
(dp4034
g100
g101
ssg82
g4023
sg75
(lp4035
S':'
asbag68
(g89
g70
NtRp4036
(dp4037
g73
(dp4038
sg82
g4023
sg75
(lp4039
g68
(g69
g70
NtRp4040
(dp4041
g73
(dp4042
g81
I5
ssg82
g4036
sg75
(lp4043
S'default/testDetails.html'
p4044
asbasbasbasbasbsS'locals'
p4045
(dp4046
g4
S"'/home/mayank/Desktop/web2pyAdmin/web2py/web2py/applications/FunkLoad/models/db.py'"
p4047
sg6
S"'# -*- coding: utf-8 -*-\\n\\n#######################...ble auditing\\n# auth.enable_record_versioning(db)\\n'"
p4048
sssS'traceback'
p4049
S'Traceback (most recent call last):\n  File "/home/mayank/Desktop/web2pyAdmin/web2py/web2py/gluon/restricted.py", line 208, in restricted\n    ccode = compile2(code,layer)\n  File "/home/mayank/Desktop/web2pyAdmin/web2py/web2py/gluon/restricted.py", line 193, in compile2\n    return compile(code.rstrip().replace(\'\\r\\n\',\'\\n\')+\'\\n\', layer, \'exec\')\n  File "/home/mayank/Desktop/web2pyAdmin/web2py/web2py/applications/FunkLoad/models/db.py", line 101\n    Field(\'TestId\',db.Course,required=True),\n        ^\nSyntaxError: invalid syntax\n'
p4050
s.