(dp1
S'output'
p2
S"<type 'exceptions.ValueError'> invalid literal for int() with base 10: '|8|'"
p3
sS'layer'
p4
S'/home/mayank/Desktop/web2pyAdmin/web2py/web2py/applications/FunkLoad/views/default/test.html'
p5
sS'code'
p6
S'response.write(\'<!DOCTYPE html>\\r\\n<!-- paulirish.com/2008/conditional-stylesheets-vs-css-hacks-answer-neither/ -->\\r\\n<!--[if lt IE 7]><html class="ie ie6 ie-lte9 ie-lte8 ie-lte7 no-js" lang="\', escape=False)\nresponse.write(T.accepted_language or \'en\')\nresponse.write(\'"> <![endif]-->\\r\\n<!--[if IE 7]><html class="ie ie7 ie-lte9 ie-lte8 ie-lte7 no-js" lang="\', escape=False)\nresponse.write(T.accepted_language or \'en\')\nresponse.write(\'"> <![endif]-->\\r\\n<!--[if IE 8]><html class="ie ie8 ie-lte9 ie-lte8 no-js" lang="\', escape=False)\nresponse.write(T.accepted_language or \'en\')\nresponse.write(\'"> <![endif]-->\\r\\n<!--[if IE 9]><html class="ie9 ie-lte9 no-js" lang="\', escape=False)\nresponse.write(T.accepted_language or \'en\')\nresponse.write(\'"> <![endif]-->\\r\\n<!--[if (gt IE 9)|!(IE)]><!--> <html class="no-js" lang="\', escape=False)\nresponse.write(T.accepted_language or \'en\')\nresponse.write(\'"> <!--<![endif]-->\\r\\n<html>\\r\\n<head>\\r\\n    <meta http-equiv="Content-Type" content="text/html; charset=utf-8">\\r\\n\\t<meta name="viewport" content="width=device-width, initial-scale=1.0">\\r\\n  \\r\\n  <!-- http://dev.w3.org/html5/markup/meta.name.html -->\\r\\n  <meta name="application-name" content="\', escape=False)\nresponse.write(request.application)\nresponse.write(\'" />\\r\\n  \\r\\n  <!-- Speaking of Google, don\\\'t forget to set your site up:\\r\\n       http://google.com/webmasters -->\\r\\n  <meta name="google-site-verification" content="" />\\r\\n  \\r\\n  <!--  Mobile Viewport Fix\\r\\n\\tj.mp/mobileviewport & davidbcalhoun.com/2010/viewport-metatag\\r\\n\\tdevice-width: Occupy full width of the screen in its current orientation\\r\\n\\tinitial-scale = 1.0 retains dimensions instead of zooming out if page height > device height\\r\\n\\tuser-scalable = yes allows the user to zoom in -->\\r\\n  <meta name="viewport" content="width=device-width, initial-scale=1.0">\\r\\n  <title>\', escape=False)\nresponse.write(response.title or request.application)\nresponse.write(\'</title>\\r\\n  <link rel="shortcut icon" href="\', escape=False)\nresponse.write(URL(\'static\',\'images/favicon.ico\'))\nresponse.write(\'" type="image/x-icon">\\r\\n  <link rel="apple-touch-icon" href="\', escape=False)\nresponse.write(URL(\'static\',\'images/favicon.png\'))\nresponse.write(\'">\\r\\n  \\r\\n  <!-- All JavaScript at the bottom, except for Modernizr which enables \\r\\n\\r\\n       HTML5 elements & feature detects -->\\r\\n  <script src="\', escape=False)\nresponse.write(URL(\'static\',\'js/modernizr.custom.js\'))\nresponse.write(\'"></script>   \\r\\n  \\r\\n  <!-- include stylesheets -->\\r\\n  \', escape=False)\nresponse.files.append(URL(\'static\',"css/bootstrap/bootstrap.css"))\nresponse.files.append(URL(\'static\',"css/bootstrap/bootstrap-responsive.css"))\nresponse.files.append(URL(\'static\',\'css/web2py.css\'))\nresponse.files.append(URL(\'static\',\'css/web2py_bootstrap.css\'))\nresponse.files.append(URL(\'static\',"css/bootstrap/bootstrap-overrides.css"))\nresponse.files.append(URL(\'static\',"css/lib/jquery-ui-1.10.2.custom.css"))\nresponse.files.append(URL(\'static\',"css/lib/font-awesome.css"))\nresponse.files.append(URL(\'static\',"css/layout.css"))\nresponse.files.append(URL(\'static\',"css/elements.css"))\nresponse.files.append(URL(\'static\',"css/icons.css"))\nresponse.files.append(URL(\'static\',"css/compiled/index.css"))\nresponse.files.append(URL(\'static\',"css/css5c84.css?family=Open+Sans:300italic,400italic,600italic,700italic,800italic,400,300,600,700,800"))\nresponse.files.append(URL(\'static\',"css/cssef21.css?family=Lato:300,400,700,900,300italic,400italic,700italic,900italic"))\nresponse.write(\'\\r\\n\\r\\n  \', escape=False)\nresponse.write(\'<script type="text/javascript"><!--\\n    // These variables are used by the web2py_ajax_init function in web2py_ajax.js (which is loaded below).\\n    var w2p_ajax_confirm_message = "\', escape=False)\nresponse.write(T(\'Are you sure you want to delete this object?\'))\nresponse.write(\'";\\n    var w2p_ajax_date_format = "\', escape=False)\nresponse.write(T(\'%Y-%m-%d\'))\nresponse.write(\'";\\n    var w2p_ajax_datetime_format = "\', escape=False)\nresponse.write(T(\'%Y-%m-%d %H:%M:%S\'))\nresponse.write(\'";\\n    //--></script>\\n\', escape=False)\nresponse.files.insert(0,URL(\'static\',\'js/jquery.js\'))\nresponse.files.insert(1,URL(\'static\',\'css/calendar.css\'))\nresponse.files.insert(2,URL(\'static\',\'js/calendar.js\'))\nresponse.files.insert(3,URL(\'static\',\'js/web2py.js\'))\nresponse.include_meta()\nresponse.include_files()\nresponse.write(\'\\n\', escape=False)\nresponse.write(\'\\r\\n  \\r\\n  \', escape=False)\n# using sidebars need to know what sidebar you want to use\nleft_sidebar_enabled = globals().get(\'left_sidebar_enabled\',False)\nright_sidebar_enabled = globals().get(\'right_sidebar_enabled\',False)\nmiddle_columns = {0:\'span12\',1:\'span9\',2:\'span6\'}[\n(left_sidebar_enabled and 1 or 0)+(right_sidebar_enabled and 1 or 0)]\nresponse.write(\'\\r\\n\\r\\n  <noscript><link href="\', escape=False)\nresponse.write(URL(\'static\', \'css/web2py_bootstrap_nojs.css\'))\nresponse.write(\'" rel="stylesheet" type="text/css" /></noscript>\\r\\n  \', escape=False)\nresponse.write(\'\\r\\n  \\r\\n  <!--[if lt IE 9]>\\r\\n      <script src="http://html5shim.googlecode.com/svn/trunk/html5.js"></script>\\r\\n    <![endif]-->\\r\\n   <style>\\r\\n   .box {\\r\\nmargin: 0 auto;\\r\\npadding: 35px 0 30px;\\r\\nfloat: none;\\r\\nwidth: 700px;\\r\\nbox-shadow: 0 0 6px 2px rgba(0, 0, 0, 0.1);\\r\\nborder-radius: 5px;\\r\\nbackground-color: #DFDADA;\\r\\n   }\\r\\n   </style>\\r\\n</head>\\r\\n<body>\\r\\n  <!-- navbar -->\\r\\n    <div class="navbar navbar-inverse">\\r\\n        <div class="navbar-inner">\\r\\n            <button type="button" class="btn btn-navbar visible-phone" id="menu-toggler">\\r\\n                <span class="icon-bar"></span>\\r\\n                <span class="icon-bar"></span>\\r\\n                <span class="icon-bar"></span>\\r\\n            </button>\\r\\n            \\r\\n            <a class="brand" href="index.html">\', escape=False)\nresponse.write(response.title or request.application)\nresponse.write(\'</a>\\r\\n\\t\\t\', escape=False)\nurl=request.url.split(\'/\')[-1]\nresponse.write(\'\\r\\n            <ul class="nav pull-right">        \\r\\n\\t    \\t<!--\\r\\n                <li class="hidden-phone">\\r\\n                    <input class="search" type="text" />\\r\\n                </li>\\r\\n                <li class="notification-dropdown hidden-phone">\\r\\n                    <a href="#" class="trigger">\\r\\n                        <i class="icon-warning-sign"></i>\\r\\n                        <span class="count">8</span>\\r\\n                    </a>\\r\\n                    <div class="pop-dialog">\\r\\n                        <div class="pointer right">\\r\\n                            <div class="arrow"></div>\\r\\n                            <div class="arrow_border"></div>\\r\\n                        </div>\\r\\n                        <div class="body">\\r\\n                            <a href="#" class="close-icon"><i class="icon-remove-sign"></i></a>\\r\\n                            <div class="notifications">\\r\\n                                <h3>You have 6 new notifications</h3>\\r\\n                                <a href="#" class="item">\\r\\n                                    <i class="icon-signin"></i> New user registration\\r\\n                                    <span class="time"><i class="icon-time"></i> 13 min.</span>\\r\\n                                </a>\\r\\n                                <a href="#" class="item">\\r\\n                                    <i class="icon-signin"></i> New user registration\\r\\n                                    <span class="time"><i class="icon-time"></i> 18 min.</span>\\r\\n                                </a>\\r\\n                                <a href="#" class="item">\\r\\n                                    <i class="icon-envelope-alt"></i> New message from Alejandra\\r\\n                                    <span class="time"><i class="icon-time"></i> 28 min.</span>\\r\\n                                </a>\\r\\n                                <a href="#" class="item">\\r\\n                                    <i class="icon-signin"></i> New user registration\\r\\n                                    <span class="time"><i class="icon-time"></i> 49 min.</span>\\r\\n                                </a>\\r\\n                                <a href="#" class="item">\\r\\n                                    <i class="icon-download-alt"></i> New order placed\\r\\n                                    <span class="time"><i class="icon-time"></i> 1 day.</span>\\r\\n                                </a>\\r\\n                                <div class="footer">\\r\\n                                    <a href="#" class="logout">View all notifications</a>\\r\\n                                </div>\\r\\n                            </div>\\r\\n                        </div>\\r\\n                    </div>\\r\\n                </li>\\r\\n                <li class="notification-dropdown hidden-phone">\\r\\n                    <a href="#" class="trigger">\\r\\n                        <i class="icon-envelope-alt"></i>\\r\\n                    </a>\\r\\n                    <div class="pop-dialog">\\r\\n                        <div class="pointer right">\\r\\n                            <div class="arrow"></div>\\r\\n                            <div class="arrow_border"></div>\\r\\n                        </div>\\r\\n                        <div class="body">\\r\\n                            <a href="#" class="close-icon"><i class="icon-remove-sign"></i></a>\\r\\n                            <div class="messages">\\r\\n                                <a href="#" class="item">\\r\\n                                    <img src="img/contact-img.png" class="display" />\\r\\n                                    <div class="name">Alejandra Galv\\xc3\\xa1n</div>\\r\\n                                    <div class="msg">\\r\\n                                        There are many variations of available, but the majority have suffered alterations.\\r\\n                                    </div>\\r\\n                                    <span class="time"><i class="icon-time"></i> 13 min.</span>\\r\\n                                </a>\\r\\n                                <a href="#" class="item">\\r\\n                                    <img src="img/contact-img2.png" class="display" />\\r\\n                                    <div class="name">Alejandra Galv\\xc3\\xa1n</div>\\r\\n                                    <div class="msg">\\r\\n                                        There are many variations of available, have suffered alterations.\\r\\n                                    </div>\\r\\n                                    <span class="time"><i class="icon-time"></i> 26 min.</span>\\r\\n                                </a>\\r\\n                                <a href="#" class="item last">\\r\\n                                    <img src="img/contact-img.png" class="display" />\\r\\n                                    <div class="name">Alejandra Galv\\xc3\\xa1n</div>\\r\\n                                    <div class="msg">\\r\\n                                        There are many variations of available, but the majority have suffered alterations.\\r\\n                                    </div>\\r\\n                                    <span class="time"><i class="icon-time"></i> 48 min.</span>\\r\\n                                </a>\\r\\n                                <div class="footer">\\r\\n                                    <a href="#" class="logout">View all messages</a>\\r\\n                                </div>\\r\\n                            </div>\\r\\n                        </div>\\r\\n                    </div>\\r\\n                </li>\\r\\n\\t\\t\\t-->\\r\\n                <li class="dropdown">\\r\\n                    <a href="#" class="dropdown-toggle hidden-phone" data-toggle="dropdown">\\r\\n\\t\\t\\t\', escape=False)\nresponse.write(auth.user.first_name+\' \'+auth.user.last_name)\nresponse.write(\'\\r\\n                        <b class="caret"></b>\\r\\n                    </a>\\r\\n                    <ul class="dropdown-menu">\\r\\n                        <li><a href="\', escape=False)\nresponse.write(URL(r = request, f = \'user\' ,args=\'logout\'))\nresponse.write(\'">SignOut</a></li>\\r\\n                        <li><a href="#">About</a></li>\\r\\n                    </ul>\\r\\n                </li>\\r\\n                <li class="settings hidden-phone">\\r\\n                    <a href="\', escape=False)\nresponse.write(URL(r = request, f = \'user\' ,args=\'login\'))\nresponse.write(\'" role="button">\\r\\n                        <i class="icon-share-alt"></i>\\r\\n                    </a>\\r\\n                </li>\\r\\n            </ul>            \\r\\n        </div>\\r\\n    </div>\\r\\n    <!-- end navbar -->\\r\\n\\r\\n    <!-- sidebar -->\\r\\n    <div id="sidebar-nav">\\r\\n        <ul id="dashboard-menu">\\r\\n\\t\\t\', escape=False)\nprint url\nresponse.write(\'\\r\\n            <li \', escape=False)\nif url==\'index\' :\n    response.write(\'class="active"\', escape=False)\n    pass\nresponse.write(\'>\\r\\n\\t    \\t\', escape=False)\nif url==\'index\' :\n    response.write(\'\\r\\n                <div class="pointer">\\r\\n                    <div class="arrow"></div>\\r\\n                    <div class="arrow_border"></div>\\r\\n                </div>\\r\\n\\t\\t\', escape=False)\n    pass\nresponse.write(\'\\r\\n                <a href="\', escape=False)\nresponse.write(URL(r = request, f = \'index\'))\nresponse.write(\'">\\r\\n                    <i class="icon-home"></i>\\r\\n                    <span>Home</span>\\r\\n                </a>\\r\\n            </li>            \\r\\n            <li \', escape=False)\nif url==\'addTest\' :\n    response.write(\'class="active"\', escape=False)\n    pass\nresponse.write(\'>\\r\\n\\t    \\t\', escape=False)\nif url==\'addTest\' :\n    response.write(\'\\r\\n                <div class="pointer">\\r\\n                    <div class="arrow"></div>\\r\\n                    <div class="arrow_border"></div>\\r\\n                </div>\\r\\n\\t\\t\', escape=False)\n    pass\nresponse.write(\'\\r\\n                <a href="\', escape=False)\nresponse.write(URL(r = request, f = \'addTest\'))\nresponse.write(\'">\\r\\n                    <i class="icon-edit"></i>\\r\\n                    <span>AddTest</span>\\r\\n                </a>\\r\\n            </li>\\r\\n            <li \', escape=False)\nif url==\'testDetails\' :\n    response.write(\'class="active"\', escape=False)\n    pass\nresponse.write(\'>\\r\\n\\t    \\t\', escape=False)\nif url==\'testDetails\' :\n    response.write(\'\\r\\n                <div class="pointer">\\r\\n                    <div class="arrow"></div>\\r\\n                    <div class="arrow_border"></div>\\r\\n                </div>\\r\\n\\t\\t\', escape=False)\n    pass\nresponse.write(\'\\r\\n                <a href="\', escape=False)\nresponse.write(URL(r = request, f = \'testDetails\'))\nresponse.write(\'">\\r\\n                    <i class="icon-signal"></i>\\r\\n                    <span>Show Test Details</span>\\r\\n                </a>\\r\\n            </li>\\r\\n        </ul>\\r\\n    </div>\\r\\n    <!-- end sidebar -->\\r\\n  \\r\\n  <div >\\r\\n    <div class="flash">\', escape=False)\nresponse.write(response.flash or \'\')\nresponse.write(\'</div>\\r\\n\\r\\n   \\t  \', escape=False)\nresponse.write(\'\\n\\n\', escape=False)\ndetails=db(db.TestDetails.id == tid).select()[0]\nfunctionalDetails=db(db.TestDetails.id == tid).select()\nstressDetails=str(tid)+\'/index.html\'\nresponse.write(\'\\n\\n<script>\\nfunction toggle(a,b,c){\\n\\t$(a).show();\\n\\t$(b).hide();\\n\\t$(c).hide();\\n}\\n</script>\\n<style>\\n .line.blue {\\nbackground-color: #30a1ec;\\nheight: 3px;\\nwidth: 25px;\\ndisplay: inline-block;\\nmargin-right: 10px;\\n}\\n</style>\\n<div class="content">\\n\\t<div class="span10" style="margin:10px">\\n\\t\\t<a class="btn btn-success" type="button" data-toggle="collapse" href="#add-skills" onclick=\\\'toggle("#SanityTesting","#FunctionalTesting","#StressTesting")\\\'>Sanity Result</a>\\n\\t</div>\\n\\t<div class="span10" style="margin:10px">\\n\\t\\t<a class="btn btn-success" type="button" data-toggle="collapse" href="#add-skills" onclick=\\\'toggle("#FunctionalTesting","#SanityTesting","#StressTesting")\\\'>Functional Result</a>\\n\\t</div>\\n\\t<div class="span10" style="margin:10px">\\n\\t\\t<a class="btn btn-success" type="button" data-toggle="collapse" href="#add-skills" onclick=\\\'toggle("#StressTesting","#SanityTesting","#FunctionalTesting")\\\'>Stress Result</a>\\n\\t</div>\\n\\t<div class="span10" id="SanityTesting" style="display:none">\\n\\t\\t<h3>Sanity Result</h3>\\n\\t\\t<div class=\\\'span6 box\\\' style="margin:10px;padding:10px 30px 10px 30px">\\n\\t\\t<p>\\n\\t\\t\\t\', escape=False)\nresponse.write(details)\nresponse.write(\'\\n\\t\\t</p>\\n\\t\\t<div>\\n\\t</div>\\n\\t<div class="span10" id="FunctionalTesting" style="display:none">\\n\\t\\t<h3>Functional Result</h3>\\n\\t\\t\\t<div class="span5 knobs">\\n                        \\t<div class="knob-wrapper">\\n                            \\t\\t<input type="text" value="80" class="knob" data-thickness=".3" data-inputColor="#333" data-fgColor="#30a1ec" data-bgColor="#d4ecfd" data-width="150">\\n                            \\t\\t<div class="info">\\n                            \\t\\t</div>\\n                        \\t</div>\\n                        </div>   \\n\\t\\t\\t<div class="span2"> \\n                        \\t<div class="param">\\n                                \\t<span class="line blue"></span>\\n                                    \\t<h4>% of Active Urls</h4>\\n                                </div>\\n\\t\\t\\t</div>\\n\\t</div>\\n\\n\\t<div class="span10" id="StressTesting" style="display:none">\\n\\t\\t<h3>Stress Result</h3>\\n\\t\\t<iframe style="height:1000px;width:100%" src="\', escape=False)\nresponse.write(URL(\'static\',\'test/index.html\'))\nresponse.write(\'"></iframe>\\n\\t</div>\\n</div>\\n <script type="text/javascript">\\n $(function () {\\n       // jQuery Knobs\\n       $(".knob").knob();\\n});\\n</script>\\n\', escape=False)\nresponse.write(\'\\r\\n \\r\\n    <!-- Footer ================================================== -->\\r\\n    <footer class="footer" id="footer">\\r\\n      \', escape=False)\nresponse.write(\' <!-- this is default footer -->\\r\\n      <div class="footer-content">\\r\\n\\t<div class="copyright pull-left">\', escape=False)\nresponse.write(T(\'Copyright\'))\nresponse.write(\' &#169; \', escape=False)\nresponse.write(request.now.year)\nresponse.write(\'</div>\\r\\n\\t<div id="poweredBy" class="pull-right">\\r\\n\\t  \', escape=False)\nresponse.write(T(\'Powered by\'))\nresponse.write(\'\\r\\n\\t  <a href="http://www.web2py.com/">web2py</a>\\r\\n\\t</div>\\r\\n      </div>\\r\\n      \', escape=False)\nresponse.write(\'\\r\\n    </footer>\\r\\n    \\r\\n  </div> <!-- /container -->\\r\\n\\r\\n\\r\\n\\r\\n    <script src="\', escape=False)\nresponse.write(URL(\'static\',\'js/jquery-latest.js\'))\nresponse.write(\'"></script>\\r\\n    <script src="\', escape=False)\nresponse.write(URL(\'static\',\'js/bootstrap.min.js\'))\nresponse.write(\'"></script>\\r\\n    <script src="\', escape=False)\nresponse.write(URL(\'static\',\'js/jquery-ui-1.10.2.custom.min.js\'))\nresponse.write(\'"></script>\\r\\n    <!-- knob -->\\r\\n    <script src="\', escape=False)\nresponse.write(URL(\'static\',\'js/jquery.knob.js\'))\nresponse.write(\'"></script>\\r\\n    <!-- flot charts -->\\r\\n    <script src="\', escape=False)\nresponse.write(URL(\'static\',\'js/jquery.flot.js\'))\nresponse.write(\'"></script>\\r\\n    <script src="\', escape=False)\nresponse.write(URL(\'static\',\'js/jquery.flot.stack.js\'))\nresponse.write(\'"></script>\\r\\n    <script src="\', escape=False)\nresponse.write(URL(\'static\',\'js/jquery.flot.resize.js\'))\nresponse.write(\'"></script>\\r\\n    <script src="\', escape=False)\nresponse.write(URL(\'static\',\'js/theme.js\'))\nresponse.write(\'"></script>\\r\\n    <script src="\', escape=False)\nresponse.write(URL(\'static\',\'js/jquery.validate.min.js\'))\nresponse.write(\'"></script>\\r\\n  <!--[if lt IE 7 ]>\\r\\n      <script src="\', escape=False)\nresponse.write(URL(\'static\',\'js/dd_belatedpng.js\'))\nresponse.write(\'"></script>\\r\\n      <script> DD_belatedPNG.fix(\\\'img, .png_bg\\\'); //fix any <img> or .png_bg background-images </script>\\r\\n      <![endif]-->\\r\\n  \', escape=False)\nif response.google_analytics_id:\n    response.write(\'<script type="text/javascript"> var _gaq = _gaq || []; _gaq.push([\\\'_setAccount\\\', \\\'\', escape=False)\n    response.write(response.google_analytics_id)\n    response.write("\']); _gaq.push([\'_trackPageview\']); (function() { var ga = document.createElement(\'script\'); ga.type = \'text/javascript\'; ga.async = true; ga.src = (\'https:\' == document.location.protocol ? \'https://ssl\' : \'http://www\') + \'.google-analytics.com/ga.js\'; var s = document.getElementsByTagName(\'script\')[0]; s.parentNode.insertBefore(ga, s); })(); </script> ", escape=False)\n    pass\nresponse.write(\'\\r\\n  <script src="\', escape=False)\nresponse.write(URL(\'static\',\'js/share.js\',vars=dict(static=URL(\'static\',\'images\'))))\nresponse.write(\'"></script>  \\r\\n</body>\\r\\n</html>\\r\\n\', escape=False)'
p7
sS'snapshot'
p8
(dp9
sS'traceback'
p10
S'Traceback (most recent call last):\n  File "/home/mayank/Desktop/web2pyAdmin/web2py/web2py/gluon/restricted.py", line 209, in restricted\n    exec ccode in environment\n  File "/home/mayank/Desktop/web2pyAdmin/web2py/web2py/applications/FunkLoad/views/default/test.html", line 105, in <module>\n  File "/home/mayank/Desktop/web2pyAdmin/web2py/web2py/gluon/dal.py", line 8743, in select\n    return adapter.select(self.query,fields,attributes)\n  File "/home/mayank/Desktop/web2pyAdmin/web2py/web2py/gluon/dal.py", line 1570, in select\n    sql = self._select(query, fields, attributes)\n  File "/home/mayank/Desktop/web2pyAdmin/web2py/web2py/gluon/dal.py", line 1443, in _select\n    sql_w = \' WHERE \' + self.expand(query)\n  File "/home/mayank/Desktop/web2pyAdmin/web2py/web2py/gluon/dal.py", line 1276, in expand\n    return op(first, second)\n  File "/home/mayank/Desktop/web2pyAdmin/web2py/web2py/gluon/dal.py", line 1204, in EQ\n    self.expand(second, first.type))\n  File "/home/mayank/Desktop/web2pyAdmin/web2py/web2py/gluon/dal.py", line 1286, in expand\n    return str(self.represent(expression,field_type))\n  File "/home/mayank/Desktop/web2pyAdmin/web2py/web2py/gluon/dal.py", line 1696, in represent\n    return str(int(obj))\nValueError: invalid literal for int() with base 10: \'|8|\'\n'
p11
s.