(dp1
S'output'
p2
S"<type 'exceptions.AttributeError'> 'int' object has no attribute 'id'"
p3
sS'layer'
p4
S'/home/mayank/Desktop/web2pyAdmin/web2py/web2py/applications/FunkLoad/views/default/test.html'
p5
sS'code'
p6
S'response.write(\'<!DOCTYPE html>\\r\\n<!-- paulirish.com/2008/conditional-stylesheets-vs-css-hacks-answer-neither/ -->\\r\\n<!--[if lt IE 7]><html class="ie ie6 ie-lte9 ie-lte8 ie-lte7 no-js" lang="\', escape=False)\nresponse.write(T.accepted_language or \'en\')\nresponse.write(\'"> <![endif]-->\\r\\n<!--[if IE 7]><html class="ie ie7 ie-lte9 ie-lte8 ie-lte7 no-js" lang="\', escape=False)\nresponse.write(T.accepted_language or \'en\')\nresponse.write(\'"> <![endif]-->\\r\\n<!--[if IE 8]><html class="ie ie8 ie-lte9 ie-lte8 no-js" lang="\', escape=False)\nresponse.write(T.accepted_language or \'en\')\nresponse.write(\'"> <![endif]-->\\r\\n<!--[if IE 9]><html class="ie9 ie-lte9 no-js" lang="\', escape=False)\nresponse.write(T.accepted_language or \'en\')\nresponse.write(\'"> <![endif]-->\\r\\n<!--[if (gt IE 9)|!(IE)]><!--> <html class="no-js" lang="\', escape=False)\nresponse.write(T.accepted_language or \'en\')\nresponse.write(\'"> <!--<![endif]-->\\r\\n<html>\\r\\n<head>\\r\\n    <meta http-equiv="Content-Type" content="text/html; charset=utf-8">\\r\\n\\t<meta name="viewport" content="width=device-width, initial-scale=1.0">\\r\\n  \\r\\n  <!-- http://dev.w3.org/html5/markup/meta.name.html -->\\r\\n  <meta name="application-name" content="\', escape=False)\nresponse.write(request.application)\nresponse.write(\'" />\\r\\n  \\r\\n  <!-- Speaking of Google, don\\\'t forget to set your site up:\\r\\n       http://google.com/webmasters -->\\r\\n  <meta name="google-site-verification" content="" />\\r\\n  \\r\\n  <!--  Mobile Viewport Fix\\r\\n\\tj.mp/mobileviewport & davidbcalhoun.com/2010/viewport-metatag\\r\\n\\tdevice-width: Occupy full width of the screen in its current orientation\\r\\n\\tinitial-scale = 1.0 retains dimensions instead of zooming out if page height > device height\\r\\n\\tuser-scalable = yes allows the user to zoom in -->\\r\\n  <meta name="viewport" content="width=device-width, initial-scale=1.0">\\r\\n  <title>\', escape=False)\nresponse.write(response.title or request.application)\nresponse.write(\'</title>\\r\\n  <link rel="shortcut icon" href="\', escape=False)\nresponse.write(URL(\'static\',\'images/favicon.ico\'))\nresponse.write(\'" type="image/x-icon">\\r\\n  <link rel="apple-touch-icon" href="\', escape=False)\nresponse.write(URL(\'static\',\'images/favicon.png\'))\nresponse.write(\'">\\r\\n  \\r\\n  <!-- All JavaScript at the bottom, except for Modernizr which enables \\r\\n\\r\\n       HTML5 elements & feature detects -->\\r\\n  <script src="\', escape=False)\nresponse.write(URL(\'static\',\'js/modernizr.custom.js\'))\nresponse.write(\'"></script>   \\r\\n  \\r\\n  <!-- include stylesheets -->\\r\\n  \', escape=False)\nresponse.files.append(URL(\'static\',"css/bootstrap/bootstrap.css"))\nresponse.files.append(URL(\'static\',"css/bootstrap/bootstrap-responsive.css"))\nresponse.files.append(URL(\'static\',\'css/web2py.css\'))\nresponse.files.append(URL(\'static\',\'css/web2py_bootstrap.css\'))\nresponse.files.append(URL(\'static\',"css/bootstrap/bootstrap-overrides.css"))\nresponse.files.append(URL(\'static\',"css/lib/jquery-ui-1.10.2.custom.css"))\nresponse.files.append(URL(\'static\',"css/lib/font-awesome.css"))\nresponse.files.append(URL(\'static\',"css/layout.css"))\nresponse.files.append(URL(\'static\',"css/elements.css"))\nresponse.files.append(URL(\'static\',"css/icons.css"))\nresponse.files.append(URL(\'static\',"css/compiled/index.css"))\nresponse.files.append(URL(\'static\',"css/css5c84.css?family=Open+Sans:300italic,400italic,600italic,700italic,800italic,400,300,600,700,800"))\nresponse.files.append(URL(\'static\',"css/cssef21.css?family=Lato:300,400,700,900,300italic,400italic,700italic,900italic"))\nresponse.write(\'\\r\\n\\r\\n  \', escape=False)\nresponse.write(\'<script type="text/javascript"><!--\\n    // These variables are used by the web2py_ajax_init function in web2py_ajax.js (which is loaded below).\\n    var w2p_ajax_confirm_message = "\', escape=False)\nresponse.write(T(\'Are you sure you want to delete this object?\'))\nresponse.write(\'";\\n    var w2p_ajax_date_format = "\', escape=False)\nresponse.write(T(\'%Y-%m-%d\'))\nresponse.write(\'";\\n    var w2p_ajax_datetime_format = "\', escape=False)\nresponse.write(T(\'%Y-%m-%d %H:%M:%S\'))\nresponse.write(\'";\\n    //--></script>\\n\', escape=False)\nresponse.files.insert(0,URL(\'static\',\'js/jquery.js\'))\nresponse.files.insert(1,URL(\'static\',\'css/calendar.css\'))\nresponse.files.insert(2,URL(\'static\',\'js/calendar.js\'))\nresponse.files.insert(3,URL(\'static\',\'js/web2py.js\'))\nresponse.include_meta()\nresponse.include_files()\nresponse.write(\'\\n\', escape=False)\nresponse.write(\'\\r\\n  \\r\\n  \', escape=False)\n# using sidebars need to know what sidebar you want to use\nleft_sidebar_enabled = globals().get(\'left_sidebar_enabled\',False)\nright_sidebar_enabled = globals().get(\'right_sidebar_enabled\',False)\nmiddle_columns = {0:\'span12\',1:\'span9\',2:\'span6\'}[\n(left_sidebar_enabled and 1 or 0)+(right_sidebar_enabled and 1 or 0)]\nresponse.write(\'\\r\\n\\r\\n  <noscript><link href="\', escape=False)\nresponse.write(URL(\'static\', \'css/web2py_bootstrap_nojs.css\'))\nresponse.write(\'" rel="stylesheet" type="text/css" /></noscript>\\r\\n  \', escape=False)\nresponse.write(\'\\r\\n  \\r\\n  <!--[if lt IE 9]>\\r\\n      <script src="http://html5shim.googlecode.com/svn/trunk/html5.js"></script>\\r\\n    <![endif]-->\\r\\n   <style>\\r\\n   .box {\\r\\nmargin: 0 auto;\\r\\npadding: 35px 0 30px;\\r\\nfloat: none;\\r\\nwidth: 700px;\\r\\nborder-radius: 5px;\\r\\nbackground-color: #f7f7f7;\\r\\n   }\\r\\n   </style>\\r\\n</head>\\r\\n<body>\\r\\n  <!-- navbar -->\\r\\n    <div class="navbar navbar-inverse">\\r\\n        <div class="navbar-inner">\\r\\n            <button type="button" class="btn btn-navbar visible-phone" id="menu-toggler">\\r\\n                <span class="icon-bar"></span>\\r\\n                <span class="icon-bar"></span>\\r\\n                <span class="icon-bar"></span>\\r\\n            </button>\\r\\n            \\r\\n            <a class="brand" href="index.html">\', escape=False)\nresponse.write(response.title or request.application)\nresponse.write(\'</a>\\r\\n\\t\\t\', escape=False)\nurl=request.url.split(\'/\')[-1]\nresponse.write(\'\\r\\n            <ul class="nav pull-right">        \\r\\n\\t    \\t<!--\\r\\n                <li class="hidden-phone">\\r\\n                    <input class="search" type="text" />\\r\\n                </li>\\r\\n                <li class="notification-dropdown hidden-phone">\\r\\n                    <a href="#" class="trigger">\\r\\n                        <i class="icon-warning-sign"></i>\\r\\n                        <span class="count">8</span>\\r\\n                    </a>\\r\\n                    <div class="pop-dialog">\\r\\n                        <div class="pointer right">\\r\\n                            <div class="arrow"></div>\\r\\n                            <div class="arrow_border"></div>\\r\\n                        </div>\\r\\n                        <div class="body">\\r\\n                            <a href="#" class="close-icon"><i class="icon-remove-sign"></i></a>\\r\\n                            <div class="notifications">\\r\\n                                <h3>You have 6 new notifications</h3>\\r\\n                                <a href="#" class="item">\\r\\n                                    <i class="icon-signin"></i> New user registration\\r\\n                                    <span class="time"><i class="icon-time"></i> 13 min.</span>\\r\\n                                </a>\\r\\n                                <a href="#" class="item">\\r\\n                                    <i class="icon-signin"></i> New user registration\\r\\n                                    <span class="time"><i class="icon-time"></i> 18 min.</span>\\r\\n                                </a>\\r\\n                                <a href="#" class="item">\\r\\n                                    <i class="icon-envelope-alt"></i> New message from Alejandra\\r\\n                                    <span class="time"><i class="icon-time"></i> 28 min.</span>\\r\\n                                </a>\\r\\n                                <a href="#" class="item">\\r\\n                                    <i class="icon-signin"></i> New user registration\\r\\n                                    <span class="time"><i class="icon-time"></i> 49 min.</span>\\r\\n                                </a>\\r\\n                                <a href="#" class="item">\\r\\n                                    <i class="icon-download-alt"></i> New order placed\\r\\n                                    <span class="time"><i class="icon-time"></i> 1 day.</span>\\r\\n                                </a>\\r\\n                                <div class="footer">\\r\\n                                    <a href="#" class="logout">View all notifications</a>\\r\\n                                </div>\\r\\n                            </div>\\r\\n                        </div>\\r\\n                    </div>\\r\\n                </li>\\r\\n                <li class="notification-dropdown hidden-phone">\\r\\n                    <a href="#" class="trigger">\\r\\n                        <i class="icon-envelope-alt"></i>\\r\\n                    </a>\\r\\n                    <div class="pop-dialog">\\r\\n                        <div class="pointer right">\\r\\n                            <div class="arrow"></div>\\r\\n                            <div class="arrow_border"></div>\\r\\n                        </div>\\r\\n                        <div class="body">\\r\\n                            <a href="#" class="close-icon"><i class="icon-remove-sign"></i></a>\\r\\n                            <div class="messages">\\r\\n                                <a href="#" class="item">\\r\\n                                    <img src="img/contact-img.png" class="display" />\\r\\n                                    <div class="name">Alejandra Galv\\xc3\\xa1n</div>\\r\\n                                    <div class="msg">\\r\\n                                        There are many variations of available, but the majority have suffered alterations.\\r\\n                                    </div>\\r\\n                                    <span class="time"><i class="icon-time"></i> 13 min.</span>\\r\\n                                </a>\\r\\n                                <a href="#" class="item">\\r\\n                                    <img src="img/contact-img2.png" class="display" />\\r\\n                                    <div class="name">Alejandra Galv\\xc3\\xa1n</div>\\r\\n                                    <div class="msg">\\r\\n                                        There are many variations of available, have suffered alterations.\\r\\n                                    </div>\\r\\n                                    <span class="time"><i class="icon-time"></i> 26 min.</span>\\r\\n                                </a>\\r\\n                                <a href="#" class="item last">\\r\\n                                    <img src="img/contact-img.png" class="display" />\\r\\n                                    <div class="name">Alejandra Galv\\xc3\\xa1n</div>\\r\\n                                    <div class="msg">\\r\\n                                        There are many variations of available, but the majority have suffered alterations.\\r\\n                                    </div>\\r\\n                                    <span class="time"><i class="icon-time"></i> 48 min.</span>\\r\\n                                </a>\\r\\n                                <div class="footer">\\r\\n                                    <a href="#" class="logout">View all messages</a>\\r\\n                                </div>\\r\\n                            </div>\\r\\n                        </div>\\r\\n                    </div>\\r\\n                </li>\\r\\n\\t\\t\\t-->\\r\\n                <li class="dropdown">\\r\\n                    <a href="#" class="dropdown-toggle hidden-phone" data-toggle="dropdown">\\r\\n\\t\\t\\t\', escape=False)\nresponse.write(auth.user.first_name+\' \'+auth.user.last_name)\nresponse.write(\'\\r\\n                        <b class="caret"></b>\\r\\n                    </a>\\r\\n                    <ul class="dropdown-menu">\\r\\n                        <li><a href="\', escape=False)\nresponse.write(URL(r = request, f = \'user\' ,args=\'logout\'))\nresponse.write(\'">SignOut</a></li>\\r\\n                        <li><a href="#">About</a></li>\\r\\n                    </ul>\\r\\n                </li>\\r\\n                <li class="settings hidden-phone">\\r\\n                    <a href="\', escape=False)\nresponse.write(URL(r = request, f = \'user\' ,args=\'login\'))\nresponse.write(\'" role="button">\\r\\n                        <i class="icon-share-alt"></i>\\r\\n                    </a>\\r\\n                </li>\\r\\n            </ul>            \\r\\n        </div>\\r\\n    </div>\\r\\n    <!-- end navbar -->\\r\\n\\r\\n    <!-- sidebar -->\\r\\n    <div id="sidebar-nav">\\r\\n        <ul id="dashboard-menu">\\r\\n\\t\\t\', escape=False)\nprint url\nresponse.write(\'\\r\\n            <li \', escape=False)\nif url==\'index\' :\n    response.write(\'class="active"\', escape=False)\n    pass\nresponse.write(\'>\\r\\n\\t    \\t\', escape=False)\nif url==\'index\' :\n    response.write(\'\\r\\n                <div class="pointer">\\r\\n                    <div class="arrow"></div>\\r\\n                    <div class="arrow_border"></div>\\r\\n                </div>\\r\\n\\t\\t\', escape=False)\n    pass\nresponse.write(\'\\r\\n                <a href="\', escape=False)\nresponse.write(URL(r = request, f = \'index\'))\nresponse.write(\'">\\r\\n                    <i class="icon-home"></i>\\r\\n                    <span>Home</span>\\r\\n                </a>\\r\\n            </li>            \\r\\n            <li \', escape=False)\nif url==\'addTest\' :\n    response.write(\'class="active"\', escape=False)\n    pass\nresponse.write(\'>\\r\\n\\t    \\t\', escape=False)\nif url==\'addTest\' :\n    response.write(\'\\r\\n                <div class="pointer">\\r\\n                    <div class="arrow"></div>\\r\\n                    <div class="arrow_border"></div>\\r\\n                </div>\\r\\n\\t\\t\', escape=False)\n    pass\nresponse.write(\'\\r\\n                <a href="\', escape=False)\nresponse.write(URL(r = request, f = \'addTest\'))\nresponse.write(\'">\\r\\n                    <i class="icon-edit"></i>\\r\\n                    <span>AddTest</span>\\r\\n                </a>\\r\\n            </li>\\r\\n            <li \', escape=False)\nif url==\'testDetails\' :\n    response.write(\'class="active"\', escape=False)\n    pass\nresponse.write(\'>\\r\\n\\t    \\t\', escape=False)\nif url==\'testDetails\' :\n    response.write(\'\\r\\n                <div class="pointer">\\r\\n                    <div class="arrow"></div>\\r\\n                    <div class="arrow_border"></div>\\r\\n                </div>\\r\\n\\t\\t\', escape=False)\n    pass\nresponse.write(\'\\r\\n                <a href="\', escape=False)\nresponse.write(URL(r = request, f = \'testDetails\'))\nresponse.write(\'">\\r\\n                    <i class="icon-signal"></i>\\r\\n                    <span>Show Test Details</span>\\r\\n                </a>\\r\\n                </li>\\r\\n                <li>\\r\\n                <a class="dropdown-toggle" href="#">\\r\\n                    <i class="icon-group"></i>\\r\\n                    <span>Developers</span>\\r\\n                    <i class="icon-chevron-down"></i>\\r\\n                </a>\\r\\n                <ul class="submenu">\\r\\n                    <li><a href=\\\'https://github.com/mayank93\\\'>Mayank Gupta</a></li>\\r\\n                    <li><a href=\\\'#\\\'>Rohan Shah</a></li>\\r\\n                    <li><a href=\\\'#\\\'>Ankush Jain</a></li>\\r\\n                    <li><a href=\\\'#\\\'>Rishbah Ladha</a></li>\\r\\n\\r\\n                </ul>\\r\\n                </li>\\r\\n        </ul>\\r\\n    </div>\\r\\n    <!-- end sidebar -->\\r\\n  \\r\\n  <div >\\r\\n    <div class="flash">\', escape=False)\nresponse.write(response.flash or \'\')\nresponse.write(\'</div>\\r\\n\\r\\n   \\t  \', escape=False)\nresponse.write(\'\\n<script>\\nfunction toggle(a,b,c){\\n\\t$(a).show();\\n\\t$(b).hide();\\n\\t$(c).hide();\\n}\\n</script>\\n<style>\\n .line.blue {\\nbackground-color: #30a1ec;\\nheight: 3px;\\nwidth: 25px;\\ndisplay: inline-block;\\nmargin-right: 10px;\\n}\\n</style>\\n<div class="content">\\n    <div class="span10" style="margin:10px">\\n        <div class="span3">\\n            <a class="btn btn-success" type="button" data-toggle="collapse" href="#add-skills" onclick=\\\'toggle("#SanityTesting","#FunctionalTesting","#StressTesting")\\\'>Sanity Result</a>\\n        </div>\\n        <div class="span3">\\n            <a class="btn btn-success" type="button" data-toggle="collapse" href="#add-skills" onclick=\\\'toggle("#FunctionalTesting","#SanityTesting","#StressTesting")\\\'>Functional Result</a>\\n        </div>\\n        <div class="span3">\\n\\t\\t<a class="btn btn-success" type="button" data-toggle="collapse" href="#add-skills" onclick=\\\'toggle("#StressTesting","#SanityTesting","#FunctionalTesting")\\\'>Stress Result</a>\\n        </div>\\n        <br/>\\n        <br/>\\n        <br/>\\n\\n\\t</div>\\n\\t<div class="span10" id="SanityTesting" style="display:none">\\n        <h3>Sanity Result</h3>\\n        <br/>\\n\\t\\t<div class=\\\'span6 \\\' style="margin:10px;padding:10px 30px 10px 30px">\\n            \', escape=False)\nif details.Sanity==\'true\':\n    response.write(\'\\n            <p style="color:#448A03;font-size:15px">\\n            <i class="icon icon-ok" ></i>\\n            <b>   Given url is online and responsive</b>\\n            </p>\\n            \', escape=False)\nelse:\n    response.write(\'\\n            <p style="color:red;font-size:15px">\\n            <i class="icon icon-remove"></i>\\n            <b>   Given url is not responding</b>\\n            </p>\\n            \', escape=False)\n    pass\nresponse.write(\'\\n\\t\\t</div>\\n\\t</div>\\n\\t<div class="span10" id="FunctionalTesting" style="display:none">\\n\\t\\t<h3>Functional Result</h3>\\n        <br/>\\n\\t\\t\\t<div class="span5 knobs">\\n                        \\t<div class="knob-wrapper">\\n                            \\t\\t<input type="text" value="\', escape=False)\nresponse.write(details.Functional)\nresponse.write(\'" class="knob" data-thickness=".3" data-inputColor="#333" data-fgColor="#30a1ec" data-bgColor="#d4ecfd" data-width="150">\\n                            \\t\\t<div class="info">\\n                            \\t\\t</div>\\n                        \\t</div>\\n                        </div>   \\n\\t\\t\\t<div class="span2"> \\n                        \\t<div class="param">\\n                                <span class="line blue"></span>\\n                                <h4>% of Active Urls</h4>\\n                            </div>\\n           </div>\\n                        <!-- table sample -->\\n                        <!-- the script for the toggle all checkboxes from header is located in js/theme.js -->\\n                        <div class="table-products section">\\n                            <div class="row-fluid head">\\n                                <div class="span12">\\n                                    <h4>Tests <small>Status</small></h4>\\n                                </div>\\n                            </div>\\n                            <div class="row-fluid">\\n                                <table class="table table-hover">\\n                                    <thead>\\n                                        <tr>\\n                                            <th class="span3">\\n                                                Test Name\\n                                            </th>\\n                                            <th class="span3">\\n                                                <span class="line"></span>Description\\n                                            </th>\\n                                            <th class="span3">\\n                                                <span class="line"></span>Sanity Status\\n                                            </th>\\n                                            <th class="span3">\\n                                                <span class="line"></span>Functional Status\\n                                            </th>\\n                                            <th class="span3">\\n                                                <span class="line"></span>Stress Status\\n                                            </th>\\n                                        </tr>\\n                                    </thead>\\n                                    \', escape=False)\ndetails=[1,2,3]\nresponse.write(\'\\n                                    <tbody>\\n                                        <!-- row -->\\n                                        \', escape=False)\nfor i in details:\n    response.write(\'\\n                                        \', escape=False)\n    print i\n    response.write(\'\\n                                        <tr>\\n                                            <td>\\n                                                <a href="\', escape=False)\n    response.write(URL(r = request, f = \'test\' ,args=[i.id]))\n    response.write(\'">\', escape=False)\n    response.write(i.TestName)\n    response.write(\'</a>\\n                                            </td>\\n                                            <td class="description">\\n                                                i.Description\\n                                            </td>\\n                                            <td>\\n                                                <span class="label label-success">Complete</span>\\n                                            </td>\\n                                            <td>\\n                                                <span class="label label-info">Inqueue</span>\\n                                            </td>\\n                                            <td>\\n                                                <span class="label label-success">Complete</span>\\n                                            </td>\\n                                        </tr>\\n                                        \', escape=False)\n    pass\nresponse.write(\'\\n                                        <!-- row -->\\n                                    </tbody>\\n                                </table>\\n\\n\\n\\t        </div>\\n\\t    </div>\\n\\t</div>\\n\\n\\t<div class="span10" id="StressTesting" style="display:none">\\n\\t\\t<h3>Stress Result</h3>\\n        <br/>\\n\\t\\t<iframe style="height:1000px;width:100%" src="\', escape=False)\nresponse.write(URL(\'static\',\'test/index.html\'))\nresponse.write(\'"></iframe>\\n\\t</div>\\n</div>\\n <script type="text/javascript">\\n $(function () {\\n       // jQuery Knobs\\n       $(".knob").knob();\\n});\\n</script>\\n\', escape=False)\nresponse.write(\'\\r\\n \\r\\n    <!-- Footer ================================================== -->\\r\\n    <footer class="footer" id="footer">\\r\\n      \', escape=False)\nresponse.write(\' <!-- this is default footer -->\\r\\n      <div class="footer-content">\\r\\n\\t<div class="copyright pull-left">\', escape=False)\nresponse.write(T(\'Copyright\'))\nresponse.write(\' &#169; \', escape=False)\nresponse.write(request.now.year)\nresponse.write(\'</div>\\r\\n\\t<div id="poweredBy" class="pull-right">\\r\\n\\t  \', escape=False)\nresponse.write(T(\'Powered by\'))\nresponse.write(\'\\r\\n\\t  <a href="http://www.web2py.com/">web2py</a>\\r\\n\\t</div>\\r\\n      </div>\\r\\n      \', escape=False)\nresponse.write(\'\\r\\n    </footer>\\r\\n    \\r\\n  </div> <!-- /container -->\\r\\n\\r\\n\\r\\n\\r\\n    <script src="\', escape=False)\nresponse.write(URL(\'static\',\'js/jquery-latest.js\'))\nresponse.write(\'"></script>\\r\\n    <script src="\', escape=False)\nresponse.write(URL(\'static\',\'js/bootstrap.min.js\'))\nresponse.write(\'"></script>\\r\\n    <script src="\', escape=False)\nresponse.write(URL(\'static\',\'js/jquery-ui-1.10.2.custom.min.js\'))\nresponse.write(\'"></script>\\r\\n    <!-- knob -->\\r\\n    <script src="\', escape=False)\nresponse.write(URL(\'static\',\'js/jquery.knob.js\'))\nresponse.write(\'"></script>\\r\\n    <!-- flot charts -->\\r\\n    <script src="\', escape=False)\nresponse.write(URL(\'static\',\'js/jquery.flot.js\'))\nresponse.write(\'"></script>\\r\\n    <script src="\', escape=False)\nresponse.write(URL(\'static\',\'js/jquery.flot.stack.js\'))\nresponse.write(\'"></script>\\r\\n    <script src="\', escape=False)\nresponse.write(URL(\'static\',\'js/jquery.flot.resize.js\'))\nresponse.write(\'"></script>\\r\\n    <script src="\', escape=False)\nresponse.write(URL(\'static\',\'js/theme.js\'))\nresponse.write(\'"></script>\\r\\n    <script src="\', escape=False)\nresponse.write(URL(\'static\',\'js/jquery.validate.min.js\'))\nresponse.write(\'"></script>\\r\\n  <!--[if lt IE 7 ]>\\r\\n      <script src="\', escape=False)\nresponse.write(URL(\'static\',\'js/dd_belatedpng.js\'))\nresponse.write(\'"></script>\\r\\n      <script> DD_belatedPNG.fix(\\\'img, .png_bg\\\'); //fix any <img> or .png_bg background-images </script>\\r\\n      <![endif]-->\\r\\n  \', escape=False)\nif response.google_analytics_id:\n    response.write(\'<script type="text/javascript"> var _gaq = _gaq || []; _gaq.push([\\\'_setAccount\\\', \\\'\', escape=False)\n    response.write(response.google_analytics_id)\n    response.write("\']); _gaq.push([\'_trackPageview\']); (function() { var ga = document.createElement(\'script\'); ga.type = \'text/javascript\'; ga.async = true; ga.src = (\'https:\' == document.location.protocol ? \'https://ssl\' : \'http://www\') + \'.google-analytics.com/ga.js\'; var s = document.getElementsByTagName(\'script\')[0]; s.parentNode.insertBefore(ga, s); })(); </script> ", escape=False)\n    pass\nresponse.write(\'\\r\\n  <script src="\', escape=False)\nresponse.write(URL(\'static\',\'js/share.js\',vars=dict(static=URL(\'static\',\'images\'))))\nresponse.write(\'"></script>  \\r\\n</body>\\r\\n</html>\\r\\n\', escape=False)'
p7
sS'snapshot'
p8
(dp9
S'exception'
p10
(dp11
S'__hash__'
p12
S"<method-wrapper '__hash__' of exceptions.AttributeError object>"
p13
sS'__setattr__'
p14
S"<method-wrapper '__setattr__' of exceptions.AttributeError object>"
p15
sS'__reduce_ex__'
p16
S'<built-in method __reduce_ex__ of exceptions.AttributeError object>'
p17
sS'__getslice__'
p18
S"<method-wrapper '__getslice__' of exceptions.AttributeError object>"
p19
sS'__getitem__'
p20
S"<method-wrapper '__getitem__' of exceptions.AttributeError object>"
p21
sS'__setstate__'
p22
S'<built-in method __setstate__ of exceptions.AttributeError object>'
p23
sS'args'
p24
S'("\'int\' object has no attribute \'id\'",)'
p25
sS'__reduce__'
p26
S'<built-in method __reduce__ of exceptions.AttributeError object>'
p27
sS'__str__'
p28
S"<method-wrapper '__str__' of exceptions.AttributeError object>"
p29
sS'__format__'
p30
S'<built-in method __format__ of exceptions.AttributeError object>'
p31
sS'__getattribute__'
p32
S"<method-wrapper '__getattribute__' of exceptions.AttributeError object>"
p33
sS'__class__'
p34
S"<type 'exceptions.AttributeError'>"
p35
sS'__unicode__'
p36
S'<built-in method __unicode__ of exceptions.AttributeError object>'
p37
sS'__delattr__'
p38
S"<method-wrapper '__delattr__' of exceptions.AttributeError object>"
p39
sS'__subclasshook__'
p40
S'<built-in method __subclasshook__ of type object>'
p41
sS'__repr__'
p42
S"<method-wrapper '__repr__' of exceptions.AttributeError object>"
p43
sS'__dict__'
p44
S'{}'
p45
sS'__sizeof__'
p46
S'<built-in method __sizeof__ of exceptions.AttributeError object>'
p47
sS'__doc__'
p48
S"'Attribute not found.'"
p49
sS'__init__'
p50
S"<method-wrapper '__init__' of exceptions.AttributeError object>"
p51
sS'__new__'
p52
S'<built-in method __new__ of type object>'
p53
ssS'evalue'
p54
S"'int' object has no attribute 'id'"
p55
sS'request'
p56
ccopy_reg
_reconstructor
p57
(cgluon.html
BEAUTIFY
p58
c__builtin__
object
p59
NtRp60
(dp61
S'attributes'
p62
(dp63
sS'components'
p64
(lp65
g57
(cgluon.html
TABLE
p66
g59
NtRp67
(dp68
g62
(dp69
S'level'
p70
I5
ssS'parent'
p71
Nsg64
(lp72
g57
(cgluon.html
TR
p73
g59
NtRp74
(dp75
g62
(dp76
sg71
g67
sg64
(lp77
g57
(cgluon.html
TD
p78
g59
NtRp79
(dp80
g62
(dp81
S'_style'
p82
S'font-weight:bold;vertical-align:top'
p83
ssg71
g74
sg64
(lp84
S'ajax'
p85
asbag57
(g78
g59
NtRp86
(dp87
g62
(dp88
S'_valign'
p89
S'top'
p90
ssg71
g74
sg64
(lp91
S':'
asbag57
(g78
g59
NtRp92
(dp93
g62
(dp94
sg71
g74
sg64
(lp95
g57
(g58
g59
NtRp96
(dp97
g62
(dp98
g70
I5
ssg71
g92
sg64
(lp99
S'False'
p100
asbasbasbag57
(g73
g59
NtRp101
(dp102
g62
(dp103
sg71
g67
sg64
(lp104
g57
(g78
g59
NtRp105
(dp106
g62
(dp107
g82
g83
ssg71
g101
sg64
(lp108
S'application'
p109
asbag57
(g78
g59
NtRp110
(dp111
g62
(dp112
g89
g90
ssg71
g101
sg64
(lp113
S':'
asbag57
(g78
g59
NtRp114
(dp115
g62
(dp116
sg71
g101
sg64
(lp117
g57
(g58
g59
NtRp118
(dp119
g62
(dp120
g70
I5
ssg71
g114
sg64
(lp121
S'FunkLoad'
p122
asbasbasbag57
(g73
g59
NtRp123
(dp124
g62
(dp125
sg71
g67
sg64
(lp126
g57
(g78
g59
NtRp127
(dp128
g62
(dp129
g82
g83
ssg71
g123
sg64
(lp130
g24
asbag57
(g78
g59
NtRp131
(dp132
g62
(dp133
g89
g90
ssg71
g123
sg64
(lp134
S':'
asbag57
(g78
g59
NtRp135
(dp136
g62
(dp137
sg71
g123
sg64
(lp138
g57
(g58
g59
NtRp139
(dp140
g62
(dp141
g70
I5
ssg71
g135
sg64
(lp142
g57
(g66
g59
NtRp143
(dp144
g62
(dp145
g70
I4
ssg71
Nsg64
(lp146
g57
(g73
g59
NtRp147
(dp148
g62
(dp149
sg71
g143
sg64
(lp150
g57
(g78
g59
NtRp151
(dp152
g62
(dp153
sg71
g147
sg64
(lp154
g57
(g58
g59
NtRp155
(dp156
g62
(dp157
g70
I4
ssg71
g151
sg64
(lp158
S'1'
asbasbasbasbasbasbasbag57
(g73
g59
NtRp159
(dp160
g62
(dp161
sg71
g67
sg64
(lp162
g57
(g78
g59
NtRp163
(dp164
g62
(dp165
g82
g83
ssg71
g159
sg64
(lp166
S'body'
p167
asbag57
(g78
g59
NtRp168
(dp169
g62
(dp170
g89
g90
ssg71
g159
sg64
(lp171
S':'
asbag57
(g78
g59
NtRp172
(dp173
g62
(dp174
sg71
g159
sg64
(lp175
g57
(g58
g59
NtRp176
(dp177
g62
(dp178
g70
I5
ssg71
g172
sg64
(lp179
S'<cStringIO.StringO object at 0x7f7a6041a9d0>'
p180
asbasbasbag57
(g73
g59
NtRp181
(dp182
g62
(dp183
sg71
g67
sg64
(lp184
g57
(g78
g59
NtRp185
(dp186
g62
(dp187
g82
g83
ssg71
g181
sg64
(lp188
S'cid'
p189
asbag57
(g78
g59
NtRp190
(dp191
g62
(dp192
g89
g90
ssg71
g181
sg64
(lp193
S':'
asbag57
(g78
g59
NtRp194
(dp195
g62
(dp196
sg71
g181
sg64
(lp197
g57
(g58
g59
NtRp198
(dp199
g62
(dp200
g70
I5
ssg71
g194
sg64
(lp201
S'None'
p202
asbasbasbag57
(g73
g59
NtRp203
(dp204
g62
(dp205
sg71
g67
sg64
(lp206
g57
(g78
g59
NtRp207
(dp208
g62
(dp209
g82
g83
ssg71
g203
sg64
(lp210
S'client'
p211
asbag57
(g78
g59
NtRp212
(dp213
g62
(dp214
g89
g90
ssg71
g203
sg64
(lp215
S':'
asbag57
(g78
g59
NtRp216
(dp217
g62
(dp218
sg71
g203
sg64
(lp219
g57
(g58
g59
NtRp220
(dp221
g62
(dp222
g70
I5
ssg71
g216
sg64
(lp223
S'10.1.33.107'
p224
asbasbasbag57
(g73
g59
NtRp225
(dp226
g62
(dp227
sg71
g67
sg64
(lp228
g57
(g78
g59
NtRp229
(dp230
g62
(dp231
g82
g83
ssg71
g225
sg64
(lp232
S'controller'
p233
asbag57
(g78
g59
NtRp234
(dp235
g62
(dp236
g89
g90
ssg71
g225
sg64
(lp237
S':'
asbag57
(g78
g59
NtRp238
(dp239
g62
(dp240
sg71
g225
sg64
(lp241
g57
(g58
g59
NtRp242
(dp243
g62
(dp244
g70
I5
ssg71
g238
sg64
(lp245
S'default'
p246
asbasbasbag57
(g73
g59
NtRp247
(dp248
g62
(dp249
sg71
g67
sg64
(lp250
g57
(g78
g59
NtRp251
(dp252
g62
(dp253
g82
g83
ssg71
g247
sg64
(lp254
S'cookies'
p255
asbag57
(g78
g59
NtRp256
(dp257
g62
(dp258
g89
g90
ssg71
g247
sg64
(lp259
S':'
asbag57
(g78
g59
NtRp260
(dp261
g62
(dp262
sg71
g247
sg64
(lp263
g57
(g58
g59
NtRp264
(dp265
g62
(dp266
g70
I5
ssg71
g260
sg64
(lp267
g57
(g66
g59
NtRp268
(dp269
g62
(dp270
g70
I4
ssg71
Nsg64
(lp271
g57
(g73
g59
NtRp272
(dp273
g62
(dp274
sg71
g268
sg64
(lp275
g57
(g78
g59
NtRp276
(dp277
g62
(dp278
g82
g83
ssg71
g272
sg64
(lp279
S'session_id_admin'
p280
asbag57
(g78
g59
NtRp281
(dp282
g62
(dp283
g89
g90
ssg71
g272
sg64
(lp284
S':'
asbag57
(g78
g59
NtRp285
(dp286
g62
(dp287
sg71
g272
sg64
(lp288
g57
(g58
g59
NtRp289
(dp290
g62
(dp291
g70
I4
ssg71
g285
sg64
(lp292
S'10.1.33.107-cc833ea9-972a-468c-9599-25843d70bea7'
p293
ag57
(g66
g59
NtRp294
(dp295
g62
(dp296
g70
I3
ssg71
Nsg64
(lp297
g57
(g73
g59
NtRp298
(dp299
g62
(dp300
sg71
g294
sg64
(lp301
g57
(g78
g59
NtRp302
(dp303
g62
(dp304
g82
g83
ssg71
g298
sg64
(lp305
S'comment'
p306
asbag57
(g78
g59
NtRp307
(dp308
g62
(dp309
g89
g90
ssg71
g298
sg64
(lp310
S':'
asbag57
(g78
g59
NtRp311
(dp312
g62
(dp313
sg71
g298
sg64
(lp314
g57
(g58
g59
NtRp315
(dp316
g62
(dp317
g70
I3
ssg71
g311
sg64
(lp318
S''
asbasbasbag57
(g73
g59
NtRp319
(dp320
g62
(dp321
sg71
g294
sg64
(lp322
g57
(g78
g59
NtRp323
(dp324
g62
(dp325
g82
g83
ssg71
g319
sg64
(lp326
S'domain'
p327
asbag57
(g78
g59
NtRp328
(dp329
g62
(dp330
g89
g90
ssg71
g319
sg64
(lp331
S':'
asbag57
(g78
g59
NtRp332
(dp333
g62
(dp334
sg71
g319
sg64
(lp335
g57
(g58
g59
NtRp336
(dp337
g62
(dp338
g70
I3
ssg71
g332
sg64
(lp339
S''
asbasbasbag57
(g73
g59
NtRp340
(dp341
g62
(dp342
sg71
g294
sg64
(lp343
g57
(g78
g59
NtRp344
(dp345
g62
(dp346
g82
g83
ssg71
g340
sg64
(lp347
S'expires'
p348
asbag57
(g78
g59
NtRp349
(dp350
g62
(dp351
g89
g90
ssg71
g340
sg64
(lp352
S':'
asbag57
(g78
g59
NtRp353
(dp354
g62
(dp355
sg71
g340
sg64
(lp356
g57
(g58
g59
NtRp357
(dp358
g62
(dp359
g70
I3
ssg71
g353
sg64
(lp360
S''
asbasbasbag57
(g73
g59
NtRp361
(dp362
g62
(dp363
sg71
g294
sg64
(lp364
g57
(g78
g59
NtRp365
(dp366
g62
(dp367
g82
g83
ssg71
g361
sg64
(lp368
S'httponly'
p369
asbag57
(g78
g59
NtRp370
(dp371
g62
(dp372
g89
g90
ssg71
g361
sg64
(lp373
S':'
asbag57
(g78
g59
NtRp374
(dp375
g62
(dp376
sg71
g361
sg64
(lp377
g57
(g58
g59
NtRp378
(dp379
g62
(dp380
g70
I3
ssg71
g374
sg64
(lp381
S''
asbasbasbag57
(g73
g59
NtRp382
(dp383
g62
(dp384
sg71
g294
sg64
(lp385
g57
(g78
g59
NtRp386
(dp387
g62
(dp388
g82
g83
ssg71
g382
sg64
(lp389
S'max-age'
p390
asbag57
(g78
g59
NtRp391
(dp392
g62
(dp393
g89
g90
ssg71
g382
sg64
(lp394
S':'
asbag57
(g78
g59
NtRp395
(dp396
g62
(dp397
sg71
g382
sg64
(lp398
g57
(g58
g59
NtRp399
(dp400
g62
(dp401
g70
I3
ssg71
g395
sg64
(lp402
S''
asbasbasbag57
(g73
g59
NtRp403
(dp404
g62
(dp405
sg71
g294
sg64
(lp406
g57
(g78
g59
NtRp407
(dp408
g62
(dp409
g82
g83
ssg71
g403
sg64
(lp410
S'path'
p411
asbag57
(g78
g59
NtRp412
(dp413
g62
(dp414
g89
g90
ssg71
g403
sg64
(lp415
S':'
asbag57
(g78
g59
NtRp416
(dp417
g62
(dp418
sg71
g403
sg64
(lp419
g57
(g58
g59
NtRp420
(dp421
g62
(dp422
g70
I3
ssg71
g416
sg64
(lp423
S''
asbasbasbag57
(g73
g59
NtRp424
(dp425
g62
(dp426
sg71
g294
sg64
(lp427
g57
(g78
g59
NtRp428
(dp429
g62
(dp430
g82
g83
ssg71
g424
sg64
(lp431
S'secure'
p432
asbag57
(g78
g59
NtRp433
(dp434
g62
(dp435
g89
g90
ssg71
g424
sg64
(lp436
S':'
asbag57
(g78
g59
NtRp437
(dp438
g62
(dp439
sg71
g424
sg64
(lp440
g57
(g58
g59
NtRp441
(dp442
g62
(dp443
g70
I3
ssg71
g437
sg64
(lp444
S''
asbasbasbag57
(g73
g59
NtRp445
(dp446
g62
(dp447
sg71
g294
sg64
(lp448
g57
(g78
g59
NtRp449
(dp450
g62
(dp451
g82
g83
ssg71
g445
sg64
(lp452
S'version'
p453
asbag57
(g78
g59
NtRp454
(dp455
g62
(dp456
g89
g90
ssg71
g445
sg64
(lp457
S':'
asbag57
(g78
g59
NtRp458
(dp459
g62
(dp460
sg71
g445
sg64
(lp461
g57
(g58
g59
NtRp462
(dp463
g62
(dp464
g70
I3
ssg71
g458
sg64
(lp465
S''
asbasbasbasbasbasbasbag57
(g73
g59
NtRp466
(dp467
g62
(dp468
sg71
g268
sg64
(lp469
g57
(g78
g59
NtRp470
(dp471
g62
(dp472
g82
g83
ssg71
g466
sg64
(lp473
S'session_id_funkload'
p474
asbag57
(g78
g59
NtRp475
(dp476
g62
(dp477
g89
g90
ssg71
g466
sg64
(lp478
S':'
asbag57
(g78
g59
NtRp479
(dp480
g62
(dp481
sg71
g466
sg64
(lp482
g57
(g58
g59
NtRp483
(dp484
g62
(dp485
g70
I4
ssg71
g479
sg64
(lp486
S'10.1.33.107-36ba3c88-7bcb-4a0e-bb0a-8936efb689ab'
p487
ag57
(g66
g59
NtRp488
(dp489
g62
(dp490
g70
I3
ssg71
Nsg64
(lp491
g57
(g73
g59
NtRp492
(dp493
g62
(dp494
sg71
g488
sg64
(lp495
g57
(g78
g59
NtRp496
(dp497
g62
(dp498
g82
g83
ssg71
g492
sg64
(lp499
g306
asbag57
(g78
g59
NtRp500
(dp501
g62
(dp502
g89
g90
ssg71
g492
sg64
(lp503
S':'
asbag57
(g78
g59
NtRp504
(dp505
g62
(dp506
sg71
g492
sg64
(lp507
g57
(g58
g59
NtRp508
(dp509
g62
(dp510
g70
I3
ssg71
g504
sg64
(lp511
S''
asbasbasbag57
(g73
g59
NtRp512
(dp513
g62
(dp514
sg71
g488
sg64
(lp515
g57
(g78
g59
NtRp516
(dp517
g62
(dp518
g82
g83
ssg71
g512
sg64
(lp519
g327
asbag57
(g78
g59
NtRp520
(dp521
g62
(dp522
g89
g90
ssg71
g512
sg64
(lp523
S':'
asbag57
(g78
g59
NtRp524
(dp525
g62
(dp526
sg71
g512
sg64
(lp527
g57
(g58
g59
NtRp528
(dp529
g62
(dp530
g70
I3
ssg71
g524
sg64
(lp531
S''
asbasbasbag57
(g73
g59
NtRp532
(dp533
g62
(dp534
sg71
g488
sg64
(lp535
g57
(g78
g59
NtRp536
(dp537
g62
(dp538
g82
g83
ssg71
g532
sg64
(lp539
g348
asbag57
(g78
g59
NtRp540
(dp541
g62
(dp542
g89
g90
ssg71
g532
sg64
(lp543
S':'
asbag57
(g78
g59
NtRp544
(dp545
g62
(dp546
sg71
g532
sg64
(lp547
g57
(g58
g59
NtRp548
(dp549
g62
(dp550
g70
I3
ssg71
g544
sg64
(lp551
S''
asbasbasbag57
(g73
g59
NtRp552
(dp553
g62
(dp554
sg71
g488
sg64
(lp555
g57
(g78
g59
NtRp556
(dp557
g62
(dp558
g82
g83
ssg71
g552
sg64
(lp559
g369
asbag57
(g78
g59
NtRp560
(dp561
g62
(dp562
g89
g90
ssg71
g552
sg64
(lp563
S':'
asbag57
(g78
g59
NtRp564
(dp565
g62
(dp566
sg71
g552
sg64
(lp567
g57
(g58
g59
NtRp568
(dp569
g62
(dp570
g70
I3
ssg71
g564
sg64
(lp571
S''
asbasbasbag57
(g73
g59
NtRp572
(dp573
g62
(dp574
sg71
g488
sg64
(lp575
g57
(g78
g59
NtRp576
(dp577
g62
(dp578
g82
g83
ssg71
g572
sg64
(lp579
g390
asbag57
(g78
g59
NtRp580
(dp581
g62
(dp582
g89
g90
ssg71
g572
sg64
(lp583
S':'
asbag57
(g78
g59
NtRp584
(dp585
g62
(dp586
sg71
g572
sg64
(lp587
g57
(g58
g59
NtRp588
(dp589
g62
(dp590
g70
I3
ssg71
g584
sg64
(lp591
S''
asbasbasbag57
(g73
g59
NtRp592
(dp593
g62
(dp594
sg71
g488
sg64
(lp595
g57
(g78
g59
NtRp596
(dp597
g62
(dp598
g82
g83
ssg71
g592
sg64
(lp599
g411
asbag57
(g78
g59
NtRp600
(dp601
g62
(dp602
g89
g90
ssg71
g592
sg64
(lp603
S':'
asbag57
(g78
g59
NtRp604
(dp605
g62
(dp606
sg71
g592
sg64
(lp607
g57
(g58
g59
NtRp608
(dp609
g62
(dp610
g70
I3
ssg71
g604
sg64
(lp611
S''
asbasbasbag57
(g73
g59
NtRp612
(dp613
g62
(dp614
sg71
g488
sg64
(lp615
g57
(g78
g59
NtRp616
(dp617
g62
(dp618
g82
g83
ssg71
g612
sg64
(lp619
g432
asbag57
(g78
g59
NtRp620
(dp621
g62
(dp622
g89
g90
ssg71
g612
sg64
(lp623
S':'
asbag57
(g78
g59
NtRp624
(dp625
g62
(dp626
sg71
g612
sg64
(lp627
g57
(g58
g59
NtRp628
(dp629
g62
(dp630
g70
I3
ssg71
g624
sg64
(lp631
S''
asbasbasbag57
(g73
g59
NtRp632
(dp633
g62
(dp634
sg71
g488
sg64
(lp635
g57
(g78
g59
NtRp636
(dp637
g62
(dp638
g82
g83
ssg71
g632
sg64
(lp639
g453
asbag57
(g78
g59
NtRp640
(dp641
g62
(dp642
g89
g90
ssg71
g632
sg64
(lp643
S':'
asbag57
(g78
g59
NtRp644
(dp645
g62
(dp646
sg71
g632
sg64
(lp647
g57
(g58
g59
NtRp648
(dp649
g62
(dp650
g70
I3
ssg71
g644
sg64
(lp651
S''
asbasbasbasbasbasbasbag57
(g73
g59
NtRp652
(dp653
g62
(dp654
sg71
g268
sg64
(lp655
g57
(g78
g59
NtRp656
(dp657
g62
(dp658
g82
g83
ssg71
g652
sg64
(lp659
S'session_id_welcome'
p660
asbag57
(g78
g59
NtRp661
(dp662
g62
(dp663
g89
g90
ssg71
g652
sg64
(lp664
S':'
asbag57
(g78
g59
NtRp665
(dp666
g62
(dp667
sg71
g652
sg64
(lp668
g57
(g58
g59
NtRp669
(dp670
g62
(dp671
g70
I4
ssg71
g665
sg64
(lp672
S'10.1.33.107-c50187d4-7446-40e0-9eea-8071c640ac0b'
p673
ag57
(g66
g59
NtRp674
(dp675
g62
(dp676
g70
I3
ssg71
Nsg64
(lp677
g57
(g73
g59
NtRp678
(dp679
g62
(dp680
sg71
g674
sg64
(lp681
g57
(g78
g59
NtRp682
(dp683
g62
(dp684
g82
g83
ssg71
g678
sg64
(lp685
g306
asbag57
(g78
g59
NtRp686
(dp687
g62
(dp688
g89
g90
ssg71
g678
sg64
(lp689
S':'
asbag57
(g78
g59
NtRp690
(dp691
g62
(dp692
sg71
g678
sg64
(lp693
g57
(g58
g59
NtRp694
(dp695
g62
(dp696
g70
I3
ssg71
g690
sg64
(lp697
S''
asbasbasbag57
(g73
g59
NtRp698
(dp699
g62
(dp700
sg71
g674
sg64
(lp701
g57
(g78
g59
NtRp702
(dp703
g62
(dp704
g82
g83
ssg71
g698
sg64
(lp705
g327
asbag57
(g78
g59
NtRp706
(dp707
g62
(dp708
g89
g90
ssg71
g698
sg64
(lp709
S':'
asbag57
(g78
g59
NtRp710
(dp711
g62
(dp712
sg71
g698
sg64
(lp713
g57
(g58
g59
NtRp714
(dp715
g62
(dp716
g70
I3
ssg71
g710
sg64
(lp717
S''
asbasbasbag57
(g73
g59
NtRp718
(dp719
g62
(dp720
sg71
g674
sg64
(lp721
g57
(g78
g59
NtRp722
(dp723
g62
(dp724
g82
g83
ssg71
g718
sg64
(lp725
g348
asbag57
(g78
g59
NtRp726
(dp727
g62
(dp728
g89
g90
ssg71
g718
sg64
(lp729
S':'
asbag57
(g78
g59
NtRp730
(dp731
g62
(dp732
sg71
g718
sg64
(lp733
g57
(g58
g59
NtRp734
(dp735
g62
(dp736
g70
I3
ssg71
g730
sg64
(lp737
S''
asbasbasbag57
(g73
g59
NtRp738
(dp739
g62
(dp740
sg71
g674
sg64
(lp741
g57
(g78
g59
NtRp742
(dp743
g62
(dp744
g82
g83
ssg71
g738
sg64
(lp745
g369
asbag57
(g78
g59
NtRp746
(dp747
g62
(dp748
g89
g90
ssg71
g738
sg64
(lp749
S':'
asbag57
(g78
g59
NtRp750
(dp751
g62
(dp752
sg71
g738
sg64
(lp753
g57
(g58
g59
NtRp754
(dp755
g62
(dp756
g70
I3
ssg71
g750
sg64
(lp757
S''
asbasbasbag57
(g73
g59
NtRp758
(dp759
g62
(dp760
sg71
g674
sg64
(lp761
g57
(g78
g59
NtRp762
(dp763
g62
(dp764
g82
g83
ssg71
g758
sg64
(lp765
g390
asbag57
(g78
g59
NtRp766
(dp767
g62
(dp768
g89
g90
ssg71
g758
sg64
(lp769
S':'
asbag57
(g78
g59
NtRp770
(dp771
g62
(dp772
sg71
g758
sg64
(lp773
g57
(g58
g59
NtRp774
(dp775
g62
(dp776
g70
I3
ssg71
g770
sg64
(lp777
S''
asbasbasbag57
(g73
g59
NtRp778
(dp779
g62
(dp780
sg71
g674
sg64
(lp781
g57
(g78
g59
NtRp782
(dp783
g62
(dp784
g82
g83
ssg71
g778
sg64
(lp785
g411
asbag57
(g78
g59
NtRp786
(dp787
g62
(dp788
g89
g90
ssg71
g778
sg64
(lp789
S':'
asbag57
(g78
g59
NtRp790
(dp791
g62
(dp792
sg71
g778
sg64
(lp793
g57
(g58
g59
NtRp794
(dp795
g62
(dp796
g70
I3
ssg71
g790
sg64
(lp797
S''
asbasbasbag57
(g73
g59
NtRp798
(dp799
g62
(dp800
sg71
g674
sg64
(lp801
g57
(g78
g59
NtRp802
(dp803
g62
(dp804
g82
g83
ssg71
g798
sg64
(lp805
g432
asbag57
(g78
g59
NtRp806
(dp807
g62
(dp808
g89
g90
ssg71
g798
sg64
(lp809
S':'
asbag57
(g78
g59
NtRp810
(dp811
g62
(dp812
sg71
g798
sg64
(lp813
g57
(g58
g59
NtRp814
(dp815
g62
(dp816
g70
I3
ssg71
g810
sg64
(lp817
S''
asbasbasbag57
(g73
g59
NtRp818
(dp819
g62
(dp820
sg71
g674
sg64
(lp821
g57
(g78
g59
NtRp822
(dp823
g62
(dp824
g82
g83
ssg71
g818
sg64
(lp825
g453
asbag57
(g78
g59
NtRp826
(dp827
g62
(dp828
g89
g90
ssg71
g818
sg64
(lp829
S':'
asbag57
(g78
g59
NtRp830
(dp831
g62
(dp832
sg71
g818
sg64
(lp833
g57
(g58
g59
NtRp834
(dp835
g62
(dp836
g70
I3
ssg71
g830
sg64
(lp837
S''
asbasbasbasbasbasbasbasbasbasbasbag57
(g73
g59
NtRp838
(dp839
g62
(dp840
sg71
g67
sg64
(lp841
g57
(g78
g59
NtRp842
(dp843
g62
(dp844
g82
g83
ssg71
g838
sg64
(lp845
S'env'
p846
asbag57
(g78
g59
NtRp847
(dp848
g62
(dp849
g89
g90
ssg71
g838
sg64
(lp850
S':'
asbag57
(g78
g59
NtRp851
(dp852
g62
(dp853
sg71
g838
sg64
(lp854
g57
(g58
g59
NtRp855
(dp856
g62
(dp857
g70
I5
ssg71
g851
sg64
(lp858
g57
(g66
g59
NtRp859
(dp860
g62
(dp861
g70
I4
ssg71
Nsg64
(lp862
g57
(g73
g59
NtRp863
(dp864
g62
(dp865
sg71
g859
sg64
(lp866
g57
(g78
g59
NtRp867
(dp868
g62
(dp869
g82
g83
ssg71
g863
sg64
(lp870
S'app_folders'
p871
asbag57
(g78
g59
NtRp872
(dp873
g62
(dp874
g89
g90
ssg71
g863
sg64
(lp875
S':'
asbag57
(g78
g59
NtRp876
(dp877
g62
(dp878
sg71
g863
sg64
(lp879
g57
(g58
g59
NtRp880
(dp881
g62
(dp882
g70
I4
ssg71
g876
sg64
(lp883
S"set(['/home/mayank/Desktop/web2pyAdmin/web2py/web2py/applications/welcome/', '/home/mayank/Desktop/web2pyAdmin/web2py/web2py/applications/admin/', '/home/mayank/Desktop/web2pyAdmin/web2py/web2py/applications/FunkLoad/'])"
p884
asbasbasbag57
(g73
g59
NtRp885
(dp886
g62
(dp887
sg71
g859
sg64
(lp888
g57
(g78
g59
NtRp889
(dp890
g62
(dp891
g82
g83
ssg71
g885
sg64
(lp892
S'applications_parent'
p893
asbag57
(g78
g59
NtRp894
(dp895
g62
(dp896
g89
g90
ssg71
g885
sg64
(lp897
S':'
asbag57
(g78
g59
NtRp898
(dp899
g62
(dp900
sg71
g885
sg64
(lp901
g57
(g58
g59
NtRp902
(dp903
g62
(dp904
g70
I4
ssg71
g898
sg64
(lp905
S'/home/mayank/Desktop/web2pyAdmin/web2py/web2py'
p906
asbasbasbag57
(g73
g59
NtRp907
(dp908
g62
(dp909
sg71
g859
sg64
(lp910
g57
(g78
g59
NtRp911
(dp912
g62
(dp913
g82
g83
ssg71
g907
sg64
(lp914
S'cmd_args'
p915
asbag57
(g78
g59
NtRp916
(dp917
g62
(dp918
g89
g90
ssg71
g907
sg64
(lp919
S':'
asbag57
(g78
g59
NtRp920
(dp921
g62
(dp922
sg71
g907
sg64
(lp923
g57
(g58
g59
NtRp924
(dp925
g62
(dp926
g70
I4
ssg71
g920
sg64
(lp927
g57
(g66
g59
NtRp928
(dp929
g62
(dp930
g70
I3
ssg71
Nsg64
(lp931
sbasbasbasbag57
(g73
g59
NtRp932
(dp933
g62
(dp934
sg71
g859
sg64
(lp935
g57
(g78
g59
NtRp936
(dp937
g62
(dp938
g82
g83
ssg71
g932
sg64
(lp939
S'cmd_options'
p940
asbag57
(g78
g59
NtRp941
(dp942
g62
(dp943
g89
g90
ssg71
g932
sg64
(lp944
S':'
asbag57
(g78
g59
NtRp945
(dp946
g62
(dp947
sg71
g932
sg64
(lp948
g57
(g58
g59
NtRp949
(dp950
g62
(dp951
g70
I4
ssg71
g945
sg64
(lp952
S"<Values at 0x2bfd9e0: {'verbose': False, 'ip': '10.1.33.107', 'with_scheduler': False, 'ips': ['127.0.1.1', '10.1.33.121'], 'shutdown_timeout': 5, 'taskbar': False, 'port': 8000, 'maxthreads': None, 'softcron': False, 'server_name': 'mayank', 'bpython': False, 'nogui': False, 'nocron': False, 'extcron': False, 'run_system_tests': False, 'test': None, 'folder': '/home/mayank/Desktop/web2pyAdmin/web2py/web2py', 'config': '', 'import_models': False, 'winservice': '', 'shell': None, 'run': '', 'log_filename': 'httpserver.log', 'debuglevel': 30, 'args': [''], 'socket_timeout': 5, 'ssl_ca_certificate': None, 'scheduler': None, 'profiler_filename': None, 'ssl_private_key': '', 'scheduler_groups': None, 'password': '<ask>', 'request_queue_size': 5, 'ssl_certificate': '', 'cronjob': False, 'numthreads': None, 'quiet': False, 'interfaces': None, 'minthreads': None, 'timeout': 10, 'plain': False, 'nobanner': False, 'pid_filename': 'httpserver.pid'}>"
p953
asbasbasbag57
(g73
g59
NtRp954
(dp955
g62
(dp956
sg71
g859
sg64
(lp957
g57
(g78
g59
NtRp958
(dp959
g62
(dp960
g82
g83
ssg71
g954
sg64
(lp961
S'db_sessions'
p962
asbag57
(g78
g59
NtRp963
(dp964
g62
(dp965
g89
g90
ssg71
g954
sg64
(lp966
S':'
asbag57
(g78
g59
NtRp967
(dp968
g62
(dp969
sg71
g954
sg64
(lp970
g57
(g58
g59
NtRp971
(dp972
g62
(dp973
g70
I4
ssg71
g967
sg64
(lp974
S'set([])'
p975
asbasbasbag57
(g73
g59
NtRp976
(dp977
g62
(dp978
sg71
g859
sg64
(lp979
g57
(g78
g59
NtRp980
(dp981
g62
(dp982
g82
g83
ssg71
g976
sg64
(lp983
S'debugging'
p984
asbag57
(g78
g59
NtRp985
(dp986
g62
(dp987
g89
g90
ssg71
g976
sg64
(lp988
S':'
asbag57
(g78
g59
NtRp989
(dp990
g62
(dp991
sg71
g976
sg64
(lp992
g57
(g58
g59
NtRp993
(dp994
g62
(dp995
g70
I4
ssg71
g989
sg64
(lp996
g100
asbasbasbag57
(g73
g59
NtRp997
(dp998
g62
(dp999
sg71
g859
sg64
(lp1000
g57
(g78
g59
NtRp1001
(dp1002
g62
(dp1003
g82
g83
ssg71
g997
sg64
(lp1004
S'gluon_parent'
p1005
asbag57
(g78
g59
NtRp1006
(dp1007
g62
(dp1008
g89
g90
ssg71
g997
sg64
(lp1009
S':'
asbag57
(g78
g59
NtRp1010
(dp1011
g62
(dp1012
sg71
g997
sg64
(lp1013
g57
(g58
g59
NtRp1014
(dp1015
g62
(dp1016
g70
I4
ssg71
g1010
sg64
(lp1017
S'/home/mayank/Desktop/web2pyAdmin/web2py/web2py'
p1018
asbasbasbag57
(g73
g59
NtRp1019
(dp1020
g62
(dp1021
sg71
g859
sg64
(lp1022
g57
(g78
g59
NtRp1023
(dp1024
g62
(dp1025
g82
g83
ssg71
g1019
sg64
(lp1026
S'http_accept'
p1027
asbag57
(g78
g59
NtRp1028
(dp1029
g62
(dp1030
g89
g90
ssg71
g1019
sg64
(lp1031
S':'
asbag57
(g78
g59
NtRp1032
(dp1033
g62
(dp1034
sg71
g1019
sg64
(lp1035
g57
(g58
g59
NtRp1036
(dp1037
g62
(dp1038
g70
I4
ssg71
g1032
sg64
(lp1039
S'text/html,application/xhtml+xml,application/xml;q=0.9,image/webp,*/*;q=0.8'
p1040
asbasbasbag57
(g73
g59
NtRp1041
(dp1042
g62
(dp1043
sg71
g859
sg64
(lp1044
g57
(g78
g59
NtRp1045
(dp1046
g62
(dp1047
g82
g83
ssg71
g1041
sg64
(lp1048
S'http_accept_encoding'
p1049
asbag57
(g78
g59
NtRp1050
(dp1051
g62
(dp1052
g89
g90
ssg71
g1041
sg64
(lp1053
S':'
asbag57
(g78
g59
NtRp1054
(dp1055
g62
(dp1056
sg71
g1041
sg64
(lp1057
g57
(g58
g59
NtRp1058
(dp1059
g62
(dp1060
g70
I4
ssg71
g1054
sg64
(lp1061
S'gzip,deflate,sdch'
p1062
asbasbasbag57
(g73
g59
NtRp1063
(dp1064
g62
(dp1065
sg71
g859
sg64
(lp1066
g57
(g78
g59
NtRp1067
(dp1068
g62
(dp1069
g82
g83
ssg71
g1063
sg64
(lp1070
S'http_accept_language'
p1071
asbag57
(g78
g59
NtRp1072
(dp1073
g62
(dp1074
g89
g90
ssg71
g1063
sg64
(lp1075
S':'
asbag57
(g78
g59
NtRp1076
(dp1077
g62
(dp1078
sg71
g1063
sg64
(lp1079
g57
(g58
g59
NtRp1080
(dp1081
g62
(dp1082
g70
I4
ssg71
g1076
sg64
(lp1083
S'en-US,en;q=0.8'
p1084
asbasbasbag57
(g73
g59
NtRp1085
(dp1086
g62
(dp1087
sg71
g859
sg64
(lp1088
g57
(g78
g59
NtRp1089
(dp1090
g62
(dp1091
g82
g83
ssg71
g1085
sg64
(lp1092
S'http_cache_control'
p1093
asbag57
(g78
g59
NtRp1094
(dp1095
g62
(dp1096
g89
g90
ssg71
g1085
sg64
(lp1097
S':'
asbag57
(g78
g59
NtRp1098
(dp1099
g62
(dp1100
sg71
g1085
sg64
(lp1101
g57
(g58
g59
NtRp1102
(dp1103
g62
(dp1104
g70
I4
ssg71
g1098
sg64
(lp1105
S'no-cache'
p1106
asbasbasbag57
(g73
g59
NtRp1107
(dp1108
g62
(dp1109
sg71
g859
sg64
(lp1110
g57
(g78
g59
NtRp1111
(dp1112
g62
(dp1113
g82
g83
ssg71
g1107
sg64
(lp1114
S'http_connection'
p1115
asbag57
(g78
g59
NtRp1116
(dp1117
g62
(dp1118
g89
g90
ssg71
g1107
sg64
(lp1119
S':'
asbag57
(g78
g59
NtRp1120
(dp1121
g62
(dp1122
sg71
g1107
sg64
(lp1123
g57
(g58
g59
NtRp1124
(dp1125
g62
(dp1126
g70
I4
ssg71
g1120
sg64
(lp1127
S'keep-alive'
p1128
asbasbasbag57
(g73
g59
NtRp1129
(dp1130
g62
(dp1131
sg71
g859
sg64
(lp1132
g57
(g78
g59
NtRp1133
(dp1134
g62
(dp1135
g82
g83
ssg71
g1129
sg64
(lp1136
S'http_cookie'
p1137
asbag57
(g78
g59
NtRp1138
(dp1139
g62
(dp1140
g89
g90
ssg71
g1129
sg64
(lp1141
S':'
asbag57
(g78
g59
NtRp1142
(dp1143
g62
(dp1144
sg71
g1129
sg64
(lp1145
g57
(g58
g59
NtRp1146
(dp1147
g62
(dp1148
g70
I4
ssg71
g1142
sg64
(lp1149
S'session_id_welcome=10.1.33.107-c50187d4-7446-40e0-9eea-8071c640ac0b; session_id_funkload=10.1.33.107-36ba3c88-7bcb-4a0e-bb0a-8936efb689ab; session_id_admin=10.1.33.107-cc833ea9-972a-468c-9599-25843d70bea7'
p1150
asbasbasbag57
(g73
g59
NtRp1151
(dp1152
g62
(dp1153
sg71
g859
sg64
(lp1154
g57
(g78
g59
NtRp1155
(dp1156
g62
(dp1157
g82
g83
ssg71
g1151
sg64
(lp1158
S'http_host'
p1159
asbag57
(g78
g59
NtRp1160
(dp1161
g62
(dp1162
g89
g90
ssg71
g1151
sg64
(lp1163
S':'
asbag57
(g78
g59
NtRp1164
(dp1165
g62
(dp1166
sg71
g1151
sg64
(lp1167
g57
(g58
g59
NtRp1168
(dp1169
g62
(dp1170
g70
I4
ssg71
g1164
sg64
(lp1171
S'10.1.33.107:8000'
p1172
asbasbasbag57
(g73
g59
NtRp1173
(dp1174
g62
(dp1175
sg71
g859
sg64
(lp1176
g57
(g78
g59
NtRp1177
(dp1178
g62
(dp1179
g82
g83
ssg71
g1173
sg64
(lp1180
S'http_pragma'
p1181
asbag57
(g78
g59
NtRp1182
(dp1183
g62
(dp1184
g89
g90
ssg71
g1173
sg64
(lp1185
S':'
asbag57
(g78
g59
NtRp1186
(dp1187
g62
(dp1188
sg71
g1173
sg64
(lp1189
g57
(g58
g59
NtRp1190
(dp1191
g62
(dp1192
g70
I4
ssg71
g1186
sg64
(lp1193
S'no-cache'
p1194
asbasbasbag57
(g73
g59
NtRp1195
(dp1196
g62
(dp1197
sg71
g859
sg64
(lp1198
g57
(g78
g59
NtRp1199
(dp1200
g62
(dp1201
g82
g83
ssg71
g1195
sg64
(lp1202
S'http_referer'
p1203
asbag57
(g78
g59
NtRp1204
(dp1205
g62
(dp1206
g89
g90
ssg71
g1195
sg64
(lp1207
S':'
asbag57
(g78
g59
NtRp1208
(dp1209
g62
(dp1210
sg71
g1195
sg64
(lp1211
g57
(g58
g59
NtRp1212
(dp1213
g62
(dp1214
g70
I4
ssg71
g1208
sg64
(lp1215
S'http://10.1.33.107:8000/FunkLoad/default/testDetails'
p1216
asbasbasbag57
(g73
g59
NtRp1217
(dp1218
g62
(dp1219
sg71
g859
sg64
(lp1220
g57
(g78
g59
NtRp1221
(dp1222
g62
(dp1223
g82
g83
ssg71
g1217
sg64
(lp1224
S'http_user_agent'
p1225
asbag57
(g78
g59
NtRp1226
(dp1227
g62
(dp1228
g89
g90
ssg71
g1217
sg64
(lp1229
S':'
asbag57
(g78
g59
NtRp1230
(dp1231
g62
(dp1232
sg71
g1217
sg64
(lp1233
g57
(g58
g59
NtRp1234
(dp1235
g62
(dp1236
g70
I4
ssg71
g1230
sg64
(lp1237
S'Mozilla/5.0 (X11; Linux x86_64) AppleWebKit/537.36 (KHTML, like Gecko) Chrome/30.0.1599.114 Safari/537.36'
p1238
asbasbasbag57
(g73
g59
NtRp1239
(dp1240
g62
(dp1241
sg71
g859
sg64
(lp1242
g57
(g78
g59
NtRp1243
(dp1244
g62
(dp1245
g82
g83
ssg71
g1239
sg64
(lp1246
S'is_jython'
p1247
asbag57
(g78
g59
NtRp1248
(dp1249
g62
(dp1250
g89
g90
ssg71
g1239
sg64
(lp1251
S':'
asbag57
(g78
g59
NtRp1252
(dp1253
g62
(dp1254
sg71
g1239
sg64
(lp1255
g57
(g58
g59
NtRp1256
(dp1257
g62
(dp1258
g70
I4
ssg71
g1252
sg64
(lp1259
g100
asbasbasbag57
(g73
g59
NtRp1260
(dp1261
g62
(dp1262
sg71
g859
sg64
(lp1263
g57
(g78
g59
NtRp1264
(dp1265
g62
(dp1266
g82
g83
ssg71
g1260
sg64
(lp1267
S'is_pypy'
p1268
asbag57
(g78
g59
NtRp1269
(dp1270
g62
(dp1271
g89
g90
ssg71
g1260
sg64
(lp1272
S':'
asbag57
(g78
g59
NtRp1273
(dp1274
g62
(dp1275
sg71
g1260
sg64
(lp1276
g57
(g58
g59
NtRp1277
(dp1278
g62
(dp1279
g70
I4
ssg71
g1273
sg64
(lp1280
g100
asbasbasbag57
(g73
g59
NtRp1281
(dp1282
g62
(dp1283
sg71
g859
sg64
(lp1284
g57
(g78
g59
NtRp1285
(dp1286
g62
(dp1287
g82
g83
ssg71
g1281
sg64
(lp1288
S'path_info'
p1289
asbag57
(g78
g59
NtRp1290
(dp1291
g62
(dp1292
g89
g90
ssg71
g1281
sg64
(lp1293
S':'
asbag57
(g78
g59
NtRp1294
(dp1295
g62
(dp1296
sg71
g1281
sg64
(lp1297
g57
(g58
g59
NtRp1298
(dp1299
g62
(dp1300
g70
I4
ssg71
g1294
sg64
(lp1301
S'/FunkLoad/default/test/1'
p1302
asbasbasbag57
(g73
g59
NtRp1303
(dp1304
g62
(dp1305
sg71
g859
sg64
(lp1306
g57
(g78
g59
NtRp1307
(dp1308
g62
(dp1309
g82
g83
ssg71
g1303
sg64
(lp1310
S'query_string'
p1311
asbag57
(g78
g59
NtRp1312
(dp1313
g62
(dp1314
g89
g90
ssg71
g1303
sg64
(lp1315
S':'
asbag57
(g78
g59
NtRp1316
(dp1317
g62
(dp1318
sg71
g1303
sg64
(lp1319
g57
(g58
g59
NtRp1320
(dp1321
g62
(dp1322
g70
I4
ssg71
g1316
sg64
(lp1323
S''
asbasbasbag57
(g73
g59
NtRp1324
(dp1325
g62
(dp1326
sg71
g859
sg64
(lp1327
g57
(g78
g59
NtRp1328
(dp1329
g62
(dp1330
g82
g83
ssg71
g1324
sg64
(lp1331
S'remote_addr'
p1332
asbag57
(g78
g59
NtRp1333
(dp1334
g62
(dp1335
g89
g90
ssg71
g1324
sg64
(lp1336
S':'
asbag57
(g78
g59
NtRp1337
(dp1338
g62
(dp1339
sg71
g1324
sg64
(lp1340
g57
(g58
g59
NtRp1341
(dp1342
g62
(dp1343
g70
I4
ssg71
g1337
sg64
(lp1344
g224
asbasbasbag57
(g73
g59
NtRp1345
(dp1346
g62
(dp1347
sg71
g859
sg64
(lp1348
g57
(g78
g59
NtRp1349
(dp1350
g62
(dp1351
g82
g83
ssg71
g1345
sg64
(lp1352
S'remote_port'
p1353
asbag57
(g78
g59
NtRp1354
(dp1355
g62
(dp1356
g89
g90
ssg71
g1345
sg64
(lp1357
S':'
asbag57
(g78
g59
NtRp1358
(dp1359
g62
(dp1360
sg71
g1345
sg64
(lp1361
g57
(g58
g59
NtRp1362
(dp1363
g62
(dp1364
g70
I4
ssg71
g1358
sg64
(lp1365
S'47968'
p1366
asbasbasbag57
(g73
g59
NtRp1367
(dp1368
g62
(dp1369
sg71
g859
sg64
(lp1370
g57
(g78
g59
NtRp1371
(dp1372
g62
(dp1373
g82
g83
ssg71
g1367
sg64
(lp1374
S'request_method'
p1375
asbag57
(g78
g59
NtRp1376
(dp1377
g62
(dp1378
g89
g90
ssg71
g1367
sg64
(lp1379
S':'
asbag57
(g78
g59
NtRp1380
(dp1381
g62
(dp1382
sg71
g1367
sg64
(lp1383
g57
(g58
g59
NtRp1384
(dp1385
g62
(dp1386
g70
I4
ssg71
g1380
sg64
(lp1387
S'GET'
p1388
asbasbasbag57
(g73
g59
NtRp1389
(dp1390
g62
(dp1391
sg71
g859
sg64
(lp1392
g57
(g78
g59
NtRp1393
(dp1394
g62
(dp1395
g82
g83
ssg71
g1389
sg64
(lp1396
S'request_uri'
p1397
asbag57
(g78
g59
NtRp1398
(dp1399
g62
(dp1400
g89
g90
ssg71
g1389
sg64
(lp1401
S':'
asbag57
(g78
g59
NtRp1402
(dp1403
g62
(dp1404
sg71
g1389
sg64
(lp1405
g57
(g58
g59
NtRp1406
(dp1407
g62
(dp1408
g70
I4
ssg71
g1402
sg64
(lp1409
g1302
asbasbasbag57
(g73
g59
NtRp1410
(dp1411
g62
(dp1412
sg71
g859
sg64
(lp1413
g57
(g78
g59
NtRp1414
(dp1415
g62
(dp1416
g82
g83
ssg71
g1410
sg64
(lp1417
S'script_name'
p1418
asbag57
(g78
g59
NtRp1419
(dp1420
g62
(dp1421
g89
g90
ssg71
g1410
sg64
(lp1422
S':'
asbag57
(g78
g59
NtRp1423
(dp1424
g62
(dp1425
sg71
g1410
sg64
(lp1426
g57
(g58
g59
NtRp1427
(dp1428
g62
(dp1429
g70
I4
ssg71
g1423
sg64
(lp1430
S''
asbasbasbag57
(g73
g59
NtRp1431
(dp1432
g62
(dp1433
sg71
g859
sg64
(lp1434
g57
(g78
g59
NtRp1435
(dp1436
g62
(dp1437
g82
g83
ssg71
g1431
sg64
(lp1438
S'server_name'
p1439
asbag57
(g78
g59
NtRp1440
(dp1441
g62
(dp1442
g89
g90
ssg71
g1431
sg64
(lp1443
S':'
asbag57
(g78
g59
NtRp1444
(dp1445
g62
(dp1446
sg71
g1431
sg64
(lp1447
g57
(g58
g59
NtRp1448
(dp1449
g62
(dp1450
g70
I4
ssg71
g1444
sg64
(lp1451
S'mayank'
p1452
asbasbasbag57
(g73
g59
NtRp1453
(dp1454
g62
(dp1455
sg71
g859
sg64
(lp1456
g57
(g78
g59
NtRp1457
(dp1458
g62
(dp1459
g82
g83
ssg71
g1453
sg64
(lp1460
S'server_port'
p1461
asbag57
(g78
g59
NtRp1462
(dp1463
g62
(dp1464
g89
g90
ssg71
g1453
sg64
(lp1465
S':'
asbag57
(g78
g59
NtRp1466
(dp1467
g62
(dp1468
sg71
g1453
sg64
(lp1469
g57
(g58
g59
NtRp1470
(dp1471
g62
(dp1472
g70
I4
ssg71
g1466
sg64
(lp1473
S'8000'
p1474
asbasbasbag57
(g73
g59
NtRp1475
(dp1476
g62
(dp1477
sg71
g859
sg64
(lp1478
g57
(g78
g59
NtRp1479
(dp1480
g62
(dp1481
g82
g83
ssg71
g1475
sg64
(lp1482
S'server_protocol'
p1483
asbag57
(g78
g59
NtRp1484
(dp1485
g62
(dp1486
g89
g90
ssg71
g1475
sg64
(lp1487
S':'
asbag57
(g78
g59
NtRp1488
(dp1489
g62
(dp1490
sg71
g1475
sg64
(lp1491
g57
(g58
g59
NtRp1492
(dp1493
g62
(dp1494
g70
I4
ssg71
g1488
sg64
(lp1495
S'HTTP/1.1'
p1496
asbasbasbag57
(g73
g59
NtRp1497
(dp1498
g62
(dp1499
sg71
g859
sg64
(lp1500
g57
(g78
g59
NtRp1501
(dp1502
g62
(dp1503
g82
g83
ssg71
g1497
sg64
(lp1504
S'server_software'
p1505
asbag57
(g78
g59
NtRp1506
(dp1507
g62
(dp1508
g89
g90
ssg71
g1497
sg64
(lp1509
S':'
asbag57
(g78
g59
NtRp1510
(dp1511
g62
(dp1512
sg71
g1497
sg64
(lp1513
g57
(g58
g59
NtRp1514
(dp1515
g62
(dp1516
g70
I4
ssg71
g1510
sg64
(lp1517
S'Rocket 1.2.4'
p1518
asbasbasbag57
(g73
g59
NtRp1519
(dp1520
g62
(dp1521
sg71
g859
sg64
(lp1522
g57
(g78
g59
NtRp1523
(dp1524
g62
(dp1525
g82
g83
ssg71
g1519
sg64
(lp1526
S'web2py_crontype'
p1527
asbag57
(g78
g59
NtRp1528
(dp1529
g62
(dp1530
g89
g90
ssg71
g1519
sg64
(lp1531
S':'
asbag57
(g78
g59
NtRp1532
(dp1533
g62
(dp1534
sg71
g1519
sg64
(lp1535
g57
(g58
g59
NtRp1536
(dp1537
g62
(dp1538
g70
I4
ssg71
g1532
sg64
(lp1539
S'hard'
p1540
asbasbasbag57
(g73
g59
NtRp1541
(dp1542
g62
(dp1543
sg71
g859
sg64
(lp1544
g57
(g78
g59
NtRp1545
(dp1546
g62
(dp1547
g82
g83
ssg71
g1541
sg64
(lp1548
S'web2py_path'
p1549
asbag57
(g78
g59
NtRp1550
(dp1551
g62
(dp1552
g89
g90
ssg71
g1541
sg64
(lp1553
S':'
asbag57
(g78
g59
NtRp1554
(dp1555
g62
(dp1556
sg71
g1541
sg64
(lp1557
g57
(g58
g59
NtRp1558
(dp1559
g62
(dp1560
g70
I4
ssg71
g1554
sg64
(lp1561
g906
asbasbasbag57
(g73
g59
NtRp1562
(dp1563
g62
(dp1564
sg71
g859
sg64
(lp1565
g57
(g78
g59
NtRp1566
(dp1567
g62
(dp1568
g82
g83
ssg71
g1562
sg64
(lp1569
S'web2py_version'
p1570
asbag57
(g78
g59
NtRp1571
(dp1572
g62
(dp1573
g89
g90
ssg71
g1562
sg64
(lp1574
S':'
asbag57
(g78
g59
NtRp1575
(dp1576
g62
(dp1577
sg71
g1562
sg64
(lp1578
g57
(g58
g59
NtRp1579
(dp1580
g62
(dp1581
g70
I4
ssg71
g1575
sg64
(lp1582
g57
(g66
g59
NtRp1583
(dp1584
g62
(dp1585
g70
I3
ssg71
Nsg64
(lp1586
g57
(g73
g59
NtRp1587
(dp1588
g62
(dp1589
sg71
g1583
sg64
(lp1590
g57
(g78
g59
NtRp1591
(dp1592
g62
(dp1593
sg71
g1587
sg64
(lp1594
g57
(g58
g59
NtRp1595
(dp1596
g62
(dp1597
g70
I3
ssg71
g1591
sg64
(lp1598
S'2'
asbasbasbag57
(g73
g59
NtRp1599
(dp1600
g62
(dp1601
sg71
g1583
sg64
(lp1602
g57
(g78
g59
NtRp1603
(dp1604
g62
(dp1605
sg71
g1599
sg64
(lp1606
g57
(g58
g59
NtRp1607
(dp1608
g62
(dp1609
g70
I3
ssg71
g1603
sg64
(lp1610
S'0'
asbasbasbag57
(g73
g59
NtRp1611
(dp1612
g62
(dp1613
sg71
g1583
sg64
(lp1614
g57
(g78
g59
NtRp1615
(dp1616
g62
(dp1617
sg71
g1611
sg64
(lp1618
g57
(g58
g59
NtRp1619
(dp1620
g62
(dp1621
g70
I3
ssg71
g1615
sg64
(lp1622
S'8'
asbasbasbag57
(g73
g59
NtRp1623
(dp1624
g62
(dp1625
sg71
g1583
sg64
(lp1626
g57
(g78
g59
NtRp1627
(dp1628
g62
(dp1629
sg71
g1623
sg64
(lp1630
g57
(g58
g59
NtRp1631
(dp1632
g62
(dp1633
g70
I3
ssg71
g1627
sg64
(lp1634
S'datetime.datetime(2012, 9, 7, 3, 47, 51)'
p1635
asbasbasbag57
(g73
g59
NtRp1636
(dp1637
g62
(dp1638
sg71
g1583
sg64
(lp1639
g57
(g78
g59
NtRp1640
(dp1641
g62
(dp1642
sg71
g1636
sg64
(lp1643
g57
(g58
g59
NtRp1644
(dp1645
g62
(dp1646
g70
I3
ssg71
g1640
sg64
(lp1647
S'stable'
p1648
asbasbasbasbasbasbasbag57
(g73
g59
NtRp1649
(dp1650
g62
(dp1651
sg71
g859
sg64
(lp1652
g57
(g78
g59
NtRp1653
(dp1654
g62
(dp1655
g82
g83
ssg71
g1649
sg64
(lp1656
S'wsgi_errors'
p1657
asbag57
(g78
g59
NtRp1658
(dp1659
g62
(dp1660
g89
g90
ssg71
g1649
sg64
(lp1661
S':'
asbag57
(g78
g59
NtRp1662
(dp1663
g62
(dp1664
sg71
g1649
sg64
(lp1665
g57
(g58
g59
NtRp1666
(dp1667
g62
(dp1668
g70
I4
ssg71
g1662
sg64
(lp1669
S"<open file '<stderr>', mode 'w' at 0x7f7b39bf91e0>"
p1670
asbasbasbag57
(g73
g59
NtRp1671
(dp1672
g62
(dp1673
sg71
g859
sg64
(lp1674
g57
(g78
g59
NtRp1675
(dp1676
g62
(dp1677
g82
g83
ssg71
g1671
sg64
(lp1678
S'wsgi_file_wrapper'
p1679
asbag57
(g78
g59
NtRp1680
(dp1681
g62
(dp1682
g89
g90
ssg71
g1671
sg64
(lp1683
S':'
asbag57
(g78
g59
NtRp1684
(dp1685
g62
(dp1686
sg71
g1671
sg64
(lp1687
g57
(g58
g59
NtRp1688
(dp1689
g62
(dp1690
g70
I4
ssg71
g1684
sg64
(lp1691
S'<class wsgiref.util.FileWrapper at 0x2756f58>'
p1692
asbasbasbag57
(g73
g59
NtRp1693
(dp1694
g62
(dp1695
sg71
g859
sg64
(lp1696
g57
(g78
g59
NtRp1697
(dp1698
g62
(dp1699
g82
g83
ssg71
g1693
sg64
(lp1700
S'wsgi_input'
p1701
asbag57
(g78
g59
NtRp1702
(dp1703
g62
(dp1704
g89
g90
ssg71
g1693
sg64
(lp1705
S':'
asbag57
(g78
g59
NtRp1706
(dp1707
g62
(dp1708
sg71
g1693
sg64
(lp1709
g57
(g58
g59
NtRp1710
(dp1711
g62
(dp1712
g70
I4
ssg71
g1706
sg64
(lp1713
S'<socket._fileobject object at 0x7f7a643a6b50>'
p1714
asbasbasbag57
(g73
g59
NtRp1715
(dp1716
g62
(dp1717
sg71
g859
sg64
(lp1718
g57
(g78
g59
NtRp1719
(dp1720
g62
(dp1721
g82
g83
ssg71
g1715
sg64
(lp1722
S'wsgi_multiprocess'
p1723
asbag57
(g78
g59
NtRp1724
(dp1725
g62
(dp1726
g89
g90
ssg71
g1715
sg64
(lp1727
S':'
asbag57
(g78
g59
NtRp1728
(dp1729
g62
(dp1730
sg71
g1715
sg64
(lp1731
g57
(g58
g59
NtRp1732
(dp1733
g62
(dp1734
g70
I4
ssg71
g1728
sg64
(lp1735
g100
asbasbasbag57
(g73
g59
NtRp1736
(dp1737
g62
(dp1738
sg71
g859
sg64
(lp1739
g57
(g78
g59
NtRp1740
(dp1741
g62
(dp1742
g82
g83
ssg71
g1736
sg64
(lp1743
S'wsgi_multithread'
p1744
asbag57
(g78
g59
NtRp1745
(dp1746
g62
(dp1747
g89
g90
ssg71
g1736
sg64
(lp1748
S':'
asbag57
(g78
g59
NtRp1749
(dp1750
g62
(dp1751
sg71
g1736
sg64
(lp1752
g57
(g58
g59
NtRp1753
(dp1754
g62
(dp1755
g70
I4
ssg71
g1749
sg64
(lp1756
S'True'
p1757
asbasbasbag57
(g73
g59
NtRp1758
(dp1759
g62
(dp1760
sg71
g859
sg64
(lp1761
g57
(g78
g59
NtRp1762
(dp1763
g62
(dp1764
g82
g83
ssg71
g1758
sg64
(lp1765
S'wsgi_run_once'
p1766
asbag57
(g78
g59
NtRp1767
(dp1768
g62
(dp1769
g89
g90
ssg71
g1758
sg64
(lp1770
S':'
asbag57
(g78
g59
NtRp1771
(dp1772
g62
(dp1773
sg71
g1758
sg64
(lp1774
g57
(g58
g59
NtRp1775
(dp1776
g62
(dp1777
g70
I4
ssg71
g1771
sg64
(lp1778
g100
asbasbasbag57
(g73
g59
NtRp1779
(dp1780
g62
(dp1781
sg71
g859
sg64
(lp1782
g57
(g78
g59
NtRp1783
(dp1784
g62
(dp1785
g82
g83
ssg71
g1779
sg64
(lp1786
S'wsgi_url_scheme'
p1787
asbag57
(g78
g59
NtRp1788
(dp1789
g62
(dp1790
g89
g90
ssg71
g1779
sg64
(lp1791
S':'
asbag57
(g78
g59
NtRp1792
(dp1793
g62
(dp1794
sg71
g1779
sg64
(lp1795
g57
(g58
g59
NtRp1796
(dp1797
g62
(dp1798
g70
I4
ssg71
g1792
sg64
(lp1799
S'http'
p1800
asbasbasbag57
(g73
g59
NtRp1801
(dp1802
g62
(dp1803
sg71
g859
sg64
(lp1804
g57
(g78
g59
NtRp1805
(dp1806
g62
(dp1807
g82
g83
ssg71
g1801
sg64
(lp1808
S'wsgi_version'
p1809
asbag57
(g78
g59
NtRp1810
(dp1811
g62
(dp1812
g89
g90
ssg71
g1801
sg64
(lp1813
S':'
asbag57
(g78
g59
NtRp1814
(dp1815
g62
(dp1816
sg71
g1801
sg64
(lp1817
g57
(g58
g59
NtRp1818
(dp1819
g62
(dp1820
g70
I4
ssg71
g1814
sg64
(lp1821
g57
(g66
g59
NtRp1822
(dp1823
g62
(dp1824
g70
I3
ssg71
Nsg64
(lp1825
g57
(g73
g59
NtRp1826
(dp1827
g62
(dp1828
sg71
g1822
sg64
(lp1829
g57
(g78
g59
NtRp1830
(dp1831
g62
(dp1832
sg71
g1826
sg64
(lp1833
g57
(g58
g59
NtRp1834
(dp1835
g62
(dp1836
g70
I3
ssg71
g1830
sg64
(lp1837
S'1'
asbasbasbag57
(g73
g59
NtRp1838
(dp1839
g62
(dp1840
sg71
g1822
sg64
(lp1841
g57
(g78
g59
NtRp1842
(dp1843
g62
(dp1844
sg71
g1838
sg64
(lp1845
g57
(g58
g59
NtRp1846
(dp1847
g62
(dp1848
g70
I3
ssg71
g1842
sg64
(lp1849
S'0'
asbasbasbasbasbasbasbasbasbasbasbag57
(g73
g59
NtRp1850
(dp1851
g62
(dp1852
sg71
g67
sg64
(lp1853
g57
(g78
g59
NtRp1854
(dp1855
g62
(dp1856
g82
g83
ssg71
g1850
sg64
(lp1857
S'extension'
p1858
asbag57
(g78
g59
NtRp1859
(dp1860
g62
(dp1861
g89
g90
ssg71
g1850
sg64
(lp1862
S':'
asbag57
(g78
g59
NtRp1863
(dp1864
g62
(dp1865
sg71
g1850
sg64
(lp1866
g57
(g58
g59
NtRp1867
(dp1868
g62
(dp1869
g70
I5
ssg71
g1863
sg64
(lp1870
S'html'
p1871
asbasbasbag57
(g73
g59
NtRp1872
(dp1873
g62
(dp1874
sg71
g67
sg64
(lp1875
g57
(g78
g59
NtRp1876
(dp1877
g62
(dp1878
g82
g83
ssg71
g1872
sg64
(lp1879
S'folder'
p1880
asbag57
(g78
g59
NtRp1881
(dp1882
g62
(dp1883
g89
g90
ssg71
g1872
sg64
(lp1884
S':'
asbag57
(g78
g59
NtRp1885
(dp1886
g62
(dp1887
sg71
g1872
sg64
(lp1888
g57
(g58
g59
NtRp1889
(dp1890
g62
(dp1891
g70
I5
ssg71
g1885
sg64
(lp1892
S'/home/mayank/Desktop/web2pyAdmin/web2py/web2py/applications/FunkLoad/'
p1893
asbasbasbag57
(g73
g59
NtRp1894
(dp1895
g62
(dp1896
sg71
g67
sg64
(lp1897
g57
(g78
g59
NtRp1898
(dp1899
g62
(dp1900
g82
g83
ssg71
g1894
sg64
(lp1901
S'function'
p1902
asbag57
(g78
g59
NtRp1903
(dp1904
g62
(dp1905
g89
g90
ssg71
g1894
sg64
(lp1906
S':'
asbag57
(g78
g59
NtRp1907
(dp1908
g62
(dp1909
sg71
g1894
sg64
(lp1910
g57
(g58
g59
NtRp1911
(dp1912
g62
(dp1913
g70
I5
ssg71
g1907
sg64
(lp1914
S'test'
p1915
asbasbasbag57
(g73
g59
NtRp1916
(dp1917
g62
(dp1918
sg71
g67
sg64
(lp1919
g57
(g78
g59
NtRp1920
(dp1921
g62
(dp1922
g82
g83
ssg71
g1916
sg64
(lp1923
S'get_vars'
p1924
asbag57
(g78
g59
NtRp1925
(dp1926
g62
(dp1927
g89
g90
ssg71
g1916
sg64
(lp1928
S':'
asbag57
(g78
g59
NtRp1929
(dp1930
g62
(dp1931
sg71
g1916
sg64
(lp1932
g57
(g58
g59
NtRp1933
(dp1934
g62
(dp1935
g70
I5
ssg71
g1929
sg64
(lp1936
g57
(g66
g59
NtRp1937
(dp1938
g62
(dp1939
g70
I4
ssg71
Nsg64
(lp1940
sbasbasbasbag57
(g73
g59
NtRp1941
(dp1942
g62
(dp1943
sg71
g67
sg64
(lp1944
g57
(g78
g59
NtRp1945
(dp1946
g62
(dp1947
g82
g83
ssg71
g1941
sg64
(lp1948
S'global_settings'
p1949
asbag57
(g78
g59
NtRp1950
(dp1951
g62
(dp1952
g89
g90
ssg71
g1941
sg64
(lp1953
S':'
asbag57
(g78
g59
NtRp1954
(dp1955
g62
(dp1956
sg71
g1941
sg64
(lp1957
g57
(g58
g59
NtRp1958
(dp1959
g62
(dp1960
g70
I5
ssg71
g1954
sg64
(lp1961
g57
(g66
g59
NtRp1962
(dp1963
g62
(dp1964
g70
I4
ssg71
Nsg64
(lp1965
g57
(g73
g59
NtRp1966
(dp1967
g62
(dp1968
sg71
g1962
sg64
(lp1969
g57
(g78
g59
NtRp1970
(dp1971
g62
(dp1972
g82
g83
ssg71
g1966
sg64
(lp1973
g871
asbag57
(g78
g59
NtRp1974
(dp1975
g62
(dp1976
g89
g90
ssg71
g1966
sg64
(lp1977
S':'
asbag57
(g78
g59
NtRp1978
(dp1979
g62
(dp1980
sg71
g1966
sg64
(lp1981
g57
(g58
g59
NtRp1982
(dp1983
g62
(dp1984
g70
I4
ssg71
g1978
sg64
(lp1985
S"set(['/home/mayank/Desktop/web2pyAdmin/web2py/web2py/applications/welcome/', '/home/mayank/Desktop/web2pyAdmin/web2py/web2py/applications/admin/', '/home/mayank/Desktop/web2pyAdmin/web2py/web2py/applications/FunkLoad/'])"
p1986
asbasbasbag57
(g73
g59
NtRp1987
(dp1988
g62
(dp1989
sg71
g1962
sg64
(lp1990
g57
(g78
g59
NtRp1991
(dp1992
g62
(dp1993
g82
g83
ssg71
g1987
sg64
(lp1994
g893
asbag57
(g78
g59
NtRp1995
(dp1996
g62
(dp1997
g89
g90
ssg71
g1987
sg64
(lp1998
S':'
asbag57
(g78
g59
NtRp1999
(dp2000
g62
(dp2001
sg71
g1987
sg64
(lp2002
g57
(g58
g59
NtRp2003
(dp2004
g62
(dp2005
g70
I4
ssg71
g1999
sg64
(lp2006
g906
asbasbasbag57
(g73
g59
NtRp2007
(dp2008
g62
(dp2009
sg71
g1962
sg64
(lp2010
g57
(g78
g59
NtRp2011
(dp2012
g62
(dp2013
g82
g83
ssg71
g2007
sg64
(lp2014
g915
asbag57
(g78
g59
NtRp2015
(dp2016
g62
(dp2017
g89
g90
ssg71
g2007
sg64
(lp2018
S':'
asbag57
(g78
g59
NtRp2019
(dp2020
g62
(dp2021
sg71
g2007
sg64
(lp2022
g57
(g58
g59
NtRp2023
(dp2024
g62
(dp2025
g70
I4
ssg71
g2019
sg64
(lp2026
g57
(g66
g59
NtRp2027
(dp2028
g62
(dp2029
g70
I3
ssg71
Nsg64
(lp2030
sbasbasbasbag57
(g73
g59
NtRp2031
(dp2032
g62
(dp2033
sg71
g1962
sg64
(lp2034
g57
(g78
g59
NtRp2035
(dp2036
g62
(dp2037
g82
g83
ssg71
g2031
sg64
(lp2038
g940
asbag57
(g78
g59
NtRp2039
(dp2040
g62
(dp2041
g89
g90
ssg71
g2031
sg64
(lp2042
S':'
asbag57
(g78
g59
NtRp2043
(dp2044
g62
(dp2045
sg71
g2031
sg64
(lp2046
g57
(g58
g59
NtRp2047
(dp2048
g62
(dp2049
g70
I4
ssg71
g2043
sg64
(lp2050
S"<Values at 0x2bfd9e0: {'verbose': False, 'ip': '10.1.33.107', 'with_scheduler': False, 'ips': ['127.0.1.1', '10.1.33.121'], 'shutdown_timeout': 5, 'taskbar': False, 'port': 8000, 'maxthreads': None, 'softcron': False, 'server_name': 'mayank', 'bpython': False, 'nogui': False, 'nocron': False, 'extcron': False, 'run_system_tests': False, 'test': None, 'folder': '/home/mayank/Desktop/web2pyAdmin/web2py/web2py', 'config': '', 'import_models': False, 'winservice': '', 'shell': None, 'run': '', 'log_filename': 'httpserver.log', 'debuglevel': 30, 'args': [''], 'socket_timeout': 5, 'ssl_ca_certificate': None, 'scheduler': None, 'profiler_filename': None, 'ssl_private_key': '', 'scheduler_groups': None, 'password': '<ask>', 'request_queue_size': 5, 'ssl_certificate': '', 'cronjob': False, 'numthreads': None, 'quiet': False, 'interfaces': None, 'minthreads': None, 'timeout': 10, 'plain': False, 'nobanner': False, 'pid_filename': 'httpserver.pid'}>"
p2051
asbasbasbag57
(g73
g59
NtRp2052
(dp2053
g62
(dp2054
sg71
g1962
sg64
(lp2055
g57
(g78
g59
NtRp2056
(dp2057
g62
(dp2058
g82
g83
ssg71
g2052
sg64
(lp2059
g962
asbag57
(g78
g59
NtRp2060
(dp2061
g62
(dp2062
g89
g90
ssg71
g2052
sg64
(lp2063
S':'
asbag57
(g78
g59
NtRp2064
(dp2065
g62
(dp2066
sg71
g2052
sg64
(lp2067
g57
(g58
g59
NtRp2068
(dp2069
g62
(dp2070
g70
I4
ssg71
g2064
sg64
(lp2071
S'set([])'
p2072
asbasbasbag57
(g73
g59
NtRp2073
(dp2074
g62
(dp2075
sg71
g1962
sg64
(lp2076
g57
(g78
g59
NtRp2077
(dp2078
g62
(dp2079
g82
g83
ssg71
g2073
sg64
(lp2080
g984
asbag57
(g78
g59
NtRp2081
(dp2082
g62
(dp2083
g89
g90
ssg71
g2073
sg64
(lp2084
S':'
asbag57
(g78
g59
NtRp2085
(dp2086
g62
(dp2087
sg71
g2073
sg64
(lp2088
g57
(g58
g59
NtRp2089
(dp2090
g62
(dp2091
g70
I4
ssg71
g2085
sg64
(lp2092
g100
asbasbasbag57
(g73
g59
NtRp2093
(dp2094
g62
(dp2095
sg71
g1962
sg64
(lp2096
g57
(g78
g59
NtRp2097
(dp2098
g62
(dp2099
g82
g83
ssg71
g2093
sg64
(lp2100
g1005
asbag57
(g78
g59
NtRp2101
(dp2102
g62
(dp2103
g89
g90
ssg71
g2093
sg64
(lp2104
S':'
asbag57
(g78
g59
NtRp2105
(dp2106
g62
(dp2107
sg71
g2093
sg64
(lp2108
g57
(g58
g59
NtRp2109
(dp2110
g62
(dp2111
g70
I4
ssg71
g2105
sg64
(lp2112
g1018
asbasbasbag57
(g73
g59
NtRp2113
(dp2114
g62
(dp2115
sg71
g1962
sg64
(lp2116
g57
(g78
g59
NtRp2117
(dp2118
g62
(dp2119
g82
g83
ssg71
g2113
sg64
(lp2120
g1247
asbag57
(g78
g59
NtRp2121
(dp2122
g62
(dp2123
g89
g90
ssg71
g2113
sg64
(lp2124
S':'
asbag57
(g78
g59
NtRp2125
(dp2126
g62
(dp2127
sg71
g2113
sg64
(lp2128
g57
(g58
g59
NtRp2129
(dp2130
g62
(dp2131
g70
I4
ssg71
g2125
sg64
(lp2132
g100
asbasbasbag57
(g73
g59
NtRp2133
(dp2134
g62
(dp2135
sg71
g1962
sg64
(lp2136
g57
(g78
g59
NtRp2137
(dp2138
g62
(dp2139
g82
g83
ssg71
g2133
sg64
(lp2140
g1268
asbag57
(g78
g59
NtRp2141
(dp2142
g62
(dp2143
g89
g90
ssg71
g2133
sg64
(lp2144
S':'
asbag57
(g78
g59
NtRp2145
(dp2146
g62
(dp2147
sg71
g2133
sg64
(lp2148
g57
(g58
g59
NtRp2149
(dp2150
g62
(dp2151
g70
I4
ssg71
g2145
sg64
(lp2152
g100
asbasbasbag57
(g73
g59
NtRp2153
(dp2154
g62
(dp2155
sg71
g1962
sg64
(lp2156
g57
(g78
g59
NtRp2157
(dp2158
g62
(dp2159
g82
g83
ssg71
g2153
sg64
(lp2160
g1527
asbag57
(g78
g59
NtRp2161
(dp2162
g62
(dp2163
g89
g90
ssg71
g2153
sg64
(lp2164
S':'
asbag57
(g78
g59
NtRp2165
(dp2166
g62
(dp2167
sg71
g2153
sg64
(lp2168
g57
(g58
g59
NtRp2169
(dp2170
g62
(dp2171
g70
I4
ssg71
g2165
sg64
(lp2172
g1540
asbasbasbag57
(g73
g59
NtRp2173
(dp2174
g62
(dp2175
sg71
g1962
sg64
(lp2176
g57
(g78
g59
NtRp2177
(dp2178
g62
(dp2179
g82
g83
ssg71
g2173
sg64
(lp2180
g1570
asbag57
(g78
g59
NtRp2181
(dp2182
g62
(dp2183
g89
g90
ssg71
g2173
sg64
(lp2184
S':'
asbag57
(g78
g59
NtRp2185
(dp2186
g62
(dp2187
sg71
g2173
sg64
(lp2188
g57
(g58
g59
NtRp2189
(dp2190
g62
(dp2191
g70
I4
ssg71
g2185
sg64
(lp2192
g57
(g66
g59
NtRp2193
(dp2194
g62
(dp2195
g70
I3
ssg71
Nsg64
(lp2196
g57
(g73
g59
NtRp2197
(dp2198
g62
(dp2199
sg71
g2193
sg64
(lp2200
g57
(g78
g59
NtRp2201
(dp2202
g62
(dp2203
sg71
g2197
sg64
(lp2204
g57
(g58
g59
NtRp2205
(dp2206
g62
(dp2207
g70
I3
ssg71
g2201
sg64
(lp2208
S'2'
asbasbasbag57
(g73
g59
NtRp2209
(dp2210
g62
(dp2211
sg71
g2193
sg64
(lp2212
g57
(g78
g59
NtRp2213
(dp2214
g62
(dp2215
sg71
g2209
sg64
(lp2216
g57
(g58
g59
NtRp2217
(dp2218
g62
(dp2219
g70
I3
ssg71
g2213
sg64
(lp2220
S'0'
asbasbasbag57
(g73
g59
NtRp2221
(dp2222
g62
(dp2223
sg71
g2193
sg64
(lp2224
g57
(g78
g59
NtRp2225
(dp2226
g62
(dp2227
sg71
g2221
sg64
(lp2228
g57
(g58
g59
NtRp2229
(dp2230
g62
(dp2231
g70
I3
ssg71
g2225
sg64
(lp2232
S'8'
asbasbasbag57
(g73
g59
NtRp2233
(dp2234
g62
(dp2235
sg71
g2193
sg64
(lp2236
g57
(g78
g59
NtRp2237
(dp2238
g62
(dp2239
sg71
g2233
sg64
(lp2240
g57
(g58
g59
NtRp2241
(dp2242
g62
(dp2243
g70
I3
ssg71
g2237
sg64
(lp2244
S'datetime.datetime(2012, 9, 7, 3, 47, 51)'
p2245
asbasbasbag57
(g73
g59
NtRp2246
(dp2247
g62
(dp2248
sg71
g2193
sg64
(lp2249
g57
(g78
g59
NtRp2250
(dp2251
g62
(dp2252
sg71
g2246
sg64
(lp2253
g57
(g58
g59
NtRp2254
(dp2255
g62
(dp2256
g70
I3
ssg71
g2250
sg64
(lp2257
g1648
asbasbasbasbasbasbasbasbasbasbasbag57
(g73
g59
NtRp2258
(dp2259
g62
(dp2260
sg71
g67
sg64
(lp2261
g57
(g78
g59
NtRp2262
(dp2263
g62
(dp2264
g82
g83
ssg71
g2258
sg64
(lp2265
S'is_https'
p2266
asbag57
(g78
g59
NtRp2267
(dp2268
g62
(dp2269
g89
g90
ssg71
g2258
sg64
(lp2270
S':'
asbag57
(g78
g59
NtRp2271
(dp2272
g62
(dp2273
sg71
g2258
sg64
(lp2274
g57
(g58
g59
NtRp2275
(dp2276
g62
(dp2277
g70
I5
ssg71
g2271
sg64
(lp2278
g100
asbasbasbag57
(g73
g59
NtRp2279
(dp2280
g62
(dp2281
sg71
g67
sg64
(lp2282
g57
(g78
g59
NtRp2283
(dp2284
g62
(dp2285
g82
g83
ssg71
g2279
sg64
(lp2286
S'is_local'
p2287
asbag57
(g78
g59
NtRp2288
(dp2289
g62
(dp2290
g89
g90
ssg71
g2279
sg64
(lp2291
S':'
asbag57
(g78
g59
NtRp2292
(dp2293
g62
(dp2294
sg71
g2279
sg64
(lp2295
g57
(g58
g59
NtRp2296
(dp2297
g62
(dp2298
g70
I5
ssg71
g2292
sg64
(lp2299
g1757
asbasbasbag57
(g73
g59
NtRp2300
(dp2301
g62
(dp2302
sg71
g67
sg64
(lp2303
g57
(g78
g59
NtRp2304
(dp2305
g62
(dp2306
g82
g83
ssg71
g2300
sg64
(lp2307
S'is_restful'
p2308
asbag57
(g78
g59
NtRp2309
(dp2310
g62
(dp2311
g89
g90
ssg71
g2300
sg64
(lp2312
S':'
asbag57
(g78
g59
NtRp2313
(dp2314
g62
(dp2315
sg71
g2300
sg64
(lp2316
g57
(g58
g59
NtRp2317
(dp2318
g62
(dp2319
g70
I5
ssg71
g2313
sg64
(lp2320
g100
asbasbasbag57
(g73
g59
NtRp2321
(dp2322
g62
(dp2323
sg71
g67
sg64
(lp2324
g57
(g78
g59
NtRp2325
(dp2326
g62
(dp2327
g82
g83
ssg71
g2321
sg64
(lp2328
S'now'
p2329
asbag57
(g78
g59
NtRp2330
(dp2331
g62
(dp2332
g89
g90
ssg71
g2321
sg64
(lp2333
S':'
asbag57
(g78
g59
NtRp2334
(dp2335
g62
(dp2336
sg71
g2321
sg64
(lp2337
g57
(g58
g59
NtRp2338
(dp2339
g62
(dp2340
g70
I5
ssg71
g2334
sg64
(lp2341
S'datetime.datetime(2013, 11, 11, 1, 27, 30, 846604)'
p2342
asbasbasbag57
(g73
g59
NtRp2343
(dp2344
g62
(dp2345
sg71
g67
sg64
(lp2346
g57
(g78
g59
NtRp2347
(dp2348
g62
(dp2349
g82
g83
ssg71
g2343
sg64
(lp2350
S'post_vars'
p2351
asbag57
(g78
g59
NtRp2352
(dp2353
g62
(dp2354
g89
g90
ssg71
g2343
sg64
(lp2355
S':'
asbag57
(g78
g59
NtRp2356
(dp2357
g62
(dp2358
sg71
g2343
sg64
(lp2359
g57
(g58
g59
NtRp2360
(dp2361
g62
(dp2362
g70
I5
ssg71
g2356
sg64
(lp2363
g57
(g66
g59
NtRp2364
(dp2365
g62
(dp2366
g70
I4
ssg71
Nsg64
(lp2367
sbasbasbasbag57
(g73
g59
NtRp2368
(dp2369
g62
(dp2370
sg71
g67
sg64
(lp2371
g57
(g78
g59
NtRp2372
(dp2373
g62
(dp2374
g82
g83
ssg71
g2368
sg64
(lp2375
S'raw_args'
p2376
asbag57
(g78
g59
NtRp2377
(dp2378
g62
(dp2379
g89
g90
ssg71
g2368
sg64
(lp2380
S':'
asbag57
(g78
g59
NtRp2381
(dp2382
g62
(dp2383
sg71
g2368
sg64
(lp2384
g57
(g58
g59
NtRp2385
(dp2386
g62
(dp2387
g70
I5
ssg71
g2381
sg64
(lp2388
S'1'
asbasbasbag57
(g73
g59
NtRp2389
(dp2390
g62
(dp2391
sg71
g67
sg64
(lp2392
g57
(g78
g59
NtRp2393
(dp2394
g62
(dp2395
g82
g83
ssg71
g2389
sg64
(lp2396
S'raw_extension'
p2397
asbag57
(g78
g59
NtRp2398
(dp2399
g62
(dp2400
g89
g90
ssg71
g2389
sg64
(lp2401
S':'
asbag57
(g78
g59
NtRp2402
(dp2403
g62
(dp2404
sg71
g2389
sg64
(lp2405
g57
(g58
g59
NtRp2406
(dp2407
g62
(dp2408
g70
I5
ssg71
g2402
sg64
(lp2409
S'None'
p2410
asbasbasbag57
(g73
g59
NtRp2411
(dp2412
g62
(dp2413
sg71
g67
sg64
(lp2414
g57
(g78
g59
NtRp2415
(dp2416
g62
(dp2417
g82
g83
ssg71
g2411
sg64
(lp2418
S'url'
p2419
asbag57
(g78
g59
NtRp2420
(dp2421
g62
(dp2422
g89
g90
ssg71
g2411
sg64
(lp2423
S':'
asbag57
(g78
g59
NtRp2424
(dp2425
g62
(dp2426
sg71
g2411
sg64
(lp2427
g57
(g58
g59
NtRp2428
(dp2429
g62
(dp2430
g70
I5
ssg71
g2424
sg64
(lp2431
g1302
asbasbasbag57
(g73
g59
NtRp2432
(dp2433
g62
(dp2434
sg71
g67
sg64
(lp2435
g57
(g78
g59
NtRp2436
(dp2437
g62
(dp2438
g82
g83
ssg71
g2432
sg64
(lp2439
S'utcnow'
p2440
asbag57
(g78
g59
NtRp2441
(dp2442
g62
(dp2443
g89
g90
ssg71
g2432
sg64
(lp2444
S':'
asbag57
(g78
g59
NtRp2445
(dp2446
g62
(dp2447
sg71
g2432
sg64
(lp2448
g57
(g58
g59
NtRp2449
(dp2450
g62
(dp2451
g70
I5
ssg71
g2445
sg64
(lp2452
S'datetime.datetime(2013, 11, 10, 19, 57, 30, 846643)'
p2453
asbasbasbag57
(g73
g59
NtRp2454
(dp2455
g62
(dp2456
sg71
g67
sg64
(lp2457
g57
(g78
g59
NtRp2458
(dp2459
g62
(dp2460
g82
g83
ssg71
g2454
sg64
(lp2461
S'uuid'
p2462
asbag57
(g78
g59
NtRp2463
(dp2464
g62
(dp2465
g89
g90
ssg71
g2454
sg64
(lp2466
S':'
asbag57
(g78
g59
NtRp2467
(dp2468
g62
(dp2469
sg71
g2454
sg64
(lp2470
g57
(g58
g59
NtRp2471
(dp2472
g62
(dp2473
g70
I5
ssg71
g2467
sg64
(lp2474
S'FunkLoad/10.1.33.107.2013-11-11.01-27-30.ee63afb8-39e4-4197-992a-c18afd52830b'
p2475
asbasbasbag57
(g73
g59
NtRp2476
(dp2477
g62
(dp2478
sg71
g67
sg64
(lp2479
g57
(g78
g59
NtRp2480
(dp2481
g62
(dp2482
g82
g83
ssg71
g2476
sg64
(lp2483
S'vars'
p2484
asbag57
(g78
g59
NtRp2485
(dp2486
g62
(dp2487
g89
g90
ssg71
g2476
sg64
(lp2488
S':'
asbag57
(g78
g59
NtRp2489
(dp2490
g62
(dp2491
sg71
g2476
sg64
(lp2492
g57
(g58
g59
NtRp2493
(dp2494
g62
(dp2495
g70
I5
ssg71
g2489
sg64
(lp2496
g57
(g66
g59
NtRp2497
(dp2498
g62
(dp2499
g70
I4
ssg71
Nsg64
(lp2500
sbasbasbasbag57
(g73
g59
NtRp2501
(dp2502
g62
(dp2503
sg71
g67
sg64
(lp2504
g57
(g78
g59
NtRp2505
(dp2506
g62
(dp2507
g82
g83
ssg71
g2501
sg64
(lp2508
S'wsgi'
p2509
asbag57
(g78
g59
NtRp2510
(dp2511
g62
(dp2512
g89
g90
ssg71
g2501
sg64
(lp2513
S':'
asbag57
(g78
g59
NtRp2514
(dp2515
g62
(dp2516
sg71
g2501
sg64
(lp2517
g57
(g58
g59
NtRp2518
(dp2519
g62
(dp2520
g70
I5
ssg71
g2514
sg64
(lp2521
g57
(g66
g59
NtRp2522
(dp2523
g62
(dp2524
g70
I4
ssg71
Nsg64
(lp2525
g57
(g73
g59
NtRp2526
(dp2527
g62
(dp2528
sg71
g2522
sg64
(lp2529
g57
(g78
g59
NtRp2530
(dp2531
g62
(dp2532
g82
g83
ssg71
g2526
sg64
(lp2533
S'environ'
p2534
asbag57
(g78
g59
NtRp2535
(dp2536
g62
(dp2537
g89
g90
ssg71
g2526
sg64
(lp2538
S':'
asbag57
(g78
g59
NtRp2539
(dp2540
g62
(dp2541
sg71
g2526
sg64
(lp2542
g57
(g58
g59
NtRp2543
(dp2544
g62
(dp2545
g70
I4
ssg71
g2539
sg64
(lp2546
g57
(g66
g59
NtRp2547
(dp2548
g62
(dp2549
g70
I3
ssg71
Nsg64
(lp2550
g57
(g73
g59
NtRp2551
(dp2552
g62
(dp2553
sg71
g2547
sg64
(lp2554
g57
(g78
g59
NtRp2555
(dp2556
g62
(dp2557
g82
g83
ssg71
g2551
sg64
(lp2558
S'HTTP_ACCEPT'
p2559
asbag57
(g78
g59
NtRp2560
(dp2561
g62
(dp2562
g89
g90
ssg71
g2551
sg64
(lp2563
S':'
asbag57
(g78
g59
NtRp2564
(dp2565
g62
(dp2566
sg71
g2551
sg64
(lp2567
g57
(g58
g59
NtRp2568
(dp2569
g62
(dp2570
g70
I3
ssg71
g2564
sg64
(lp2571
g1040
asbasbasbag57
(g73
g59
NtRp2572
(dp2573
g62
(dp2574
sg71
g2547
sg64
(lp2575
g57
(g78
g59
NtRp2576
(dp2577
g62
(dp2578
g82
g83
ssg71
g2572
sg64
(lp2579
S'HTTP_ACCEPT_ENCODING'
p2580
asbag57
(g78
g59
NtRp2581
(dp2582
g62
(dp2583
g89
g90
ssg71
g2572
sg64
(lp2584
S':'
asbag57
(g78
g59
NtRp2585
(dp2586
g62
(dp2587
sg71
g2572
sg64
(lp2588
g57
(g58
g59
NtRp2589
(dp2590
g62
(dp2591
g70
I3
ssg71
g2585
sg64
(lp2592
g1062
asbasbasbag57
(g73
g59
NtRp2593
(dp2594
g62
(dp2595
sg71
g2547
sg64
(lp2596
g57
(g78
g59
NtRp2597
(dp2598
g62
(dp2599
g82
g83
ssg71
g2593
sg64
(lp2600
S'HTTP_ACCEPT_LANGUAGE'
p2601
asbag57
(g78
g59
NtRp2602
(dp2603
g62
(dp2604
g89
g90
ssg71
g2593
sg64
(lp2605
S':'
asbag57
(g78
g59
NtRp2606
(dp2607
g62
(dp2608
sg71
g2593
sg64
(lp2609
g57
(g58
g59
NtRp2610
(dp2611
g62
(dp2612
g70
I3
ssg71
g2606
sg64
(lp2613
g1084
asbasbasbag57
(g73
g59
NtRp2614
(dp2615
g62
(dp2616
sg71
g2547
sg64
(lp2617
g57
(g78
g59
NtRp2618
(dp2619
g62
(dp2620
g82
g83
ssg71
g2614
sg64
(lp2621
S'HTTP_CACHE_CONTROL'
p2622
asbag57
(g78
g59
NtRp2623
(dp2624
g62
(dp2625
g89
g90
ssg71
g2614
sg64
(lp2626
S':'
asbag57
(g78
g59
NtRp2627
(dp2628
g62
(dp2629
sg71
g2614
sg64
(lp2630
g57
(g58
g59
NtRp2631
(dp2632
g62
(dp2633
g70
I3
ssg71
g2627
sg64
(lp2634
g1106
asbasbasbag57
(g73
g59
NtRp2635
(dp2636
g62
(dp2637
sg71
g2547
sg64
(lp2638
g57
(g78
g59
NtRp2639
(dp2640
g62
(dp2641
g82
g83
ssg71
g2635
sg64
(lp2642
S'HTTP_CONNECTION'
p2643
asbag57
(g78
g59
NtRp2644
(dp2645
g62
(dp2646
g89
g90
ssg71
g2635
sg64
(lp2647
S':'
asbag57
(g78
g59
NtRp2648
(dp2649
g62
(dp2650
sg71
g2635
sg64
(lp2651
g57
(g58
g59
NtRp2652
(dp2653
g62
(dp2654
g70
I3
ssg71
g2648
sg64
(lp2655
g1128
asbasbasbag57
(g73
g59
NtRp2656
(dp2657
g62
(dp2658
sg71
g2547
sg64
(lp2659
g57
(g78
g59
NtRp2660
(dp2661
g62
(dp2662
g82
g83
ssg71
g2656
sg64
(lp2663
S'HTTP_COOKIE'
p2664
asbag57
(g78
g59
NtRp2665
(dp2666
g62
(dp2667
g89
g90
ssg71
g2656
sg64
(lp2668
S':'
asbag57
(g78
g59
NtRp2669
(dp2670
g62
(dp2671
sg71
g2656
sg64
(lp2672
g57
(g58
g59
NtRp2673
(dp2674
g62
(dp2675
g70
I3
ssg71
g2669
sg64
(lp2676
g1150
asbasbasbag57
(g73
g59
NtRp2677
(dp2678
g62
(dp2679
sg71
g2547
sg64
(lp2680
g57
(g78
g59
NtRp2681
(dp2682
g62
(dp2683
g82
g83
ssg71
g2677
sg64
(lp2684
S'HTTP_HOST'
p2685
asbag57
(g78
g59
NtRp2686
(dp2687
g62
(dp2688
g89
g90
ssg71
g2677
sg64
(lp2689
S':'
asbag57
(g78
g59
NtRp2690
(dp2691
g62
(dp2692
sg71
g2677
sg64
(lp2693
g57
(g58
g59
NtRp2694
(dp2695
g62
(dp2696
g70
I3
ssg71
g2690
sg64
(lp2697
g1172
asbasbasbag57
(g73
g59
NtRp2698
(dp2699
g62
(dp2700
sg71
g2547
sg64
(lp2701
g57
(g78
g59
NtRp2702
(dp2703
g62
(dp2704
g82
g83
ssg71
g2698
sg64
(lp2705
S'HTTP_PRAGMA'
p2706
asbag57
(g78
g59
NtRp2707
(dp2708
g62
(dp2709
g89
g90
ssg71
g2698
sg64
(lp2710
S':'
asbag57
(g78
g59
NtRp2711
(dp2712
g62
(dp2713
sg71
g2698
sg64
(lp2714
g57
(g58
g59
NtRp2715
(dp2716
g62
(dp2717
g70
I3
ssg71
g2711
sg64
(lp2718
g1194
asbasbasbag57
(g73
g59
NtRp2719
(dp2720
g62
(dp2721
sg71
g2547
sg64
(lp2722
g57
(g78
g59
NtRp2723
(dp2724
g62
(dp2725
g82
g83
ssg71
g2719
sg64
(lp2726
S'HTTP_REFERER'
p2727
asbag57
(g78
g59
NtRp2728
(dp2729
g62
(dp2730
g89
g90
ssg71
g2719
sg64
(lp2731
S':'
asbag57
(g78
g59
NtRp2732
(dp2733
g62
(dp2734
sg71
g2719
sg64
(lp2735
g57
(g58
g59
NtRp2736
(dp2737
g62
(dp2738
g70
I3
ssg71
g2732
sg64
(lp2739
g1216
asbasbasbag57
(g73
g59
NtRp2740
(dp2741
g62
(dp2742
sg71
g2547
sg64
(lp2743
g57
(g78
g59
NtRp2744
(dp2745
g62
(dp2746
g82
g83
ssg71
g2740
sg64
(lp2747
S'HTTP_USER_AGENT'
p2748
asbag57
(g78
g59
NtRp2749
(dp2750
g62
(dp2751
g89
g90
ssg71
g2740
sg64
(lp2752
S':'
asbag57
(g78
g59
NtRp2753
(dp2754
g62
(dp2755
sg71
g2740
sg64
(lp2756
g57
(g58
g59
NtRp2757
(dp2758
g62
(dp2759
g70
I3
ssg71
g2753
sg64
(lp2760
g1238
asbasbasbag57
(g73
g59
NtRp2761
(dp2762
g62
(dp2763
sg71
g2547
sg64
(lp2764
g57
(g78
g59
NtRp2765
(dp2766
g62
(dp2767
g82
g83
ssg71
g2761
sg64
(lp2768
S'PATH_INFO'
p2769
asbag57
(g78
g59
NtRp2770
(dp2771
g62
(dp2772
g89
g90
ssg71
g2761
sg64
(lp2773
S':'
asbag57
(g78
g59
NtRp2774
(dp2775
g62
(dp2776
sg71
g2761
sg64
(lp2777
g57
(g58
g59
NtRp2778
(dp2779
g62
(dp2780
g70
I3
ssg71
g2774
sg64
(lp2781
g1302
asbasbasbag57
(g73
g59
NtRp2782
(dp2783
g62
(dp2784
sg71
g2547
sg64
(lp2785
g57
(g78
g59
NtRp2786
(dp2787
g62
(dp2788
g82
g83
ssg71
g2782
sg64
(lp2789
S'QUERY_STRING'
p2790
asbag57
(g78
g59
NtRp2791
(dp2792
g62
(dp2793
g89
g90
ssg71
g2782
sg64
(lp2794
S':'
asbag57
(g78
g59
NtRp2795
(dp2796
g62
(dp2797
sg71
g2782
sg64
(lp2798
g57
(g58
g59
NtRp2799
(dp2800
g62
(dp2801
g70
I3
ssg71
g2795
sg64
(lp2802
S''
asbasbasbag57
(g73
g59
NtRp2803
(dp2804
g62
(dp2805
sg71
g2547
sg64
(lp2806
g57
(g78
g59
NtRp2807
(dp2808
g62
(dp2809
g82
g83
ssg71
g2803
sg64
(lp2810
S'REMOTE_ADDR'
p2811
asbag57
(g78
g59
NtRp2812
(dp2813
g62
(dp2814
g89
g90
ssg71
g2803
sg64
(lp2815
S':'
asbag57
(g78
g59
NtRp2816
(dp2817
g62
(dp2818
sg71
g2803
sg64
(lp2819
g57
(g58
g59
NtRp2820
(dp2821
g62
(dp2822
g70
I3
ssg71
g2816
sg64
(lp2823
g224
asbasbasbag57
(g73
g59
NtRp2824
(dp2825
g62
(dp2826
sg71
g2547
sg64
(lp2827
g57
(g78
g59
NtRp2828
(dp2829
g62
(dp2830
g82
g83
ssg71
g2824
sg64
(lp2831
S'REMOTE_PORT'
p2832
asbag57
(g78
g59
NtRp2833
(dp2834
g62
(dp2835
g89
g90
ssg71
g2824
sg64
(lp2836
S':'
asbag57
(g78
g59
NtRp2837
(dp2838
g62
(dp2839
sg71
g2824
sg64
(lp2840
g57
(g58
g59
NtRp2841
(dp2842
g62
(dp2843
g70
I3
ssg71
g2837
sg64
(lp2844
g1366
asbasbasbag57
(g73
g59
NtRp2845
(dp2846
g62
(dp2847
sg71
g2547
sg64
(lp2848
g57
(g78
g59
NtRp2849
(dp2850
g62
(dp2851
g82
g83
ssg71
g2845
sg64
(lp2852
S'REQUEST_METHOD'
p2853
asbag57
(g78
g59
NtRp2854
(dp2855
g62
(dp2856
g89
g90
ssg71
g2845
sg64
(lp2857
S':'
asbag57
(g78
g59
NtRp2858
(dp2859
g62
(dp2860
sg71
g2845
sg64
(lp2861
g57
(g58
g59
NtRp2862
(dp2863
g62
(dp2864
g70
I3
ssg71
g2858
sg64
(lp2865
g1388
asbasbasbag57
(g73
g59
NtRp2866
(dp2867
g62
(dp2868
sg71
g2547
sg64
(lp2869
g57
(g78
g59
NtRp2870
(dp2871
g62
(dp2872
g82
g83
ssg71
g2866
sg64
(lp2873
S'REQUEST_URI'
p2874
asbag57
(g78
g59
NtRp2875
(dp2876
g62
(dp2877
g89
g90
ssg71
g2866
sg64
(lp2878
S':'
asbag57
(g78
g59
NtRp2879
(dp2880
g62
(dp2881
sg71
g2866
sg64
(lp2882
g57
(g58
g59
NtRp2883
(dp2884
g62
(dp2885
g70
I3
ssg71
g2879
sg64
(lp2886
g1302
asbasbasbag57
(g73
g59
NtRp2887
(dp2888
g62
(dp2889
sg71
g2547
sg64
(lp2890
g57
(g78
g59
NtRp2891
(dp2892
g62
(dp2893
g82
g83
ssg71
g2887
sg64
(lp2894
S'SCRIPT_NAME'
p2895
asbag57
(g78
g59
NtRp2896
(dp2897
g62
(dp2898
g89
g90
ssg71
g2887
sg64
(lp2899
S':'
asbag57
(g78
g59
NtRp2900
(dp2901
g62
(dp2902
sg71
g2887
sg64
(lp2903
g57
(g58
g59
NtRp2904
(dp2905
g62
(dp2906
g70
I3
ssg71
g2900
sg64
(lp2907
S''
asbasbasbag57
(g73
g59
NtRp2908
(dp2909
g62
(dp2910
sg71
g2547
sg64
(lp2911
g57
(g78
g59
NtRp2912
(dp2913
g62
(dp2914
g82
g83
ssg71
g2908
sg64
(lp2915
S'SERVER_NAME'
p2916
asbag57
(g78
g59
NtRp2917
(dp2918
g62
(dp2919
g89
g90
ssg71
g2908
sg64
(lp2920
S':'
asbag57
(g78
g59
NtRp2921
(dp2922
g62
(dp2923
sg71
g2908
sg64
(lp2924
g57
(g58
g59
NtRp2925
(dp2926
g62
(dp2927
g70
I3
ssg71
g2921
sg64
(lp2928
g1452
asbasbasbag57
(g73
g59
NtRp2929
(dp2930
g62
(dp2931
sg71
g2547
sg64
(lp2932
g57
(g78
g59
NtRp2933
(dp2934
g62
(dp2935
g82
g83
ssg71
g2929
sg64
(lp2936
S'SERVER_PORT'
p2937
asbag57
(g78
g59
NtRp2938
(dp2939
g62
(dp2940
g89
g90
ssg71
g2929
sg64
(lp2941
S':'
asbag57
(g78
g59
NtRp2942
(dp2943
g62
(dp2944
sg71
g2929
sg64
(lp2945
g57
(g58
g59
NtRp2946
(dp2947
g62
(dp2948
g70
I3
ssg71
g2942
sg64
(lp2949
g1474
asbasbasbag57
(g73
g59
NtRp2950
(dp2951
g62
(dp2952
sg71
g2547
sg64
(lp2953
g57
(g78
g59
NtRp2954
(dp2955
g62
(dp2956
g82
g83
ssg71
g2950
sg64
(lp2957
S'SERVER_PROTOCOL'
p2958
asbag57
(g78
g59
NtRp2959
(dp2960
g62
(dp2961
g89
g90
ssg71
g2950
sg64
(lp2962
S':'
asbag57
(g78
g59
NtRp2963
(dp2964
g62
(dp2965
sg71
g2950
sg64
(lp2966
g57
(g58
g59
NtRp2967
(dp2968
g62
(dp2969
g70
I3
ssg71
g2963
sg64
(lp2970
g1496
asbasbasbag57
(g73
g59
NtRp2971
(dp2972
g62
(dp2973
sg71
g2547
sg64
(lp2974
g57
(g78
g59
NtRp2975
(dp2976
g62
(dp2977
g82
g83
ssg71
g2971
sg64
(lp2978
S'SERVER_SOFTWARE'
p2979
asbag57
(g78
g59
NtRp2980
(dp2981
g62
(dp2982
g89
g90
ssg71
g2971
sg64
(lp2983
S':'
asbag57
(g78
g59
NtRp2984
(dp2985
g62
(dp2986
sg71
g2971
sg64
(lp2987
g57
(g58
g59
NtRp2988
(dp2989
g62
(dp2990
g70
I3
ssg71
g2984
sg64
(lp2991
g1518
asbasbasbag57
(g73
g59
NtRp2992
(dp2993
g62
(dp2994
sg71
g2547
sg64
(lp2995
g57
(g78
g59
NtRp2996
(dp2997
g62
(dp2998
g82
g83
ssg71
g2992
sg64
(lp2999
S'wsgi.errors'
p3000
asbag57
(g78
g59
NtRp3001
(dp3002
g62
(dp3003
g89
g90
ssg71
g2992
sg64
(lp3004
S':'
asbag57
(g78
g59
NtRp3005
(dp3006
g62
(dp3007
sg71
g2992
sg64
(lp3008
g57
(g58
g59
NtRp3009
(dp3010
g62
(dp3011
g70
I3
ssg71
g3005
sg64
(lp3012
S"<open file '<stderr>', mode 'w' at 0x7f7b39bf91e0>"
p3013
asbasbasbag57
(g73
g59
NtRp3014
(dp3015
g62
(dp3016
sg71
g2547
sg64
(lp3017
g57
(g78
g59
NtRp3018
(dp3019
g62
(dp3020
g82
g83
ssg71
g3014
sg64
(lp3021
S'wsgi.file_wrapper'
p3022
asbag57
(g78
g59
NtRp3023
(dp3024
g62
(dp3025
g89
g90
ssg71
g3014
sg64
(lp3026
S':'
asbag57
(g78
g59
NtRp3027
(dp3028
g62
(dp3029
sg71
g3014
sg64
(lp3030
g57
(g58
g59
NtRp3031
(dp3032
g62
(dp3033
g70
I3
ssg71
g3027
sg64
(lp3034
S'<class wsgiref.util.FileWrapper at 0x2756f58>'
p3035
asbasbasbag57
(g73
g59
NtRp3036
(dp3037
g62
(dp3038
sg71
g2547
sg64
(lp3039
g57
(g78
g59
NtRp3040
(dp3041
g62
(dp3042
g82
g83
ssg71
g3036
sg64
(lp3043
S'wsgi.input'
p3044
asbag57
(g78
g59
NtRp3045
(dp3046
g62
(dp3047
g89
g90
ssg71
g3036
sg64
(lp3048
S':'
asbag57
(g78
g59
NtRp3049
(dp3050
g62
(dp3051
sg71
g3036
sg64
(lp3052
g57
(g58
g59
NtRp3053
(dp3054
g62
(dp3055
g70
I3
ssg71
g3049
sg64
(lp3056
S'<cStringIO.StringO object at 0x7f7a6041a9d0>'
p3057
asbasbasbag57
(g73
g59
NtRp3058
(dp3059
g62
(dp3060
sg71
g2547
sg64
(lp3061
g57
(g78
g59
NtRp3062
(dp3063
g62
(dp3064
g82
g83
ssg71
g3058
sg64
(lp3065
S'wsgi.multiprocess'
p3066
asbag57
(g78
g59
NtRp3067
(dp3068
g62
(dp3069
g89
g90
ssg71
g3058
sg64
(lp3070
S':'
asbag57
(g78
g59
NtRp3071
(dp3072
g62
(dp3073
sg71
g3058
sg64
(lp3074
g57
(g58
g59
NtRp3075
(dp3076
g62
(dp3077
g70
I3
ssg71
g3071
sg64
(lp3078
g100
asbasbasbag57
(g73
g59
NtRp3079
(dp3080
g62
(dp3081
sg71
g2547
sg64
(lp3082
g57
(g78
g59
NtRp3083
(dp3084
g62
(dp3085
g82
g83
ssg71
g3079
sg64
(lp3086
S'wsgi.multithread'
p3087
asbag57
(g78
g59
NtRp3088
(dp3089
g62
(dp3090
g89
g90
ssg71
g3079
sg64
(lp3091
S':'
asbag57
(g78
g59
NtRp3092
(dp3093
g62
(dp3094
sg71
g3079
sg64
(lp3095
g57
(g58
g59
NtRp3096
(dp3097
g62
(dp3098
g70
I3
ssg71
g3092
sg64
(lp3099
g1757
asbasbasbag57
(g73
g59
NtRp3100
(dp3101
g62
(dp3102
sg71
g2547
sg64
(lp3103
g57
(g78
g59
NtRp3104
(dp3105
g62
(dp3106
g82
g83
ssg71
g3100
sg64
(lp3107
S'wsgi.run_once'
p3108
asbag57
(g78
g59
NtRp3109
(dp3110
g62
(dp3111
g89
g90
ssg71
g3100
sg64
(lp3112
S':'
asbag57
(g78
g59
NtRp3113
(dp3114
g62
(dp3115
sg71
g3100
sg64
(lp3116
g57
(g58
g59
NtRp3117
(dp3118
g62
(dp3119
g70
I3
ssg71
g3113
sg64
(lp3120
g100
asbasbasbag57
(g73
g59
NtRp3121
(dp3122
g62
(dp3123
sg71
g2547
sg64
(lp3124
g57
(g78
g59
NtRp3125
(dp3126
g62
(dp3127
g82
g83
ssg71
g3121
sg64
(lp3128
S'wsgi.url_scheme'
p3129
asbag57
(g78
g59
NtRp3130
(dp3131
g62
(dp3132
g89
g90
ssg71
g3121
sg64
(lp3133
S':'
asbag57
(g78
g59
NtRp3134
(dp3135
g62
(dp3136
sg71
g3121
sg64
(lp3137
g57
(g58
g59
NtRp3138
(dp3139
g62
(dp3140
g70
I3
ssg71
g3134
sg64
(lp3141
g1800
asbasbasbag57
(g73
g59
NtRp3142
(dp3143
g62
(dp3144
sg71
g2547
sg64
(lp3145
g57
(g78
g59
NtRp3146
(dp3147
g62
(dp3148
g82
g83
ssg71
g3142
sg64
(lp3149
S'wsgi.version'
p3150
asbag57
(g78
g59
NtRp3151
(dp3152
g62
(dp3153
g89
g90
ssg71
g3142
sg64
(lp3154
S':'
asbag57
(g78
g59
NtRp3155
(dp3156
g62
(dp3157
sg71
g3142
sg64
(lp3158
g57
(g58
g59
NtRp3159
(dp3160
g62
(dp3161
g70
I3
ssg71
g3155
sg64
(lp3162
S'1'
asbasbasbasbasbasbasbasbasbasbasbasbasbsS'frames'
p3163
(lp3164
(dp3165
S'file'
p3166
S'/home/mayank/Desktop/web2pyAdmin/web2py/web2py/gluon/restricted.py'
p3167
sS'dump'
p3168
(dp3169
S'environment'
p3170
S"{'A': <class 'gluon.html.A'>, 'Auth': <class 'gluon.tools.Auth'>, 'B': <class 'gluon.html.B'>, 'BEAUTIFY': <class 'gluon.html.BEAUTIFY'>, 'BODY': <class 'gluon.html.BODY'>, 'BR': <class 'gluon.html.BR'>, 'BUTTON': <class 'gluon.html.BUTTON'>, 'CAT': <class 'gluon.html.CAT'>, 'CENTER': <class 'gluon.html.CENTER'>, 'CLEANUP': <class 'gluon.validators.CLEANUP'>, ...}"
p3171
sS'ccode'
p3172
S'<code object <module> at 0x7f7a78261930, file "/...ations/FunkLoad/views/default/test.html", line 1>'
p3173
ssS'lnum'
p3174
I209
sS'lines'
p3175
(dp3176
I204
S'    try:'
p3177
sI205
S'        if type(code) == types.CodeType:'
p3178
sI206
S'            ccode = code'
p3179
sI207
S'        else:'
p3180
sI208
S'            ccode = compile2(code,layer)'
p3181
sI209
S'        exec ccode in environment'
p3182
sI210
S'    except HTTP:'
p3183
sI211
S'        raise'
p3184
sI212
S'    except RestrictedError:'
p3185
sI213
S'        # do not encapsulate (obfuscate) the original RestrictedError'
p3186
ssS'call'
p3187
S'(code=r"response.write(\'<!DOCTYPE html>\\r\\n<!-- pauliris...ript>  \\r\\n</body>\\r\\n</html>\\r\\n\', escape=False)", environment={\'A\': <class \'gluon.html.A\'>, \'Auth\': <class \'gluon.tools.Auth\'>, \'B\': <class \'gluon.html.B\'>, \'BEAUTIFY\': <class \'gluon.html.BEAUTIFY\'>, \'BODY\': <class \'gluon.html.BODY\'>, \'BR\': <class \'gluon.html.BR\'>, \'BUTTON\': <class \'gluon.html.BUTTON\'>, \'CAT\': <class \'gluon.html.CAT\'>, \'CENTER\': <class \'gluon.html.CENTER\'>, \'CLEANUP\': <class \'gluon.validators.CLEANUP\'>, ...}, layer=\'/home/mayank/Desktop/web2pyAdmin/web2py/web2py/applications/FunkLoad/views/default/test.html\')'
p3188
sS'func'
p3189
S'restricted'
p3190
sa(dp3191
g3166
S'/home/mayank/Desktop/web2pyAdmin/web2py/web2py/applications/FunkLoad/views/default/test.html'
p3192
sg3168
(dp3193
S'row'
p3194
S'undefined'
p3195
ssg3174
I119
sg3175
(dp3196
I128
S'response.write(\' <!-- this is default footer -->\\r\\n      <div class="footer-content">\\r\\n\\t<div class="copyright pull-left">\', escape=False)'
p3197
sI129
S"response.write(T('Copyright'))"
p3198
sI110
S'response.write(\'\\n\\t\\t</div>\\n\\t</div>\\n\\t<div class="span10" id="FunctionalTesting" style="display:none">\\n\\t\\t<h3>Functional Result</h3>\\n        <br/>\\n\\t\\t\\t<div class="span5 knobs">\\n                        \\t<div class="knob-wrapper">\\n                            \\t\\t<input type="text" value="\', escape=False)'
p3199
sI111
S'response.write(details.Functional)'
p3200
sI112
S'response.write(\'" class="knob" data-thickness=".3" data-inputColor="#333" data-fgColor="#30a1ec" data-bgColor="#d4ecfd" data-width="150">\\n                            \\t\\t<div class="info">\\n                            \\t\\t</div>\\n                        \\t</div>\\n                        </div>   \\n\\t\\t\\t<div class="span2"> \\n                        \\t<div class="param">\\n                                <span class="line blue"></span>\\n                                <h4>% of Active Urls</h4>\\n                            </div>\\n           </div>\\n                        <!-- table sample -->\\n                        <!-- the script for the toggle all checkboxes from header is located in js/theme.js -->\\n                        <div class="table-products section">\\n                            <div class="row-fluid head">\\n                                <div class="span12">\\n                                    <h4>Tests <small>Status</small></h4>\\n                                </div>\\n                            </div>\\n                            <div class="row-fluid">\\n                                <table class="table table-hover">\\n                                    <thead>\\n                                        <tr>\\n                                            <th class="span3">\\n                                                Test Name\\n                                            </th>\\n                                            <th class="span3">\\n                                                <span class="line"></span>Description\\n                                            </th>\\n                                            <th class="span3">\\n                                                <span class="line"></span>Sanity Status\\n                                            </th>\\n                                            <th class="span3">\\n                                                <span class="line"></span>Functional Status\\n                                            </th>\\n                                            <th class="span3">\\n                                                <span class="line"></span>Stress Status\\n                                            </th>\\n                                        </tr>\\n                                    </thead>\\n                                    \', escape=False)'
p3201
sI113
S'details=[1,2,3]'
p3202
sI114
S"response.write('\\n                                    <tbody>\\n                                        <!-- row -->\\n                                        ', escape=False)"
p3203
sI115
S'for i in details:'
p3204
sI116
S"    response.write('\\n                                        ', escape=False)"
p3205
sI117
S'    print i'
p3206
sI118
S'    response.write(\'\\n                                        <tr>\\n                                            <td>\\n                                                <a href="\', escape=False)'
p3207
sI119
S"    response.write(URL(r = request, f = 'test' ,args=[i.id]))"
p3208
sI120
S'    response.write(\'">\', escape=False)'
p3209
sI121
S'    response.write(i.TestName)'
p3210
sI122
S'    response.write(\'</a>\\n                                            </td>\\n                                            <td class="description">\\n                                                i.Description\\n                                            </td>\\n                                            <td>\\n                                                <span class="label label-success">Complete</span>\\n                                            </td>\\n                                            <td>\\n                                                <span class="label label-info">Inqueue</span>\\n                                            </td>\\n                                            <td>\\n                                                <span class="label label-success">Complete</span>\\n                                            </td>\\n                                        </tr>\\n                                        \', escape=False)'
p3211
sI123
S'    pass'
p3212
sI124
S'response.write(\'\\n                                        <!-- row -->\\n                                    </tbody>\\n                                </table>\\n\\n\\n\\t        </div>\\n\\t    </div>\\n\\t</div>\\n\\n\\t<div class="span10" id="StressTesting" style="display:none">\\n\\t\\t<h3>Stress Result</h3>\\n        <br/>\\n\\t\\t<iframe style="height:1000px;width:100%" src="\', escape=False)'
p3213
sI125
S"response.write(URL('static','test/index.html'))"
p3214
sI126
S'response.write(\'"></iframe>\\n\\t</div>\\n</div>\\n <script type="text/javascript">\\n $(function () {\\n       // jQuery Knobs\\n       $(".knob").knob();\\n});\\n</script>\\n\', escape=False)'
p3215
sI127
S'response.write(\'\\r\\n \\r\\n    <!-- Footer ================================================== -->\\r\\n    <footer class="footer" id="footer">\\r\\n      \', escape=False)'
p3216
ssg3187
S'()'
p3217
sg3189
S'<module>'
p3218
sasS'pyver'
p3219
S'Python 2.7.4: /usr/bin/python'
p3220
sS'session'
p3221
g57
(g58
g59
NtRp3222
(dp3223
g62
(dp3224
sg64
(lp3225
g57
(g66
g59
NtRp3226
(dp3227
g62
(dp3228
g70
I5
ssg71
Nsg64
(lp3229
g57
(g73
g59
NtRp3230
(dp3231
g62
(dp3232
sg71
g3226
sg64
(lp3233
g57
(g78
g59
NtRp3234
(dp3235
g62
(dp3236
g82
g83
ssg71
g3230
sg64
(lp3237
S'auth'
p3238
asbag57
(g78
g59
NtRp3239
(dp3240
g62
(dp3241
g89
g90
ssg71
g3230
sg64
(lp3242
S':'
asbag57
(g78
g59
NtRp3243
(dp3244
g62
(dp3245
sg71
g3230
sg64
(lp3246
g57
(g58
g59
NtRp3247
(dp3248
g62
(dp3249
g70
I5
ssg71
g3243
sg64
(lp3250
g57
(g66
g59
NtRp3251
(dp3252
g62
(dp3253
g70
I4
ssg71
Nsg64
(lp3254
g57
(g73
g59
NtRp3255
(dp3256
g62
(dp3257
sg71
g3251
sg64
(lp3258
g57
(g78
g59
NtRp3259
(dp3260
g62
(dp3261
g82
g83
ssg71
g3255
sg64
(lp3262
S'expiration'
p3263
asbag57
(g78
g59
NtRp3264
(dp3265
g62
(dp3266
g89
g90
ssg71
g3255
sg64
(lp3267
S':'
asbag57
(g78
g59
NtRp3268
(dp3269
g62
(dp3270
sg71
g3255
sg64
(lp3271
g57
(g58
g59
NtRp3272
(dp3273
g62
(dp3274
g70
I4
ssg71
g3268
sg64
(lp3275
S'3600'
p3276
asbasbasbag57
(g73
g59
NtRp3277
(dp3278
g62
(dp3279
sg71
g3251
sg64
(lp3280
g57
(g78
g59
NtRp3281
(dp3282
g62
(dp3283
g82
g83
ssg71
g3277
sg64
(lp3284
S'hmac_key'
p3285
asbag57
(g78
g59
NtRp3286
(dp3287
g62
(dp3288
g89
g90
ssg71
g3277
sg64
(lp3289
S':'
asbag57
(g78
g59
NtRp3290
(dp3291
g62
(dp3292
sg71
g3277
sg64
(lp3293
g57
(g58
g59
NtRp3294
(dp3295
g62
(dp3296
g70
I4
ssg71
g3290
sg64
(lp3297
S'5c712ea8-449e-401a-8632-7671742116c4'
p3298
asbasbasbag57
(g73
g59
NtRp3299
(dp3300
g62
(dp3301
sg71
g3251
sg64
(lp3302
g57
(g78
g59
NtRp3303
(dp3304
g62
(dp3305
g82
g83
ssg71
g3299
sg64
(lp3306
S'last_visit'
p3307
asbag57
(g78
g59
NtRp3308
(dp3309
g62
(dp3310
g89
g90
ssg71
g3299
sg64
(lp3311
S':'
asbag57
(g78
g59
NtRp3312
(dp3313
g62
(dp3314
sg71
g3299
sg64
(lp3315
g57
(g58
g59
NtRp3316
(dp3317
g62
(dp3318
g70
I4
ssg71
g3312
sg64
(lp3319
S'datetime.datetime(2013, 11, 11, 1, 27, 30, 846604)'
p3320
asbasbasbag57
(g73
g59
NtRp3321
(dp3322
g62
(dp3323
sg71
g3251
sg64
(lp3324
g57
(g78
g59
NtRp3325
(dp3326
g62
(dp3327
g82
g83
ssg71
g3321
sg64
(lp3328
S'remember'
p3329
asbag57
(g78
g59
NtRp3330
(dp3331
g62
(dp3332
g89
g90
ssg71
g3321
sg64
(lp3333
S':'
asbag57
(g78
g59
NtRp3334
(dp3335
g62
(dp3336
sg71
g3321
sg64
(lp3337
g57
(g58
g59
NtRp3338
(dp3339
g62
(dp3340
g70
I4
ssg71
g3334
sg64
(lp3341
g100
asbasbasbag57
(g73
g59
NtRp3342
(dp3343
g62
(dp3344
sg71
g3251
sg64
(lp3345
g57
(g78
g59
NtRp3346
(dp3347
g62
(dp3348
g82
g83
ssg71
g3342
sg64
(lp3349
S'user'
p3350
asbag57
(g78
g59
NtRp3351
(dp3352
g62
(dp3353
g89
g90
ssg71
g3342
sg64
(lp3354
S':'
asbag57
(g78
g59
NtRp3355
(dp3356
g62
(dp3357
sg71
g3342
sg64
(lp3358
g57
(g58
g59
NtRp3359
(dp3360
g62
(dp3361
g70
I4
ssg71
g3355
sg64
(lp3362
g57
(g66
g59
NtRp3363
(dp3364
g62
(dp3365
g70
I3
ssg71
Nsg64
(lp3366
g57
(g73
g59
NtRp3367
(dp3368
g62
(dp3369
sg71
g3363
sg64
(lp3370
g57
(g78
g59
NtRp3371
(dp3372
g62
(dp3373
g82
g83
ssg71
g3367
sg64
(lp3374
S'email'
p3375
asbag57
(g78
g59
NtRp3376
(dp3377
g62
(dp3378
g89
g90
ssg71
g3367
sg64
(lp3379
S':'
asbag57
(g78
g59
NtRp3380
(dp3381
g62
(dp3382
sg71
g3367
sg64
(lp3383
g57
(g58
g59
NtRp3384
(dp3385
g62
(dp3386
g70
I3
ssg71
g3380
sg64
(lp3387
S'mayank.g@students.iiit.ac.in'
p3388
asbasbasbag57
(g73
g59
NtRp3389
(dp3390
g62
(dp3391
sg71
g3363
sg64
(lp3392
g57
(g78
g59
NtRp3393
(dp3394
g62
(dp3395
g82
g83
ssg71
g3389
sg64
(lp3396
S'first_name'
p3397
asbag57
(g78
g59
NtRp3398
(dp3399
g62
(dp3400
g89
g90
ssg71
g3389
sg64
(lp3401
S':'
asbag57
(g78
g59
NtRp3402
(dp3403
g62
(dp3404
sg71
g3389
sg64
(lp3405
g57
(g58
g59
NtRp3406
(dp3407
g62
(dp3408
g70
I3
ssg71
g3402
sg64
(lp3409
S'Mayank'
p3410
asbasbasbag57
(g73
g59
NtRp3411
(dp3412
g62
(dp3413
sg71
g3363
sg64
(lp3414
g57
(g78
g59
NtRp3415
(dp3416
g62
(dp3417
g82
g83
ssg71
g3411
sg64
(lp3418
S'id'
p3419
asbag57
(g78
g59
NtRp3420
(dp3421
g62
(dp3422
g89
g90
ssg71
g3411
sg64
(lp3423
S':'
asbag57
(g78
g59
NtRp3424
(dp3425
g62
(dp3426
sg71
g3411
sg64
(lp3427
g57
(g58
g59
NtRp3428
(dp3429
g62
(dp3430
g70
I3
ssg71
g3424
sg64
(lp3431
S'1'
asbasbasbag57
(g73
g59
NtRp3432
(dp3433
g62
(dp3434
sg71
g3363
sg64
(lp3435
g57
(g78
g59
NtRp3436
(dp3437
g62
(dp3438
g82
g83
ssg71
g3432
sg64
(lp3439
S'last_name'
p3440
asbag57
(g78
g59
NtRp3441
(dp3442
g62
(dp3443
g89
g90
ssg71
g3432
sg64
(lp3444
S':'
asbag57
(g78
g59
NtRp3445
(dp3446
g62
(dp3447
sg71
g3432
sg64
(lp3448
g57
(g58
g59
NtRp3449
(dp3450
g62
(dp3451
g70
I3
ssg71
g3445
sg64
(lp3452
S'Gupta'
p3453
asbasbasbag57
(g73
g59
NtRp3454
(dp3455
g62
(dp3456
sg71
g3363
sg64
(lp3457
g57
(g78
g59
NtRp3458
(dp3459
g62
(dp3460
g82
g83
ssg71
g3454
sg64
(lp3461
S'password'
p3462
asbag57
(g78
g59
NtRp3463
(dp3464
g62
(dp3465
g89
g90
ssg71
g3454
sg64
(lp3466
S':'
asbag57
(g78
g59
NtRp3467
(dp3468
g62
(dp3469
sg71
g3454
sg64
(lp3470
g57
(g58
g59
NtRp3471
(dp3472
g62
(dp3473
g70
I3
ssg71
g3467
sg64
(lp3474
S'pbkdf2(1000,20,sha512)$a496878cc8b951c5$137e42454abf6cff232aebcc4f0c3801419a78ac'
p3475
asbasbasbag57
(g73
g59
NtRp3476
(dp3477
g62
(dp3478
sg71
g3363
sg64
(lp3479
g57
(g78
g59
NtRp3480
(dp3481
g62
(dp3482
g82
g83
ssg71
g3476
sg64
(lp3483
S'registration_id'
p3484
asbag57
(g78
g59
NtRp3485
(dp3486
g62
(dp3487
g89
g90
ssg71
g3476
sg64
(lp3488
S':'
asbag57
(g78
g59
NtRp3489
(dp3490
g62
(dp3491
sg71
g3476
sg64
(lp3492
g57
(g58
g59
NtRp3493
(dp3494
g62
(dp3495
g70
I3
ssg71
g3489
sg64
(lp3496
S''
asbasbasbag57
(g73
g59
NtRp3497
(dp3498
g62
(dp3499
sg71
g3363
sg64
(lp3500
g57
(g78
g59
NtRp3501
(dp3502
g62
(dp3503
g82
g83
ssg71
g3497
sg64
(lp3504
S'registration_key'
p3505
asbag57
(g78
g59
NtRp3506
(dp3507
g62
(dp3508
g89
g90
ssg71
g3497
sg64
(lp3509
S':'
asbag57
(g78
g59
NtRp3510
(dp3511
g62
(dp3512
sg71
g3497
sg64
(lp3513
g57
(g58
g59
NtRp3514
(dp3515
g62
(dp3516
g70
I3
ssg71
g3510
sg64
(lp3517
S''
asbasbasbag57
(g73
g59
NtRp3518
(dp3519
g62
(dp3520
sg71
g3363
sg64
(lp3521
g57
(g78
g59
NtRp3522
(dp3523
g62
(dp3524
g82
g83
ssg71
g3518
sg64
(lp3525
S'reset_password_key'
p3526
asbag57
(g78
g59
NtRp3527
(dp3528
g62
(dp3529
g89
g90
ssg71
g3518
sg64
(lp3530
S':'
asbag57
(g78
g59
NtRp3531
(dp3532
g62
(dp3533
sg71
g3518
sg64
(lp3534
g57
(g58
g59
NtRp3535
(dp3536
g62
(dp3537
g70
I3
ssg71
g3531
sg64
(lp3538
S''
asbasbasbasbasbasbasbag57
(g73
g59
NtRp3539
(dp3540
g62
(dp3541
sg71
g3251
sg64
(lp3542
g57
(g78
g59
NtRp3543
(dp3544
g62
(dp3545
g82
g83
ssg71
g3539
sg64
(lp3546
S'user_groups'
p3547
asbag57
(g78
g59
NtRp3548
(dp3549
g62
(dp3550
g89
g90
ssg71
g3539
sg64
(lp3551
S':'
asbag57
(g78
g59
NtRp3552
(dp3553
g62
(dp3554
sg71
g3539
sg64
(lp3555
g57
(g58
g59
NtRp3556
(dp3557
g62
(dp3558
g70
I4
ssg71
g3552
sg64
(lp3559
g57
(g66
g59
NtRp3560
(dp3561
g62
(dp3562
g70
I3
ssg71
Nsg64
(lp3563
g57
(g73
g59
NtRp3564
(dp3565
g62
(dp3566
sg71
g3560
sg64
(lp3567
g57
(g78
g59
NtRp3568
(dp3569
g62
(dp3570
g82
g83
ssg71
g3564
sg64
(lp3571
S'1'
asbag57
(g78
g59
NtRp3572
(dp3573
g62
(dp3574
g89
g90
ssg71
g3564
sg64
(lp3575
S':'
asbag57
(g78
g59
NtRp3576
(dp3577
g62
(dp3578
sg71
g3564
sg64
(lp3579
g57
(g58
g59
NtRp3580
(dp3581
g62
(dp3582
g70
I3
ssg71
g3576
sg64
(lp3583
S'user_1'
p3584
asbasbasbasbasbasbasbasbasbasbasbag57
(g73
g59
NtRp3585
(dp3586
g62
(dp3587
sg71
g3226
sg64
(lp3588
g57
(g78
g59
NtRp3589
(dp3590
g62
(dp3591
g82
g83
ssg71
g3585
sg64
(lp3592
S'email'
p3593
asbag57
(g78
g59
NtRp3594
(dp3595
g62
(dp3596
g89
g90
ssg71
g3585
sg64
(lp3597
S':'
asbag57
(g78
g59
NtRp3598
(dp3599
g62
(dp3600
sg71
g3585
sg64
(lp3601
g57
(g58
g59
NtRp3602
(dp3603
g62
(dp3604
g70
I5
ssg71
g3598
sg64
(lp3605
g3388
asbasbasbag57
(g73
g59
NtRp3606
(dp3607
g62
(dp3608
sg71
g3226
sg64
(lp3609
g57
(g78
g59
NtRp3610
(dp3611
g62
(dp3612
g82
g83
ssg71
g3606
sg64
(lp3613
S'flash'
p3614
asbag57
(g78
g59
NtRp3615
(dp3616
g62
(dp3617
g89
g90
ssg71
g3606
sg64
(lp3618
S':'
asbag57
(g78
g59
NtRp3619
(dp3620
g62
(dp3621
sg71
g3606
sg64
(lp3622
g57
(g58
g59
NtRp3623
(dp3624
g62
(dp3625
g70
I5
ssg71
g3619
sg64
(lp3626
S'None'
p3627
asbasbasbag57
(g73
g59
NtRp3628
(dp3629
g62
(dp3630
sg71
g3226
sg64
(lp3631
g57
(g78
g59
NtRp3632
(dp3633
g62
(dp3634
g82
g83
ssg71
g3628
sg64
(lp3635
S'last_orderby'
p3636
asbag57
(g78
g59
NtRp3637
(dp3638
g62
(dp3639
g89
g90
ssg71
g3628
sg64
(lp3640
S':'
asbag57
(g78
g59
NtRp3641
(dp3642
g62
(dp3643
sg71
g3628
sg64
(lp3644
g57
(g58
g59
NtRp3645
(dp3646
g62
(dp3647
g70
I5
ssg71
g3641
sg64
(lp3648
S'None'
p3649
asbasbasbag57
(g73
g59
NtRp3650
(dp3651
g62
(dp3652
sg71
g3226
sg64
(lp3653
g57
(g78
g59
NtRp3654
(dp3655
g62
(dp3656
g82
g83
ssg71
g3650
sg64
(lp3657
S'last_query'
p3658
asbag57
(g78
g59
NtRp3659
(dp3660
g62
(dp3661
g89
g90
ssg71
g3650
sg64
(lp3662
S':'
asbag57
(g78
g59
NtRp3663
(dp3664
g62
(dp3665
sg71
g3650
sg64
(lp3666
g57
(g58
g59
NtRp3667
(dp3668
g62
(dp3669
g70
I5
ssg71
g3663
sg64
(lp3670
S'db.TestDetails.id>0'
p3671
asbasbasbasbasbsS'etype'
p3672
S"<type 'exceptions.AttributeError'>"
p3673
sS'date'
p3674
S'Mon Nov 11 01:27:30 2013'
p3675
sS'response'
p3676
g57
(g58
g59
NtRp3677
(dp3678
g62
(dp3679
sg64
(lp3680
g57
(g66
g59
NtRp3681
(dp3682
g62
(dp3683
g70
I5
ssg71
Nsg64
(lp3684
g57
(g73
g59
NtRp3685
(dp3686
g62
(dp3687
sg71
g3681
sg64
(lp3688
g57
(g78
g59
NtRp3689
(dp3690
g62
(dp3691
g82
g83
ssg71
g3685
sg64
(lp3692
g167
asbag57
(g78
g59
NtRp3693
(dp3694
g62
(dp3695
g89
g90
ssg71
g3685
sg64
(lp3696
S':'
asbag57
(g78
g59
NtRp3697
(dp3698
g62
(dp3699
sg71
g3685
sg64
(lp3700
g57
(g58
g59
NtRp3701
(dp3702
g62
(dp3703
g70
I5
ssg71
g3697
sg64
(lp3704
S'<cStringIO.StringO object at 0x7f7a7823e420>'
p3705
asbasbasbag57
(g73
g59
NtRp3706
(dp3707
g62
(dp3708
sg71
g3681
sg64
(lp3709
g57
(g78
g59
NtRp3710
(dp3711
g62
(dp3712
g82
g83
ssg71
g3706
sg64
(lp3713
g255
asbag57
(g78
g59
NtRp3714
(dp3715
g62
(dp3716
g89
g90
ssg71
g3706
sg64
(lp3717
S':'
asbag57
(g78
g59
NtRp3718
(dp3719
g62
(dp3720
sg71
g3706
sg64
(lp3721
g57
(g58
g59
NtRp3722
(dp3723
g62
(dp3724
g70
I5
ssg71
g3718
sg64
(lp3725
g57
(g66
g59
NtRp3726
(dp3727
g62
(dp3728
g70
I4
ssg71
Nsg64
(lp3729
g57
(g73
g59
NtRp3730
(dp3731
g62
(dp3732
sg71
g3726
sg64
(lp3733
g57
(g78
g59
NtRp3734
(dp3735
g62
(dp3736
g82
g83
ssg71
g3730
sg64
(lp3737
S'session_id_funkload'
p3738
asbag57
(g78
g59
NtRp3739
(dp3740
g62
(dp3741
g89
g90
ssg71
g3730
sg64
(lp3742
S':'
asbag57
(g78
g59
NtRp3743
(dp3744
g62
(dp3745
sg71
g3730
sg64
(lp3746
g57
(g58
g59
NtRp3747
(dp3748
g62
(dp3749
g70
I4
ssg71
g3743
sg64
(lp3750
g487
ag57
(g66
g59
NtRp3751
(dp3752
g62
(dp3753
g70
I3
ssg71
Nsg64
(lp3754
g57
(g73
g59
NtRp3755
(dp3756
g62
(dp3757
sg71
g3751
sg64
(lp3758
g57
(g78
g59
NtRp3759
(dp3760
g62
(dp3761
g82
g83
ssg71
g3755
sg64
(lp3762
g306
asbag57
(g78
g59
NtRp3763
(dp3764
g62
(dp3765
g89
g90
ssg71
g3755
sg64
(lp3766
S':'
asbag57
(g78
g59
NtRp3767
(dp3768
g62
(dp3769
sg71
g3755
sg64
(lp3770
g57
(g58
g59
NtRp3771
(dp3772
g62
(dp3773
g70
I3
ssg71
g3767
sg64
(lp3774
S''
asbasbasbag57
(g73
g59
NtRp3775
(dp3776
g62
(dp3777
sg71
g3751
sg64
(lp3778
g57
(g78
g59
NtRp3779
(dp3780
g62
(dp3781
g82
g83
ssg71
g3775
sg64
(lp3782
g327
asbag57
(g78
g59
NtRp3783
(dp3784
g62
(dp3785
g89
g90
ssg71
g3775
sg64
(lp3786
S':'
asbag57
(g78
g59
NtRp3787
(dp3788
g62
(dp3789
sg71
g3775
sg64
(lp3790
g57
(g58
g59
NtRp3791
(dp3792
g62
(dp3793
g70
I3
ssg71
g3787
sg64
(lp3794
S''
asbasbasbag57
(g73
g59
NtRp3795
(dp3796
g62
(dp3797
sg71
g3751
sg64
(lp3798
g57
(g78
g59
NtRp3799
(dp3800
g62
(dp3801
g82
g83
ssg71
g3795
sg64
(lp3802
g348
asbag57
(g78
g59
NtRp3803
(dp3804
g62
(dp3805
g89
g90
ssg71
g3795
sg64
(lp3806
S':'
asbag57
(g78
g59
NtRp3807
(dp3808
g62
(dp3809
sg71
g3795
sg64
(lp3810
g57
(g58
g59
NtRp3811
(dp3812
g62
(dp3813
g70
I3
ssg71
g3807
sg64
(lp3814
S''
asbasbasbag57
(g73
g59
NtRp3815
(dp3816
g62
(dp3817
sg71
g3751
sg64
(lp3818
g57
(g78
g59
NtRp3819
(dp3820
g62
(dp3821
g82
g83
ssg71
g3815
sg64
(lp3822
g369
asbag57
(g78
g59
NtRp3823
(dp3824
g62
(dp3825
g89
g90
ssg71
g3815
sg64
(lp3826
S':'
asbag57
(g78
g59
NtRp3827
(dp3828
g62
(dp3829
sg71
g3815
sg64
(lp3830
g57
(g58
g59
NtRp3831
(dp3832
g62
(dp3833
g70
I3
ssg71
g3827
sg64
(lp3834
S''
asbasbasbag57
(g73
g59
NtRp3835
(dp3836
g62
(dp3837
sg71
g3751
sg64
(lp3838
g57
(g78
g59
NtRp3839
(dp3840
g62
(dp3841
g82
g83
ssg71
g3835
sg64
(lp3842
g390
asbag57
(g78
g59
NtRp3843
(dp3844
g62
(dp3845
g89
g90
ssg71
g3835
sg64
(lp3846
S':'
asbag57
(g78
g59
NtRp3847
(dp3848
g62
(dp3849
sg71
g3835
sg64
(lp3850
g57
(g58
g59
NtRp3851
(dp3852
g62
(dp3853
g70
I3
ssg71
g3847
sg64
(lp3854
S''
asbasbasbag57
(g73
g59
NtRp3855
(dp3856
g62
(dp3857
sg71
g3751
sg64
(lp3858
g57
(g78
g59
NtRp3859
(dp3860
g62
(dp3861
g82
g83
ssg71
g3855
sg64
(lp3862
g411
asbag57
(g78
g59
NtRp3863
(dp3864
g62
(dp3865
g89
g90
ssg71
g3855
sg64
(lp3866
S':'
asbag57
(g78
g59
NtRp3867
(dp3868
g62
(dp3869
sg71
g3855
sg64
(lp3870
g57
(g58
g59
NtRp3871
(dp3872
g62
(dp3873
g70
I3
ssg71
g3867
sg64
(lp3874
S'/'
asbasbasbag57
(g73
g59
NtRp3875
(dp3876
g62
(dp3877
sg71
g3751
sg64
(lp3878
g57
(g78
g59
NtRp3879
(dp3880
g62
(dp3881
g82
g83
ssg71
g3875
sg64
(lp3882
g432
asbag57
(g78
g59
NtRp3883
(dp3884
g62
(dp3885
g89
g90
ssg71
g3875
sg64
(lp3886
S':'
asbag57
(g78
g59
NtRp3887
(dp3888
g62
(dp3889
sg71
g3875
sg64
(lp3890
g57
(g58
g59
NtRp3891
(dp3892
g62
(dp3893
g70
I3
ssg71
g3887
sg64
(lp3894
S''
asbasbasbag57
(g73
g59
NtRp3895
(dp3896
g62
(dp3897
sg71
g3751
sg64
(lp3898
g57
(g78
g59
NtRp3899
(dp3900
g62
(dp3901
g82
g83
ssg71
g3895
sg64
(lp3902
g453
asbag57
(g78
g59
NtRp3903
(dp3904
g62
(dp3905
g89
g90
ssg71
g3895
sg64
(lp3906
S':'
asbag57
(g78
g59
NtRp3907
(dp3908
g62
(dp3909
sg71
g3895
sg64
(lp3910
g57
(g58
g59
NtRp3911
(dp3912
g62
(dp3913
g70
I3
ssg71
g3907
sg64
(lp3914
S''
asbasbasbasbasbasbasbasbasbasbasbag57
(g73
g59
NtRp3915
(dp3916
g62
(dp3917
sg71
g3681
sg64
(lp3918
g57
(g78
g59
NtRp3919
(dp3920
g62
(dp3921
g82
g83
ssg71
g3915
sg64
(lp3922
S'delimiters'
p3923
asbag57
(g78
g59
NtRp3924
(dp3925
g62
(dp3926
g89
g90
ssg71
g3915
sg64
(lp3927
S':'
asbag57
(g78
g59
NtRp3928
(dp3929
g62
(dp3930
sg71
g3915
sg64
(lp3931
g57
(g58
g59
NtRp3932
(dp3933
g62
(dp3934
g70
I5
ssg71
g3928
sg64
(lp3935
g57
(g66
g59
NtRp3936
(dp3937
g62
(dp3938
g70
I4
ssg71
Nsg64
(lp3939
g57
(g73
g59
NtRp3940
(dp3941
g62
(dp3942
sg71
g3936
sg64
(lp3943
g57
(g78
g59
NtRp3944
(dp3945
g62
(dp3946
sg71
g3940
sg64
(lp3947
g57
(g58
g59
NtRp3948
(dp3949
g62
(dp3950
g70
I4
ssg71
g3944
sg64
(lp3951
S'{{'
p3952
asbasbasbag57
(g73
g59
NtRp3953
(dp3954
g62
(dp3955
sg71
g3936
sg64
(lp3956
g57
(g78
g59
NtRp3957
(dp3958
g62
(dp3959
sg71
g3953
sg64
(lp3960
g57
(g58
g59
NtRp3961
(dp3962
g62
(dp3963
g70
I4
ssg71
g3957
sg64
(lp3964
S'}}'
p3965
asbasbasbasbasbasbasbag57
(g73
g59
NtRp3966
(dp3967
g62
(dp3968
sg71
g3681
sg64
(lp3969
g57
(g78
g59
NtRp3970
(dp3971
g62
(dp3972
g82
g83
ssg71
g3966
sg64
(lp3973
S'files'
p3974
asbag57
(g78
g59
NtRp3975
(dp3976
g62
(dp3977
g89
g90
ssg71
g3966
sg64
(lp3978
S':'
asbag57
(g78
g59
NtRp3979
(dp3980
g62
(dp3981
sg71
g3966
sg64
(lp3982
g57
(g58
g59
NtRp3983
(dp3984
g62
(dp3985
g70
I5
ssg71
g3979
sg64
(lp3986
g57
(g66
g59
NtRp3987
(dp3988
g62
(dp3989
g70
I4
ssg71
Nsg64
(lp3990
g57
(g73
g59
NtRp3991
(dp3992
g62
(dp3993
sg71
g3987
sg64
(lp3994
g57
(g78
g59
NtRp3995
(dp3996
g62
(dp3997
sg71
g3991
sg64
(lp3998
g57
(g58
g59
NtRp3999
(dp4000
g62
(dp4001
g70
I4
ssg71
g3995
sg64
(lp4002
S'/FunkLoad/static/js/jquery.js'
p4003
asbasbasbag57
(g73
g59
NtRp4004
(dp4005
g62
(dp4006
sg71
g3987
sg64
(lp4007
g57
(g78
g59
NtRp4008
(dp4009
g62
(dp4010
sg71
g4004
sg64
(lp4011
g57
(g58
g59
NtRp4012
(dp4013
g62
(dp4014
g70
I4
ssg71
g4008
sg64
(lp4015
S'/FunkLoad/static/css/calendar.css'
p4016
asbasbasbag57
(g73
g59
NtRp4017
(dp4018
g62
(dp4019
sg71
g3987
sg64
(lp4020
g57
(g78
g59
NtRp4021
(dp4022
g62
(dp4023
sg71
g4017
sg64
(lp4024
g57
(g58
g59
NtRp4025
(dp4026
g62
(dp4027
g70
I4
ssg71
g4021
sg64
(lp4028
S'/FunkLoad/static/js/calendar.js'
p4029
asbasbasbag57
(g73
g59
NtRp4030
(dp4031
g62
(dp4032
sg71
g3987
sg64
(lp4033
g57
(g78
g59
NtRp4034
(dp4035
g62
(dp4036
sg71
g4030
sg64
(lp4037
g57
(g58
g59
NtRp4038
(dp4039
g62
(dp4040
g70
I4
ssg71
g4034
sg64
(lp4041
S'/FunkLoad/static/js/web2py.js'
p4042
asbasbasbag57
(g73
g59
NtRp4043
(dp4044
g62
(dp4045
sg71
g3987
sg64
(lp4046
g57
(g78
g59
NtRp4047
(dp4048
g62
(dp4049
sg71
g4043
sg64
(lp4050
g57
(g58
g59
NtRp4051
(dp4052
g62
(dp4053
g70
I4
ssg71
g4047
sg64
(lp4054
S'/FunkLoad/static/css/bootstrap/bootstrap.css'
p4055
asbasbasbag57
(g73
g59
NtRp4056
(dp4057
g62
(dp4058
sg71
g3987
sg64
(lp4059
g57
(g78
g59
NtRp4060
(dp4061
g62
(dp4062
sg71
g4056
sg64
(lp4063
g57
(g58
g59
NtRp4064
(dp4065
g62
(dp4066
g70
I4
ssg71
g4060
sg64
(lp4067
S'/FunkLoad/static/css/bootstrap/bootstrap-responsive.css'
p4068
asbasbasbag57
(g73
g59
NtRp4069
(dp4070
g62
(dp4071
sg71
g3987
sg64
(lp4072
g57
(g78
g59
NtRp4073
(dp4074
g62
(dp4075
sg71
g4069
sg64
(lp4076
g57
(g58
g59
NtRp4077
(dp4078
g62
(dp4079
g70
I4
ssg71
g4073
sg64
(lp4080
S'/FunkLoad/static/css/web2py.css'
p4081
asbasbasbag57
(g73
g59
NtRp4082
(dp4083
g62
(dp4084
sg71
g3987
sg64
(lp4085
g57
(g78
g59
NtRp4086
(dp4087
g62
(dp4088
sg71
g4082
sg64
(lp4089
g57
(g58
g59
NtRp4090
(dp4091
g62
(dp4092
g70
I4
ssg71
g4086
sg64
(lp4093
S'/FunkLoad/static/css/web2py_bootstrap.css'
p4094
asbasbasbag57
(g73
g59
NtRp4095
(dp4096
g62
(dp4097
sg71
g3987
sg64
(lp4098
g57
(g78
g59
NtRp4099
(dp4100
g62
(dp4101
sg71
g4095
sg64
(lp4102
g57
(g58
g59
NtRp4103
(dp4104
g62
(dp4105
g70
I4
ssg71
g4099
sg64
(lp4106
S'/FunkLoad/static/css/bootstrap/bootstrap-overrides.css'
p4107
asbasbasbag57
(g73
g59
NtRp4108
(dp4109
g62
(dp4110
sg71
g3987
sg64
(lp4111
g57
(g78
g59
NtRp4112
(dp4113
g62
(dp4114
sg71
g4108
sg64
(lp4115
g57
(g58
g59
NtRp4116
(dp4117
g62
(dp4118
g70
I4
ssg71
g4112
sg64
(lp4119
S'/FunkLoad/static/css/lib/jquery-ui-1.10.2.custom.css'
p4120
asbasbasbag57
(g73
g59
NtRp4121
(dp4122
g62
(dp4123
sg71
g3987
sg64
(lp4124
g57
(g78
g59
NtRp4125
(dp4126
g62
(dp4127
sg71
g4121
sg64
(lp4128
g57
(g58
g59
NtRp4129
(dp4130
g62
(dp4131
g70
I4
ssg71
g4125
sg64
(lp4132
S'/FunkLoad/static/css/lib/font-awesome.css'
p4133
asbasbasbag57
(g73
g59
NtRp4134
(dp4135
g62
(dp4136
sg71
g3987
sg64
(lp4137
g57
(g78
g59
NtRp4138
(dp4139
g62
(dp4140
sg71
g4134
sg64
(lp4141
g57
(g58
g59
NtRp4142
(dp4143
g62
(dp4144
g70
I4
ssg71
g4138
sg64
(lp4145
S'/FunkLoad/static/css/layout.css'
p4146
asbasbasbag57
(g73
g59
NtRp4147
(dp4148
g62
(dp4149
sg71
g3987
sg64
(lp4150
g57
(g78
g59
NtRp4151
(dp4152
g62
(dp4153
sg71
g4147
sg64
(lp4154
g57
(g58
g59
NtRp4155
(dp4156
g62
(dp4157
g70
I4
ssg71
g4151
sg64
(lp4158
S'/FunkLoad/static/css/elements.css'
p4159
asbasbasbag57
(g73
g59
NtRp4160
(dp4161
g62
(dp4162
sg71
g3987
sg64
(lp4163
g57
(g78
g59
NtRp4164
(dp4165
g62
(dp4166
sg71
g4160
sg64
(lp4167
g57
(g58
g59
NtRp4168
(dp4169
g62
(dp4170
g70
I4
ssg71
g4164
sg64
(lp4171
S'/FunkLoad/static/css/icons.css'
p4172
asbasbasbag57
(g73
g59
NtRp4173
(dp4174
g62
(dp4175
sg71
g3987
sg64
(lp4176
g57
(g78
g59
NtRp4177
(dp4178
g62
(dp4179
sg71
g4173
sg64
(lp4180
g57
(g58
g59
NtRp4181
(dp4182
g62
(dp4183
g70
I4
ssg71
g4177
sg64
(lp4184
S'/FunkLoad/static/css/compiled/index.css'
p4185
asbasbasbag57
(g73
g59
NtRp4186
(dp4187
g62
(dp4188
sg71
g3987
sg64
(lp4189
g57
(g78
g59
NtRp4190
(dp4191
g62
(dp4192
sg71
g4186
sg64
(lp4193
g57
(g58
g59
NtRp4194
(dp4195
g62
(dp4196
g70
I4
ssg71
g4190
sg64
(lp4197
S'/FunkLoad/static/css/css5c84.css%3Ffamily%3DOpen%2BSans%3A300italic%2C400italic%2C600italic%2C700italic%2C800italic%2C400%2C300%2C600%2C700%2C800'
p4198
asbasbasbag57
(g73
g59
NtRp4199
(dp4200
g62
(dp4201
sg71
g3987
sg64
(lp4202
g57
(g78
g59
NtRp4203
(dp4204
g62
(dp4205
sg71
g4199
sg64
(lp4206
g57
(g58
g59
NtRp4207
(dp4208
g62
(dp4209
g70
I4
ssg71
g4203
sg64
(lp4210
S'/FunkLoad/static/css/cssef21.css%3Ffamily%3DLato%3A300%2C400%2C700%2C900%2C300italic%2C400italic%2C700italic%2C900italic'
p4211
asbasbasbasbasbasbasbag57
(g73
g59
NtRp4212
(dp4213
g62
(dp4214
sg71
g3681
sg64
(lp4215
g57
(g78
g59
NtRp4216
(dp4217
g62
(dp4218
g82
g83
ssg71
g4212
sg64
(lp4219
S'flash'
p4220
asbag57
(g78
g59
NtRp4221
(dp4222
g62
(dp4223
g89
g90
ssg71
g4212
sg64
(lp4224
S':'
asbag57
(g78
g59
NtRp4225
(dp4226
g62
(dp4227
sg71
g4212
sg64
(lp4228
g57
(g58
g59
NtRp4229
(dp4230
g62
(dp4231
g70
I5
ssg71
g4225
sg64
(lp4232
S''
asbasbasbag57
(g73
g59
NtRp4233
(dp4234
g62
(dp4235
sg71
g3681
sg64
(lp4236
g57
(g78
g59
NtRp4237
(dp4238
g62
(dp4239
g82
g83
ssg71
g4233
sg64
(lp4240
S'generic_patterns'
p4241
asbag57
(g78
g59
NtRp4242
(dp4243
g62
(dp4244
g89
g90
ssg71
g4233
sg64
(lp4245
S':'
asbag57
(g78
g59
NtRp4246
(dp4247
g62
(dp4248
sg71
g4233
sg64
(lp4249
g57
(g58
g59
NtRp4250
(dp4251
g62
(dp4252
g70
I5
ssg71
g4246
sg64
(lp4253
g57
(g66
g59
NtRp4254
(dp4255
g62
(dp4256
g70
I4
ssg71
Nsg64
(lp4257
g57
(g73
g59
NtRp4258
(dp4259
g62
(dp4260
sg71
g4254
sg64
(lp4261
g57
(g78
g59
NtRp4262
(dp4263
g62
(dp4264
sg71
g4258
sg64
(lp4265
g57
(g58
g59
NtRp4266
(dp4267
g62
(dp4268
g70
I4
ssg71
g4262
sg64
(lp4269
S'*'
asbasbasbasbasbasbasbag57
(g73
g59
NtRp4270
(dp4271
g62
(dp4272
sg71
g3681
sg64
(lp4273
g57
(g78
g59
NtRp4274
(dp4275
g62
(dp4276
g82
g83
ssg71
g4270
sg64
(lp4277
S'google_analytics_id'
p4278
asbag57
(g78
g59
NtRp4279
(dp4280
g62
(dp4281
g89
g90
ssg71
g4270
sg64
(lp4282
S':'
asbag57
(g78
g59
NtRp4283
(dp4284
g62
(dp4285
sg71
g4270
sg64
(lp4286
g57
(g58
g59
NtRp4287
(dp4288
g62
(dp4289
g70
I5
ssg71
g4283
sg64
(lp4290
S'None'
p4291
asbasbasbag57
(g73
g59
NtRp4292
(dp4293
g62
(dp4294
sg71
g3681
sg64
(lp4295
g57
(g78
g59
NtRp4296
(dp4297
g62
(dp4298
g82
g83
ssg71
g4292
sg64
(lp4299
S'headers'
p4300
asbag57
(g78
g59
NtRp4301
(dp4302
g62
(dp4303
g89
g90
ssg71
g4292
sg64
(lp4304
S':'
asbag57
(g78
g59
NtRp4305
(dp4306
g62
(dp4307
sg71
g4292
sg64
(lp4308
g57
(g58
g59
NtRp4309
(dp4310
g62
(dp4311
g70
I5
ssg71
g4305
sg64
(lp4312
g57
(g66
g59
NtRp4313
(dp4314
g62
(dp4315
g70
I4
ssg71
Nsg64
(lp4316
g57
(g73
g59
NtRp4317
(dp4318
g62
(dp4319
sg71
g4313
sg64
(lp4320
g57
(g78
g59
NtRp4321
(dp4322
g62
(dp4323
g82
g83
ssg71
g4317
sg64
(lp4324
S'Cache-Control'
p4325
asbag57
(g78
g59
NtRp4326
(dp4327
g62
(dp4328
g89
g90
ssg71
g4317
sg64
(lp4329
S':'
asbag57
(g78
g59
NtRp4330
(dp4331
g62
(dp4332
sg71
g4317
sg64
(lp4333
g57
(g58
g59
NtRp4334
(dp4335
g62
(dp4336
g70
I4
ssg71
g4330
sg64
(lp4337
S'no-store, no-cache, must-revalidate, post-check=0, pre-check=0'
p4338
asbasbasbag57
(g73
g59
NtRp4339
(dp4340
g62
(dp4341
sg71
g4313
sg64
(lp4342
g57
(g78
g59
NtRp4343
(dp4344
g62
(dp4345
g82
g83
ssg71
g4339
sg64
(lp4346
S'Content-Type'
p4347
asbag57
(g78
g59
NtRp4348
(dp4349
g62
(dp4350
g89
g90
ssg71
g4339
sg64
(lp4351
S':'
asbag57
(g78
g59
NtRp4352
(dp4353
g62
(dp4354
sg71
g4339
sg64
(lp4355
g57
(g58
g59
NtRp4356
(dp4357
g62
(dp4358
g70
I4
ssg71
g4352
sg64
(lp4359
S'text/html; charset=utf-8'
p4360
asbasbasbag57
(g73
g59
NtRp4361
(dp4362
g62
(dp4363
sg71
g4313
sg64
(lp4364
g57
(g78
g59
NtRp4365
(dp4366
g62
(dp4367
g82
g83
ssg71
g4361
sg64
(lp4368
S'Expires'
p4369
asbag57
(g78
g59
NtRp4370
(dp4371
g62
(dp4372
g89
g90
ssg71
g4361
sg64
(lp4373
S':'
asbag57
(g78
g59
NtRp4374
(dp4375
g62
(dp4376
sg71
g4361
sg64
(lp4377
g57
(g58
g59
NtRp4378
(dp4379
g62
(dp4380
g70
I4
ssg71
g4374
sg64
(lp4381
S'Sun, 10 Nov 2013 19:57:30 GMT'
p4382
asbasbasbag57
(g73
g59
NtRp4383
(dp4384
g62
(dp4385
sg71
g4313
sg64
(lp4386
g57
(g78
g59
NtRp4387
(dp4388
g62
(dp4389
g82
g83
ssg71
g4383
sg64
(lp4390
S'Pragma'
p4391
asbag57
(g78
g59
NtRp4392
(dp4393
g62
(dp4394
g89
g90
ssg71
g4383
sg64
(lp4395
S':'
asbag57
(g78
g59
NtRp4396
(dp4397
g62
(dp4398
sg71
g4383
sg64
(lp4399
g57
(g58
g59
NtRp4400
(dp4401
g62
(dp4402
g70
I4
ssg71
g4396
sg64
(lp4403
S'no-cache'
p4404
asbasbasbag57
(g73
g59
NtRp4405
(dp4406
g62
(dp4407
sg71
g4313
sg64
(lp4408
g57
(g78
g59
NtRp4409
(dp4410
g62
(dp4411
g82
g83
ssg71
g4405
sg64
(lp4412
S'X-Powered-By'
p4413
asbag57
(g78
g59
NtRp4414
(dp4415
g62
(dp4416
g89
g90
ssg71
g4405
sg64
(lp4417
S':'
asbag57
(g78
g59
NtRp4418
(dp4419
g62
(dp4420
sg71
g4405
sg64
(lp4421
g57
(g58
g59
NtRp4422
(dp4423
g62
(dp4424
g70
I4
ssg71
g4418
sg64
(lp4425
S'web2py'
p4426
asbasbasbasbasbasbasbag57
(g73
g59
NtRp4427
(dp4428
g62
(dp4429
sg71
g3681
sg64
(lp4430
g57
(g78
g59
NtRp4431
(dp4432
g62
(dp4433
g82
g83
ssg71
g4427
sg64
(lp4434
S'menu'
p4435
asbag57
(g78
g59
NtRp4436
(dp4437
g62
(dp4438
g89
g90
ssg71
g4427
sg64
(lp4439
S':'
asbag57
(g78
g59
NtRp4440
(dp4441
g62
(dp4442
sg71
g4427
sg64
(lp4443
g57
(g58
g59
NtRp4444
(dp4445
g62
(dp4446
g70
I5
ssg71
g4440
sg64
(lp4447
g57
(g66
g59
NtRp4448
(dp4449
g62
(dp4450
g70
I4
ssg71
Nsg64
(lp4451
g57
(g73
g59
NtRp4452
(dp4453
g62
(dp4454
sg71
g4448
sg64
(lp4455
g57
(g78
g59
NtRp4456
(dp4457
g62
(dp4458
sg71
g4452
sg64
(lp4459
g57
(g58
g59
NtRp4460
(dp4461
g62
(dp4462
g70
I4
ssg71
g4456
sg64
(lp4463
g57
(g66
g59
NtRp4464
(dp4465
g62
(dp4466
g70
I3
ssg71
Nsg64
(lp4467
g57
(g73
g59
NtRp4468
(dp4469
g62
(dp4470
sg71
g4464
sg64
(lp4471
g57
(g78
g59
NtRp4472
(dp4473
g62
(dp4474
sg71
g4468
sg64
(lp4475
g57
(g58
g59
NtRp4476
(dp4477
g62
(dp4478
g70
I3
ssg71
g4472
sg64
(lp4479
cgluon.languages
lazyT_unpickle
p4480
(S's\x04\x00\x00\x00Home'
tRp4481
asbasbasbag57
(g73
g59
NtRp4482
(dp4483
g62
(dp4484
sg71
g4464
sg64
(lp4485
g57
(g78
g59
NtRp4486
(dp4487
g62
(dp4488
sg71
g4482
sg64
(lp4489
g57
(g58
g59
NtRp4490
(dp4491
g62
(dp4492
g70
I3
ssg71
g4486
sg64
(lp4493
g100
asbasbasbag57
(g73
g59
NtRp4494
(dp4495
g62
(dp4496
sg71
g4464
sg64
(lp4497
g57
(g78
g59
NtRp4498
(dp4499
g62
(dp4500
sg71
g4494
sg64
(lp4501
g57
(g58
g59
NtRp4502
(dp4503
g62
(dp4504
g70
I3
ssg71
g4498
sg64
(lp4505
S'/FunkLoad/default/index'
p4506
asbasbasbag57
(g73
g59
NtRp4507
(dp4508
g62
(dp4509
sg71
g4464
sg64
(lp4510
g57
(g78
g59
NtRp4511
(dp4512
g62
(dp4513
sg71
g4507
sg64
(lp4514
g57
(g58
g59
NtRp4515
(dp4516
g62
(dp4517
g70
I3
ssg71
g4511
sg64
(lp4518
g57
(g66
g59
NtRp4519
(dp4520
g62
(dp4521
g70
I2
ssg71
Nsg64
(lp4522
sbasbasbasbasbasbasbasbag57
(g73
g59
NtRp4523
(dp4524
g62
(dp4525
sg71
g4448
sg64
(lp4526
g57
(g78
g59
NtRp4527
(dp4528
g62
(dp4529
sg71
g4523
sg64
(lp4530
g57
(g58
g59
NtRp4531
(dp4532
g62
(dp4533
g70
I4
ssg71
g4527
sg64
(lp4534
g57
(g66
g59
NtRp4535
(dp4536
g62
(dp4537
g70
I3
ssg71
Nsg64
(lp4538
g57
(g73
g59
NtRp4539
(dp4540
g62
(dp4541
sg71
g4535
sg64
(lp4542
g57
(g78
g59
NtRp4543
(dp4544
g62
(dp4545
sg71
g4539
sg64
(lp4546
g57
(g58
g59
NtRp4547
(dp4548
g62
(dp4549
g70
I3
ssg71
g4543
sg64
(lp4550
g57
(cgluon.html
SPAN
p4551
g59
NtRp4552
(dp4553
g62
(dp4554
g82
S'color:yellow'
p4555
ssg71
Nsg64
(lp4556
g4426
asbasbasbasbag57
(g73
g59
NtRp4557
(dp4558
g62
(dp4559
sg71
g4535
sg64
(lp4560
g57
(g78
g59
NtRp4561
(dp4562
g62
(dp4563
sg71
g4557
sg64
(lp4564
g57
(g58
g59
NtRp4565
(dp4566
g62
(dp4567
g70
I3
ssg71
g4561
sg64
(lp4568
g100
asbasbasbag57
(g73
g59
NtRp4569
(dp4570
g62
(dp4571
sg71
g4535
sg64
(lp4572
g57
(g78
g59
NtRp4573
(dp4574
g62
(dp4575
sg71
g4569
sg64
(lp4576
g57
(g58
g59
NtRp4577
(dp4578
g62
(dp4579
g70
I3
ssg71
g4573
sg64
(lp4580
S'http://web2py.com'
p4581
asbasbasbag57
(g73
g59
NtRp4582
(dp4583
g62
(dp4584
sg71
g4535
sg64
(lp4585
g57
(g78
g59
NtRp4586
(dp4587
g62
(dp4588
sg71
g4582
sg64
(lp4589
g57
(g58
g59
NtRp4590
(dp4591
g62
(dp4592
g70
I3
ssg71
g4586
sg64
(lp4593
g57
(g66
g59
NtRp4594
(dp4595
g62
(dp4596
g70
I2
ssg71
Nsg64
(lp4597
g57
(g73
g59
NtRp4598
(dp4599
g62
(dp4600
sg71
g4594
sg64
(lp4601
g57
(g78
g59
NtRp4602
(dp4603
g62
(dp4604
sg71
g4598
sg64
(lp4605
g57
(g58
g59
NtRp4606
(dp4607
g62
(dp4608
g70
I2
ssg71
g4602
sg64
(lp4609
g57
(g66
g59
NtRp4610
(dp4611
g62
(dp4612
g70
I1
ssg71
Nsg64
(lp4613
g57
(g73
g59
NtRp4614
(dp4615
g62
(dp4616
sg71
g4610
sg64
(lp4617
g57
(g78
g59
NtRp4618
(dp4619
g62
(dp4620
sg71
g4614
sg64
(lp4621
g57
(g58
g59
NtRp4622
(dp4623
g62
(dp4624
g70
I1
ssg71
g4618
sg64
(lp4625
g4480
(S's\x08\x00\x00\x00My Sites'
tRp4626
asbasbasbag57
(g73
g59
NtRp4627
(dp4628
g62
(dp4629
sg71
g4610
sg64
(lp4630
g57
(g78
g59
NtRp4631
(dp4632
g62
(dp4633
sg71
g4627
sg64
(lp4634
g57
(g58
g59
NtRp4635
(dp4636
g62
(dp4637
g70
I1
ssg71
g4631
sg64
(lp4638
I00
asbasbasbag57
(g73
g59
NtRp4639
(dp4640
g62
(dp4641
sg71
g4610
sg64
(lp4642
g57
(g78
g59
NtRp4643
(dp4644
g62
(dp4645
sg71
g4639
sg64
(lp4646
g57
(g58
g59
NtRp4647
(dp4648
g62
(dp4649
g70
I1
ssg71
g4643
sg64
(lp4650
S'/admin/default/site'
p4651
asbasbasbasbasbasbasbag57
(g73
g59
NtRp4652
(dp4653
g62
(dp4654
sg71
g4594
sg64
(lp4655
g57
(g78
g59
NtRp4656
(dp4657
g62
(dp4658
sg71
g4652
sg64
(lp4659
g57
(g58
g59
NtRp4660
(dp4661
g62
(dp4662
g70
I2
ssg71
g4656
sg64
(lp4663
g57
(g66
g59
NtRp4664
(dp4665
g62
(dp4666
g70
I1
ssg71
Nsg64
(lp4667
g57
(g73
g59
NtRp4668
(dp4669
g62
(dp4670
sg71
g4664
sg64
(lp4671
g57
(g78
g59
NtRp4672
(dp4673
g62
(dp4674
sg71
g4668
sg64
(lp4675
g57
(g58
g59
NtRp4676
(dp4677
g62
(dp4678
g70
I1
ssg71
g4672
sg64
(lp4679
g4480
(S's\x08\x00\x00\x00This App'
tRp4680
asbasbasbag57
(g73
g59
NtRp4681
(dp4682
g62
(dp4683
sg71
g4664
sg64
(lp4684
g57
(g78
g59
NtRp4685
(dp4686
g62
(dp4687
sg71
g4681
sg64
(lp4688
g57
(g58
g59
NtRp4689
(dp4690
g62
(dp4691
g70
I1
ssg71
g4685
sg64
(lp4692
I00
asbasbasbag57
(g73
g59
NtRp4693
(dp4694
g62
(dp4695
sg71
g4664
sg64
(lp4696
g57
(g78
g59
NtRp4697
(dp4698
g62
(dp4699
sg71
g4693
sg64
(lp4700
g57
(g58
g59
NtRp4701
(dp4702
g62
(dp4703
g70
I1
ssg71
g4697
sg64
(lp4704
S'/admin/default/design/FunkLoad'
p4705
asbasbasbag57
(g73
g59
NtRp4706
(dp4707
g62
(dp4708
sg71
g4664
sg64
(lp4709
g57
(g78
g59
NtRp4710
(dp4711
g62
(dp4712
sg71
g4706
sg64
(lp4713
g57
(g58
g59
NtRp4714
(dp4715
g62
(dp4716
g70
I1
ssg71
g4710
sg64
(lp4717
(lp4718
(g4480
(S's\n\x00\x00\x00Controller'
tRp4719
I00
S'/admin/default/edit/FunkLoad/controllers/default.py'
tp4720
a(g4480
(S's\x04\x00\x00\x00View'
tRp4721
I00
S'/admin/default/edit/FunkLoad/views/default/test.html'
tp4722
a(g4480
(S's\x06\x00\x00\x00Layout'
tRp4723
I00
S'/admin/default/edit/FunkLoad/views/layout.html'
tp4724
a(g4480
(S's\n\x00\x00\x00Stylesheet'
tRp4725
I00
S'/admin/default/edit/FunkLoad/static/css/web2py.css'
tp4726
a(g4480
(S's\x08\x00\x00\x00DB Model'
tRp4727
I00
S'/admin/default/edit/FunkLoad/models/db.py'
tp4728
a(g4480
(S's\n\x00\x00\x00Menu Model'
tRp4729
I00
S'/admin/default/edit/FunkLoad/models/menu.py'
tp4730
a(g4480
(S's\x08\x00\x00\x00Database'
tRp4731
I00
S'/FunkLoad/appadmin/index'
tp4732
a(g4480
(S's\x06\x00\x00\x00Errors'
tRp4733
I00
S'/admin/default/errors/FunkLoad'
tp4734
a(g4480
(S's\x05\x00\x00\x00About'
tRp4735
I00
S'/admin/default/about/FunkLoad'
tp4736
aasbasbasbasbasbasbasbag57
(g73
g59
NtRp4737
(dp4738
g62
(dp4739
sg71
g4594
sg64
(lp4740
g57
(g78
g59
NtRp4741
(dp4742
g62
(dp4743
sg71
g4737
sg64
(lp4744
g57
(g58
g59
NtRp4745
(dp4746
g62
(dp4747
g70
I2
ssg71
g4741
sg64
(lp4748
g57
(g66
g59
NtRp4749
(dp4750
g62
(dp4751
g70
I1
ssg71
Nsg64
(lp4752
g57
(g73
g59
NtRp4753
(dp4754
g62
(dp4755
sg71
g4749
sg64
(lp4756
g57
(g78
g59
NtRp4757
(dp4758
g62
(dp4759
sg71
g4753
sg64
(lp4760
g57
(g58
g59
NtRp4761
(dp4762
g62
(dp4763
g70
I1
ssg71
g4757
sg64
(lp4764
S'web2py.com'
p4765
asbasbasbag57
(g73
g59
NtRp4766
(dp4767
g62
(dp4768
sg71
g4749
sg64
(lp4769
g57
(g78
g59
NtRp4770
(dp4771
g62
(dp4772
sg71
g4766
sg64
(lp4773
g57
(g58
g59
NtRp4774
(dp4775
g62
(dp4776
g70
I1
ssg71
g4770
sg64
(lp4777
I00
asbasbasbag57
(g73
g59
NtRp4778
(dp4779
g62
(dp4780
sg71
g4749
sg64
(lp4781
g57
(g78
g59
NtRp4782
(dp4783
g62
(dp4784
sg71
g4778
sg64
(lp4785
g57
(g58
g59
NtRp4786
(dp4787
g62
(dp4788
g70
I1
ssg71
g4782
sg64
(lp4789
S'http://www.web2py.com'
p4790
asbasbasbag57
(g73
g59
NtRp4791
(dp4792
g62
(dp4793
sg71
g4749
sg64
(lp4794
g57
(g78
g59
NtRp4795
(dp4796
g62
(dp4797
sg71
g4791
sg64
(lp4798
g57
(g58
g59
NtRp4799
(dp4800
g62
(dp4801
g70
I1
ssg71
g4795
sg64
(lp4802
(lp4803
(g4480
(S's\x08\x00\x00\x00Download'
tRp4804
I00
S'http://www.web2py.com/examples/default/download'
p4805
tp4806
a(g4480
(S's\x07\x00\x00\x00Support'
tRp4807
I00
S'http://www.web2py.com/examples/default/support'
p4808
tp4809
a(g4480
(S's\x04\x00\x00\x00Demo'
tRp4810
I00
S'http://web2py.com/demo_admin'
p4811
tp4812
a(g4480
(S's\x0e\x00\x00\x00Quick Examples'
tRp4813
I00
S'http://web2py.com/examples/default/examples'
p4814
tp4815
a(g4480
(S's\x03\x00\x00\x00FAQ'
tRp4816
I00
S'http://web2py.com/AlterEgo'
p4817
tp4818
a(g4480
(S's\x06\x00\x00\x00Videos'
tRp4819
I00
S'http://www.web2py.com/examples/default/videos/'
p4820
tp4821
a(g4480
(S's\x11\x00\x00\x00Free Applications'
tRp4822
I00
S'http://web2py.com/appliances'
p4823
tp4824
a(g4480
(S's\x07\x00\x00\x00Plugins'
tRp4825
I00
S'http://web2py.com/plugins'
p4826
tp4827
a(g4480
(S's\x07\x00\x00\x00Layouts'
tRp4828
I00
S'http://web2py.com/layouts'
p4829
tp4830
a(g4480
(S's\x07\x00\x00\x00Recipes'
tRp4831
I00
S'http://web2pyslices.com/'
p4832
tp4833
a(g4480
(S's\x08\x00\x00\x00Semantic'
tRp4834
I00
S'http://web2py.com/semantic'
p4835
tp4836
aasbasbasbasbasbasbasbag57
(g73
g59
NtRp4837
(dp4838
g62
(dp4839
sg71
g4594
sg64
(lp4840
g57
(g78
g59
NtRp4841
(dp4842
g62
(dp4843
sg71
g4837
sg64
(lp4844
g57
(g58
g59
NtRp4845
(dp4846
g62
(dp4847
g70
I2
ssg71
g4841
sg64
(lp4848
g57
(g66
g59
NtRp4849
(dp4850
g62
(dp4851
g70
I1
ssg71
Nsg64
(lp4852
g57
(g73
g59
NtRp4853
(dp4854
g62
(dp4855
sg71
g4849
sg64
(lp4856
g57
(g78
g59
NtRp4857
(dp4858
g62
(dp4859
sg71
g4853
sg64
(lp4860
g57
(g58
g59
NtRp4861
(dp4862
g62
(dp4863
g70
I1
ssg71
g4857
sg64
(lp4864
g4480
(S's\r\x00\x00\x00Documentation'
tRp4865
asbasbasbag57
(g73
g59
NtRp4866
(dp4867
g62
(dp4868
sg71
g4849
sg64
(lp4869
g57
(g78
g59
NtRp4870
(dp4871
g62
(dp4872
sg71
g4866
sg64
(lp4873
g57
(g58
g59
NtRp4874
(dp4875
g62
(dp4876
g70
I1
ssg71
g4870
sg64
(lp4877
I00
asbasbasbag57
(g73
g59
NtRp4878
(dp4879
g62
(dp4880
sg71
g4849
sg64
(lp4881
g57
(g78
g59
NtRp4882
(dp4883
g62
(dp4884
sg71
g4878
sg64
(lp4885
g57
(g58
g59
NtRp4886
(dp4887
g62
(dp4888
g70
I1
ssg71
g4882
sg64
(lp4889
S'http://www.web2py.com/book'
p4890
asbasbasbag57
(g73
g59
NtRp4891
(dp4892
g62
(dp4893
sg71
g4849
sg64
(lp4894
g57
(g78
g59
NtRp4895
(dp4896
g62
(dp4897
sg71
g4891
sg64
(lp4898
g57
(g58
g59
NtRp4899
(dp4900
g62
(dp4901
g70
I1
ssg71
g4895
sg64
(lp4902
(lp4903
(g4480
(S's\x07\x00\x00\x00Preface'
tRp4904
I00
S'http://www.web2py.com/book/default/chapter/00'
p4905
tp4906
a(g4480
(S's\x0c\x00\x00\x00Introduction'
tRp4907
I00
S'http://www.web2py.com/book/default/chapter/01'
p4908
tp4909
a(g4480
(S's\x06\x00\x00\x00Python'
tRp4910
I00
S'http://www.web2py.com/book/default/chapter/02'
p4911
tp4912
a(g4480
(S's\x08\x00\x00\x00Overview'
tRp4913
I00
S'http://www.web2py.com/book/default/chapter/03'
p4914
tp4915
a(g4480
(S's\x08\x00\x00\x00The Core'
tRp4916
I00
S'http://www.web2py.com/book/default/chapter/04'
p4917
tp4918
a(g4480
(S's\t\x00\x00\x00The Views'
tRp4919
I00
S'http://www.web2py.com/book/default/chapter/05'
p4920
tp4921
a(g4480
(S's\x08\x00\x00\x00Database'
tRp4922
I00
S'http://www.web2py.com/book/default/chapter/06'
p4923
tp4924
a(g4480
(S's\x14\x00\x00\x00Forms and Validators'
tRp4925
I00
S'http://www.web2py.com/book/default/chapter/07'
p4926
tp4927
a(g4480
(S's\r\x00\x00\x00Email and SMS'
tRp4928
I00
S'http://www.web2py.com/book/default/chapter/08'
p4929
tp4930
a(g4480
(S's\x0e\x00\x00\x00Access Control'
tRp4931
I00
S'http://www.web2py.com/book/default/chapter/09'
p4932
tp4933
a(g4480
(S's\x08\x00\x00\x00Services'
tRp4934
I00
S'http://www.web2py.com/book/default/chapter/10'
p4935
tp4936
a(g4480
(S's\x0c\x00\x00\x00Ajax Recipes'
tRp4937
I00
S'http://www.web2py.com/book/default/chapter/11'
p4938
tp4939
a(g4480
(S's\x16\x00\x00\x00Components and Plugins'
tRp4940
I00
S'http://www.web2py.com/book/default/chapter/12'
p4941
tp4942
a(g4480
(S's\x12\x00\x00\x00Deployment Recipes'
tRp4943
I00
S'http://www.web2py.com/book/default/chapter/13'
p4944
tp4945
a(g4480
(S's\r\x00\x00\x00Other Recipes'
tRp4946
I00
S'http://www.web2py.com/book/default/chapter/14'
p4947
tp4948
a(g4480
(S's\r\x00\x00\x00Buy this book'
tRp4949
I00
S'http://stores.lulu.com/web2py'
p4950
tp4951
aasbasbasbasbasbasbasbag57
(g73
g59
NtRp4952
(dp4953
g62
(dp4954
sg71
g4594
sg64
(lp4955
g57
(g78
g59
NtRp4956
(dp4957
g62
(dp4958
sg71
g4952
sg64
(lp4959
g57
(g58
g59
NtRp4960
(dp4961
g62
(dp4962
g70
I2
ssg71
g4956
sg64
(lp4963
g57
(g66
g59
NtRp4964
(dp4965
g62
(dp4966
g70
I1
ssg71
Nsg64
(lp4967
g57
(g73
g59
NtRp4968
(dp4969
g62
(dp4970
sg71
g4964
sg64
(lp4971
g57
(g78
g59
NtRp4972
(dp4973
g62
(dp4974
sg71
g4968
sg64
(lp4975
g57
(g58
g59
NtRp4976
(dp4977
g62
(dp4978
g70
I1
ssg71
g4972
sg64
(lp4979
g4480
(S's\t\x00\x00\x00Community'
tRp4980
asbasbasbag57
(g73
g59
NtRp4981
(dp4982
g62
(dp4983
sg71
g4964
sg64
(lp4984
g57
(g78
g59
NtRp4985
(dp4986
g62
(dp4987
sg71
g4981
sg64
(lp4988
g57
(g58
g59
NtRp4989
(dp4990
g62
(dp4991
g70
I1
ssg71
g4985
sg64
(lp4992
I00
asbasbasbag57
(g73
g59
NtRp4993
(dp4994
g62
(dp4995
sg71
g4964
sg64
(lp4996
g57
(g78
g59
NtRp4997
(dp4998
g62
(dp4999
sg71
g4993
sg64
(lp5000
g57
(g58
g59
NtRp5001
(dp5002
g62
(dp5003
g70
I1
ssg71
g4997
sg64
(lp5004
Nasbasbasbag57
(g73
g59
NtRp5005
(dp5006
g62
(dp5007
sg71
g4964
sg64
(lp5008
g57
(g78
g59
NtRp5009
(dp5010
g62
(dp5011
sg71
g5005
sg64
(lp5012
g57
(g58
g59
NtRp5013
(dp5014
g62
(dp5015
g70
I1
ssg71
g5009
sg64
(lp5016
(lp5017
(g4480
(S's\x06\x00\x00\x00Groups'
tRp5018
I00
S'http://www.web2py.com/examples/default/usergroups'
p5019
tp5020
a(g4480
(S's\x07\x00\x00\x00Twitter'
tRp5021
I00
S'http://twitter.com/web2py'
p5022
tp5023
a(g4480
(S's\t\x00\x00\x00Live Chat'
tRp5024
I00
S'http://webchat.freenode.net/?channels=web2py'
p5025
tp5026
aasbasbasbasbasbasbasbag57
(g73
g59
NtRp5027
(dp5028
g62
(dp5029
sg71
g4594
sg64
(lp5030
g57
(g78
g59
NtRp5031
(dp5032
g62
(dp5033
sg71
g5027
sg64
(lp5034
g57
(g58
g59
NtRp5035
(dp5036
g62
(dp5037
g70
I2
ssg71
g5031
sg64
(lp5038
g57
(g66
g59
NtRp5039
(dp5040
g62
(dp5041
g70
I1
ssg71
Nsg64
(lp5042
g57
(g73
g59
NtRp5043
(dp5044
g62
(dp5045
sg71
g5039
sg64
(lp5046
g57
(g78
g59
NtRp5047
(dp5048
g62
(dp5049
sg71
g5043
sg64
(lp5050
g57
(g58
g59
NtRp5051
(dp5052
g62
(dp5053
g70
I1
ssg71
g5047
sg64
(lp5054
g4480
(S's\x07\x00\x00\x00Plugins'
tRp5055
asbasbasbag57
(g73
g59
NtRp5056
(dp5057
g62
(dp5058
sg71
g5039
sg64
(lp5059
g57
(g78
g59
NtRp5060
(dp5061
g62
(dp5062
sg71
g5056
sg64
(lp5063
g57
(g58
g59
NtRp5064
(dp5065
g62
(dp5066
g70
I1
ssg71
g5060
sg64
(lp5067
I00
asbasbasbag57
(g73
g59
NtRp5068
(dp5069
g62
(dp5070
sg71
g5039
sg64
(lp5071
g57
(g78
g59
NtRp5072
(dp5073
g62
(dp5074
sg71
g5068
sg64
(lp5075
g57
(g58
g59
NtRp5076
(dp5077
g62
(dp5078
g70
I1
ssg71
g5072
sg64
(lp5079
Nasbasbasbag57
(g73
g59
NtRp5080
(dp5081
g62
(dp5082
sg71
g5039
sg64
(lp5083
g57
(g78
g59
NtRp5084
(dp5085
g62
(dp5086
sg71
g5080
sg64
(lp5087
g57
(g58
g59
NtRp5088
(dp5089
g62
(dp5090
g70
I1
ssg71
g5084
sg64
(lp5091
(lp5092
(S'plugin_wiki'
p5093
I00
S'http://web2py.com/examples/default/download'
p5094
tp5095
a(g4480
(S's\r\x00\x00\x00Other Plugins'
tRp5096
I00
g4826
tp5097
a(g4480
(S's\x0e\x00\x00\x00Layout Plugins'
tRp5098
I00
g4829
tp5099
aasbasbasbasbasbasbasbasbasbasbasbasbasbasbasbasbasbasbasbag57
(g73
g59
NtRp5100
(dp5101
g62
(dp5102
sg71
g3681
sg64
(lp5103
g57
(g78
g59
NtRp5104
(dp5105
g62
(dp5106
g82
g83
ssg71
g5100
sg64
(lp5107
S'meta'
p5108
asbag57
(g78
g59
NtRp5109
(dp5110
g62
(dp5111
g89
g90
ssg71
g5100
sg64
(lp5112
S':'
asbag57
(g78
g59
NtRp5113
(dp5114
g62
(dp5115
sg71
g5100
sg64
(lp5116
g57
(g58
g59
NtRp5117
(dp5118
g62
(dp5119
g70
I5
ssg71
g5113
sg64
(lp5120
g57
(g66
g59
NtRp5121
(dp5122
g62
(dp5123
g70
I4
ssg71
Nsg64
(lp5124
g57
(g73
g59
NtRp5125
(dp5126
g62
(dp5127
sg71
g5121
sg64
(lp5128
g57
(g78
g59
NtRp5129
(dp5130
g62
(dp5131
g82
g83
ssg71
g5125
sg64
(lp5132
S'author'
p5133
asbag57
(g78
g59
NtRp5134
(dp5135
g62
(dp5136
g89
g90
ssg71
g5125
sg64
(lp5137
S':'
asbag57
(g78
g59
NtRp5138
(dp5139
g62
(dp5140
sg71
g5125
sg64
(lp5141
g57
(g58
g59
NtRp5142
(dp5143
g62
(dp5144
g70
I4
ssg71
g5138
sg64
(lp5145
S'Your Name <you@example.com>'
p5146
asbasbasbag57
(g73
g59
NtRp5147
(dp5148
g62
(dp5149
sg71
g5121
sg64
(lp5150
g57
(g78
g59
NtRp5151
(dp5152
g62
(dp5153
g82
g83
ssg71
g5147
sg64
(lp5154
S'description'
p5155
asbag57
(g78
g59
NtRp5156
(dp5157
g62
(dp5158
g89
g90
ssg71
g5147
sg64
(lp5159
S':'
asbag57
(g78
g59
NtRp5160
(dp5161
g62
(dp5162
sg71
g5147
sg64
(lp5163
g57
(g58
g59
NtRp5164
(dp5165
g62
(dp5166
g70
I4
ssg71
g5160
sg64
(lp5167
S'a cool new app'
p5168
asbasbasbag57
(g73
g59
NtRp5169
(dp5170
g62
(dp5171
sg71
g5121
sg64
(lp5172
g57
(g78
g59
NtRp5173
(dp5174
g62
(dp5175
g82
g83
ssg71
g5169
sg64
(lp5176
S'generator'
p5177
asbag57
(g78
g59
NtRp5178
(dp5179
g62
(dp5180
g89
g90
ssg71
g5169
sg64
(lp5181
S':'
asbag57
(g78
g59
NtRp5182
(dp5183
g62
(dp5184
sg71
g5169
sg64
(lp5185
g57
(g58
g59
NtRp5186
(dp5187
g62
(dp5188
g70
I4
ssg71
g5182
sg64
(lp5189
S'Web2py Web Framework'
p5190
asbasbasbag57
(g73
g59
NtRp5191
(dp5192
g62
(dp5193
sg71
g5121
sg64
(lp5194
g57
(g78
g59
NtRp5195
(dp5196
g62
(dp5197
g82
g83
ssg71
g5191
sg64
(lp5198
S'keywords'
p5199
asbag57
(g78
g59
NtRp5200
(dp5201
g62
(dp5202
g89
g90
ssg71
g5191
sg64
(lp5203
S':'
asbag57
(g78
g59
NtRp5204
(dp5205
g62
(dp5206
sg71
g5191
sg64
(lp5207
g57
(g58
g59
NtRp5208
(dp5209
g62
(dp5210
g70
I4
ssg71
g5204
sg64
(lp5211
S'web2py, python, framework'
p5212
asbasbasbasbasbasbasbag57
(g73
g59
NtRp5213
(dp5214
g62
(dp5215
sg71
g3681
sg64
(lp5216
g57
(g78
g59
NtRp5217
(dp5218
g62
(dp5219
g82
g83
ssg71
g5213
sg64
(lp5220
S'models_to_run'
p5221
asbag57
(g78
g59
NtRp5222
(dp5223
g62
(dp5224
g89
g90
ssg71
g5213
sg64
(lp5225
S':'
asbag57
(g78
g59
NtRp5226
(dp5227
g62
(dp5228
sg71
g5213
sg64
(lp5229
g57
(g58
g59
NtRp5230
(dp5231
g62
(dp5232
g70
I5
ssg71
g5226
sg64
(lp5233
g57
(g66
g59
NtRp5234
(dp5235
g62
(dp5236
g70
I4
ssg71
Nsg64
(lp5237
g57
(g73
g59
NtRp5238
(dp5239
g62
(dp5240
sg71
g5234
sg64
(lp5241
g57
(g78
g59
NtRp5242
(dp5243
g62
(dp5244
sg71
g5238
sg64
(lp5245
g57
(g58
g59
NtRp5246
(dp5247
g62
(dp5248
g70
I4
ssg71
g5242
sg64
(lp5249
S'^\\w+\\.py$'
p5250
asbasbasbag57
(g73
g59
NtRp5251
(dp5252
g62
(dp5253
sg71
g5234
sg64
(lp5254
g57
(g78
g59
NtRp5255
(dp5256
g62
(dp5257
sg71
g5251
sg64
(lp5258
g57
(g58
g59
NtRp5259
(dp5260
g62
(dp5261
g70
I4
ssg71
g5255
sg64
(lp5262
S'^default/\\w+\\.py$'
p5263
asbasbasbag57
(g73
g59
NtRp5264
(dp5265
g62
(dp5266
sg71
g5234
sg64
(lp5267
g57
(g78
g59
NtRp5268
(dp5269
g62
(dp5270
sg71
g5264
sg64
(lp5271
g57
(g58
g59
NtRp5272
(dp5273
g62
(dp5274
g70
I4
ssg71
g5268
sg64
(lp5275
S'^default/test/\\w+\\.py$'
p5276
asbasbasbasbasbasbasbag57
(g73
g59
NtRp5277
(dp5278
g62
(dp5279
sg71
g3681
sg64
(lp5280
g57
(g78
g59
NtRp5281
(dp5282
g62
(dp5283
g82
g83
ssg71
g5277
sg64
(lp5284
S'postprocessing'
p5285
asbag57
(g78
g59
NtRp5286
(dp5287
g62
(dp5288
g89
g90
ssg71
g5277
sg64
(lp5289
S':'
asbag57
(g78
g59
NtRp5290
(dp5291
g62
(dp5292
sg71
g5277
sg64
(lp5293
g57
(g58
g59
NtRp5294
(dp5295
g62
(dp5296
g70
I5
ssg71
g5290
sg64
(lp5297
g57
(g66
g59
NtRp5298
(dp5299
g62
(dp5300
g70
I4
ssg71
Nsg64
(lp5301
sbasbasbasbag57
(g73
g59
NtRp5302
(dp5303
g62
(dp5304
sg71
g3681
sg64
(lp5305
g57
(g78
g59
NtRp5306
(dp5307
g62
(dp5308
g82
g83
ssg71
g5302
sg64
(lp5309
S'session_file'
p5310
asbag57
(g78
g59
NtRp5311
(dp5312
g62
(dp5313
g89
g90
ssg71
g5302
sg64
(lp5314
S':'
asbag57
(g78
g59
NtRp5315
(dp5316
g62
(dp5317
sg71
g5302
sg64
(lp5318
g57
(g58
g59
NtRp5319
(dp5320
g62
(dp5321
g70
I5
ssg71
g5315
sg64
(lp5322
S"<open file '/home/mayank/Desktop/web2pyAdmin/web2py/web2py/applications/FunkLoad/sessions/10.1.33.107-36ba3c88-7bcb-4a0e-bb0a-8936efb689ab', mode 'rb+' at 0x7f7a6416d300>"
p5323
asbasbasbag57
(g73
g59
NtRp5324
(dp5325
g62
(dp5326
sg71
g3681
sg64
(lp5327
g57
(g78
g59
NtRp5328
(dp5329
g62
(dp5330
g82
g83
ssg71
g5324
sg64
(lp5331
S'session_filename'
p5332
asbag57
(g78
g59
NtRp5333
(dp5334
g62
(dp5335
g89
g90
ssg71
g5324
sg64
(lp5336
S':'
asbag57
(g78
g59
NtRp5337
(dp5338
g62
(dp5339
sg71
g5324
sg64
(lp5340
g57
(g58
g59
NtRp5341
(dp5342
g62
(dp5343
g70
I5
ssg71
g5337
sg64
(lp5344
S'/home/mayank/Desktop/web2pyAdmin/web2py/web2py/applications/FunkLoad/sessions/10.1.33.107-36ba3c88-7bcb-4a0e-bb0a-8936efb689ab'
p5345
asbasbasbag57
(g73
g59
NtRp5346
(dp5347
g62
(dp5348
sg71
g3681
sg64
(lp5349
g57
(g78
g59
NtRp5350
(dp5351
g62
(dp5352
g82
g83
ssg71
g5346
sg64
(lp5353
S'session_id'
p5354
asbag57
(g78
g59
NtRp5355
(dp5356
g62
(dp5357
g89
g90
ssg71
g5346
sg64
(lp5358
S':'
asbag57
(g78
g59
NtRp5359
(dp5360
g62
(dp5361
sg71
g5346
sg64
(lp5362
g57
(g58
g59
NtRp5363
(dp5364
g62
(dp5365
g70
I5
ssg71
g5359
sg64
(lp5366
g487
asbasbasbag57
(g73
g59
NtRp5367
(dp5368
g62
(dp5369
sg71
g3681
sg64
(lp5370
g57
(g78
g59
NtRp5371
(dp5372
g62
(dp5373
g82
g83
ssg71
g5367
sg64
(lp5374
S'session_id_name'
p5375
asbag57
(g78
g59
NtRp5376
(dp5377
g62
(dp5378
g89
g90
ssg71
g5367
sg64
(lp5379
S':'
asbag57
(g78
g59
NtRp5380
(dp5381
g62
(dp5382
sg71
g5367
sg64
(lp5383
g57
(g58
g59
NtRp5384
(dp5385
g62
(dp5386
g70
I5
ssg71
g5380
sg64
(lp5387
g3738
asbasbasbag57
(g73
g59
NtRp5388
(dp5389
g62
(dp5390
sg71
g3681
sg64
(lp5391
g57
(g78
g59
NtRp5392
(dp5393
g62
(dp5394
g82
g83
ssg71
g5388
sg64
(lp5395
S'session_locked'
p5396
asbag57
(g78
g59
NtRp5397
(dp5398
g62
(dp5399
g89
g90
ssg71
g5388
sg64
(lp5400
S':'
asbag57
(g78
g59
NtRp5401
(dp5402
g62
(dp5403
sg71
g5388
sg64
(lp5404
g57
(g58
g59
NtRp5405
(dp5406
g62
(dp5407
g70
I5
ssg71
g5401
sg64
(lp5408
g1757
asbasbasbag57
(g73
g59
NtRp5409
(dp5410
g62
(dp5411
sg71
g3681
sg64
(lp5412
g57
(g78
g59
NtRp5413
(dp5414
g62
(dp5415
g82
g83
ssg71
g5409
sg64
(lp5416
S'session_new'
p5417
asbag57
(g78
g59
NtRp5418
(dp5419
g62
(dp5420
g89
g90
ssg71
g5409
sg64
(lp5421
S':'
asbag57
(g78
g59
NtRp5422
(dp5423
g62
(dp5424
sg71
g5409
sg64
(lp5425
g57
(g58
g59
NtRp5426
(dp5427
g62
(dp5428
g70
I5
ssg71
g5422
sg64
(lp5429
g100
asbasbasbag57
(g73
g59
NtRp5430
(dp5431
g62
(dp5432
sg71
g3681
sg64
(lp5433
g57
(g78
g59
NtRp5434
(dp5435
g62
(dp5436
g82
g83
ssg71
g5430
sg64
(lp5437
S'status'
p5438
asbag57
(g78
g59
NtRp5439
(dp5440
g62
(dp5441
g89
g90
ssg71
g5430
sg64
(lp5442
S':'
asbag57
(g78
g59
NtRp5443
(dp5444
g62
(dp5445
sg71
g5430
sg64
(lp5446
g57
(g58
g59
NtRp5447
(dp5448
g62
(dp5449
g70
I5
ssg71
g5443
sg64
(lp5450
S'200'
p5451
asbasbasbag57
(g73
g59
NtRp5452
(dp5453
g62
(dp5454
sg71
g3681
sg64
(lp5455
g57
(g78
g59
NtRp5456
(dp5457
g62
(dp5458
g82
g83
ssg71
g5452
sg64
(lp5459
S'subtitle'
p5460
asbag57
(g78
g59
NtRp5461
(dp5462
g62
(dp5463
g89
g90
ssg71
g5452
sg64
(lp5464
S':'
asbag57
(g78
g59
NtRp5465
(dp5466
g62
(dp5467
sg71
g5452
sg64
(lp5468
g57
(g58
g59
NtRp5469
(dp5470
g62
(dp5471
g70
I5
ssg71
g5465
sg64
(lp5472
g4480
(S's\r\x00\x00\x00customize me!'
tRp5473
asbasbasbag57
(g73
g59
NtRp5474
(dp5475
g62
(dp5476
sg71
g3681
sg64
(lp5477
g57
(g78
g59
NtRp5478
(dp5479
g62
(dp5480
g82
g83
ssg71
g5474
sg64
(lp5481
S'title'
p5482
asbag57
(g78
g59
NtRp5483
(dp5484
g62
(dp5485
g89
g90
ssg71
g5474
sg64
(lp5486
S':'
asbag57
(g78
g59
NtRp5487
(dp5488
g62
(dp5489
sg71
g5474
sg64
(lp5490
g57
(g58
g59
NtRp5491
(dp5492
g62
(dp5493
g70
I5
ssg71
g5487
sg64
(lp5494
S'Funkload'
p5495
asbasbasbag57
(g73
g59
NtRp5496
(dp5497
g62
(dp5498
sg71
g3681
sg64
(lp5499
g57
(g78
g59
NtRp5500
(dp5501
g62
(dp5502
g82
g83
ssg71
g5496
sg64
(lp5503
S'view'
p5504
asbag57
(g78
g59
NtRp5505
(dp5506
g62
(dp5507
g89
g90
ssg71
g5496
sg64
(lp5508
S':'
asbag57
(g78
g59
NtRp5509
(dp5510
g62
(dp5511
sg71
g5496
sg64
(lp5512
g57
(g58
g59
NtRp5513
(dp5514
g62
(dp5515
g70
I5
ssg71
g5509
sg64
(lp5516
S'default/test.html'
p5517
asbasbasbasbasbsS'locals'
p5518
(dp5519
S'Service'
p5520
S"<class 'gluon.tools.Service'>"
p5521
sS'OBJECT'
p5522
S"<class 'gluon.html.OBJECT'>"
p5523
sS'SQLDB'
p5524
S"<class 'gluon.dal.DAL'>"
p5525
sg3221
S"<Storage {'_formkey[TestDetails/10]': '8ffbe38e-...ils/8]': '16183967-68d8-4977-958e-ee58d15b0c68'}>"
p5526
sS'LINK'
p5527
S"<class 'gluon.html.LINK'>"
p5528
sS'BR'
p5529
S"<class 'gluon.html.BR'>"
p5530
sS'local_import'
p5531
S'<function <lambda>>'
p5532
sS'OPTGROUP'
p5533
S"<class 'gluon.html.OPTGROUP'>"
p5534
sS'__package__'
p5535
S'None'
p5536
sS'PRE'
p5537
S"<class 'gluon.html.PRE'>"
p5538
sS'IS_INT_IN_RANGE'
p5539
S"<class 'gluon.validators.IS_INT_IN_RANGE'>"
p5540
sS'left_sidebar_enabled'
p5541
g100
sS'IS_LOWER'
p5542
S"<class 'gluon.validators.IS_LOWER'>"
p5543
sS'IS_STRONG'
p5544
S"<class 'gluon.validators.IS_STRONG'>"
p5545
sS'cache'
p5546
S'<gluon.cache.Cache object>'
p5547
sS'IS_IN_DB'
p5548
S"<class 'gluon.validators.IS_IN_DB'>"
p5549
sS'TAG'
p5550
S'<gluon.html.__TAG__ object>'
p5551
sS'SQLField'
p5552
S"<class 'gluon.dal.Field'>"
p5553
sS'mail'
p5554
S'<gluon.tools.Mail object>'
p5555
sS'BODY'
p5556
S"<class 'gluon.html.BODY'>"
p5557
sS'IS_DATE_IN_RANGE'
p5558
S"<class 'gluon.validators.IS_DATE_IN_RANGE'>"
p5559
sS'TH'
p5560
S"<class 'gluon.html.TH'>"
p5561
sS'URL'
p5562
S'<function URL>'
p5563
sS'__file__'
p5564
S"'/home/mayank/Desktop/web2pyAdmin/web2py/web2py/applications/FunkLoad/views/default/test.html'"
p5565
sS'db'
p5566
S'<DAL mysql://root:root@localhost/funkLoad>'
p5567
sS'auth'
p5568
S'<gluon.tools.Auth object>'
p5569
sS'P'
S"<class 'gluon.html.P'>"
p5570
sS'TFOOT'
p5571
S"<class 'gluon.html.TFOOT'>"
p5572
sS'XHTML'
p5573
S"<class 'gluon.html.XHTML'>"
p5574
sS'ON'
p5575
g1757
sS'OL'
p5576
S"<class 'gluon.html.OL'>"
p5577
sS'TEXTAREA'
p5578
S"<class 'gluon.html.TEXTAREA'>"
p5579
sS'MENU'
p5580
S"<class 'gluon.html.MENU'>"
p5581
sS'IS_IMAGE'
p5582
S"<class 'gluon.validators.IS_IMAGE'>"
p5583
sS'LOAD'
p5584
S'<function LOAD>'
p5585
sS'CODE'
p5586
S"<class 'gluon.html.CODE'>"
p5587
sS'HTTP'
p5588
S"<class 'gluon.http.HTTP'>"
p5589
sS'HR'
p5590
S"<class 'gluon.html.HR'>"
p5591
sS'IS_DATETIME'
p5592
S"<class 'gluon.validators.IS_DATETIME'>"
p5593
sS'HEAD'
p5594
S"<class 'gluon.html.HEAD'>"
p5595
sS'LABEL'
p5596
S"<class 'gluon.html.LABEL'>"
p5597
sS'META'
p5598
S"<class 'gluon.html.META'>"
p5599
sS'plugins'
p5600
S'<gluon.tools.PluginManager object>'
p5601
sS'SELECT'
p5602
S"<class 'gluon.html.SELECT'>"
p5603
sS'use_janrain'
p5604
S'<function use_janrain>'
p5605
sS'CENTER'
p5606
S"<class 'gluon.html.CENTER'>"
p5607
sS'prettydate'
p5608
S'<function prettydate>'
p5609
sS'Crud'
p5610
S"<class 'gluon.tools.Crud'>"
p5611
sS'Auth'
p5612
S"<class 'gluon.tools.Auth'>"
p5613
sS'IS_EQUAL_TO'
p5614
S"<class 'gluon.validators.IS_EQUAL_TO'>"
p5615
sS'HTML'
p5616
S"<class 'gluon.html.HTML'>"
p5617
sS'SQLFORM'
p5618
S"<class 'gluon.sqlhtml.SQLFORM'>"
p5619
sS'EM'
p5620
S"<class 'gluon.html.EM'>"
p5621
sS'redirect'
p5622
S'<function redirect>'
p5623
sS'FIELDSET'
p5624
S"<class 'gluon.html.FIELDSET'>"
p5625
sS'__builtins__'
p5626
S"{'ArithmeticError': <type 'exceptions.ArithmeticError'>, 'AssertionError': <type 'exceptions.AssertionError'>, 'AttributeError': <type 'exceptions.AttributeError'>, 'BaseException': <type 'exceptions.BaseException'>, 'BufferError': <type 'exceptions.BufferError'>, 'BytesWarning': <type 'exceptions.BytesWarning'>, 'DeprecationWarning': <type 'exceptions.DeprecationWarning'>, 'EOFError': <type 'exceptions.EOFError'>, 'Ellipsis': Ellipsis, 'EnvironmentError': <type 'exceptions.EnvironmentError'>, ...}"
p5627
sS'embed64'
p5628
S'<function embed64>'
p5629
sS'IS_LIST_OF'
p5630
S"<class 'gluon.validators.IS_LIST_OF'>"
p5631
sS'INPUT'
p5632
S"<class 'gluon.html.INPUT'>"
p5633
sS'EMBED'
p5634
S"<class 'gluon.html.EMBED'>"
p5635
sS'_'
S'<function _>'
p5636
sS'H2'
p5637
S"<class 'gluon.html.H2'>"
p5638
sS'H3'
p5639
S"<class 'gluon.html.H3'>"
p5640
sS'BUTTON'
p5641
S"<class 'gluon.html.BUTTON'>"
p5642
sS'H1'
p5643
S"<class 'gluon.html.H1'>"
p5644
sS'H6'
p5645
S"<class 'gluon.html.H6'>"
p5646
sS'H4'
p5647
S"<class 'gluon.html.H4'>"
p5648
sS'H5'
p5649
S"<class 'gluon.html.H5'>"
p5650
sS'UL'
p5651
S"<class 'gluon.html.UL'>"
p5652
sS'IS_UPPER'
p5653
S"<class 'gluon.validators.IS_UPPER'>"
p5654
sS'xmlescape'
p5655
S'<function xmlescape>'
p5656
sS'IS_TIME'
p5657
S"<class 'gluon.validators.IS_TIME'>"
p5658
sS'OPTION'
p5659
S"<class 'gluon.html.OPTION'>"
p5660
sS'TITLE'
p5661
S"<class 'gluon.html.TITLE'>"
p5662
sS'CRYPT'
p5663
S"<class 'gluon.validators.CRYPT'>"
p5664
sS'IS_EMPTY_OR'
p5665
S"<class 'gluon.validators.IS_EMPTY_OR'>"
p5666
sS'MARKMIN'
p5667
S"<class 'gluon.html.MARKMIN'>"
p5668
sS'stressDetails'
p5669
S"'1/index.html'"
p5670
sS'__name__'
p5671
S"'__restricted__'"
p5672
sS'STRONG'
p5673
S"<class 'gluon.html.STRONG'>"
p5674
sS'COL'
p5675
S"<class 'gluon.html.COL'>"
p5676
sS'service'
p5677
S'<gluon.tools.Service object>'
p5678
sS'SCRIPT'
p5679
S"<class 'gluon.html.SCRIPT'>"
p5680
sS'TABLE'
p5681
S"<class 'gluon.html.TABLE'>"
p5682
sS'IS_IPV4'
p5683
S"<class 'gluon.validators.IS_IPV4'>"
p5684
sS'IS_LENGTH'
p5685
S"<class 'gluon.validators.IS_LENGTH'>"
p5686
sS'XML'
p5687
S"<class 'gluon.html.XML'>"
p5688
sS'B'
S"<class 'gluon.html.B'>"
p5689
sS'IMG'
p5690
S"<class 'gluon.html.IMG'>"
p5691
sS'SQLTABLE'
p5692
S"<class 'gluon.sqlhtml.SQLTABLE'>"
p5693
sS'IS_MATCH'
p5694
S"<class 'gluon.validators.IS_MATCH'>"
p5695
sS'IS_ALPHANUMERIC'
p5696
S"<class 'gluon.validators.IS_ALPHANUMERIC'>"
p5697
sS'SPAN'
p5698
S"<class 'gluon.html.SPAN'>"
p5699
sS'IS_SLUG'
p5700
S"<class 'gluon.validators.IS_SLUG'>"
p5701
sg2419
S"'1'"
p5702
sS'CLEANUP'
p5703
S"<class 'gluon.validators.CLEANUP'>"
p5704
sS'IS_DATE'
p5705
S"<class 'gluon.validators.IS_DATE'>"
p5706
sS'IS_EMAIL'
p5707
S"<class 'gluon.validators.IS_EMAIL'>"
p5708
sS'IS_NOT_EMPTY'
p5709
S"<class 'gluon.validators.IS_NOT_EMPTY'>"
p5710
sg56
S"<Storage {'function': 'test', 'body': <cStringIO...lications/FunkLoad/', 'post_vars': <Storage {}>}>"
p5711
sS'BEAUTIFY'
p5712
S"<class 'gluon.html.BEAUTIFY'>"
p5713
sS'TBODY'
p5714
S"<class 'gluon.html.TBODY'>"
p5715
sS'CAT'
p5716
S"<class 'gluon.html.CAT'>"
p5717
sS'Field'
p5718
S"<class 'gluon.dal.Field'>"
p5719
sS'middle_columns'
p5720
S"'span12'"
p5721
sS'DIV'
p5722
S"<class 'gluon.html.DIV'>"
p5723
sS'LEGEND'
p5724
S"<class 'gluon.html.LEGEND'>"
p5725
sS'COLGROUP'
p5726
S"<class 'gluon.html.COLGROUP'>"
p5727
sS'DAL'
p5728
S"<class 'gluon.dal.DAL'>"
p5729
sS'TT'
p5730
S"<class 'gluon.html.TT'>"
p5731
sS'TR'
p5732
S"<class 'gluon.html.TR'>"
p5733
sS'LI'
p5734
S"<class 'gluon.html.LI'>"
p5735
sS'right_sidebar_enabled'
p5736
g100
sS'details'
p5737
S'[1, 2, 3]'
p5738
sS'IFRAME'
p5739
S"<class 'gluon.html.IFRAME'>"
p5740
sS'TD'
p5741
S"<class 'gluon.html.TD'>"
p5742
sS'PluginManager'
p5743
S"<class 'gluon.tools.PluginManager'>"
p5744
sS'IS_URL'
p5745
S"<class 'gluon.validators.IS_URL'>"
p5746
sS'A'
S"<class 'gluon.html.A'>"
p5747
sS'STYLE'
p5748
S"<class 'gluon.html.STYLE'>"
p5749
sS'IS_DATETIME_IN_RANGE'
p5750
S"<class 'gluon.validators.IS_DATETIME_IN_RANGE'>"
p5751
sS'FORM'
p5752
S"<class 'gluon.html.FORM'>"
p5753
sS'I'
S"<class 'gluon.html.I'>"
p5754
sS'crud'
p5755
S'<gluon.tools.Crud object>'
p5756
sS'IS_NOT_IN_DB'
p5757
S"<class 'gluon.validators.IS_NOT_IN_DB'>"
p5758
sg3676
S"<Storage {'body': <cStringIO.StringO object at 0...at 0x7f7a7814bc80>, 'view': 'default/test.html'}>"
p5759
sS'THEAD'
p5760
S"<class 'gluon.html.THEAD'>"
p5761
sS'IS_NULL_OR'
p5762
S"<class 'gluon.validators.IS_EMPTY_OR'>"
p5763
sS'i'
S'1'
sS'IS_FLOAT_IN_RANGE'
p5764
S"<class 'gluon.validators.IS_FLOAT_IN_RANGE'>"
p5765
sS'IS_EXPR'
p5766
S"<class 'gluon.validators.IS_EXPR'>"
p5767
sS'T'
S'<gluon.languages.translator object>'
p5768
sS'IS_IN_SET'
p5769
S"<class 'gluon.validators.IS_IN_SET'>"
p5770
sS'IS_UPLOAD_FILENAME'
p5771
S"<class 'gluon.validators.IS_UPLOAD_FILENAME'>"
p5772
sS'IS_DECIMAL_IN_RANGE'
p5773
S"<class 'gluon.validators.IS_DECIMAL_IN_RANGE'>"
p5774
sssS'traceback'
p5775
S'Traceback (most recent call last):\n  File "/home/mayank/Desktop/web2pyAdmin/web2py/web2py/gluon/restricted.py", line 209, in restricted\n    exec ccode in environment\n  File "/home/mayank/Desktop/web2pyAdmin/web2py/web2py/applications/FunkLoad/views/default/test.html", line 119, in <module>\n    <!-- row -->\nAttributeError: \'int\' object has no attribute \'id\'\n'
p5776
s.