(dp1
S'output'
p2
S"<type 'exceptions.SyntaxError'> invalid syntax (testDetails.html, line 70)"
p3
sS'layer'
p4
S'/home/mayank/Desktop/web2pyAdmin/web2py/web2py/applications/FunkLoad/views/default/testDetails.html'
p5
sS'code'
p6
S'response.write(\'<!DOCTYPE html>\\r\\n<!-- paulirish.com/2008/conditional-stylesheets-vs-css-hacks-answer-neither/ -->\\r\\n<!--[if lt IE 7]><html class="ie ie6 ie-lte9 ie-lte8 ie-lte7 no-js" lang="\', escape=False)\nresponse.write(T.accepted_language or \'en\')\nresponse.write(\'"> <![endif]-->\\r\\n<!--[if IE 7]><html class="ie ie7 ie-lte9 ie-lte8 ie-lte7 no-js" lang="\', escape=False)\nresponse.write(T.accepted_language or \'en\')\nresponse.write(\'"> <![endif]-->\\r\\n<!--[if IE 8]><html class="ie ie8 ie-lte9 ie-lte8 no-js" lang="\', escape=False)\nresponse.write(T.accepted_language or \'en\')\nresponse.write(\'"> <![endif]-->\\r\\n<!--[if IE 9]><html class="ie9 ie-lte9 no-js" lang="\', escape=False)\nresponse.write(T.accepted_language or \'en\')\nresponse.write(\'"> <![endif]-->\\r\\n<!--[if (gt IE 9)|!(IE)]><!--> <html class="no-js" lang="\', escape=False)\nresponse.write(T.accepted_language or \'en\')\nresponse.write(\'"> <!--<![endif]-->\\r\\n<html>\\r\\n<head>\\r\\n    <meta http-equiv="Content-Type" content="text/html; charset=utf-8">\\r\\n\\t<meta name="viewport" content="width=device-width, initial-scale=1.0">\\r\\n  \\r\\n  <!-- http://dev.w3.org/html5/markup/meta.name.html -->\\r\\n  <meta name="application-name" content="\', escape=False)\nresponse.write(request.application)\nresponse.write(\'" />\\r\\n  \\r\\n  <!-- Speaking of Google, don\\\'t forget to set your site up:\\r\\n       http://google.com/webmasters -->\\r\\n  <meta name="google-site-verification" content="" />\\r\\n  \\r\\n  <!--  Mobile Viewport Fix\\r\\n\\tj.mp/mobileviewport & davidbcalhoun.com/2010/viewport-metatag\\r\\n\\tdevice-width: Occupy full width of the screen in its current orientation\\r\\n\\tinitial-scale = 1.0 retains dimensions instead of zooming out if page height > device height\\r\\n\\tuser-scalable = yes allows the user to zoom in -->\\r\\n  <meta name="viewport" content="width=device-width, initial-scale=1.0">\\r\\n  <title>\', escape=False)\nresponse.write(response.title or request.application)\nresponse.write(\'</title>\\r\\n  <link rel="shortcut icon" href="\', escape=False)\nresponse.write(URL(\'static\',\'images/favicon.ico\'))\nresponse.write(\'" type="image/x-icon">\\r\\n  <link rel="apple-touch-icon" href="\', escape=False)\nresponse.write(URL(\'static\',\'images/favicon.png\'))\nresponse.write(\'">\\r\\n  \\r\\n  <!-- All JavaScript at the bottom, except for Modernizr which enables \\r\\n\\r\\n       HTML5 elements & feature detects -->\\r\\n  <script src="\', escape=False)\nresponse.write(URL(\'static\',\'js/modernizr.custom.js\'))\nresponse.write(\'"></script>   \\r\\n  \\r\\n  <!-- include stylesheets -->\\r\\n  \', escape=False)\nresponse.files.append(URL(\'static\',"css/bootstrap/bootstrap.css"))\nresponse.files.append(URL(\'static\',"css/bootstrap/bootstrap-responsive.css"))\nresponse.files.append(URL(\'static\',\'css/web2py.css\'))\nresponse.files.append(URL(\'static\',\'css/web2py_bootstrap.css\'))\nresponse.files.append(URL(\'static\',"css/bootstrap/bootstrap-overrides.css"))\nresponse.files.append(URL(\'static\',"css/lib/jquery-ui-1.10.2.custom.css"))\nresponse.files.append(URL(\'static\',"css/lib/font-awesome.css"))\nresponse.files.append(URL(\'static\',"css/layout.css"))\nresponse.files.append(URL(\'static\',"css/elements.css"))\nresponse.files.append(URL(\'static\',"css/icons.css"))\nresponse.files.append(URL(\'static\',"css/compiled/index.css"))\nresponse.files.append(URL(\'static\',"css/css5c84.css?family=Open+Sans:300italic,400italic,600italic,700italic,800italic,400,300,600,700,800"))\nresponse.files.append(URL(\'static\',"css/cssef21.css?family=Lato:300,400,700,900,300italic,400italic,700italic,900italic"))\nresponse.write(\'\\r\\n\\r\\n  \', escape=False)\nresponse.write(\'<script type="text/javascript"><!--\\n    // These variables are used by the web2py_ajax_init function in web2py_ajax.js (which is loaded below).\\n    var w2p_ajax_confirm_message = "\', escape=False)\nresponse.write(T(\'Are you sure you want to delete this object?\'))\nresponse.write(\'";\\n    var w2p_ajax_date_format = "\', escape=False)\nresponse.write(T(\'%Y-%m-%d\'))\nresponse.write(\'";\\n    var w2p_ajax_datetime_format = "\', escape=False)\nresponse.write(T(\'%Y-%m-%d %H:%M:%S\'))\nresponse.write(\'";\\n    //--></script>\\n\', escape=False)\nresponse.files.insert(0,URL(\'static\',\'js/jquery.js\'))\nresponse.files.insert(1,URL(\'static\',\'css/calendar.css\'))\nresponse.files.insert(2,URL(\'static\',\'js/calendar.js\'))\nresponse.files.insert(3,URL(\'static\',\'js/web2py.js\'))\nresponse.include_meta()\nresponse.include_files()\nresponse.write(\'\\n\', escape=False)\nresponse.write(\'\\r\\n  \\r\\n  \', escape=False)\n# using sidebars need to know what sidebar you want to use\nleft_sidebar_enabled = globals().get(\'left_sidebar_enabled\',False)\nright_sidebar_enabled = globals().get(\'right_sidebar_enabled\',False)\nmiddle_columns = {0:\'span12\',1:\'span9\',2:\'span6\'}[\n(left_sidebar_enabled and 1 or 0)+(right_sidebar_enabled and 1 or 0)]\nresponse.write(\'\\r\\n\\r\\n  <noscript><link href="\', escape=False)\nresponse.write(URL(\'static\', \'css/web2py_bootstrap_nojs.css\'))\nresponse.write(\'" rel="stylesheet" type="text/css" /></noscript>\\r\\n  \', escape=False)\nresponse.write(\'\\r\\n  \\r\\n  <!--[if lt IE 9]>\\r\\n      <script src="http://html5shim.googlecode.com/svn/trunk/html5.js"></script>\\r\\n    <![endif]-->\\r\\n</head>\\r\\n<body>\\r\\n  <!-- navbar -->\\r\\n    <div class="navbar navbar-inverse">\\r\\n        <div class="navbar-inner">\\r\\n            <button type="button" class="btn btn-navbar visible-phone" id="menu-toggler">\\r\\n                <span class="icon-bar"></span>\\r\\n                <span class="icon-bar"></span>\\r\\n                <span class="icon-bar"></span>\\r\\n            </button>\\r\\n            \\r\\n            <a class="brand" href="index.html">\', escape=False)\nresponse.write(response.title or request.application)\nresponse.write(\'</a>\\r\\n\\t\\t\', escape=False)\nurl=request.url.split(\'/\')[-1]\nresponse.write(\'\\r\\n            <ul class="nav pull-right">        \\r\\n\\t    \\t<!--\\r\\n                <li class="hidden-phone">\\r\\n                    <input class="search" type="text" />\\r\\n                </li>\\r\\n                <li class="notification-dropdown hidden-phone">\\r\\n                    <a href="#" class="trigger">\\r\\n                        <i class="icon-warning-sign"></i>\\r\\n                        <span class="count">8</span>\\r\\n                    </a>\\r\\n                    <div class="pop-dialog">\\r\\n                        <div class="pointer right">\\r\\n                            <div class="arrow"></div>\\r\\n                            <div class="arrow_border"></div>\\r\\n                        </div>\\r\\n                        <div class="body">\\r\\n                            <a href="#" class="close-icon"><i class="icon-remove-sign"></i></a>\\r\\n                            <div class="notifications">\\r\\n                                <h3>You have 6 new notifications</h3>\\r\\n                                <a href="#" class="item">\\r\\n                                    <i class="icon-signin"></i> New user registration\\r\\n                                    <span class="time"><i class="icon-time"></i> 13 min.</span>\\r\\n                                </a>\\r\\n                                <a href="#" class="item">\\r\\n                                    <i class="icon-signin"></i> New user registration\\r\\n                                    <span class="time"><i class="icon-time"></i> 18 min.</span>\\r\\n                                </a>\\r\\n                                <a href="#" class="item">\\r\\n                                    <i class="icon-envelope-alt"></i> New message from Alejandra\\r\\n                                    <span class="time"><i class="icon-time"></i> 28 min.</span>\\r\\n                                </a>\\r\\n                                <a href="#" class="item">\\r\\n                                    <i class="icon-signin"></i> New user registration\\r\\n                                    <span class="time"><i class="icon-time"></i> 49 min.</span>\\r\\n                                </a>\\r\\n                                <a href="#" class="item">\\r\\n                                    <i class="icon-download-alt"></i> New order placed\\r\\n                                    <span class="time"><i class="icon-time"></i> 1 day.</span>\\r\\n                                </a>\\r\\n                                <div class="footer">\\r\\n                                    <a href="#" class="logout">View all notifications</a>\\r\\n                                </div>\\r\\n                            </div>\\r\\n                        </div>\\r\\n                    </div>\\r\\n                </li>\\r\\n                <li class="notification-dropdown hidden-phone">\\r\\n                    <a href="#" class="trigger">\\r\\n                        <i class="icon-envelope-alt"></i>\\r\\n                    </a>\\r\\n                    <div class="pop-dialog">\\r\\n                        <div class="pointer right">\\r\\n                            <div class="arrow"></div>\\r\\n                            <div class="arrow_border"></div>\\r\\n                        </div>\\r\\n                        <div class="body">\\r\\n                            <a href="#" class="close-icon"><i class="icon-remove-sign"></i></a>\\r\\n                            <div class="messages">\\r\\n                                <a href="#" class="item">\\r\\n                                    <img src="img/contact-img.png" class="display" />\\r\\n                                    <div class="name">Alejandra Galv\\xc3\\xa1n</div>\\r\\n                                    <div class="msg">\\r\\n                                        There are many variations of available, but the majority have suffered alterations.\\r\\n                                    </div>\\r\\n                                    <span class="time"><i class="icon-time"></i> 13 min.</span>\\r\\n                                </a>\\r\\n                                <a href="#" class="item">\\r\\n                                    <img src="img/contact-img2.png" class="display" />\\r\\n                                    <div class="name">Alejandra Galv\\xc3\\xa1n</div>\\r\\n                                    <div class="msg">\\r\\n                                        There are many variations of available, have suffered alterations.\\r\\n                                    </div>\\r\\n                                    <span class="time"><i class="icon-time"></i> 26 min.</span>\\r\\n                                </a>\\r\\n                                <a href="#" class="item last">\\r\\n                                    <img src="img/contact-img.png" class="display" />\\r\\n                                    <div class="name">Alejandra Galv\\xc3\\xa1n</div>\\r\\n                                    <div class="msg">\\r\\n                                        There are many variations of available, but the majority have suffered alterations.\\r\\n                                    </div>\\r\\n                                    <span class="time"><i class="icon-time"></i> 48 min.</span>\\r\\n                                </a>\\r\\n                                <div class="footer">\\r\\n                                    <a href="#" class="logout">View all messages</a>\\r\\n                                </div>\\r\\n                            </div>\\r\\n                        </div>\\r\\n                    </div>\\r\\n                </li>\\r\\n\\t\\t\\t-->\\r\\n                <li class="dropdown">\\r\\n                    <a href="#" class="dropdown-toggle hidden-phone" data-toggle="dropdown">\\r\\n\\t\\t\\t\', escape=False)\nresponse.write(auth.user.first_name+\' \'+auth.user.last_name)\nresponse.write(\'\\r\\n                        <b class="caret"></b>\\r\\n                    </a>\\r\\n                    <ul class="dropdown-menu">\\r\\n                        <li><a href="\', escape=False)\nresponse.write(URL(r = request, f = \'user\' ,args=\'logout\'))\nresponse.write(\'">SignOut</a></li>\\r\\n                        <li><a href="#">About</a></li>\\r\\n                    </ul>\\r\\n                </li>\\r\\n                <li class="settings hidden-phone">\\r\\n                    <a href="\', escape=False)\nresponse.write(URL(r = request, f = \'user\' ,args=\'login\'))\nresponse.write(\'" role="button">\\r\\n                        <i class="icon-share-alt"></i>\\r\\n                    </a>\\r\\n                </li>\\r\\n            </ul>            \\r\\n        </div>\\r\\n    </div>\\r\\n    <!-- end navbar -->\\r\\n\\r\\n    <!-- sidebar -->\\r\\n    <div id="sidebar-nav">\\r\\n        <ul id="dashboard-menu">\\r\\n            <li \', escape=False)\nif url==\'index\'\nresponse.write(\'class="active"\', escape=False)\npass\nresponse.write(\'>\\r\\n                <div class="pointer">\\r\\n                    <div class="arrow"></div>\\r\\n                    <div class="arrow_border"></div>\\r\\n                </div>\\r\\n                <a href="\', escape=False)\nresponse.write(URL(r = request, f = \'index\'))\nresponse.write(\'">\\r\\n                    <i class="icon-home"></i>\\r\\n                    <span>Home</span>\\r\\n                </a>\\r\\n            </li>            \\r\\n            <li \', escape=False)\nif url==\'addTest\'\nresponse.write(\'class="active"\', escape=False)\npass\nresponse.write(\'>\\r\\n                <a href="\', escape=False)\nresponse.write(URL(r = request, f = \'addTest\'))\nresponse.write(\'">\\r\\n                    <i class="icon-edit"></i>\\r\\n                    <span>AddTest</span>\\r\\n                </a>\\r\\n            </li>\\r\\n            <li \', escape=False)\nif url==\'testDetails\'\nresponse.write(\'class="active"\', escape=False)\npass\nresponse.write(\'>\\r\\n                <a href="\', escape=False)\nresponse.write(URL(r = request, f = \'testDetails\'))\nresponse.write(\'">\\r\\n                    <i class="icon-signal"></i>\\r\\n                    <span>Show Test Details</span>\\r\\n                </a>\\r\\n            </li>\\r\\n        </ul>\\r\\n    </div>\\r\\n    <!-- end sidebar -->\\r\\n  \\r\\n  <div >\\r\\n    <div class="flash">\', escape=False)\nresponse.write(response.flash or \'\')\nresponse.write(\'</div>\\r\\n\\r\\n   \\t  \', escape=False)\nresponse.write(\'\\n\', escape=False)\ndetails=[0,1,2,3]\nresponse.write(\'\\n\\t<!-- main container -->\\n    <div class="content">\\n        <div class="container-fluid">\\n\\n            <div id="pad-wrapper">\\n\\n                <!-- table sample -->\\n                <!-- the script for the toggle all checkboxes from header is located in js/theme.js -->\\n                <div class="table-products section">\\n                    <div class="row-fluid head">\\n                        <div class="span12">\\n                            <h4>Tests <small>Status</small></h4>\\n                        </div>\\n                    </div>\\n                    <div class="row-fluid">\\n                        <table class="table table-hover">\\n                            <thead>\\n                                <tr>\\n                                    <th class="span3">\\n                                        Test Name\\n                                    </th>\\n                                    <th class="span3">\\n                                        <span class="line"></span>Description\\n                                    </th>\\n                                    <th class="span3">\\n                                        <span class="line"></span>Sanity Status\\n                                    </th>\\n                                    <th class="span3">\\n                                        <span class="line"></span>Functional Status\\n                                    </th>\\n                                    <th class="span3">\\n                                        <span class="line"></span>Stress Status\\n                                    </th>\\n                                </tr>\\n                            </thead>\\n                            <tbody>\\n                                <!-- row -->\\n\\t\\t\\t\\t\', escape=False)\nfor i in details:\n    response.write(\'\\n                                <tr>\\n                                    <td>\\n                                        <a href="#">Internet tend</a>\\n                                    </td>\\n                                    <td class="description">\\n                                        There are many variations of passages.\\n                                    </td>\\n                                    <td>\\n\\t\\t\\t\\t    \\t<span class="label label-success">Complete</span>\\n                                    </td>\\n                                    <td>\\n\\t\\t\\t\\t    \\t<span class="label label-success">Complete</span>\\n                                    </td>\\n                                    <td>\\n\\t\\t\\t\\t    \\t<span class="label label-info">InQueue</span>\\n                                    </td>\\n                                </tr>\\n\\t\\t\\t\\t\', escape=False)\n    pass\nresponse.write(\'\\n                                <!-- row -->\\n                            </tbody>\\n                        </table>\\n                    </div>\\n\\t\\t    </div>\\n\\t\\t    <!-- end table sample -->\\n\\t\\t    </div>\\n\\t\\t    </div>\\n\\t\\t    </div>\\n\\t\\t    <script type="text/javascript">\\n\\t\\t    $(function () {\\n\\n\\t\\t\\t\\t    // jQuery Knobs\\n\\t\\t\\t\\t    $(".knob").knob();\\n\\n\\n\\n\\t\\t\\t\\t    // jQuery UI Sliders\\n\\t\\t\\t\\t    $(".slider-sample1").slider({\\nvalue: 100,\\nmin: 1,\\nmax: 500\\n});\\n\\t\\t\\t\\t    $(".slider-sample2").slider({\\nrange: "min",\\nvalue: 130,\\nmin: 1,\\nmax: 500 \\n}); \\n\\t\\t\\t\\t    $(".slider-sample3").slider({\\nrange: true,\\nmin: 0,\\nmax: 500,\\nvalues: [ 40, 170 ],\\n}); \\n\\n\\n\\n// jQuery Flot Chart\\nvar visits = [[1, 50], [2, 40], [3, 45], [4, 23],[5, 55],[6, 65],[7, 61],[8, 70],[9, 65],[10, 75],[11, 57],[12, 59]];\\nvar visitors = [[1, 25], [2, 50], [3, 23], [4, 48],[5, 38],[6, 40],[7, 47],[8, 55],[9, 43],[10,50],[11,47],[12, 39]];\\n\\nvar plot = $.plot($("#statsChart"),\\n\\t\\t[ { data: visits, label: "Signups"},\\n\\t\\t{ data: visitors, label: "Visits" }], {\\nseries: {\\nlines: { show: true,\\nneWidth: 1,\\nfill: true, \\nfillColor: { colors: [ { opacity: 0.1 }, { opacity: 0.13 } ] }\\n},\\npoints: { show: true, \\nlineWidth: 2,\\nradius: 3\\n},\\nshadowSize: 0,\\nstack: true\\n},\\ngrid: { hoverable: true, \\nclickable: true, \\ntickColor: "#f9f9f9",\\nborderWidth: 0\\n},\\nlegend: {\\n\\t\\t// show: false\\nlabelBoxBorderColor: "#fff"\\n\\t},  \\ncolors: ["#a7b5c5", "#30a0eb"],\\n\\txaxis: {\\nticks: [[1, "JAN"], [2, "FEB"], [3, "MAR"], [4,"APR"], [5,"MAY"], [6,"JUN"], \\n       [7,"JUL"], [8,"AUG"], [9,"SEP"], [10,"OCT"], [11,"NOV"], [12,"DEC"]],\\n       font: {\\nsize: 12,\\n      family: "Open Sans, Arial",\\n      variant: "small-caps",\\n      color: "#697695"\\n       }\\n\\t},\\nyaxis: {\\ns:3, \\n  tickDecimals: 0,\\n  font: {size:12, color: "#9da3a9"}\\n       }\\n});\\n\\nfunction showTooltip(x, y, contents) {\\n\\t$(\\\'<div id="tooltip">\\\' + contents + \\\'</div>\\\').css( {\\nposition: \\\'absolute\\\',\\ndisplay: \\\'none\\\',\\ntop: y - 30,\\nleft: x - 50,\\ncolor: "#fff",\\npadding: \\\'2px 5px\\\',\\n\\\'border-radius\\\': \\\'6px\\\',\\n\\\'background-color\\\': \\\'#000\\\',\\nopacity: 0.80\\n}).appendTo("body").fadeIn(200);\\n}\\n\\nvar previousPoint = null;\\n$("#statsChart").bind("plothover", function (event, pos, item) {\\n\\t\\tif (item) {\\n\\t\\tif (previousPoint != item.dataIndex) {\\n\\t\\tpreviousPoint = item.dataIndex;\\n\\n\\t\\t$("#tooltip").remove();\\n\\t\\tvar x = item.datapoint[0].toFixed(0),\\n\\t\\ty = item.datapoint[1].toFixed(0);\\n\\n\\t\\tvar month = item.series.xaxis.ticks[item.dataIndex].label;\\n\\n\\t\\tshowTooltip(item.pageX, item.pageY,\\n\\t\\t\\titem.series.label + " of " + month + ": " + y);\\n\\t\\t}\\n\\t\\t}\\n                else {\\n\\t\\t                    $("#tooltip").remove();\\n\\t\\t\\t\\t                        previousPoint = null;\\n\\t\\t\\t\\t\\t\\t\\t                }\\n\\t\\t\\t\\t\\t\\t\\t\\t\\t            });\\n        });\\n    </script>\\n\\n\\n\', escape=False)\nresponse.write(\'\\r\\n \\r\\n    <!-- Footer ================================================== -->\\r\\n    <footer class="footer" id="footer">\\r\\n      \', escape=False)\nresponse.write(\' <!-- this is default footer -->\\r\\n      <div class="footer-content">\\r\\n\\t<div class="copyright pull-left">\', escape=False)\nresponse.write(T(\'Copyright\'))\nresponse.write(\' &#169; \', escape=False)\nresponse.write(request.now.year)\nresponse.write(\'</div>\\r\\n\\t<div id="poweredBy" class="pull-right">\\r\\n\\t  \', escape=False)\nresponse.write(T(\'Powered by\'))\nresponse.write(\'\\r\\n\\t  <a href="http://www.web2py.com/">web2py</a>\\r\\n\\t</div>\\r\\n      </div>\\r\\n      \', escape=False)\nresponse.write(\'\\r\\n    </footer>\\r\\n    \\r\\n  </div> <!-- /container -->\\r\\n\\r\\n\\r\\n\\r\\n    <script src="\', escape=False)\nresponse.write(URL(\'static\',\'js/jquery-latest.js\'))\nresponse.write(\'"></script>\\r\\n    <script src="\', escape=False)\nresponse.write(URL(\'static\',\'js/bootstrap.min.js\'))\nresponse.write(\'"></script>\\r\\n    <script src="\', escape=False)\nresponse.write(URL(\'static\',\'js/jquery-ui-1.10.2.custom.min.js\'))\nresponse.write(\'"></script>\\r\\n    <!-- knob -->\\r\\n    <script src="\', escape=False)\nresponse.write(URL(\'static\',\'js/jquery.knob.js\'))\nresponse.write(\'"></script>\\r\\n    <!-- flot charts -->\\r\\n    <script src="\', escape=False)\nresponse.write(URL(\'static\',\'js/jquery.flot.js\'))\nresponse.write(\'"></script>\\r\\n    <script src="\', escape=False)\nresponse.write(URL(\'static\',\'js/jquery.flot.stack.js\'))\nresponse.write(\'"></script>\\r\\n    <script src="\', escape=False)\nresponse.write(URL(\'static\',\'js/jquery.flot.resize.js\'))\nresponse.write(\'"></script>\\r\\n    <script src="\', escape=False)\nresponse.write(URL(\'static\',\'js/theme.js\'))\nresponse.write(\'"></script>\\r\\n    <script src="\', escape=False)\nresponse.write(URL(\'static\',\'js/jquery.validate.min.js\'))\nresponse.write(\'"></script>\\r\\n  <!--[if lt IE 7 ]>\\r\\n      <script src="\', escape=False)\nresponse.write(URL(\'static\',\'js/dd_belatedpng.js\'))\nresponse.write(\'"></script>\\r\\n      <script> DD_belatedPNG.fix(\\\'img, .png_bg\\\'); //fix any <img> or .png_bg background-images </script>\\r\\n      <![endif]-->\\r\\n  \', escape=False)\nif response.google_analytics_id:\n    response.write(\'<script type="text/javascript"> var _gaq = _gaq || []; _gaq.push([\\\'_setAccount\\\', \\\'\', escape=False)\n    response.write(response.google_analytics_id)\n    response.write("\']); _gaq.push([\'_trackPageview\']); (function() { var ga = document.createElement(\'script\'); ga.type = \'text/javascript\'; ga.async = true; ga.src = (\'https:\' == document.location.protocol ? \'https://ssl\' : \'http://www\') + \'.google-analytics.com/ga.js\'; var s = document.getElementsByTagName(\'script\')[0]; s.parentNode.insertBefore(ga, s); })(); </script> ", escape=False)\n    pass\nresponse.write(\'\\r\\n  <script src="\', escape=False)\nresponse.write(URL(\'static\',\'js/share.js\',vars=dict(static=URL(\'static\',\'images\'))))\nresponse.write(\'"></script>  \\r\\n</body>\\r\\n</html>\\r\\n\', escape=False)'
p7
sS'snapshot'
p8
(dp9
S'exception'
p10
(dp11
S'__getslice__'
p12
S"<method-wrapper '__getslice__' of exceptions.SyntaxError object>"
p13
sS'text'
p14
S'"if url==\'index\'\\n"'
p15
sS'__str__'
p16
S"<method-wrapper '__str__' of exceptions.SyntaxError object>"
p17
sS'__reduce__'
p18
S'<built-in method __reduce__ of exceptions.SyntaxError object>'
p19
sS'__dict__'
p20
S'{}'
p21
sS'__sizeof__'
p22
S'<built-in method __sizeof__ of exceptions.SyntaxError object>'
p23
sS'__init__'
p24
S"<method-wrapper '__init__' of exceptions.SyntaxError object>"
p25
sS'__setattr__'
p26
S"<method-wrapper '__setattr__' of exceptions.SyntaxError object>"
p27
sS'__reduce_ex__'
p28
S'<built-in method __reduce_ex__ of exceptions.SyntaxError object>'
p29
sS'__new__'
p30
S'<built-in method __new__ of type object>'
p31
sS'__format__'
p32
S'<built-in method __format__ of exceptions.SyntaxError object>'
p33
sS'__class__'
p34
S"<type 'exceptions.SyntaxError'>"
p35
sS'filename'
p36
S"'/home/mayank/Desktop/web2pyAdmin/web2py/web2py/applications/FunkLoad/views/default/testDetails.html'"
p37
sS'lineno'
p38
S'70'
p39
sS'msg'
p40
S"'invalid syntax'"
p41
sS'__doc__'
p42
S"'Invalid syntax.'"
p43
sS'__getitem__'
p44
S"<method-wrapper '__getitem__' of exceptions.SyntaxError object>"
p45
sS'__setstate__'
p46
S'<built-in method __setstate__ of exceptions.SyntaxError object>'
p47
sS'__getattribute__'
p48
S"<method-wrapper '__getattribute__' of exceptions.SyntaxError object>"
p49
sS'print_file_and_line'
p50
S'None'
p51
sS'args'
p52
S'(\'invalid syntax\', (\'/home/mayank/Desktop/web2pyAdmin/web2py/web2py/applications/FunkLoad/views/default/testDetails.html\', 70, 16, "if url==\'index\'\\n"))'
p53
sS'__subclasshook__'
p54
S'<built-in method __subclasshook__ of type object>'
p55
sS'offset'
p56
S'16'
p57
sS'__unicode__'
p58
S'<built-in method __unicode__ of exceptions.SyntaxError object>'
p59
sS'__delattr__'
p60
S"<method-wrapper '__delattr__' of exceptions.SyntaxError object>"
p61
sS'__repr__'
p62
S"<method-wrapper '__repr__' of exceptions.SyntaxError object>"
p63
sS'__hash__'
p64
S"<method-wrapper '__hash__' of exceptions.SyntaxError object>"
p65
ssS'evalue'
p66
S'invalid syntax (testDetails.html, line 70)'
p67
sS'request'
p68
ccopy_reg
_reconstructor
p69
(cgluon.html
BEAUTIFY
p70
c__builtin__
object
p71
NtRp72
(dp73
S'attributes'
p74
(dp75
sS'components'
p76
(lp77
g69
(cgluon.html
TABLE
p78
g71
NtRp79
(dp80
g74
(dp81
S'level'
p82
I5
ssS'parent'
p83
Nsg76
(lp84
g69
(cgluon.html
TR
p85
g71
NtRp86
(dp87
g74
(dp88
sg83
g79
sg76
(lp89
g69
(cgluon.html
TD
p90
g71
NtRp91
(dp92
g74
(dp93
S'_style'
p94
S'font-weight:bold;vertical-align:top'
p95
ssg83
g86
sg76
(lp96
S'ajax'
p97
asbag69
(g90
g71
NtRp98
(dp99
g74
(dp100
S'_valign'
p101
S'top'
p102
ssg83
g86
sg76
(lp103
S':'
asbag69
(g90
g71
NtRp104
(dp105
g74
(dp106
sg83
g86
sg76
(lp107
g69
(g70
g71
NtRp108
(dp109
g74
(dp110
g82
I5
ssg83
g104
sg76
(lp111
S'False'
p112
asbasbasbag69
(g85
g71
NtRp113
(dp114
g74
(dp115
sg83
g79
sg76
(lp116
g69
(g90
g71
NtRp117
(dp118
g74
(dp119
g94
g95
ssg83
g113
sg76
(lp120
S'application'
p121
asbag69
(g90
g71
NtRp122
(dp123
g74
(dp124
g101
g102
ssg83
g113
sg76
(lp125
S':'
asbag69
(g90
g71
NtRp126
(dp127
g74
(dp128
sg83
g113
sg76
(lp129
g69
(g70
g71
NtRp130
(dp131
g74
(dp132
g82
I5
ssg83
g126
sg76
(lp133
S'FunkLoad'
p134
asbasbasbag69
(g85
g71
NtRp135
(dp136
g74
(dp137
sg83
g79
sg76
(lp138
g69
(g90
g71
NtRp139
(dp140
g74
(dp141
g94
g95
ssg83
g135
sg76
(lp142
g52
asbag69
(g90
g71
NtRp143
(dp144
g74
(dp145
g101
g102
ssg83
g135
sg76
(lp146
S':'
asbag69
(g90
g71
NtRp147
(dp148
g74
(dp149
sg83
g135
sg76
(lp150
g69
(g70
g71
NtRp151
(dp152
g74
(dp153
g82
I5
ssg83
g147
sg76
(lp154
g69
(g78
g71
NtRp155
(dp156
g74
(dp157
g82
I4
ssg83
Nsg76
(lp158
sbasbasbasbag69
(g85
g71
NtRp159
(dp160
g74
(dp161
sg83
g79
sg76
(lp162
g69
(g90
g71
NtRp163
(dp164
g74
(dp165
g94
g95
ssg83
g159
sg76
(lp166
S'body'
p167
asbag69
(g90
g71
NtRp168
(dp169
g74
(dp170
g101
g102
ssg83
g159
sg76
(lp171
S':'
asbag69
(g90
g71
NtRp172
(dp173
g74
(dp174
sg83
g159
sg76
(lp175
g69
(g70
g71
NtRp176
(dp177
g74
(dp178
g82
I5
ssg83
g172
sg76
(lp179
S'<cStringIO.StringO object at 0x7f7a604dd928>'
p180
asbasbasbag69
(g85
g71
NtRp181
(dp182
g74
(dp183
sg83
g79
sg76
(lp184
g69
(g90
g71
NtRp185
(dp186
g74
(dp187
g94
g95
ssg83
g181
sg76
(lp188
S'cid'
p189
asbag69
(g90
g71
NtRp190
(dp191
g74
(dp192
g101
g102
ssg83
g181
sg76
(lp193
S':'
asbag69
(g90
g71
NtRp194
(dp195
g74
(dp196
sg83
g181
sg76
(lp197
g69
(g70
g71
NtRp198
(dp199
g74
(dp200
g82
I5
ssg83
g194
sg76
(lp201
S'None'
p202
asbasbasbag69
(g85
g71
NtRp203
(dp204
g74
(dp205
sg83
g79
sg76
(lp206
g69
(g90
g71
NtRp207
(dp208
g74
(dp209
g94
g95
ssg83
g203
sg76
(lp210
S'client'
p211
asbag69
(g90
g71
NtRp212
(dp213
g74
(dp214
g101
g102
ssg83
g203
sg76
(lp215
S':'
asbag69
(g90
g71
NtRp216
(dp217
g74
(dp218
sg83
g203
sg76
(lp219
g69
(g70
g71
NtRp220
(dp221
g74
(dp222
g82
I5
ssg83
g216
sg76
(lp223
S'10.1.33.107'
p224
asbasbasbag69
(g85
g71
NtRp225
(dp226
g74
(dp227
sg83
g79
sg76
(lp228
g69
(g90
g71
NtRp229
(dp230
g74
(dp231
g94
g95
ssg83
g225
sg76
(lp232
S'controller'
p233
asbag69
(g90
g71
NtRp234
(dp235
g74
(dp236
g101
g102
ssg83
g225
sg76
(lp237
S':'
asbag69
(g90
g71
NtRp238
(dp239
g74
(dp240
sg83
g225
sg76
(lp241
g69
(g70
g71
NtRp242
(dp243
g74
(dp244
g82
I5
ssg83
g238
sg76
(lp245
S'default'
p246
asbasbasbag69
(g85
g71
NtRp247
(dp248
g74
(dp249
sg83
g79
sg76
(lp250
g69
(g90
g71
NtRp251
(dp252
g74
(dp253
g94
g95
ssg83
g247
sg76
(lp254
S'cookies'
p255
asbag69
(g90
g71
NtRp256
(dp257
g74
(dp258
g101
g102
ssg83
g247
sg76
(lp259
S':'
asbag69
(g90
g71
NtRp260
(dp261
g74
(dp262
sg83
g247
sg76
(lp263
g69
(g70
g71
NtRp264
(dp265
g74
(dp266
g82
I5
ssg83
g260
sg76
(lp267
g69
(g78
g71
NtRp268
(dp269
g74
(dp270
g82
I4
ssg83
Nsg76
(lp271
g69
(g85
g71
NtRp272
(dp273
g74
(dp274
sg83
g268
sg76
(lp275
g69
(g90
g71
NtRp276
(dp277
g74
(dp278
g94
g95
ssg83
g272
sg76
(lp279
S'session_id_admin'
p280
asbag69
(g90
g71
NtRp281
(dp282
g74
(dp283
g101
g102
ssg83
g272
sg76
(lp284
S':'
asbag69
(g90
g71
NtRp285
(dp286
g74
(dp287
sg83
g272
sg76
(lp288
g69
(g70
g71
NtRp289
(dp290
g74
(dp291
g82
I4
ssg83
g285
sg76
(lp292
S'10.1.33.107-cc833ea9-972a-468c-9599-25843d70bea7'
p293
ag69
(g78
g71
NtRp294
(dp295
g74
(dp296
g82
I3
ssg83
Nsg76
(lp297
g69
(g85
g71
NtRp298
(dp299
g74
(dp300
sg83
g294
sg76
(lp301
g69
(g90
g71
NtRp302
(dp303
g74
(dp304
g94
g95
ssg83
g298
sg76
(lp305
S'comment'
p306
asbag69
(g90
g71
NtRp307
(dp308
g74
(dp309
g101
g102
ssg83
g298
sg76
(lp310
S':'
asbag69
(g90
g71
NtRp311
(dp312
g74
(dp313
sg83
g298
sg76
(lp314
g69
(g70
g71
NtRp315
(dp316
g74
(dp317
g82
I3
ssg83
g311
sg76
(lp318
S''
asbasbasbag69
(g85
g71
NtRp319
(dp320
g74
(dp321
sg83
g294
sg76
(lp322
g69
(g90
g71
NtRp323
(dp324
g74
(dp325
g94
g95
ssg83
g319
sg76
(lp326
S'domain'
p327
asbag69
(g90
g71
NtRp328
(dp329
g74
(dp330
g101
g102
ssg83
g319
sg76
(lp331
S':'
asbag69
(g90
g71
NtRp332
(dp333
g74
(dp334
sg83
g319
sg76
(lp335
g69
(g70
g71
NtRp336
(dp337
g74
(dp338
g82
I3
ssg83
g332
sg76
(lp339
S''
asbasbasbag69
(g85
g71
NtRp340
(dp341
g74
(dp342
sg83
g294
sg76
(lp343
g69
(g90
g71
NtRp344
(dp345
g74
(dp346
g94
g95
ssg83
g340
sg76
(lp347
S'expires'
p348
asbag69
(g90
g71
NtRp349
(dp350
g74
(dp351
g101
g102
ssg83
g340
sg76
(lp352
S':'
asbag69
(g90
g71
NtRp353
(dp354
g74
(dp355
sg83
g340
sg76
(lp356
g69
(g70
g71
NtRp357
(dp358
g74
(dp359
g82
I3
ssg83
g353
sg76
(lp360
S''
asbasbasbag69
(g85
g71
NtRp361
(dp362
g74
(dp363
sg83
g294
sg76
(lp364
g69
(g90
g71
NtRp365
(dp366
g74
(dp367
g94
g95
ssg83
g361
sg76
(lp368
S'httponly'
p369
asbag69
(g90
g71
NtRp370
(dp371
g74
(dp372
g101
g102
ssg83
g361
sg76
(lp373
S':'
asbag69
(g90
g71
NtRp374
(dp375
g74
(dp376
sg83
g361
sg76
(lp377
g69
(g70
g71
NtRp378
(dp379
g74
(dp380
g82
I3
ssg83
g374
sg76
(lp381
S''
asbasbasbag69
(g85
g71
NtRp382
(dp383
g74
(dp384
sg83
g294
sg76
(lp385
g69
(g90
g71
NtRp386
(dp387
g74
(dp388
g94
g95
ssg83
g382
sg76
(lp389
S'max-age'
p390
asbag69
(g90
g71
NtRp391
(dp392
g74
(dp393
g101
g102
ssg83
g382
sg76
(lp394
S':'
asbag69
(g90
g71
NtRp395
(dp396
g74
(dp397
sg83
g382
sg76
(lp398
g69
(g70
g71
NtRp399
(dp400
g74
(dp401
g82
I3
ssg83
g395
sg76
(lp402
S''
asbasbasbag69
(g85
g71
NtRp403
(dp404
g74
(dp405
sg83
g294
sg76
(lp406
g69
(g90
g71
NtRp407
(dp408
g74
(dp409
g94
g95
ssg83
g403
sg76
(lp410
S'path'
p411
asbag69
(g90
g71
NtRp412
(dp413
g74
(dp414
g101
g102
ssg83
g403
sg76
(lp415
S':'
asbag69
(g90
g71
NtRp416
(dp417
g74
(dp418
sg83
g403
sg76
(lp419
g69
(g70
g71
NtRp420
(dp421
g74
(dp422
g82
I3
ssg83
g416
sg76
(lp423
S''
asbasbasbag69
(g85
g71
NtRp424
(dp425
g74
(dp426
sg83
g294
sg76
(lp427
g69
(g90
g71
NtRp428
(dp429
g74
(dp430
g94
g95
ssg83
g424
sg76
(lp431
S'secure'
p432
asbag69
(g90
g71
NtRp433
(dp434
g74
(dp435
g101
g102
ssg83
g424
sg76
(lp436
S':'
asbag69
(g90
g71
NtRp437
(dp438
g74
(dp439
sg83
g424
sg76
(lp440
g69
(g70
g71
NtRp441
(dp442
g74
(dp443
g82
I3
ssg83
g437
sg76
(lp444
S''
asbasbasbag69
(g85
g71
NtRp445
(dp446
g74
(dp447
sg83
g294
sg76
(lp448
g69
(g90
g71
NtRp449
(dp450
g74
(dp451
g94
g95
ssg83
g445
sg76
(lp452
S'version'
p453
asbag69
(g90
g71
NtRp454
(dp455
g74
(dp456
g101
g102
ssg83
g445
sg76
(lp457
S':'
asbag69
(g90
g71
NtRp458
(dp459
g74
(dp460
sg83
g445
sg76
(lp461
g69
(g70
g71
NtRp462
(dp463
g74
(dp464
g82
I3
ssg83
g458
sg76
(lp465
S''
asbasbasbasbasbasbasbag69
(g85
g71
NtRp466
(dp467
g74
(dp468
sg83
g268
sg76
(lp469
g69
(g90
g71
NtRp470
(dp471
g74
(dp472
g94
g95
ssg83
g466
sg76
(lp473
S'session_id_funkload'
p474
asbag69
(g90
g71
NtRp475
(dp476
g74
(dp477
g101
g102
ssg83
g466
sg76
(lp478
S':'
asbag69
(g90
g71
NtRp479
(dp480
g74
(dp481
sg83
g466
sg76
(lp482
g69
(g70
g71
NtRp483
(dp484
g74
(dp485
g82
I4
ssg83
g479
sg76
(lp486
S'10.1.33.107-36ba3c88-7bcb-4a0e-bb0a-8936efb689ab'
p487
ag69
(g78
g71
NtRp488
(dp489
g74
(dp490
g82
I3
ssg83
Nsg76
(lp491
g69
(g85
g71
NtRp492
(dp493
g74
(dp494
sg83
g488
sg76
(lp495
g69
(g90
g71
NtRp496
(dp497
g74
(dp498
g94
g95
ssg83
g492
sg76
(lp499
g306
asbag69
(g90
g71
NtRp500
(dp501
g74
(dp502
g101
g102
ssg83
g492
sg76
(lp503
S':'
asbag69
(g90
g71
NtRp504
(dp505
g74
(dp506
sg83
g492
sg76
(lp507
g69
(g70
g71
NtRp508
(dp509
g74
(dp510
g82
I3
ssg83
g504
sg76
(lp511
S''
asbasbasbag69
(g85
g71
NtRp512
(dp513
g74
(dp514
sg83
g488
sg76
(lp515
g69
(g90
g71
NtRp516
(dp517
g74
(dp518
g94
g95
ssg83
g512
sg76
(lp519
g327
asbag69
(g90
g71
NtRp520
(dp521
g74
(dp522
g101
g102
ssg83
g512
sg76
(lp523
S':'
asbag69
(g90
g71
NtRp524
(dp525
g74
(dp526
sg83
g512
sg76
(lp527
g69
(g70
g71
NtRp528
(dp529
g74
(dp530
g82
I3
ssg83
g524
sg76
(lp531
S''
asbasbasbag69
(g85
g71
NtRp532
(dp533
g74
(dp534
sg83
g488
sg76
(lp535
g69
(g90
g71
NtRp536
(dp537
g74
(dp538
g94
g95
ssg83
g532
sg76
(lp539
g348
asbag69
(g90
g71
NtRp540
(dp541
g74
(dp542
g101
g102
ssg83
g532
sg76
(lp543
S':'
asbag69
(g90
g71
NtRp544
(dp545
g74
(dp546
sg83
g532
sg76
(lp547
g69
(g70
g71
NtRp548
(dp549
g74
(dp550
g82
I3
ssg83
g544
sg76
(lp551
S''
asbasbasbag69
(g85
g71
NtRp552
(dp553
g74
(dp554
sg83
g488
sg76
(lp555
g69
(g90
g71
NtRp556
(dp557
g74
(dp558
g94
g95
ssg83
g552
sg76
(lp559
g369
asbag69
(g90
g71
NtRp560
(dp561
g74
(dp562
g101
g102
ssg83
g552
sg76
(lp563
S':'
asbag69
(g90
g71
NtRp564
(dp565
g74
(dp566
sg83
g552
sg76
(lp567
g69
(g70
g71
NtRp568
(dp569
g74
(dp570
g82
I3
ssg83
g564
sg76
(lp571
S''
asbasbasbag69
(g85
g71
NtRp572
(dp573
g74
(dp574
sg83
g488
sg76
(lp575
g69
(g90
g71
NtRp576
(dp577
g74
(dp578
g94
g95
ssg83
g572
sg76
(lp579
g390
asbag69
(g90
g71
NtRp580
(dp581
g74
(dp582
g101
g102
ssg83
g572
sg76
(lp583
S':'
asbag69
(g90
g71
NtRp584
(dp585
g74
(dp586
sg83
g572
sg76
(lp587
g69
(g70
g71
NtRp588
(dp589
g74
(dp590
g82
I3
ssg83
g584
sg76
(lp591
S''
asbasbasbag69
(g85
g71
NtRp592
(dp593
g74
(dp594
sg83
g488
sg76
(lp595
g69
(g90
g71
NtRp596
(dp597
g74
(dp598
g94
g95
ssg83
g592
sg76
(lp599
g411
asbag69
(g90
g71
NtRp600
(dp601
g74
(dp602
g101
g102
ssg83
g592
sg76
(lp603
S':'
asbag69
(g90
g71
NtRp604
(dp605
g74
(dp606
sg83
g592
sg76
(lp607
g69
(g70
g71
NtRp608
(dp609
g74
(dp610
g82
I3
ssg83
g604
sg76
(lp611
S''
asbasbasbag69
(g85
g71
NtRp612
(dp613
g74
(dp614
sg83
g488
sg76
(lp615
g69
(g90
g71
NtRp616
(dp617
g74
(dp618
g94
g95
ssg83
g612
sg76
(lp619
g432
asbag69
(g90
g71
NtRp620
(dp621
g74
(dp622
g101
g102
ssg83
g612
sg76
(lp623
S':'
asbag69
(g90
g71
NtRp624
(dp625
g74
(dp626
sg83
g612
sg76
(lp627
g69
(g70
g71
NtRp628
(dp629
g74
(dp630
g82
I3
ssg83
g624
sg76
(lp631
S''
asbasbasbag69
(g85
g71
NtRp632
(dp633
g74
(dp634
sg83
g488
sg76
(lp635
g69
(g90
g71
NtRp636
(dp637
g74
(dp638
g94
g95
ssg83
g632
sg76
(lp639
g453
asbag69
(g90
g71
NtRp640
(dp641
g74
(dp642
g101
g102
ssg83
g632
sg76
(lp643
S':'
asbag69
(g90
g71
NtRp644
(dp645
g74
(dp646
sg83
g632
sg76
(lp647
g69
(g70
g71
NtRp648
(dp649
g74
(dp650
g82
I3
ssg83
g644
sg76
(lp651
S''
asbasbasbasbasbasbasbag69
(g85
g71
NtRp652
(dp653
g74
(dp654
sg83
g268
sg76
(lp655
g69
(g90
g71
NtRp656
(dp657
g74
(dp658
g94
g95
ssg83
g652
sg76
(lp659
S'session_id_welcome'
p660
asbag69
(g90
g71
NtRp661
(dp662
g74
(dp663
g101
g102
ssg83
g652
sg76
(lp664
S':'
asbag69
(g90
g71
NtRp665
(dp666
g74
(dp667
sg83
g652
sg76
(lp668
g69
(g70
g71
NtRp669
(dp670
g74
(dp671
g82
I4
ssg83
g665
sg76
(lp672
S'10.1.33.107-c50187d4-7446-40e0-9eea-8071c640ac0b'
p673
ag69
(g78
g71
NtRp674
(dp675
g74
(dp676
g82
I3
ssg83
Nsg76
(lp677
g69
(g85
g71
NtRp678
(dp679
g74
(dp680
sg83
g674
sg76
(lp681
g69
(g90
g71
NtRp682
(dp683
g74
(dp684
g94
g95
ssg83
g678
sg76
(lp685
g306
asbag69
(g90
g71
NtRp686
(dp687
g74
(dp688
g101
g102
ssg83
g678
sg76
(lp689
S':'
asbag69
(g90
g71
NtRp690
(dp691
g74
(dp692
sg83
g678
sg76
(lp693
g69
(g70
g71
NtRp694
(dp695
g74
(dp696
g82
I3
ssg83
g690
sg76
(lp697
S''
asbasbasbag69
(g85
g71
NtRp698
(dp699
g74
(dp700
sg83
g674
sg76
(lp701
g69
(g90
g71
NtRp702
(dp703
g74
(dp704
g94
g95
ssg83
g698
sg76
(lp705
g327
asbag69
(g90
g71
NtRp706
(dp707
g74
(dp708
g101
g102
ssg83
g698
sg76
(lp709
S':'
asbag69
(g90
g71
NtRp710
(dp711
g74
(dp712
sg83
g698
sg76
(lp713
g69
(g70
g71
NtRp714
(dp715
g74
(dp716
g82
I3
ssg83
g710
sg76
(lp717
S''
asbasbasbag69
(g85
g71
NtRp718
(dp719
g74
(dp720
sg83
g674
sg76
(lp721
g69
(g90
g71
NtRp722
(dp723
g74
(dp724
g94
g95
ssg83
g718
sg76
(lp725
g348
asbag69
(g90
g71
NtRp726
(dp727
g74
(dp728
g101
g102
ssg83
g718
sg76
(lp729
S':'
asbag69
(g90
g71
NtRp730
(dp731
g74
(dp732
sg83
g718
sg76
(lp733
g69
(g70
g71
NtRp734
(dp735
g74
(dp736
g82
I3
ssg83
g730
sg76
(lp737
S''
asbasbasbag69
(g85
g71
NtRp738
(dp739
g74
(dp740
sg83
g674
sg76
(lp741
g69
(g90
g71
NtRp742
(dp743
g74
(dp744
g94
g95
ssg83
g738
sg76
(lp745
g369
asbag69
(g90
g71
NtRp746
(dp747
g74
(dp748
g101
g102
ssg83
g738
sg76
(lp749
S':'
asbag69
(g90
g71
NtRp750
(dp751
g74
(dp752
sg83
g738
sg76
(lp753
g69
(g70
g71
NtRp754
(dp755
g74
(dp756
g82
I3
ssg83
g750
sg76
(lp757
S''
asbasbasbag69
(g85
g71
NtRp758
(dp759
g74
(dp760
sg83
g674
sg76
(lp761
g69
(g90
g71
NtRp762
(dp763
g74
(dp764
g94
g95
ssg83
g758
sg76
(lp765
g390
asbag69
(g90
g71
NtRp766
(dp767
g74
(dp768
g101
g102
ssg83
g758
sg76
(lp769
S':'
asbag69
(g90
g71
NtRp770
(dp771
g74
(dp772
sg83
g758
sg76
(lp773
g69
(g70
g71
NtRp774
(dp775
g74
(dp776
g82
I3
ssg83
g770
sg76
(lp777
S''
asbasbasbag69
(g85
g71
NtRp778
(dp779
g74
(dp780
sg83
g674
sg76
(lp781
g69
(g90
g71
NtRp782
(dp783
g74
(dp784
g94
g95
ssg83
g778
sg76
(lp785
g411
asbag69
(g90
g71
NtRp786
(dp787
g74
(dp788
g101
g102
ssg83
g778
sg76
(lp789
S':'
asbag69
(g90
g71
NtRp790
(dp791
g74
(dp792
sg83
g778
sg76
(lp793
g69
(g70
g71
NtRp794
(dp795
g74
(dp796
g82
I3
ssg83
g790
sg76
(lp797
S''
asbasbasbag69
(g85
g71
NtRp798
(dp799
g74
(dp800
sg83
g674
sg76
(lp801
g69
(g90
g71
NtRp802
(dp803
g74
(dp804
g94
g95
ssg83
g798
sg76
(lp805
g432
asbag69
(g90
g71
NtRp806
(dp807
g74
(dp808
g101
g102
ssg83
g798
sg76
(lp809
S':'
asbag69
(g90
g71
NtRp810
(dp811
g74
(dp812
sg83
g798
sg76
(lp813
g69
(g70
g71
NtRp814
(dp815
g74
(dp816
g82
I3
ssg83
g810
sg76
(lp817
S''
asbasbasbag69
(g85
g71
NtRp818
(dp819
g74
(dp820
sg83
g674
sg76
(lp821
g69
(g90
g71
NtRp822
(dp823
g74
(dp824
g94
g95
ssg83
g818
sg76
(lp825
g453
asbag69
(g90
g71
NtRp826
(dp827
g74
(dp828
g101
g102
ssg83
g818
sg76
(lp829
S':'
asbag69
(g90
g71
NtRp830
(dp831
g74
(dp832
sg83
g818
sg76
(lp833
g69
(g70
g71
NtRp834
(dp835
g74
(dp836
g82
I3
ssg83
g830
sg76
(lp837
S''
asbasbasbasbasbasbasbasbasbasbasbag69
(g85
g71
NtRp838
(dp839
g74
(dp840
sg83
g79
sg76
(lp841
g69
(g90
g71
NtRp842
(dp843
g74
(dp844
g94
g95
ssg83
g838
sg76
(lp845
S'env'
p846
asbag69
(g90
g71
NtRp847
(dp848
g74
(dp849
g101
g102
ssg83
g838
sg76
(lp850
S':'
asbag69
(g90
g71
NtRp851
(dp852
g74
(dp853
sg83
g838
sg76
(lp854
g69
(g70
g71
NtRp855
(dp856
g74
(dp857
g82
I5
ssg83
g851
sg76
(lp858
g69
(g78
g71
NtRp859
(dp860
g74
(dp861
g82
I4
ssg83
Nsg76
(lp862
g69
(g85
g71
NtRp863
(dp864
g74
(dp865
sg83
g859
sg76
(lp866
g69
(g90
g71
NtRp867
(dp868
g74
(dp869
g94
g95
ssg83
g863
sg76
(lp870
S'app_folders'
p871
asbag69
(g90
g71
NtRp872
(dp873
g74
(dp874
g101
g102
ssg83
g863
sg76
(lp875
S':'
asbag69
(g90
g71
NtRp876
(dp877
g74
(dp878
sg83
g863
sg76
(lp879
g69
(g70
g71
NtRp880
(dp881
g74
(dp882
g82
I4
ssg83
g876
sg76
(lp883
S"set(['/home/mayank/Desktop/web2pyAdmin/web2py/web2py/applications/welcome/', '/home/mayank/Desktop/web2pyAdmin/web2py/web2py/applications/admin/', '/home/mayank/Desktop/web2pyAdmin/web2py/web2py/applications/FunkLoad/'])"
p884
asbasbasbag69
(g85
g71
NtRp885
(dp886
g74
(dp887
sg83
g859
sg76
(lp888
g69
(g90
g71
NtRp889
(dp890
g74
(dp891
g94
g95
ssg83
g885
sg76
(lp892
S'applications_parent'
p893
asbag69
(g90
g71
NtRp894
(dp895
g74
(dp896
g101
g102
ssg83
g885
sg76
(lp897
S':'
asbag69
(g90
g71
NtRp898
(dp899
g74
(dp900
sg83
g885
sg76
(lp901
g69
(g70
g71
NtRp902
(dp903
g74
(dp904
g82
I4
ssg83
g898
sg76
(lp905
S'/home/mayank/Desktop/web2pyAdmin/web2py/web2py'
p906
asbasbasbag69
(g85
g71
NtRp907
(dp908
g74
(dp909
sg83
g859
sg76
(lp910
g69
(g90
g71
NtRp911
(dp912
g74
(dp913
g94
g95
ssg83
g907
sg76
(lp914
S'cmd_args'
p915
asbag69
(g90
g71
NtRp916
(dp917
g74
(dp918
g101
g102
ssg83
g907
sg76
(lp919
S':'
asbag69
(g90
g71
NtRp920
(dp921
g74
(dp922
sg83
g907
sg76
(lp923
g69
(g70
g71
NtRp924
(dp925
g74
(dp926
g82
I4
ssg83
g920
sg76
(lp927
g69
(g78
g71
NtRp928
(dp929
g74
(dp930
g82
I3
ssg83
Nsg76
(lp931
sbasbasbasbag69
(g85
g71
NtRp932
(dp933
g74
(dp934
sg83
g859
sg76
(lp935
g69
(g90
g71
NtRp936
(dp937
g74
(dp938
g94
g95
ssg83
g932
sg76
(lp939
S'cmd_options'
p940
asbag69
(g90
g71
NtRp941
(dp942
g74
(dp943
g101
g102
ssg83
g932
sg76
(lp944
S':'
asbag69
(g90
g71
NtRp945
(dp946
g74
(dp947
sg83
g932
sg76
(lp948
g69
(g70
g71
NtRp949
(dp950
g74
(dp951
g82
I4
ssg83
g945
sg76
(lp952
S"<Values at 0x2bfd9e0: {'verbose': False, 'ip': '10.1.33.107', 'with_scheduler': False, 'ips': ['127.0.1.1', '10.1.33.121'], 'shutdown_timeout': 5, 'taskbar': False, 'port': 8000, 'maxthreads': None, 'softcron': False, 'server_name': 'mayank', 'bpython': False, 'nogui': False, 'nocron': False, 'extcron': False, 'run_system_tests': False, 'test': None, 'folder': '/home/mayank/Desktop/web2pyAdmin/web2py/web2py', 'config': '', 'import_models': False, 'winservice': '', 'shell': None, 'run': '', 'log_filename': 'httpserver.log', 'debuglevel': 30, 'args': [''], 'socket_timeout': 5, 'ssl_ca_certificate': None, 'scheduler': None, 'profiler_filename': None, 'ssl_private_key': '', 'scheduler_groups': None, 'password': '<ask>', 'request_queue_size': 5, 'ssl_certificate': '', 'cronjob': False, 'numthreads': None, 'quiet': False, 'interfaces': None, 'minthreads': None, 'timeout': 10, 'plain': False, 'nobanner': False, 'pid_filename': 'httpserver.pid'}>"
p953
asbasbasbag69
(g85
g71
NtRp954
(dp955
g74
(dp956
sg83
g859
sg76
(lp957
g69
(g90
g71
NtRp958
(dp959
g74
(dp960
g94
g95
ssg83
g954
sg76
(lp961
S'db_sessions'
p962
asbag69
(g90
g71
NtRp963
(dp964
g74
(dp965
g101
g102
ssg83
g954
sg76
(lp966
S':'
asbag69
(g90
g71
NtRp967
(dp968
g74
(dp969
sg83
g954
sg76
(lp970
g69
(g70
g71
NtRp971
(dp972
g74
(dp973
g82
I4
ssg83
g967
sg76
(lp974
S'set([])'
p975
asbasbasbag69
(g85
g71
NtRp976
(dp977
g74
(dp978
sg83
g859
sg76
(lp979
g69
(g90
g71
NtRp980
(dp981
g74
(dp982
g94
g95
ssg83
g976
sg76
(lp983
S'debugging'
p984
asbag69
(g90
g71
NtRp985
(dp986
g74
(dp987
g101
g102
ssg83
g976
sg76
(lp988
S':'
asbag69
(g90
g71
NtRp989
(dp990
g74
(dp991
sg83
g976
sg76
(lp992
g69
(g70
g71
NtRp993
(dp994
g74
(dp995
g82
I4
ssg83
g989
sg76
(lp996
g112
asbasbasbag69
(g85
g71
NtRp997
(dp998
g74
(dp999
sg83
g859
sg76
(lp1000
g69
(g90
g71
NtRp1001
(dp1002
g74
(dp1003
g94
g95
ssg83
g997
sg76
(lp1004
S'gluon_parent'
p1005
asbag69
(g90
g71
NtRp1006
(dp1007
g74
(dp1008
g101
g102
ssg83
g997
sg76
(lp1009
S':'
asbag69
(g90
g71
NtRp1010
(dp1011
g74
(dp1012
sg83
g997
sg76
(lp1013
g69
(g70
g71
NtRp1014
(dp1015
g74
(dp1016
g82
I4
ssg83
g1010
sg76
(lp1017
S'/home/mayank/Desktop/web2pyAdmin/web2py/web2py'
p1018
asbasbasbag69
(g85
g71
NtRp1019
(dp1020
g74
(dp1021
sg83
g859
sg76
(lp1022
g69
(g90
g71
NtRp1023
(dp1024
g74
(dp1025
g94
g95
ssg83
g1019
sg76
(lp1026
S'http_accept'
p1027
asbag69
(g90
g71
NtRp1028
(dp1029
g74
(dp1030
g101
g102
ssg83
g1019
sg76
(lp1031
S':'
asbag69
(g90
g71
NtRp1032
(dp1033
g74
(dp1034
sg83
g1019
sg76
(lp1035
g69
(g70
g71
NtRp1036
(dp1037
g74
(dp1038
g82
I4
ssg83
g1032
sg76
(lp1039
S'text/html,application/xhtml+xml,application/xml;q=0.9,image/webp,*/*;q=0.8'
p1040
asbasbasbag69
(g85
g71
NtRp1041
(dp1042
g74
(dp1043
sg83
g859
sg76
(lp1044
g69
(g90
g71
NtRp1045
(dp1046
g74
(dp1047
g94
g95
ssg83
g1041
sg76
(lp1048
S'http_accept_encoding'
p1049
asbag69
(g90
g71
NtRp1050
(dp1051
g74
(dp1052
g101
g102
ssg83
g1041
sg76
(lp1053
S':'
asbag69
(g90
g71
NtRp1054
(dp1055
g74
(dp1056
sg83
g1041
sg76
(lp1057
g69
(g70
g71
NtRp1058
(dp1059
g74
(dp1060
g82
I4
ssg83
g1054
sg76
(lp1061
S'gzip,deflate,sdch'
p1062
asbasbasbag69
(g85
g71
NtRp1063
(dp1064
g74
(dp1065
sg83
g859
sg76
(lp1066
g69
(g90
g71
NtRp1067
(dp1068
g74
(dp1069
g94
g95
ssg83
g1063
sg76
(lp1070
S'http_accept_language'
p1071
asbag69
(g90
g71
NtRp1072
(dp1073
g74
(dp1074
g101
g102
ssg83
g1063
sg76
(lp1075
S':'
asbag69
(g90
g71
NtRp1076
(dp1077
g74
(dp1078
sg83
g1063
sg76
(lp1079
g69
(g70
g71
NtRp1080
(dp1081
g74
(dp1082
g82
I4
ssg83
g1076
sg76
(lp1083
S'en-US,en;q=0.8'
p1084
asbasbasbag69
(g85
g71
NtRp1085
(dp1086
g74
(dp1087
sg83
g859
sg76
(lp1088
g69
(g90
g71
NtRp1089
(dp1090
g74
(dp1091
g94
g95
ssg83
g1085
sg76
(lp1092
S'http_cache_control'
p1093
asbag69
(g90
g71
NtRp1094
(dp1095
g74
(dp1096
g101
g102
ssg83
g1085
sg76
(lp1097
S':'
asbag69
(g90
g71
NtRp1098
(dp1099
g74
(dp1100
sg83
g1085
sg76
(lp1101
g69
(g70
g71
NtRp1102
(dp1103
g74
(dp1104
g82
I4
ssg83
g1098
sg76
(lp1105
S'no-cache'
p1106
asbasbasbag69
(g85
g71
NtRp1107
(dp1108
g74
(dp1109
sg83
g859
sg76
(lp1110
g69
(g90
g71
NtRp1111
(dp1112
g74
(dp1113
g94
g95
ssg83
g1107
sg76
(lp1114
S'http_connection'
p1115
asbag69
(g90
g71
NtRp1116
(dp1117
g74
(dp1118
g101
g102
ssg83
g1107
sg76
(lp1119
S':'
asbag69
(g90
g71
NtRp1120
(dp1121
g74
(dp1122
sg83
g1107
sg76
(lp1123
g69
(g70
g71
NtRp1124
(dp1125
g74
(dp1126
g82
I4
ssg83
g1120
sg76
(lp1127
S'keep-alive'
p1128
asbasbasbag69
(g85
g71
NtRp1129
(dp1130
g74
(dp1131
sg83
g859
sg76
(lp1132
g69
(g90
g71
NtRp1133
(dp1134
g74
(dp1135
g94
g95
ssg83
g1129
sg76
(lp1136
S'http_cookie'
p1137
asbag69
(g90
g71
NtRp1138
(dp1139
g74
(dp1140
g101
g102
ssg83
g1129
sg76
(lp1141
S':'
asbag69
(g90
g71
NtRp1142
(dp1143
g74
(dp1144
sg83
g1129
sg76
(lp1145
g69
(g70
g71
NtRp1146
(dp1147
g74
(dp1148
g82
I4
ssg83
g1142
sg76
(lp1149
S'session_id_welcome=10.1.33.107-c50187d4-7446-40e0-9eea-8071c640ac0b; session_id_admin=10.1.33.107-cc833ea9-972a-468c-9599-25843d70bea7; session_id_funkload=10.1.33.107-36ba3c88-7bcb-4a0e-bb0a-8936efb689ab'
p1150
asbasbasbag69
(g85
g71
NtRp1151
(dp1152
g74
(dp1153
sg83
g859
sg76
(lp1154
g69
(g90
g71
NtRp1155
(dp1156
g74
(dp1157
g94
g95
ssg83
g1151
sg76
(lp1158
S'http_host'
p1159
asbag69
(g90
g71
NtRp1160
(dp1161
g74
(dp1162
g101
g102
ssg83
g1151
sg76
(lp1163
S':'
asbag69
(g90
g71
NtRp1164
(dp1165
g74
(dp1166
sg83
g1151
sg76
(lp1167
g69
(g70
g71
NtRp1168
(dp1169
g74
(dp1170
g82
I4
ssg83
g1164
sg76
(lp1171
S'10.1.33.107:8000'
p1172
asbasbasbag69
(g85
g71
NtRp1173
(dp1174
g74
(dp1175
sg83
g859
sg76
(lp1176
g69
(g90
g71
NtRp1177
(dp1178
g74
(dp1179
g94
g95
ssg83
g1173
sg76
(lp1180
S'http_pragma'
p1181
asbag69
(g90
g71
NtRp1182
(dp1183
g74
(dp1184
g101
g102
ssg83
g1173
sg76
(lp1185
S':'
asbag69
(g90
g71
NtRp1186
(dp1187
g74
(dp1188
sg83
g1173
sg76
(lp1189
g69
(g70
g71
NtRp1190
(dp1191
g74
(dp1192
g82
I4
ssg83
g1186
sg76
(lp1193
S'no-cache'
p1194
asbasbasbag69
(g85
g71
NtRp1195
(dp1196
g74
(dp1197
sg83
g859
sg76
(lp1198
g69
(g90
g71
NtRp1199
(dp1200
g74
(dp1201
g94
g95
ssg83
g1195
sg76
(lp1202
S'http_referer'
p1203
asbag69
(g90
g71
NtRp1204
(dp1205
g74
(dp1206
g101
g102
ssg83
g1195
sg76
(lp1207
S':'
asbag69
(g90
g71
NtRp1208
(dp1209
g74
(dp1210
sg83
g1195
sg76
(lp1211
g69
(g70
g71
NtRp1212
(dp1213
g74
(dp1214
g82
I4
ssg83
g1208
sg76
(lp1215
S'http://10.1.33.107:8000/FunkLoad/default/addTest'
p1216
asbasbasbag69
(g85
g71
NtRp1217
(dp1218
g74
(dp1219
sg83
g859
sg76
(lp1220
g69
(g90
g71
NtRp1221
(dp1222
g74
(dp1223
g94
g95
ssg83
g1217
sg76
(lp1224
S'http_user_agent'
p1225
asbag69
(g90
g71
NtRp1226
(dp1227
g74
(dp1228
g101
g102
ssg83
g1217
sg76
(lp1229
S':'
asbag69
(g90
g71
NtRp1230
(dp1231
g74
(dp1232
sg83
g1217
sg76
(lp1233
g69
(g70
g71
NtRp1234
(dp1235
g74
(dp1236
g82
I4
ssg83
g1230
sg76
(lp1237
S'Mozilla/5.0 (X11; Linux x86_64) AppleWebKit/537.36 (KHTML, like Gecko) Chrome/30.0.1599.114 Safari/537.36'
p1238
asbasbasbag69
(g85
g71
NtRp1239
(dp1240
g74
(dp1241
sg83
g859
sg76
(lp1242
g69
(g90
g71
NtRp1243
(dp1244
g74
(dp1245
g94
g95
ssg83
g1239
sg76
(lp1246
S'is_jython'
p1247
asbag69
(g90
g71
NtRp1248
(dp1249
g74
(dp1250
g101
g102
ssg83
g1239
sg76
(lp1251
S':'
asbag69
(g90
g71
NtRp1252
(dp1253
g74
(dp1254
sg83
g1239
sg76
(lp1255
g69
(g70
g71
NtRp1256
(dp1257
g74
(dp1258
g82
I4
ssg83
g1252
sg76
(lp1259
g112
asbasbasbag69
(g85
g71
NtRp1260
(dp1261
g74
(dp1262
sg83
g859
sg76
(lp1263
g69
(g90
g71
NtRp1264
(dp1265
g74
(dp1266
g94
g95
ssg83
g1260
sg76
(lp1267
S'is_pypy'
p1268
asbag69
(g90
g71
NtRp1269
(dp1270
g74
(dp1271
g101
g102
ssg83
g1260
sg76
(lp1272
S':'
asbag69
(g90
g71
NtRp1273
(dp1274
g74
(dp1275
sg83
g1260
sg76
(lp1276
g69
(g70
g71
NtRp1277
(dp1278
g74
(dp1279
g82
I4
ssg83
g1273
sg76
(lp1280
g112
asbasbasbag69
(g85
g71
NtRp1281
(dp1282
g74
(dp1283
sg83
g859
sg76
(lp1284
g69
(g90
g71
NtRp1285
(dp1286
g74
(dp1287
g94
g95
ssg83
g1281
sg76
(lp1288
S'path_info'
p1289
asbag69
(g90
g71
NtRp1290
(dp1291
g74
(dp1292
g101
g102
ssg83
g1281
sg76
(lp1293
S':'
asbag69
(g90
g71
NtRp1294
(dp1295
g74
(dp1296
sg83
g1281
sg76
(lp1297
g69
(g70
g71
NtRp1298
(dp1299
g74
(dp1300
g82
I4
ssg83
g1294
sg76
(lp1301
S'/FunkLoad/default/testDetails'
p1302
asbasbasbag69
(g85
g71
NtRp1303
(dp1304
g74
(dp1305
sg83
g859
sg76
(lp1306
g69
(g90
g71
NtRp1307
(dp1308
g74
(dp1309
g94
g95
ssg83
g1303
sg76
(lp1310
S'query_string'
p1311
asbag69
(g90
g71
NtRp1312
(dp1313
g74
(dp1314
g101
g102
ssg83
g1303
sg76
(lp1315
S':'
asbag69
(g90
g71
NtRp1316
(dp1317
g74
(dp1318
sg83
g1303
sg76
(lp1319
g69
(g70
g71
NtRp1320
(dp1321
g74
(dp1322
g82
I4
ssg83
g1316
sg76
(lp1323
S''
asbasbasbag69
(g85
g71
NtRp1324
(dp1325
g74
(dp1326
sg83
g859
sg76
(lp1327
g69
(g90
g71
NtRp1328
(dp1329
g74
(dp1330
g94
g95
ssg83
g1324
sg76
(lp1331
S'remote_addr'
p1332
asbag69
(g90
g71
NtRp1333
(dp1334
g74
(dp1335
g101
g102
ssg83
g1324
sg76
(lp1336
S':'
asbag69
(g90
g71
NtRp1337
(dp1338
g74
(dp1339
sg83
g1324
sg76
(lp1340
g69
(g70
g71
NtRp1341
(dp1342
g74
(dp1343
g82
I4
ssg83
g1337
sg76
(lp1344
g224
asbasbasbag69
(g85
g71
NtRp1345
(dp1346
g74
(dp1347
sg83
g859
sg76
(lp1348
g69
(g90
g71
NtRp1349
(dp1350
g74
(dp1351
g94
g95
ssg83
g1345
sg76
(lp1352
S'remote_port'
p1353
asbag69
(g90
g71
NtRp1354
(dp1355
g74
(dp1356
g101
g102
ssg83
g1345
sg76
(lp1357
S':'
asbag69
(g90
g71
NtRp1358
(dp1359
g74
(dp1360
sg83
g1345
sg76
(lp1361
g69
(g70
g71
NtRp1362
(dp1363
g74
(dp1364
g82
I4
ssg83
g1358
sg76
(lp1365
S'54235'
p1366
asbasbasbag69
(g85
g71
NtRp1367
(dp1368
g74
(dp1369
sg83
g859
sg76
(lp1370
g69
(g90
g71
NtRp1371
(dp1372
g74
(dp1373
g94
g95
ssg83
g1367
sg76
(lp1374
S'request_method'
p1375
asbag69
(g90
g71
NtRp1376
(dp1377
g74
(dp1378
g101
g102
ssg83
g1367
sg76
(lp1379
S':'
asbag69
(g90
g71
NtRp1380
(dp1381
g74
(dp1382
sg83
g1367
sg76
(lp1383
g69
(g70
g71
NtRp1384
(dp1385
g74
(dp1386
g82
I4
ssg83
g1380
sg76
(lp1387
S'GET'
p1388
asbasbasbag69
(g85
g71
NtRp1389
(dp1390
g74
(dp1391
sg83
g859
sg76
(lp1392
g69
(g90
g71
NtRp1393
(dp1394
g74
(dp1395
g94
g95
ssg83
g1389
sg76
(lp1396
S'request_uri'
p1397
asbag69
(g90
g71
NtRp1398
(dp1399
g74
(dp1400
g101
g102
ssg83
g1389
sg76
(lp1401
S':'
asbag69
(g90
g71
NtRp1402
(dp1403
g74
(dp1404
sg83
g1389
sg76
(lp1405
g69
(g70
g71
NtRp1406
(dp1407
g74
(dp1408
g82
I4
ssg83
g1402
sg76
(lp1409
g1302
asbasbasbag69
(g85
g71
NtRp1410
(dp1411
g74
(dp1412
sg83
g859
sg76
(lp1413
g69
(g90
g71
NtRp1414
(dp1415
g74
(dp1416
g94
g95
ssg83
g1410
sg76
(lp1417
S'script_name'
p1418
asbag69
(g90
g71
NtRp1419
(dp1420
g74
(dp1421
g101
g102
ssg83
g1410
sg76
(lp1422
S':'
asbag69
(g90
g71
NtRp1423
(dp1424
g74
(dp1425
sg83
g1410
sg76
(lp1426
g69
(g70
g71
NtRp1427
(dp1428
g74
(dp1429
g82
I4
ssg83
g1423
sg76
(lp1430
S''
asbasbasbag69
(g85
g71
NtRp1431
(dp1432
g74
(dp1433
sg83
g859
sg76
(lp1434
g69
(g90
g71
NtRp1435
(dp1436
g74
(dp1437
g94
g95
ssg83
g1431
sg76
(lp1438
S'server_name'
p1439
asbag69
(g90
g71
NtRp1440
(dp1441
g74
(dp1442
g101
g102
ssg83
g1431
sg76
(lp1443
S':'
asbag69
(g90
g71
NtRp1444
(dp1445
g74
(dp1446
sg83
g1431
sg76
(lp1447
g69
(g70
g71
NtRp1448
(dp1449
g74
(dp1450
g82
I4
ssg83
g1444
sg76
(lp1451
S'mayank'
p1452
asbasbasbag69
(g85
g71
NtRp1453
(dp1454
g74
(dp1455
sg83
g859
sg76
(lp1456
g69
(g90
g71
NtRp1457
(dp1458
g74
(dp1459
g94
g95
ssg83
g1453
sg76
(lp1460
S'server_port'
p1461
asbag69
(g90
g71
NtRp1462
(dp1463
g74
(dp1464
g101
g102
ssg83
g1453
sg76
(lp1465
S':'
asbag69
(g90
g71
NtRp1466
(dp1467
g74
(dp1468
sg83
g1453
sg76
(lp1469
g69
(g70
g71
NtRp1470
(dp1471
g74
(dp1472
g82
I4
ssg83
g1466
sg76
(lp1473
S'8000'
p1474
asbasbasbag69
(g85
g71
NtRp1475
(dp1476
g74
(dp1477
sg83
g859
sg76
(lp1478
g69
(g90
g71
NtRp1479
(dp1480
g74
(dp1481
g94
g95
ssg83
g1475
sg76
(lp1482
S'server_protocol'
p1483
asbag69
(g90
g71
NtRp1484
(dp1485
g74
(dp1486
g101
g102
ssg83
g1475
sg76
(lp1487
S':'
asbag69
(g90
g71
NtRp1488
(dp1489
g74
(dp1490
sg83
g1475
sg76
(lp1491
g69
(g70
g71
NtRp1492
(dp1493
g74
(dp1494
g82
I4
ssg83
g1488
sg76
(lp1495
S'HTTP/1.1'
p1496
asbasbasbag69
(g85
g71
NtRp1497
(dp1498
g74
(dp1499
sg83
g859
sg76
(lp1500
g69
(g90
g71
NtRp1501
(dp1502
g74
(dp1503
g94
g95
ssg83
g1497
sg76
(lp1504
S'server_software'
p1505
asbag69
(g90
g71
NtRp1506
(dp1507
g74
(dp1508
g101
g102
ssg83
g1497
sg76
(lp1509
S':'
asbag69
(g90
g71
NtRp1510
(dp1511
g74
(dp1512
sg83
g1497
sg76
(lp1513
g69
(g70
g71
NtRp1514
(dp1515
g74
(dp1516
g82
I4
ssg83
g1510
sg76
(lp1517
S'Rocket 1.2.4'
p1518
asbasbasbag69
(g85
g71
NtRp1519
(dp1520
g74
(dp1521
sg83
g859
sg76
(lp1522
g69
(g90
g71
NtRp1523
(dp1524
g74
(dp1525
g94
g95
ssg83
g1519
sg76
(lp1526
S'web2py_crontype'
p1527
asbag69
(g90
g71
NtRp1528
(dp1529
g74
(dp1530
g101
g102
ssg83
g1519
sg76
(lp1531
S':'
asbag69
(g90
g71
NtRp1532
(dp1533
g74
(dp1534
sg83
g1519
sg76
(lp1535
g69
(g70
g71
NtRp1536
(dp1537
g74
(dp1538
g82
I4
ssg83
g1532
sg76
(lp1539
S'hard'
p1540
asbasbasbag69
(g85
g71
NtRp1541
(dp1542
g74
(dp1543
sg83
g859
sg76
(lp1544
g69
(g90
g71
NtRp1545
(dp1546
g74
(dp1547
g94
g95
ssg83
g1541
sg76
(lp1548
S'web2py_path'
p1549
asbag69
(g90
g71
NtRp1550
(dp1551
g74
(dp1552
g101
g102
ssg83
g1541
sg76
(lp1553
S':'
asbag69
(g90
g71
NtRp1554
(dp1555
g74
(dp1556
sg83
g1541
sg76
(lp1557
g69
(g70
g71
NtRp1558
(dp1559
g74
(dp1560
g82
I4
ssg83
g1554
sg76
(lp1561
g906
asbasbasbag69
(g85
g71
NtRp1562
(dp1563
g74
(dp1564
sg83
g859
sg76
(lp1565
g69
(g90
g71
NtRp1566
(dp1567
g74
(dp1568
g94
g95
ssg83
g1562
sg76
(lp1569
S'web2py_version'
p1570
asbag69
(g90
g71
NtRp1571
(dp1572
g74
(dp1573
g101
g102
ssg83
g1562
sg76
(lp1574
S':'
asbag69
(g90
g71
NtRp1575
(dp1576
g74
(dp1577
sg83
g1562
sg76
(lp1578
g69
(g70
g71
NtRp1579
(dp1580
g74
(dp1581
g82
I4
ssg83
g1575
sg76
(lp1582
g69
(g78
g71
NtRp1583
(dp1584
g74
(dp1585
g82
I3
ssg83
Nsg76
(lp1586
g69
(g85
g71
NtRp1587
(dp1588
g74
(dp1589
sg83
g1583
sg76
(lp1590
g69
(g90
g71
NtRp1591
(dp1592
g74
(dp1593
sg83
g1587
sg76
(lp1594
g69
(g70
g71
NtRp1595
(dp1596
g74
(dp1597
g82
I3
ssg83
g1591
sg76
(lp1598
S'2'
asbasbasbag69
(g85
g71
NtRp1599
(dp1600
g74
(dp1601
sg83
g1583
sg76
(lp1602
g69
(g90
g71
NtRp1603
(dp1604
g74
(dp1605
sg83
g1599
sg76
(lp1606
g69
(g70
g71
NtRp1607
(dp1608
g74
(dp1609
g82
I3
ssg83
g1603
sg76
(lp1610
S'0'
asbasbasbag69
(g85
g71
NtRp1611
(dp1612
g74
(dp1613
sg83
g1583
sg76
(lp1614
g69
(g90
g71
NtRp1615
(dp1616
g74
(dp1617
sg83
g1611
sg76
(lp1618
g69
(g70
g71
NtRp1619
(dp1620
g74
(dp1621
g82
I3
ssg83
g1615
sg76
(lp1622
S'8'
asbasbasbag69
(g85
g71
NtRp1623
(dp1624
g74
(dp1625
sg83
g1583
sg76
(lp1626
g69
(g90
g71
NtRp1627
(dp1628
g74
(dp1629
sg83
g1623
sg76
(lp1630
g69
(g70
g71
NtRp1631
(dp1632
g74
(dp1633
g82
I3
ssg83
g1627
sg76
(lp1634
S'datetime.datetime(2012, 9, 7, 3, 47, 51)'
p1635
asbasbasbag69
(g85
g71
NtRp1636
(dp1637
g74
(dp1638
sg83
g1583
sg76
(lp1639
g69
(g90
g71
NtRp1640
(dp1641
g74
(dp1642
sg83
g1636
sg76
(lp1643
g69
(g70
g71
NtRp1644
(dp1645
g74
(dp1646
g82
I3
ssg83
g1640
sg76
(lp1647
S'stable'
p1648
asbasbasbasbasbasbasbag69
(g85
g71
NtRp1649
(dp1650
g74
(dp1651
sg83
g859
sg76
(lp1652
g69
(g90
g71
NtRp1653
(dp1654
g74
(dp1655
g94
g95
ssg83
g1649
sg76
(lp1656
S'wsgi_errors'
p1657
asbag69
(g90
g71
NtRp1658
(dp1659
g74
(dp1660
g101
g102
ssg83
g1649
sg76
(lp1661
S':'
asbag69
(g90
g71
NtRp1662
(dp1663
g74
(dp1664
sg83
g1649
sg76
(lp1665
g69
(g70
g71
NtRp1666
(dp1667
g74
(dp1668
g82
I4
ssg83
g1662
sg76
(lp1669
S"<open file '<stderr>', mode 'w' at 0x7f7b39bf91e0>"
p1670
asbasbasbag69
(g85
g71
NtRp1671
(dp1672
g74
(dp1673
sg83
g859
sg76
(lp1674
g69
(g90
g71
NtRp1675
(dp1676
g74
(dp1677
g94
g95
ssg83
g1671
sg76
(lp1678
S'wsgi_file_wrapper'
p1679
asbag69
(g90
g71
NtRp1680
(dp1681
g74
(dp1682
g101
g102
ssg83
g1671
sg76
(lp1683
S':'
asbag69
(g90
g71
NtRp1684
(dp1685
g74
(dp1686
sg83
g1671
sg76
(lp1687
g69
(g70
g71
NtRp1688
(dp1689
g74
(dp1690
g82
I4
ssg83
g1684
sg76
(lp1691
S'<class wsgiref.util.FileWrapper at 0x2756f58>'
p1692
asbasbasbag69
(g85
g71
NtRp1693
(dp1694
g74
(dp1695
sg83
g859
sg76
(lp1696
g69
(g90
g71
NtRp1697
(dp1698
g74
(dp1699
g94
g95
ssg83
g1693
sg76
(lp1700
S'wsgi_input'
p1701
asbag69
(g90
g71
NtRp1702
(dp1703
g74
(dp1704
g101
g102
ssg83
g1693
sg76
(lp1705
S':'
asbag69
(g90
g71
NtRp1706
(dp1707
g74
(dp1708
sg83
g1693
sg76
(lp1709
g69
(g70
g71
NtRp1710
(dp1711
g74
(dp1712
g82
I4
ssg83
g1706
sg76
(lp1713
S'<socket._fileobject object at 0x7f7a68188bd0>'
p1714
asbasbasbag69
(g85
g71
NtRp1715
(dp1716
g74
(dp1717
sg83
g859
sg76
(lp1718
g69
(g90
g71
NtRp1719
(dp1720
g74
(dp1721
g94
g95
ssg83
g1715
sg76
(lp1722
S'wsgi_multiprocess'
p1723
asbag69
(g90
g71
NtRp1724
(dp1725
g74
(dp1726
g101
g102
ssg83
g1715
sg76
(lp1727
S':'
asbag69
(g90
g71
NtRp1728
(dp1729
g74
(dp1730
sg83
g1715
sg76
(lp1731
g69
(g70
g71
NtRp1732
(dp1733
g74
(dp1734
g82
I4
ssg83
g1728
sg76
(lp1735
g112
asbasbasbag69
(g85
g71
NtRp1736
(dp1737
g74
(dp1738
sg83
g859
sg76
(lp1739
g69
(g90
g71
NtRp1740
(dp1741
g74
(dp1742
g94
g95
ssg83
g1736
sg76
(lp1743
S'wsgi_multithread'
p1744
asbag69
(g90
g71
NtRp1745
(dp1746
g74
(dp1747
g101
g102
ssg83
g1736
sg76
(lp1748
S':'
asbag69
(g90
g71
NtRp1749
(dp1750
g74
(dp1751
sg83
g1736
sg76
(lp1752
g69
(g70
g71
NtRp1753
(dp1754
g74
(dp1755
g82
I4
ssg83
g1749
sg76
(lp1756
S'True'
p1757
asbasbasbag69
(g85
g71
NtRp1758
(dp1759
g74
(dp1760
sg83
g859
sg76
(lp1761
g69
(g90
g71
NtRp1762
(dp1763
g74
(dp1764
g94
g95
ssg83
g1758
sg76
(lp1765
S'wsgi_run_once'
p1766
asbag69
(g90
g71
NtRp1767
(dp1768
g74
(dp1769
g101
g102
ssg83
g1758
sg76
(lp1770
S':'
asbag69
(g90
g71
NtRp1771
(dp1772
g74
(dp1773
sg83
g1758
sg76
(lp1774
g69
(g70
g71
NtRp1775
(dp1776
g74
(dp1777
g82
I4
ssg83
g1771
sg76
(lp1778
g112
asbasbasbag69
(g85
g71
NtRp1779
(dp1780
g74
(dp1781
sg83
g859
sg76
(lp1782
g69
(g90
g71
NtRp1783
(dp1784
g74
(dp1785
g94
g95
ssg83
g1779
sg76
(lp1786
S'wsgi_url_scheme'
p1787
asbag69
(g90
g71
NtRp1788
(dp1789
g74
(dp1790
g101
g102
ssg83
g1779
sg76
(lp1791
S':'
asbag69
(g90
g71
NtRp1792
(dp1793
g74
(dp1794
sg83
g1779
sg76
(lp1795
g69
(g70
g71
NtRp1796
(dp1797
g74
(dp1798
g82
I4
ssg83
g1792
sg76
(lp1799
S'http'
p1800
asbasbasbag69
(g85
g71
NtRp1801
(dp1802
g74
(dp1803
sg83
g859
sg76
(lp1804
g69
(g90
g71
NtRp1805
(dp1806
g74
(dp1807
g94
g95
ssg83
g1801
sg76
(lp1808
S'wsgi_version'
p1809
asbag69
(g90
g71
NtRp1810
(dp1811
g74
(dp1812
g101
g102
ssg83
g1801
sg76
(lp1813
S':'
asbag69
(g90
g71
NtRp1814
(dp1815
g74
(dp1816
sg83
g1801
sg76
(lp1817
g69
(g70
g71
NtRp1818
(dp1819
g74
(dp1820
g82
I4
ssg83
g1814
sg76
(lp1821
g69
(g78
g71
NtRp1822
(dp1823
g74
(dp1824
g82
I3
ssg83
Nsg76
(lp1825
g69
(g85
g71
NtRp1826
(dp1827
g74
(dp1828
sg83
g1822
sg76
(lp1829
g69
(g90
g71
NtRp1830
(dp1831
g74
(dp1832
sg83
g1826
sg76
(lp1833
g69
(g70
g71
NtRp1834
(dp1835
g74
(dp1836
g82
I3
ssg83
g1830
sg76
(lp1837
S'1'
asbasbasbag69
(g85
g71
NtRp1838
(dp1839
g74
(dp1840
sg83
g1822
sg76
(lp1841
g69
(g90
g71
NtRp1842
(dp1843
g74
(dp1844
sg83
g1838
sg76
(lp1845
g69
(g70
g71
NtRp1846
(dp1847
g74
(dp1848
g82
I3
ssg83
g1842
sg76
(lp1849
S'0'
asbasbasbasbasbasbasbasbasbasbasbag69
(g85
g71
NtRp1850
(dp1851
g74
(dp1852
sg83
g79
sg76
(lp1853
g69
(g90
g71
NtRp1854
(dp1855
g74
(dp1856
g94
g95
ssg83
g1850
sg76
(lp1857
S'extension'
p1858
asbag69
(g90
g71
NtRp1859
(dp1860
g74
(dp1861
g101
g102
ssg83
g1850
sg76
(lp1862
S':'
asbag69
(g90
g71
NtRp1863
(dp1864
g74
(dp1865
sg83
g1850
sg76
(lp1866
g69
(g70
g71
NtRp1867
(dp1868
g74
(dp1869
g82
I5
ssg83
g1863
sg76
(lp1870
S'html'
p1871
asbasbasbag69
(g85
g71
NtRp1872
(dp1873
g74
(dp1874
sg83
g79
sg76
(lp1875
g69
(g90
g71
NtRp1876
(dp1877
g74
(dp1878
g94
g95
ssg83
g1872
sg76
(lp1879
S'folder'
p1880
asbag69
(g90
g71
NtRp1881
(dp1882
g74
(dp1883
g101
g102
ssg83
g1872
sg76
(lp1884
S':'
asbag69
(g90
g71
NtRp1885
(dp1886
g74
(dp1887
sg83
g1872
sg76
(lp1888
g69
(g70
g71
NtRp1889
(dp1890
g74
(dp1891
g82
I5
ssg83
g1885
sg76
(lp1892
S'/home/mayank/Desktop/web2pyAdmin/web2py/web2py/applications/FunkLoad/'
p1893
asbasbasbag69
(g85
g71
NtRp1894
(dp1895
g74
(dp1896
sg83
g79
sg76
(lp1897
g69
(g90
g71
NtRp1898
(dp1899
g74
(dp1900
g94
g95
ssg83
g1894
sg76
(lp1901
S'function'
p1902
asbag69
(g90
g71
NtRp1903
(dp1904
g74
(dp1905
g101
g102
ssg83
g1894
sg76
(lp1906
S':'
asbag69
(g90
g71
NtRp1907
(dp1908
g74
(dp1909
sg83
g1894
sg76
(lp1910
g69
(g70
g71
NtRp1911
(dp1912
g74
(dp1913
g82
I5
ssg83
g1907
sg76
(lp1914
S'testDetails'
p1915
asbasbasbag69
(g85
g71
NtRp1916
(dp1917
g74
(dp1918
sg83
g79
sg76
(lp1919
g69
(g90
g71
NtRp1920
(dp1921
g74
(dp1922
g94
g95
ssg83
g1916
sg76
(lp1923
S'get_vars'
p1924
asbag69
(g90
g71
NtRp1925
(dp1926
g74
(dp1927
g101
g102
ssg83
g1916
sg76
(lp1928
S':'
asbag69
(g90
g71
NtRp1929
(dp1930
g74
(dp1931
sg83
g1916
sg76
(lp1932
g69
(g70
g71
NtRp1933
(dp1934
g74
(dp1935
g82
I5
ssg83
g1929
sg76
(lp1936
g69
(g78
g71
NtRp1937
(dp1938
g74
(dp1939
g82
I4
ssg83
Nsg76
(lp1940
sbasbasbasbag69
(g85
g71
NtRp1941
(dp1942
g74
(dp1943
sg83
g79
sg76
(lp1944
g69
(g90
g71
NtRp1945
(dp1946
g74
(dp1947
g94
g95
ssg83
g1941
sg76
(lp1948
S'global_settings'
p1949
asbag69
(g90
g71
NtRp1950
(dp1951
g74
(dp1952
g101
g102
ssg83
g1941
sg76
(lp1953
S':'
asbag69
(g90
g71
NtRp1954
(dp1955
g74
(dp1956
sg83
g1941
sg76
(lp1957
g69
(g70
g71
NtRp1958
(dp1959
g74
(dp1960
g82
I5
ssg83
g1954
sg76
(lp1961
g69
(g78
g71
NtRp1962
(dp1963
g74
(dp1964
g82
I4
ssg83
Nsg76
(lp1965
g69
(g85
g71
NtRp1966
(dp1967
g74
(dp1968
sg83
g1962
sg76
(lp1969
g69
(g90
g71
NtRp1970
(dp1971
g74
(dp1972
g94
g95
ssg83
g1966
sg76
(lp1973
g871
asbag69
(g90
g71
NtRp1974
(dp1975
g74
(dp1976
g101
g102
ssg83
g1966
sg76
(lp1977
S':'
asbag69
(g90
g71
NtRp1978
(dp1979
g74
(dp1980
sg83
g1966
sg76
(lp1981
g69
(g70
g71
NtRp1982
(dp1983
g74
(dp1984
g82
I4
ssg83
g1978
sg76
(lp1985
S"set(['/home/mayank/Desktop/web2pyAdmin/web2py/web2py/applications/welcome/', '/home/mayank/Desktop/web2pyAdmin/web2py/web2py/applications/admin/', '/home/mayank/Desktop/web2pyAdmin/web2py/web2py/applications/FunkLoad/'])"
p1986
asbasbasbag69
(g85
g71
NtRp1987
(dp1988
g74
(dp1989
sg83
g1962
sg76
(lp1990
g69
(g90
g71
NtRp1991
(dp1992
g74
(dp1993
g94
g95
ssg83
g1987
sg76
(lp1994
g893
asbag69
(g90
g71
NtRp1995
(dp1996
g74
(dp1997
g101
g102
ssg83
g1987
sg76
(lp1998
S':'
asbag69
(g90
g71
NtRp1999
(dp2000
g74
(dp2001
sg83
g1987
sg76
(lp2002
g69
(g70
g71
NtRp2003
(dp2004
g74
(dp2005
g82
I4
ssg83
g1999
sg76
(lp2006
g906
asbasbasbag69
(g85
g71
NtRp2007
(dp2008
g74
(dp2009
sg83
g1962
sg76
(lp2010
g69
(g90
g71
NtRp2011
(dp2012
g74
(dp2013
g94
g95
ssg83
g2007
sg76
(lp2014
g915
asbag69
(g90
g71
NtRp2015
(dp2016
g74
(dp2017
g101
g102
ssg83
g2007
sg76
(lp2018
S':'
asbag69
(g90
g71
NtRp2019
(dp2020
g74
(dp2021
sg83
g2007
sg76
(lp2022
g69
(g70
g71
NtRp2023
(dp2024
g74
(dp2025
g82
I4
ssg83
g2019
sg76
(lp2026
g69
(g78
g71
NtRp2027
(dp2028
g74
(dp2029
g82
I3
ssg83
Nsg76
(lp2030
sbasbasbasbag69
(g85
g71
NtRp2031
(dp2032
g74
(dp2033
sg83
g1962
sg76
(lp2034
g69
(g90
g71
NtRp2035
(dp2036
g74
(dp2037
g94
g95
ssg83
g2031
sg76
(lp2038
g940
asbag69
(g90
g71
NtRp2039
(dp2040
g74
(dp2041
g101
g102
ssg83
g2031
sg76
(lp2042
S':'
asbag69
(g90
g71
NtRp2043
(dp2044
g74
(dp2045
sg83
g2031
sg76
(lp2046
g69
(g70
g71
NtRp2047
(dp2048
g74
(dp2049
g82
I4
ssg83
g2043
sg76
(lp2050
S"<Values at 0x2bfd9e0: {'verbose': False, 'ip': '10.1.33.107', 'with_scheduler': False, 'ips': ['127.0.1.1', '10.1.33.121'], 'shutdown_timeout': 5, 'taskbar': False, 'port': 8000, 'maxthreads': None, 'softcron': False, 'server_name': 'mayank', 'bpython': False, 'nogui': False, 'nocron': False, 'extcron': False, 'run_system_tests': False, 'test': None, 'folder': '/home/mayank/Desktop/web2pyAdmin/web2py/web2py', 'config': '', 'import_models': False, 'winservice': '', 'shell': None, 'run': '', 'log_filename': 'httpserver.log', 'debuglevel': 30, 'args': [''], 'socket_timeout': 5, 'ssl_ca_certificate': None, 'scheduler': None, 'profiler_filename': None, 'ssl_private_key': '', 'scheduler_groups': None, 'password': '<ask>', 'request_queue_size': 5, 'ssl_certificate': '', 'cronjob': False, 'numthreads': None, 'quiet': False, 'interfaces': None, 'minthreads': None, 'timeout': 10, 'plain': False, 'nobanner': False, 'pid_filename': 'httpserver.pid'}>"
p2051
asbasbasbag69
(g85
g71
NtRp2052
(dp2053
g74
(dp2054
sg83
g1962
sg76
(lp2055
g69
(g90
g71
NtRp2056
(dp2057
g74
(dp2058
g94
g95
ssg83
g2052
sg76
(lp2059
g962
asbag69
(g90
g71
NtRp2060
(dp2061
g74
(dp2062
g101
g102
ssg83
g2052
sg76
(lp2063
S':'
asbag69
(g90
g71
NtRp2064
(dp2065
g74
(dp2066
sg83
g2052
sg76
(lp2067
g69
(g70
g71
NtRp2068
(dp2069
g74
(dp2070
g82
I4
ssg83
g2064
sg76
(lp2071
S'set([])'
p2072
asbasbasbag69
(g85
g71
NtRp2073
(dp2074
g74
(dp2075
sg83
g1962
sg76
(lp2076
g69
(g90
g71
NtRp2077
(dp2078
g74
(dp2079
g94
g95
ssg83
g2073
sg76
(lp2080
g984
asbag69
(g90
g71
NtRp2081
(dp2082
g74
(dp2083
g101
g102
ssg83
g2073
sg76
(lp2084
S':'
asbag69
(g90
g71
NtRp2085
(dp2086
g74
(dp2087
sg83
g2073
sg76
(lp2088
g69
(g70
g71
NtRp2089
(dp2090
g74
(dp2091
g82
I4
ssg83
g2085
sg76
(lp2092
g112
asbasbasbag69
(g85
g71
NtRp2093
(dp2094
g74
(dp2095
sg83
g1962
sg76
(lp2096
g69
(g90
g71
NtRp2097
(dp2098
g74
(dp2099
g94
g95
ssg83
g2093
sg76
(lp2100
g1005
asbag69
(g90
g71
NtRp2101
(dp2102
g74
(dp2103
g101
g102
ssg83
g2093
sg76
(lp2104
S':'
asbag69
(g90
g71
NtRp2105
(dp2106
g74
(dp2107
sg83
g2093
sg76
(lp2108
g69
(g70
g71
NtRp2109
(dp2110
g74
(dp2111
g82
I4
ssg83
g2105
sg76
(lp2112
g1018
asbasbasbag69
(g85
g71
NtRp2113
(dp2114
g74
(dp2115
sg83
g1962
sg76
(lp2116
g69
(g90
g71
NtRp2117
(dp2118
g74
(dp2119
g94
g95
ssg83
g2113
sg76
(lp2120
g1247
asbag69
(g90
g71
NtRp2121
(dp2122
g74
(dp2123
g101
g102
ssg83
g2113
sg76
(lp2124
S':'
asbag69
(g90
g71
NtRp2125
(dp2126
g74
(dp2127
sg83
g2113
sg76
(lp2128
g69
(g70
g71
NtRp2129
(dp2130
g74
(dp2131
g82
I4
ssg83
g2125
sg76
(lp2132
g112
asbasbasbag69
(g85
g71
NtRp2133
(dp2134
g74
(dp2135
sg83
g1962
sg76
(lp2136
g69
(g90
g71
NtRp2137
(dp2138
g74
(dp2139
g94
g95
ssg83
g2133
sg76
(lp2140
g1268
asbag69
(g90
g71
NtRp2141
(dp2142
g74
(dp2143
g101
g102
ssg83
g2133
sg76
(lp2144
S':'
asbag69
(g90
g71
NtRp2145
(dp2146
g74
(dp2147
sg83
g2133
sg76
(lp2148
g69
(g70
g71
NtRp2149
(dp2150
g74
(dp2151
g82
I4
ssg83
g2145
sg76
(lp2152
g112
asbasbasbag69
(g85
g71
NtRp2153
(dp2154
g74
(dp2155
sg83
g1962
sg76
(lp2156
g69
(g90
g71
NtRp2157
(dp2158
g74
(dp2159
g94
g95
ssg83
g2153
sg76
(lp2160
g1527
asbag69
(g90
g71
NtRp2161
(dp2162
g74
(dp2163
g101
g102
ssg83
g2153
sg76
(lp2164
S':'
asbag69
(g90
g71
NtRp2165
(dp2166
g74
(dp2167
sg83
g2153
sg76
(lp2168
g69
(g70
g71
NtRp2169
(dp2170
g74
(dp2171
g82
I4
ssg83
g2165
sg76
(lp2172
g1540
asbasbasbag69
(g85
g71
NtRp2173
(dp2174
g74
(dp2175
sg83
g1962
sg76
(lp2176
g69
(g90
g71
NtRp2177
(dp2178
g74
(dp2179
g94
g95
ssg83
g2173
sg76
(lp2180
g1570
asbag69
(g90
g71
NtRp2181
(dp2182
g74
(dp2183
g101
g102
ssg83
g2173
sg76
(lp2184
S':'
asbag69
(g90
g71
NtRp2185
(dp2186
g74
(dp2187
sg83
g2173
sg76
(lp2188
g69
(g70
g71
NtRp2189
(dp2190
g74
(dp2191
g82
I4
ssg83
g2185
sg76
(lp2192
g69
(g78
g71
NtRp2193
(dp2194
g74
(dp2195
g82
I3
ssg83
Nsg76
(lp2196
g69
(g85
g71
NtRp2197
(dp2198
g74
(dp2199
sg83
g2193
sg76
(lp2200
g69
(g90
g71
NtRp2201
(dp2202
g74
(dp2203
sg83
g2197
sg76
(lp2204
g69
(g70
g71
NtRp2205
(dp2206
g74
(dp2207
g82
I3
ssg83
g2201
sg76
(lp2208
S'2'
asbasbasbag69
(g85
g71
NtRp2209
(dp2210
g74
(dp2211
sg83
g2193
sg76
(lp2212
g69
(g90
g71
NtRp2213
(dp2214
g74
(dp2215
sg83
g2209
sg76
(lp2216
g69
(g70
g71
NtRp2217
(dp2218
g74
(dp2219
g82
I3
ssg83
g2213
sg76
(lp2220
S'0'
asbasbasbag69
(g85
g71
NtRp2221
(dp2222
g74
(dp2223
sg83
g2193
sg76
(lp2224
g69
(g90
g71
NtRp2225
(dp2226
g74
(dp2227
sg83
g2221
sg76
(lp2228
g69
(g70
g71
NtRp2229
(dp2230
g74
(dp2231
g82
I3
ssg83
g2225
sg76
(lp2232
S'8'
asbasbasbag69
(g85
g71
NtRp2233
(dp2234
g74
(dp2235
sg83
g2193
sg76
(lp2236
g69
(g90
g71
NtRp2237
(dp2238
g74
(dp2239
sg83
g2233
sg76
(lp2240
g69
(g70
g71
NtRp2241
(dp2242
g74
(dp2243
g82
I3
ssg83
g2237
sg76
(lp2244
S'datetime.datetime(2012, 9, 7, 3, 47, 51)'
p2245
asbasbasbag69
(g85
g71
NtRp2246
(dp2247
g74
(dp2248
sg83
g2193
sg76
(lp2249
g69
(g90
g71
NtRp2250
(dp2251
g74
(dp2252
sg83
g2246
sg76
(lp2253
g69
(g70
g71
NtRp2254
(dp2255
g74
(dp2256
g82
I3
ssg83
g2250
sg76
(lp2257
g1648
asbasbasbasbasbasbasbasbasbasbasbag69
(g85
g71
NtRp2258
(dp2259
g74
(dp2260
sg83
g79
sg76
(lp2261
g69
(g90
g71
NtRp2262
(dp2263
g74
(dp2264
g94
g95
ssg83
g2258
sg76
(lp2265
S'is_https'
p2266
asbag69
(g90
g71
NtRp2267
(dp2268
g74
(dp2269
g101
g102
ssg83
g2258
sg76
(lp2270
S':'
asbag69
(g90
g71
NtRp2271
(dp2272
g74
(dp2273
sg83
g2258
sg76
(lp2274
g69
(g70
g71
NtRp2275
(dp2276
g74
(dp2277
g82
I5
ssg83
g2271
sg76
(lp2278
g112
asbasbasbag69
(g85
g71
NtRp2279
(dp2280
g74
(dp2281
sg83
g79
sg76
(lp2282
g69
(g90
g71
NtRp2283
(dp2284
g74
(dp2285
g94
g95
ssg83
g2279
sg76
(lp2286
S'is_local'
p2287
asbag69
(g90
g71
NtRp2288
(dp2289
g74
(dp2290
g101
g102
ssg83
g2279
sg76
(lp2291
S':'
asbag69
(g90
g71
NtRp2292
(dp2293
g74
(dp2294
sg83
g2279
sg76
(lp2295
g69
(g70
g71
NtRp2296
(dp2297
g74
(dp2298
g82
I5
ssg83
g2292
sg76
(lp2299
g1757
asbasbasbag69
(g85
g71
NtRp2300
(dp2301
g74
(dp2302
sg83
g79
sg76
(lp2303
g69
(g90
g71
NtRp2304
(dp2305
g74
(dp2306
g94
g95
ssg83
g2300
sg76
(lp2307
S'is_restful'
p2308
asbag69
(g90
g71
NtRp2309
(dp2310
g74
(dp2311
g101
g102
ssg83
g2300
sg76
(lp2312
S':'
asbag69
(g90
g71
NtRp2313
(dp2314
g74
(dp2315
sg83
g2300
sg76
(lp2316
g69
(g70
g71
NtRp2317
(dp2318
g74
(dp2319
g82
I5
ssg83
g2313
sg76
(lp2320
g112
asbasbasbag69
(g85
g71
NtRp2321
(dp2322
g74
(dp2323
sg83
g79
sg76
(lp2324
g69
(g90
g71
NtRp2325
(dp2326
g74
(dp2327
g94
g95
ssg83
g2321
sg76
(lp2328
S'now'
p2329
asbag69
(g90
g71
NtRp2330
(dp2331
g74
(dp2332
g101
g102
ssg83
g2321
sg76
(lp2333
S':'
asbag69
(g90
g71
NtRp2334
(dp2335
g74
(dp2336
sg83
g2321
sg76
(lp2337
g69
(g70
g71
NtRp2338
(dp2339
g74
(dp2340
g82
I5
ssg83
g2334
sg76
(lp2341
S'datetime.datetime(2013, 11, 10, 18, 16, 16, 907270)'
p2342
asbasbasbag69
(g85
g71
NtRp2343
(dp2344
g74
(dp2345
sg83
g79
sg76
(lp2346
g69
(g90
g71
NtRp2347
(dp2348
g74
(dp2349
g94
g95
ssg83
g2343
sg76
(lp2350
S'post_vars'
p2351
asbag69
(g90
g71
NtRp2352
(dp2353
g74
(dp2354
g101
g102
ssg83
g2343
sg76
(lp2355
S':'
asbag69
(g90
g71
NtRp2356
(dp2357
g74
(dp2358
sg83
g2343
sg76
(lp2359
g69
(g70
g71
NtRp2360
(dp2361
g74
(dp2362
g82
I5
ssg83
g2356
sg76
(lp2363
g69
(g78
g71
NtRp2364
(dp2365
g74
(dp2366
g82
I4
ssg83
Nsg76
(lp2367
sbasbasbasbag69
(g85
g71
NtRp2368
(dp2369
g74
(dp2370
sg83
g79
sg76
(lp2371
g69
(g90
g71
NtRp2372
(dp2373
g74
(dp2374
g94
g95
ssg83
g2368
sg76
(lp2375
S'raw_args'
p2376
asbag69
(g90
g71
NtRp2377
(dp2378
g74
(dp2379
g101
g102
ssg83
g2368
sg76
(lp2380
S':'
asbag69
(g90
g71
NtRp2381
(dp2382
g74
(dp2383
sg83
g2368
sg76
(lp2384
g69
(g70
g71
NtRp2385
(dp2386
g74
(dp2387
g82
I5
ssg83
g2381
sg76
(lp2388
S'None'
p2389
asbasbasbag69
(g85
g71
NtRp2390
(dp2391
g74
(dp2392
sg83
g79
sg76
(lp2393
g69
(g90
g71
NtRp2394
(dp2395
g74
(dp2396
g94
g95
ssg83
g2390
sg76
(lp2397
S'raw_extension'
p2398
asbag69
(g90
g71
NtRp2399
(dp2400
g74
(dp2401
g101
g102
ssg83
g2390
sg76
(lp2402
S':'
asbag69
(g90
g71
NtRp2403
(dp2404
g74
(dp2405
sg83
g2390
sg76
(lp2406
g69
(g70
g71
NtRp2407
(dp2408
g74
(dp2409
g82
I5
ssg83
g2403
sg76
(lp2410
S'None'
p2411
asbasbasbag69
(g85
g71
NtRp2412
(dp2413
g74
(dp2414
sg83
g79
sg76
(lp2415
g69
(g90
g71
NtRp2416
(dp2417
g74
(dp2418
g94
g95
ssg83
g2412
sg76
(lp2419
S'url'
p2420
asbag69
(g90
g71
NtRp2421
(dp2422
g74
(dp2423
g101
g102
ssg83
g2412
sg76
(lp2424
S':'
asbag69
(g90
g71
NtRp2425
(dp2426
g74
(dp2427
sg83
g2412
sg76
(lp2428
g69
(g70
g71
NtRp2429
(dp2430
g74
(dp2431
g82
I5
ssg83
g2425
sg76
(lp2432
g1302
asbasbasbag69
(g85
g71
NtRp2433
(dp2434
g74
(dp2435
sg83
g79
sg76
(lp2436
g69
(g90
g71
NtRp2437
(dp2438
g74
(dp2439
g94
g95
ssg83
g2433
sg76
(lp2440
S'utcnow'
p2441
asbag69
(g90
g71
NtRp2442
(dp2443
g74
(dp2444
g101
g102
ssg83
g2433
sg76
(lp2445
S':'
asbag69
(g90
g71
NtRp2446
(dp2447
g74
(dp2448
sg83
g2433
sg76
(lp2449
g69
(g70
g71
NtRp2450
(dp2451
g74
(dp2452
g82
I5
ssg83
g2446
sg76
(lp2453
S'datetime.datetime(2013, 11, 10, 12, 46, 16, 907319)'
p2454
asbasbasbag69
(g85
g71
NtRp2455
(dp2456
g74
(dp2457
sg83
g79
sg76
(lp2458
g69
(g90
g71
NtRp2459
(dp2460
g74
(dp2461
g94
g95
ssg83
g2455
sg76
(lp2462
S'uuid'
p2463
asbag69
(g90
g71
NtRp2464
(dp2465
g74
(dp2466
g101
g102
ssg83
g2455
sg76
(lp2467
S':'
asbag69
(g90
g71
NtRp2468
(dp2469
g74
(dp2470
sg83
g2455
sg76
(lp2471
g69
(g70
g71
NtRp2472
(dp2473
g74
(dp2474
g82
I5
ssg83
g2468
sg76
(lp2475
S'FunkLoad/10.1.33.107.2013-11-10.18-16-16.7ec3c130-b63a-4d84-8fed-03d4895cb24e'
p2476
asbasbasbag69
(g85
g71
NtRp2477
(dp2478
g74
(dp2479
sg83
g79
sg76
(lp2480
g69
(g90
g71
NtRp2481
(dp2482
g74
(dp2483
g94
g95
ssg83
g2477
sg76
(lp2484
S'vars'
p2485
asbag69
(g90
g71
NtRp2486
(dp2487
g74
(dp2488
g101
g102
ssg83
g2477
sg76
(lp2489
S':'
asbag69
(g90
g71
NtRp2490
(dp2491
g74
(dp2492
sg83
g2477
sg76
(lp2493
g69
(g70
g71
NtRp2494
(dp2495
g74
(dp2496
g82
I5
ssg83
g2490
sg76
(lp2497
g69
(g78
g71
NtRp2498
(dp2499
g74
(dp2500
g82
I4
ssg83
Nsg76
(lp2501
sbasbasbasbag69
(g85
g71
NtRp2502
(dp2503
g74
(dp2504
sg83
g79
sg76
(lp2505
g69
(g90
g71
NtRp2506
(dp2507
g74
(dp2508
g94
g95
ssg83
g2502
sg76
(lp2509
S'wsgi'
p2510
asbag69
(g90
g71
NtRp2511
(dp2512
g74
(dp2513
g101
g102
ssg83
g2502
sg76
(lp2514
S':'
asbag69
(g90
g71
NtRp2515
(dp2516
g74
(dp2517
sg83
g2502
sg76
(lp2518
g69
(g70
g71
NtRp2519
(dp2520
g74
(dp2521
g82
I5
ssg83
g2515
sg76
(lp2522
g69
(g78
g71
NtRp2523
(dp2524
g74
(dp2525
g82
I4
ssg83
Nsg76
(lp2526
g69
(g85
g71
NtRp2527
(dp2528
g74
(dp2529
sg83
g2523
sg76
(lp2530
g69
(g90
g71
NtRp2531
(dp2532
g74
(dp2533
g94
g95
ssg83
g2527
sg76
(lp2534
S'environ'
p2535
asbag69
(g90
g71
NtRp2536
(dp2537
g74
(dp2538
g101
g102
ssg83
g2527
sg76
(lp2539
S':'
asbag69
(g90
g71
NtRp2540
(dp2541
g74
(dp2542
sg83
g2527
sg76
(lp2543
g69
(g70
g71
NtRp2544
(dp2545
g74
(dp2546
g82
I4
ssg83
g2540
sg76
(lp2547
g69
(g78
g71
NtRp2548
(dp2549
g74
(dp2550
g82
I3
ssg83
Nsg76
(lp2551
g69
(g85
g71
NtRp2552
(dp2553
g74
(dp2554
sg83
g2548
sg76
(lp2555
g69
(g90
g71
NtRp2556
(dp2557
g74
(dp2558
g94
g95
ssg83
g2552
sg76
(lp2559
S'HTTP_ACCEPT'
p2560
asbag69
(g90
g71
NtRp2561
(dp2562
g74
(dp2563
g101
g102
ssg83
g2552
sg76
(lp2564
S':'
asbag69
(g90
g71
NtRp2565
(dp2566
g74
(dp2567
sg83
g2552
sg76
(lp2568
g69
(g70
g71
NtRp2569
(dp2570
g74
(dp2571
g82
I3
ssg83
g2565
sg76
(lp2572
g1040
asbasbasbag69
(g85
g71
NtRp2573
(dp2574
g74
(dp2575
sg83
g2548
sg76
(lp2576
g69
(g90
g71
NtRp2577
(dp2578
g74
(dp2579
g94
g95
ssg83
g2573
sg76
(lp2580
S'HTTP_ACCEPT_ENCODING'
p2581
asbag69
(g90
g71
NtRp2582
(dp2583
g74
(dp2584
g101
g102
ssg83
g2573
sg76
(lp2585
S':'
asbag69
(g90
g71
NtRp2586
(dp2587
g74
(dp2588
sg83
g2573
sg76
(lp2589
g69
(g70
g71
NtRp2590
(dp2591
g74
(dp2592
g82
I3
ssg83
g2586
sg76
(lp2593
g1062
asbasbasbag69
(g85
g71
NtRp2594
(dp2595
g74
(dp2596
sg83
g2548
sg76
(lp2597
g69
(g90
g71
NtRp2598
(dp2599
g74
(dp2600
g94
g95
ssg83
g2594
sg76
(lp2601
S'HTTP_ACCEPT_LANGUAGE'
p2602
asbag69
(g90
g71
NtRp2603
(dp2604
g74
(dp2605
g101
g102
ssg83
g2594
sg76
(lp2606
S':'
asbag69
(g90
g71
NtRp2607
(dp2608
g74
(dp2609
sg83
g2594
sg76
(lp2610
g69
(g70
g71
NtRp2611
(dp2612
g74
(dp2613
g82
I3
ssg83
g2607
sg76
(lp2614
g1084
asbasbasbag69
(g85
g71
NtRp2615
(dp2616
g74
(dp2617
sg83
g2548
sg76
(lp2618
g69
(g90
g71
NtRp2619
(dp2620
g74
(dp2621
g94
g95
ssg83
g2615
sg76
(lp2622
S'HTTP_CACHE_CONTROL'
p2623
asbag69
(g90
g71
NtRp2624
(dp2625
g74
(dp2626
g101
g102
ssg83
g2615
sg76
(lp2627
S':'
asbag69
(g90
g71
NtRp2628
(dp2629
g74
(dp2630
sg83
g2615
sg76
(lp2631
g69
(g70
g71
NtRp2632
(dp2633
g74
(dp2634
g82
I3
ssg83
g2628
sg76
(lp2635
g1106
asbasbasbag69
(g85
g71
NtRp2636
(dp2637
g74
(dp2638
sg83
g2548
sg76
(lp2639
g69
(g90
g71
NtRp2640
(dp2641
g74
(dp2642
g94
g95
ssg83
g2636
sg76
(lp2643
S'HTTP_CONNECTION'
p2644
asbag69
(g90
g71
NtRp2645
(dp2646
g74
(dp2647
g101
g102
ssg83
g2636
sg76
(lp2648
S':'
asbag69
(g90
g71
NtRp2649
(dp2650
g74
(dp2651
sg83
g2636
sg76
(lp2652
g69
(g70
g71
NtRp2653
(dp2654
g74
(dp2655
g82
I3
ssg83
g2649
sg76
(lp2656
g1128
asbasbasbag69
(g85
g71
NtRp2657
(dp2658
g74
(dp2659
sg83
g2548
sg76
(lp2660
g69
(g90
g71
NtRp2661
(dp2662
g74
(dp2663
g94
g95
ssg83
g2657
sg76
(lp2664
S'HTTP_COOKIE'
p2665
asbag69
(g90
g71
NtRp2666
(dp2667
g74
(dp2668
g101
g102
ssg83
g2657
sg76
(lp2669
S':'
asbag69
(g90
g71
NtRp2670
(dp2671
g74
(dp2672
sg83
g2657
sg76
(lp2673
g69
(g70
g71
NtRp2674
(dp2675
g74
(dp2676
g82
I3
ssg83
g2670
sg76
(lp2677
g1150
asbasbasbag69
(g85
g71
NtRp2678
(dp2679
g74
(dp2680
sg83
g2548
sg76
(lp2681
g69
(g90
g71
NtRp2682
(dp2683
g74
(dp2684
g94
g95
ssg83
g2678
sg76
(lp2685
S'HTTP_HOST'
p2686
asbag69
(g90
g71
NtRp2687
(dp2688
g74
(dp2689
g101
g102
ssg83
g2678
sg76
(lp2690
S':'
asbag69
(g90
g71
NtRp2691
(dp2692
g74
(dp2693
sg83
g2678
sg76
(lp2694
g69
(g70
g71
NtRp2695
(dp2696
g74
(dp2697
g82
I3
ssg83
g2691
sg76
(lp2698
g1172
asbasbasbag69
(g85
g71
NtRp2699
(dp2700
g74
(dp2701
sg83
g2548
sg76
(lp2702
g69
(g90
g71
NtRp2703
(dp2704
g74
(dp2705
g94
g95
ssg83
g2699
sg76
(lp2706
S'HTTP_PRAGMA'
p2707
asbag69
(g90
g71
NtRp2708
(dp2709
g74
(dp2710
g101
g102
ssg83
g2699
sg76
(lp2711
S':'
asbag69
(g90
g71
NtRp2712
(dp2713
g74
(dp2714
sg83
g2699
sg76
(lp2715
g69
(g70
g71
NtRp2716
(dp2717
g74
(dp2718
g82
I3
ssg83
g2712
sg76
(lp2719
g1194
asbasbasbag69
(g85
g71
NtRp2720
(dp2721
g74
(dp2722
sg83
g2548
sg76
(lp2723
g69
(g90
g71
NtRp2724
(dp2725
g74
(dp2726
g94
g95
ssg83
g2720
sg76
(lp2727
S'HTTP_REFERER'
p2728
asbag69
(g90
g71
NtRp2729
(dp2730
g74
(dp2731
g101
g102
ssg83
g2720
sg76
(lp2732
S':'
asbag69
(g90
g71
NtRp2733
(dp2734
g74
(dp2735
sg83
g2720
sg76
(lp2736
g69
(g70
g71
NtRp2737
(dp2738
g74
(dp2739
g82
I3
ssg83
g2733
sg76
(lp2740
g1216
asbasbasbag69
(g85
g71
NtRp2741
(dp2742
g74
(dp2743
sg83
g2548
sg76
(lp2744
g69
(g90
g71
NtRp2745
(dp2746
g74
(dp2747
g94
g95
ssg83
g2741
sg76
(lp2748
S'HTTP_USER_AGENT'
p2749
asbag69
(g90
g71
NtRp2750
(dp2751
g74
(dp2752
g101
g102
ssg83
g2741
sg76
(lp2753
S':'
asbag69
(g90
g71
NtRp2754
(dp2755
g74
(dp2756
sg83
g2741
sg76
(lp2757
g69
(g70
g71
NtRp2758
(dp2759
g74
(dp2760
g82
I3
ssg83
g2754
sg76
(lp2761
g1238
asbasbasbag69
(g85
g71
NtRp2762
(dp2763
g74
(dp2764
sg83
g2548
sg76
(lp2765
g69
(g90
g71
NtRp2766
(dp2767
g74
(dp2768
g94
g95
ssg83
g2762
sg76
(lp2769
S'PATH_INFO'
p2770
asbag69
(g90
g71
NtRp2771
(dp2772
g74
(dp2773
g101
g102
ssg83
g2762
sg76
(lp2774
S':'
asbag69
(g90
g71
NtRp2775
(dp2776
g74
(dp2777
sg83
g2762
sg76
(lp2778
g69
(g70
g71
NtRp2779
(dp2780
g74
(dp2781
g82
I3
ssg83
g2775
sg76
(lp2782
g1302
asbasbasbag69
(g85
g71
NtRp2783
(dp2784
g74
(dp2785
sg83
g2548
sg76
(lp2786
g69
(g90
g71
NtRp2787
(dp2788
g74
(dp2789
g94
g95
ssg83
g2783
sg76
(lp2790
S'QUERY_STRING'
p2791
asbag69
(g90
g71
NtRp2792
(dp2793
g74
(dp2794
g101
g102
ssg83
g2783
sg76
(lp2795
S':'
asbag69
(g90
g71
NtRp2796
(dp2797
g74
(dp2798
sg83
g2783
sg76
(lp2799
g69
(g70
g71
NtRp2800
(dp2801
g74
(dp2802
g82
I3
ssg83
g2796
sg76
(lp2803
S''
asbasbasbag69
(g85
g71
NtRp2804
(dp2805
g74
(dp2806
sg83
g2548
sg76
(lp2807
g69
(g90
g71
NtRp2808
(dp2809
g74
(dp2810
g94
g95
ssg83
g2804
sg76
(lp2811
S'REMOTE_ADDR'
p2812
asbag69
(g90
g71
NtRp2813
(dp2814
g74
(dp2815
g101
g102
ssg83
g2804
sg76
(lp2816
S':'
asbag69
(g90
g71
NtRp2817
(dp2818
g74
(dp2819
sg83
g2804
sg76
(lp2820
g69
(g70
g71
NtRp2821
(dp2822
g74
(dp2823
g82
I3
ssg83
g2817
sg76
(lp2824
g224
asbasbasbag69
(g85
g71
NtRp2825
(dp2826
g74
(dp2827
sg83
g2548
sg76
(lp2828
g69
(g90
g71
NtRp2829
(dp2830
g74
(dp2831
g94
g95
ssg83
g2825
sg76
(lp2832
S'REMOTE_PORT'
p2833
asbag69
(g90
g71
NtRp2834
(dp2835
g74
(dp2836
g101
g102
ssg83
g2825
sg76
(lp2837
S':'
asbag69
(g90
g71
NtRp2838
(dp2839
g74
(dp2840
sg83
g2825
sg76
(lp2841
g69
(g70
g71
NtRp2842
(dp2843
g74
(dp2844
g82
I3
ssg83
g2838
sg76
(lp2845
g1366
asbasbasbag69
(g85
g71
NtRp2846
(dp2847
g74
(dp2848
sg83
g2548
sg76
(lp2849
g69
(g90
g71
NtRp2850
(dp2851
g74
(dp2852
g94
g95
ssg83
g2846
sg76
(lp2853
S'REQUEST_METHOD'
p2854
asbag69
(g90
g71
NtRp2855
(dp2856
g74
(dp2857
g101
g102
ssg83
g2846
sg76
(lp2858
S':'
asbag69
(g90
g71
NtRp2859
(dp2860
g74
(dp2861
sg83
g2846
sg76
(lp2862
g69
(g70
g71
NtRp2863
(dp2864
g74
(dp2865
g82
I3
ssg83
g2859
sg76
(lp2866
g1388
asbasbasbag69
(g85
g71
NtRp2867
(dp2868
g74
(dp2869
sg83
g2548
sg76
(lp2870
g69
(g90
g71
NtRp2871
(dp2872
g74
(dp2873
g94
g95
ssg83
g2867
sg76
(lp2874
S'REQUEST_URI'
p2875
asbag69
(g90
g71
NtRp2876
(dp2877
g74
(dp2878
g101
g102
ssg83
g2867
sg76
(lp2879
S':'
asbag69
(g90
g71
NtRp2880
(dp2881
g74
(dp2882
sg83
g2867
sg76
(lp2883
g69
(g70
g71
NtRp2884
(dp2885
g74
(dp2886
g82
I3
ssg83
g2880
sg76
(lp2887
g1302
asbasbasbag69
(g85
g71
NtRp2888
(dp2889
g74
(dp2890
sg83
g2548
sg76
(lp2891
g69
(g90
g71
NtRp2892
(dp2893
g74
(dp2894
g94
g95
ssg83
g2888
sg76
(lp2895
S'SCRIPT_NAME'
p2896
asbag69
(g90
g71
NtRp2897
(dp2898
g74
(dp2899
g101
g102
ssg83
g2888
sg76
(lp2900
S':'
asbag69
(g90
g71
NtRp2901
(dp2902
g74
(dp2903
sg83
g2888
sg76
(lp2904
g69
(g70
g71
NtRp2905
(dp2906
g74
(dp2907
g82
I3
ssg83
g2901
sg76
(lp2908
S''
asbasbasbag69
(g85
g71
NtRp2909
(dp2910
g74
(dp2911
sg83
g2548
sg76
(lp2912
g69
(g90
g71
NtRp2913
(dp2914
g74
(dp2915
g94
g95
ssg83
g2909
sg76
(lp2916
S'SERVER_NAME'
p2917
asbag69
(g90
g71
NtRp2918
(dp2919
g74
(dp2920
g101
g102
ssg83
g2909
sg76
(lp2921
S':'
asbag69
(g90
g71
NtRp2922
(dp2923
g74
(dp2924
sg83
g2909
sg76
(lp2925
g69
(g70
g71
NtRp2926
(dp2927
g74
(dp2928
g82
I3
ssg83
g2922
sg76
(lp2929
g1452
asbasbasbag69
(g85
g71
NtRp2930
(dp2931
g74
(dp2932
sg83
g2548
sg76
(lp2933
g69
(g90
g71
NtRp2934
(dp2935
g74
(dp2936
g94
g95
ssg83
g2930
sg76
(lp2937
S'SERVER_PORT'
p2938
asbag69
(g90
g71
NtRp2939
(dp2940
g74
(dp2941
g101
g102
ssg83
g2930
sg76
(lp2942
S':'
asbag69
(g90
g71
NtRp2943
(dp2944
g74
(dp2945
sg83
g2930
sg76
(lp2946
g69
(g70
g71
NtRp2947
(dp2948
g74
(dp2949
g82
I3
ssg83
g2943
sg76
(lp2950
g1474
asbasbasbag69
(g85
g71
NtRp2951
(dp2952
g74
(dp2953
sg83
g2548
sg76
(lp2954
g69
(g90
g71
NtRp2955
(dp2956
g74
(dp2957
g94
g95
ssg83
g2951
sg76
(lp2958
S'SERVER_PROTOCOL'
p2959
asbag69
(g90
g71
NtRp2960
(dp2961
g74
(dp2962
g101
g102
ssg83
g2951
sg76
(lp2963
S':'
asbag69
(g90
g71
NtRp2964
(dp2965
g74
(dp2966
sg83
g2951
sg76
(lp2967
g69
(g70
g71
NtRp2968
(dp2969
g74
(dp2970
g82
I3
ssg83
g2964
sg76
(lp2971
g1496
asbasbasbag69
(g85
g71
NtRp2972
(dp2973
g74
(dp2974
sg83
g2548
sg76
(lp2975
g69
(g90
g71
NtRp2976
(dp2977
g74
(dp2978
g94
g95
ssg83
g2972
sg76
(lp2979
S'SERVER_SOFTWARE'
p2980
asbag69
(g90
g71
NtRp2981
(dp2982
g74
(dp2983
g101
g102
ssg83
g2972
sg76
(lp2984
S':'
asbag69
(g90
g71
NtRp2985
(dp2986
g74
(dp2987
sg83
g2972
sg76
(lp2988
g69
(g70
g71
NtRp2989
(dp2990
g74
(dp2991
g82
I3
ssg83
g2985
sg76
(lp2992
g1518
asbasbasbag69
(g85
g71
NtRp2993
(dp2994
g74
(dp2995
sg83
g2548
sg76
(lp2996
g69
(g90
g71
NtRp2997
(dp2998
g74
(dp2999
g94
g95
ssg83
g2993
sg76
(lp3000
S'wsgi.errors'
p3001
asbag69
(g90
g71
NtRp3002
(dp3003
g74
(dp3004
g101
g102
ssg83
g2993
sg76
(lp3005
S':'
asbag69
(g90
g71
NtRp3006
(dp3007
g74
(dp3008
sg83
g2993
sg76
(lp3009
g69
(g70
g71
NtRp3010
(dp3011
g74
(dp3012
g82
I3
ssg83
g3006
sg76
(lp3013
S"<open file '<stderr>', mode 'w' at 0x7f7b39bf91e0>"
p3014
asbasbasbag69
(g85
g71
NtRp3015
(dp3016
g74
(dp3017
sg83
g2548
sg76
(lp3018
g69
(g90
g71
NtRp3019
(dp3020
g74
(dp3021
g94
g95
ssg83
g3015
sg76
(lp3022
S'wsgi.file_wrapper'
p3023
asbag69
(g90
g71
NtRp3024
(dp3025
g74
(dp3026
g101
g102
ssg83
g3015
sg76
(lp3027
S':'
asbag69
(g90
g71
NtRp3028
(dp3029
g74
(dp3030
sg83
g3015
sg76
(lp3031
g69
(g70
g71
NtRp3032
(dp3033
g74
(dp3034
g82
I3
ssg83
g3028
sg76
(lp3035
S'<class wsgiref.util.FileWrapper at 0x2756f58>'
p3036
asbasbasbag69
(g85
g71
NtRp3037
(dp3038
g74
(dp3039
sg83
g2548
sg76
(lp3040
g69
(g90
g71
NtRp3041
(dp3042
g74
(dp3043
g94
g95
ssg83
g3037
sg76
(lp3044
S'wsgi.input'
p3045
asbag69
(g90
g71
NtRp3046
(dp3047
g74
(dp3048
g101
g102
ssg83
g3037
sg76
(lp3049
S':'
asbag69
(g90
g71
NtRp3050
(dp3051
g74
(dp3052
sg83
g3037
sg76
(lp3053
g69
(g70
g71
NtRp3054
(dp3055
g74
(dp3056
g82
I3
ssg83
g3050
sg76
(lp3057
S'<cStringIO.StringO object at 0x7f7a604dd928>'
p3058
asbasbasbag69
(g85
g71
NtRp3059
(dp3060
g74
(dp3061
sg83
g2548
sg76
(lp3062
g69
(g90
g71
NtRp3063
(dp3064
g74
(dp3065
g94
g95
ssg83
g3059
sg76
(lp3066
S'wsgi.multiprocess'
p3067
asbag69
(g90
g71
NtRp3068
(dp3069
g74
(dp3070
g101
g102
ssg83
g3059
sg76
(lp3071
S':'
asbag69
(g90
g71
NtRp3072
(dp3073
g74
(dp3074
sg83
g3059
sg76
(lp3075
g69
(g70
g71
NtRp3076
(dp3077
g74
(dp3078
g82
I3
ssg83
g3072
sg76
(lp3079
g112
asbasbasbag69
(g85
g71
NtRp3080
(dp3081
g74
(dp3082
sg83
g2548
sg76
(lp3083
g69
(g90
g71
NtRp3084
(dp3085
g74
(dp3086
g94
g95
ssg83
g3080
sg76
(lp3087
S'wsgi.multithread'
p3088
asbag69
(g90
g71
NtRp3089
(dp3090
g74
(dp3091
g101
g102
ssg83
g3080
sg76
(lp3092
S':'
asbag69
(g90
g71
NtRp3093
(dp3094
g74
(dp3095
sg83
g3080
sg76
(lp3096
g69
(g70
g71
NtRp3097
(dp3098
g74
(dp3099
g82
I3
ssg83
g3093
sg76
(lp3100
g1757
asbasbasbag69
(g85
g71
NtRp3101
(dp3102
g74
(dp3103
sg83
g2548
sg76
(lp3104
g69
(g90
g71
NtRp3105
(dp3106
g74
(dp3107
g94
g95
ssg83
g3101
sg76
(lp3108
S'wsgi.run_once'
p3109
asbag69
(g90
g71
NtRp3110
(dp3111
g74
(dp3112
g101
g102
ssg83
g3101
sg76
(lp3113
S':'
asbag69
(g90
g71
NtRp3114
(dp3115
g74
(dp3116
sg83
g3101
sg76
(lp3117
g69
(g70
g71
NtRp3118
(dp3119
g74
(dp3120
g82
I3
ssg83
g3114
sg76
(lp3121
g112
asbasbasbag69
(g85
g71
NtRp3122
(dp3123
g74
(dp3124
sg83
g2548
sg76
(lp3125
g69
(g90
g71
NtRp3126
(dp3127
g74
(dp3128
g94
g95
ssg83
g3122
sg76
(lp3129
S'wsgi.url_scheme'
p3130
asbag69
(g90
g71
NtRp3131
(dp3132
g74
(dp3133
g101
g102
ssg83
g3122
sg76
(lp3134
S':'
asbag69
(g90
g71
NtRp3135
(dp3136
g74
(dp3137
sg83
g3122
sg76
(lp3138
g69
(g70
g71
NtRp3139
(dp3140
g74
(dp3141
g82
I3
ssg83
g3135
sg76
(lp3142
g1800
asbasbasbag69
(g85
g71
NtRp3143
(dp3144
g74
(dp3145
sg83
g2548
sg76
(lp3146
g69
(g90
g71
NtRp3147
(dp3148
g74
(dp3149
g94
g95
ssg83
g3143
sg76
(lp3150
S'wsgi.version'
p3151
asbag69
(g90
g71
NtRp3152
(dp3153
g74
(dp3154
g101
g102
ssg83
g3143
sg76
(lp3155
S':'
asbag69
(g90
g71
NtRp3156
(dp3157
g74
(dp3158
sg83
g3143
sg76
(lp3159
g69
(g70
g71
NtRp3160
(dp3161
g74
(dp3162
g82
I3
ssg83
g3156
sg76
(lp3163
S'1'
asbasbasbasbasbasbasbasbasbasbasbasbasbsS'frames'
p3164
(lp3165
(dp3166
S'file'
p3167
S'/home/mayank/Desktop/web2pyAdmin/web2py/web2py/gluon/restricted.py'
p3168
sS'dump'
p3169
(dp3170
S'code'
p3171
S'r"response.write(\'<!DOCTYPE html>\\r\\n<!-- pauliris...ript>  \\r\\n</body>\\r\\n</html>\\r\\n\', escape=False)"'
p3172
sS'layer'
p3173
S"'/home/mayank/Desktop/web2pyAdmin/web2py/web2py/applications/FunkLoad/views/default/testDetails.html'"
p3174
sS'global compile2'
p3175
S'<function compile2>'
p3176
sS'ccode'
p3177
S'undefined'
p3178
ssS'lnum'
p3179
I208
sS'lines'
p3180
(dp3181
I203
S"    environment['__name__'] = '__restricted__'"
p3182
sI204
S'    try:'
p3183
sI205
S'        if type(code) == types.CodeType:'
p3184
sI206
S'            ccode = code'
p3185
sI207
S'        else:'
p3186
sI208
S'            ccode = compile2(code,layer)'
p3187
sI209
S'        exec ccode in environment'
p3188
sI210
S'    except HTTP:'
p3189
sI211
S'        raise'
p3190
sI212
S'    except RestrictedError:'
p3191
ssS'call'
p3192
S'(code=r"response.write(\'<!DOCTYPE html>\\r\\n<!-- pauliris...ript>  \\r\\n</body>\\r\\n</html>\\r\\n\', escape=False)", environment={\'A\': <class \'gluon.html.A\'>, \'Auth\': <class \'gluon.tools.Auth\'>, \'B\': <class \'gluon.html.B\'>, \'BEAUTIFY\': <class \'gluon.html.BEAUTIFY\'>, \'BODY\': <class \'gluon.html.BODY\'>, \'BR\': <class \'gluon.html.BR\'>, \'BUTTON\': <class \'gluon.html.BUTTON\'>, \'CAT\': <class \'gluon.html.CAT\'>, \'CENTER\': <class \'gluon.html.CENTER\'>, \'CLEANUP\': <class \'gluon.validators.CLEANUP\'>, ...}, layer=\'/home/mayank/Desktop/web2pyAdmin/web2py/web2py/applications/FunkLoad/views/default/testDetails.html\')'
p3193
sS'func'
p3194
S'restricted'
p3195
sa(dp3196
g3167
S'/home/mayank/Desktop/web2pyAdmin/web2py/web2py/gluon/restricted.py'
p3197
sg3169
(dp3198
S'builtincompile'
p3199
S'<built-in function compile>'
p3200
sS'code'
p3201
S'r"response.write(\'<!DOCTYPE html>\\r\\n<!-- pauliris...ript>  \\r\\n</body>\\r\\n</html>\\r\\n\', escape=False)"'
p3202
sS'code.rstrip'
p3203
S'<built-in method rstrip of str object>'
p3204
sS').replace'
p3205
g3178
sS'layer'
p3206
S"'/home/mayank/Desktop/web2pyAdmin/web2py/web2py/applications/FunkLoad/views/default/testDetails.html'"
p3207
ssg3179
I193
sg3180
(dp3208
I192
S'    """'
p3209
sI193
S"    return compile(code.rstrip().replace('\\r\\n','\\n')+'\\n', layer, 'exec')"
p3210
sI194
S''
sI195
S"def restricted(code, environment=None, layer='Unknown'):"
p3211
sI196
S'    """'
p3212
sI197
S'    runs code in environment and returns the output. if an exception occurs'
p3213
sI188
S''
sI189
S'def compile2(code,layer):'
p3214
sI190
S'    """'
p3215
sI191
S"    The +'\\n' is necessary else compile fails when code ends in a comment."
p3216
ssg3192
S'(code=r"response.write(\'<!DOCTYPE html>\\r\\n<!-- pauliris...ript>  \\r\\n</body>\\r\\n</html>\\r\\n\', escape=False)", layer=\'/home/mayank/Desktop/web2pyAdmin/web2py/web2py/applications/FunkLoad/views/default/testDetails.html\')'
p3217
sg3194
S'compile2'
p3218
sasS'pyver'
p3219
S'Python 2.7.4: /usr/bin/python'
p3220
sS'session'
p3221
g69
(g70
g71
NtRp3222
(dp3223
g74
(dp3224
sg76
(lp3225
g69
(g78
g71
NtRp3226
(dp3227
g74
(dp3228
g82
I5
ssg83
Nsg76
(lp3229
g69
(g85
g71
NtRp3230
(dp3231
g74
(dp3232
sg83
g3226
sg76
(lp3233
g69
(g90
g71
NtRp3234
(dp3235
g74
(dp3236
g94
g95
ssg83
g3230
sg76
(lp3237
S'auth'
p3238
asbag69
(g90
g71
NtRp3239
(dp3240
g74
(dp3241
g101
g102
ssg83
g3230
sg76
(lp3242
S':'
asbag69
(g90
g71
NtRp3243
(dp3244
g74
(dp3245
sg83
g3230
sg76
(lp3246
g69
(g70
g71
NtRp3247
(dp3248
g74
(dp3249
g82
I5
ssg83
g3243
sg76
(lp3250
g69
(g78
g71
NtRp3251
(dp3252
g74
(dp3253
g82
I4
ssg83
Nsg76
(lp3254
g69
(g85
g71
NtRp3255
(dp3256
g74
(dp3257
sg83
g3251
sg76
(lp3258
g69
(g90
g71
NtRp3259
(dp3260
g74
(dp3261
g94
g95
ssg83
g3255
sg76
(lp3262
S'expiration'
p3263
asbag69
(g90
g71
NtRp3264
(dp3265
g74
(dp3266
g101
g102
ssg83
g3255
sg76
(lp3267
S':'
asbag69
(g90
g71
NtRp3268
(dp3269
g74
(dp3270
sg83
g3255
sg76
(lp3271
g69
(g70
g71
NtRp3272
(dp3273
g74
(dp3274
g82
I4
ssg83
g3268
sg76
(lp3275
S'3600'
p3276
asbasbasbag69
(g85
g71
NtRp3277
(dp3278
g74
(dp3279
sg83
g3251
sg76
(lp3280
g69
(g90
g71
NtRp3281
(dp3282
g74
(dp3283
g94
g95
ssg83
g3277
sg76
(lp3284
S'hmac_key'
p3285
asbag69
(g90
g71
NtRp3286
(dp3287
g74
(dp3288
g101
g102
ssg83
g3277
sg76
(lp3289
S':'
asbag69
(g90
g71
NtRp3290
(dp3291
g74
(dp3292
sg83
g3277
sg76
(lp3293
g69
(g70
g71
NtRp3294
(dp3295
g74
(dp3296
g82
I4
ssg83
g3290
sg76
(lp3297
S'f35ec030-e176-482c-996c-223295ef3acc'
p3298
asbasbasbag69
(g85
g71
NtRp3299
(dp3300
g74
(dp3301
sg83
g3251
sg76
(lp3302
g69
(g90
g71
NtRp3303
(dp3304
g74
(dp3305
g94
g95
ssg83
g3299
sg76
(lp3306
S'last_visit'
p3307
asbag69
(g90
g71
NtRp3308
(dp3309
g74
(dp3310
g101
g102
ssg83
g3299
sg76
(lp3311
S':'
asbag69
(g90
g71
NtRp3312
(dp3313
g74
(dp3314
sg83
g3299
sg76
(lp3315
g69
(g70
g71
NtRp3316
(dp3317
g74
(dp3318
g82
I4
ssg83
g3312
sg76
(lp3319
S'datetime.datetime(2013, 11, 10, 18, 12, 3, 149825)'
p3320
asbasbasbag69
(g85
g71
NtRp3321
(dp3322
g74
(dp3323
sg83
g3251
sg76
(lp3324
g69
(g90
g71
NtRp3325
(dp3326
g74
(dp3327
g94
g95
ssg83
g3321
sg76
(lp3328
S'remember'
p3329
asbag69
(g90
g71
NtRp3330
(dp3331
g74
(dp3332
g101
g102
ssg83
g3321
sg76
(lp3333
S':'
asbag69
(g90
g71
NtRp3334
(dp3335
g74
(dp3336
sg83
g3321
sg76
(lp3337
g69
(g70
g71
NtRp3338
(dp3339
g74
(dp3340
g82
I4
ssg83
g3334
sg76
(lp3341
g112
asbasbasbag69
(g85
g71
NtRp3342
(dp3343
g74
(dp3344
sg83
g3251
sg76
(lp3345
g69
(g90
g71
NtRp3346
(dp3347
g74
(dp3348
g94
g95
ssg83
g3342
sg76
(lp3349
S'user'
p3350
asbag69
(g90
g71
NtRp3351
(dp3352
g74
(dp3353
g101
g102
ssg83
g3342
sg76
(lp3354
S':'
asbag69
(g90
g71
NtRp3355
(dp3356
g74
(dp3357
sg83
g3342
sg76
(lp3358
g69
(g70
g71
NtRp3359
(dp3360
g74
(dp3361
g82
I4
ssg83
g3355
sg76
(lp3362
g69
(g78
g71
NtRp3363
(dp3364
g74
(dp3365
g82
I3
ssg83
Nsg76
(lp3366
g69
(g85
g71
NtRp3367
(dp3368
g74
(dp3369
sg83
g3363
sg76
(lp3370
g69
(g90
g71
NtRp3371
(dp3372
g74
(dp3373
g94
g95
ssg83
g3367
sg76
(lp3374
S'email'
p3375
asbag69
(g90
g71
NtRp3376
(dp3377
g74
(dp3378
g101
g102
ssg83
g3367
sg76
(lp3379
S':'
asbag69
(g90
g71
NtRp3380
(dp3381
g74
(dp3382
sg83
g3367
sg76
(lp3383
g69
(g70
g71
NtRp3384
(dp3385
g74
(dp3386
g82
I3
ssg83
g3380
sg76
(lp3387
S'mayank.g@students.iiit.ac.in'
p3388
asbasbasbag69
(g85
g71
NtRp3389
(dp3390
g74
(dp3391
sg83
g3363
sg76
(lp3392
g69
(g90
g71
NtRp3393
(dp3394
g74
(dp3395
g94
g95
ssg83
g3389
sg76
(lp3396
S'first_name'
p3397
asbag69
(g90
g71
NtRp3398
(dp3399
g74
(dp3400
g101
g102
ssg83
g3389
sg76
(lp3401
S':'
asbag69
(g90
g71
NtRp3402
(dp3403
g74
(dp3404
sg83
g3389
sg76
(lp3405
g69
(g70
g71
NtRp3406
(dp3407
g74
(dp3408
g82
I3
ssg83
g3402
sg76
(lp3409
S'Mayank'
p3410
asbasbasbag69
(g85
g71
NtRp3411
(dp3412
g74
(dp3413
sg83
g3363
sg76
(lp3414
g69
(g90
g71
NtRp3415
(dp3416
g74
(dp3417
g94
g95
ssg83
g3411
sg76
(lp3418
S'id'
p3419
asbag69
(g90
g71
NtRp3420
(dp3421
g74
(dp3422
g101
g102
ssg83
g3411
sg76
(lp3423
S':'
asbag69
(g90
g71
NtRp3424
(dp3425
g74
(dp3426
sg83
g3411
sg76
(lp3427
g69
(g70
g71
NtRp3428
(dp3429
g74
(dp3430
g82
I3
ssg83
g3424
sg76
(lp3431
S'1'
asbasbasbag69
(g85
g71
NtRp3432
(dp3433
g74
(dp3434
sg83
g3363
sg76
(lp3435
g69
(g90
g71
NtRp3436
(dp3437
g74
(dp3438
g94
g95
ssg83
g3432
sg76
(lp3439
S'last_name'
p3440
asbag69
(g90
g71
NtRp3441
(dp3442
g74
(dp3443
g101
g102
ssg83
g3432
sg76
(lp3444
S':'
asbag69
(g90
g71
NtRp3445
(dp3446
g74
(dp3447
sg83
g3432
sg76
(lp3448
g69
(g70
g71
NtRp3449
(dp3450
g74
(dp3451
g82
I3
ssg83
g3445
sg76
(lp3452
S'Gupta'
p3453
asbasbasbag69
(g85
g71
NtRp3454
(dp3455
g74
(dp3456
sg83
g3363
sg76
(lp3457
g69
(g90
g71
NtRp3458
(dp3459
g74
(dp3460
g94
g95
ssg83
g3454
sg76
(lp3461
S'password'
p3462
asbag69
(g90
g71
NtRp3463
(dp3464
g74
(dp3465
g101
g102
ssg83
g3454
sg76
(lp3466
S':'
asbag69
(g90
g71
NtRp3467
(dp3468
g74
(dp3469
sg83
g3454
sg76
(lp3470
g69
(g70
g71
NtRp3471
(dp3472
g74
(dp3473
g82
I3
ssg83
g3467
sg76
(lp3474
S'pbkdf2(1000,20,sha512)$a496878cc8b951c5$137e42454abf6cff232aebcc4f0c3801419a78ac'
p3475
asbasbasbag69
(g85
g71
NtRp3476
(dp3477
g74
(dp3478
sg83
g3363
sg76
(lp3479
g69
(g90
g71
NtRp3480
(dp3481
g74
(dp3482
g94
g95
ssg83
g3476
sg76
(lp3483
S'registration_id'
p3484
asbag69
(g90
g71
NtRp3485
(dp3486
g74
(dp3487
g101
g102
ssg83
g3476
sg76
(lp3488
S':'
asbag69
(g90
g71
NtRp3489
(dp3490
g74
(dp3491
sg83
g3476
sg76
(lp3492
g69
(g70
g71
NtRp3493
(dp3494
g74
(dp3495
g82
I3
ssg83
g3489
sg76
(lp3496
S''
asbasbasbag69
(g85
g71
NtRp3497
(dp3498
g74
(dp3499
sg83
g3363
sg76
(lp3500
g69
(g90
g71
NtRp3501
(dp3502
g74
(dp3503
g94
g95
ssg83
g3497
sg76
(lp3504
S'registration_key'
p3505
asbag69
(g90
g71
NtRp3506
(dp3507
g74
(dp3508
g101
g102
ssg83
g3497
sg76
(lp3509
S':'
asbag69
(g90
g71
NtRp3510
(dp3511
g74
(dp3512
sg83
g3497
sg76
(lp3513
g69
(g70
g71
NtRp3514
(dp3515
g74
(dp3516
g82
I3
ssg83
g3510
sg76
(lp3517
S''
asbasbasbag69
(g85
g71
NtRp3518
(dp3519
g74
(dp3520
sg83
g3363
sg76
(lp3521
g69
(g90
g71
NtRp3522
(dp3523
g74
(dp3524
g94
g95
ssg83
g3518
sg76
(lp3525
S'reset_password_key'
p3526
asbag69
(g90
g71
NtRp3527
(dp3528
g74
(dp3529
g101
g102
ssg83
g3518
sg76
(lp3530
S':'
asbag69
(g90
g71
NtRp3531
(dp3532
g74
(dp3533
sg83
g3518
sg76
(lp3534
g69
(g70
g71
NtRp3535
(dp3536
g74
(dp3537
g82
I3
ssg83
g3531
sg76
(lp3538
S''
asbasbasbasbasbasbasbag69
(g85
g71
NtRp3539
(dp3540
g74
(dp3541
sg83
g3251
sg76
(lp3542
g69
(g90
g71
NtRp3543
(dp3544
g74
(dp3545
g94
g95
ssg83
g3539
sg76
(lp3546
S'user_groups'
p3547
asbag69
(g90
g71
NtRp3548
(dp3549
g74
(dp3550
g101
g102
ssg83
g3539
sg76
(lp3551
S':'
asbag69
(g90
g71
NtRp3552
(dp3553
g74
(dp3554
sg83
g3539
sg76
(lp3555
g69
(g70
g71
NtRp3556
(dp3557
g74
(dp3558
g82
I4
ssg83
g3552
sg76
(lp3559
g69
(g78
g71
NtRp3560
(dp3561
g74
(dp3562
g82
I3
ssg83
Nsg76
(lp3563
g69
(g85
g71
NtRp3564
(dp3565
g74
(dp3566
sg83
g3560
sg76
(lp3567
g69
(g90
g71
NtRp3568
(dp3569
g74
(dp3570
g94
g95
ssg83
g3564
sg76
(lp3571
S'1'
asbag69
(g90
g71
NtRp3572
(dp3573
g74
(dp3574
g101
g102
ssg83
g3564
sg76
(lp3575
S':'
asbag69
(g90
g71
NtRp3576
(dp3577
g74
(dp3578
sg83
g3564
sg76
(lp3579
g69
(g70
g71
NtRp3580
(dp3581
g74
(dp3582
g82
I3
ssg83
g3576
sg76
(lp3583
S'user_1'
p3584
asbasbasbasbasbasbasbasbasbasbasbag69
(g85
g71
NtRp3585
(dp3586
g74
(dp3587
sg83
g3226
sg76
(lp3588
g69
(g90
g71
NtRp3589
(dp3590
g74
(dp3591
g94
g95
ssg83
g3585
sg76
(lp3592
S'flash'
p3593
asbag69
(g90
g71
NtRp3594
(dp3595
g74
(dp3596
g101
g102
ssg83
g3585
sg76
(lp3597
S':'
asbag69
(g90
g71
NtRp3598
(dp3599
g74
(dp3600
sg83
g3585
sg76
(lp3601
g69
(g70
g71
NtRp3602
(dp3603
g74
(dp3604
g82
I5
ssg83
g3598
sg76
(lp3605
S'None'
p3606
asbasbasbag69
(g85
g71
NtRp3607
(dp3608
g74
(dp3609
sg83
g3226
sg76
(lp3610
g69
(g90
g71
NtRp3611
(dp3612
g74
(dp3613
g94
g95
ssg83
g3607
sg76
(lp3614
S'last_orderby'
p3615
asbag69
(g90
g71
NtRp3616
(dp3617
g74
(dp3618
g101
g102
ssg83
g3607
sg76
(lp3619
S':'
asbag69
(g90
g71
NtRp3620
(dp3621
g74
(dp3622
sg83
g3607
sg76
(lp3623
g69
(g70
g71
NtRp3624
(dp3625
g74
(dp3626
g82
I5
ssg83
g3620
sg76
(lp3627
S'None'
p3628
asbasbasbag69
(g85
g71
NtRp3629
(dp3630
g74
(dp3631
sg83
g3226
sg76
(lp3632
g69
(g90
g71
NtRp3633
(dp3634
g74
(dp3635
g94
g95
ssg83
g3629
sg76
(lp3636
S'last_query'
p3637
asbag69
(g90
g71
NtRp3638
(dp3639
g74
(dp3640
g101
g102
ssg83
g3629
sg76
(lp3641
S':'
asbag69
(g90
g71
NtRp3642
(dp3643
g74
(dp3644
sg83
g3629
sg76
(lp3645
g69
(g70
g71
NtRp3646
(dp3647
g74
(dp3648
g82
I5
ssg83
g3642
sg76
(lp3649
S'db.auth_user.id>0'
p3650
asbasbasbasbasbsS'etype'
p3651
S"<type 'exceptions.SyntaxError'>"
p3652
sS'date'
p3653
S'Sun Nov 10 18:16:16 2013'
p3654
sS'response'
p3655
g69
(g70
g71
NtRp3656
(dp3657
g74
(dp3658
sg76
(lp3659
g69
(g78
g71
NtRp3660
(dp3661
g74
(dp3662
g82
I5
ssg83
Nsg76
(lp3663
g69
(g85
g71
NtRp3664
(dp3665
g74
(dp3666
sg83
g3660
sg76
(lp3667
g69
(g90
g71
NtRp3668
(dp3669
g74
(dp3670
g94
g95
ssg83
g3664
sg76
(lp3671
g167
asbag69
(g90
g71
NtRp3672
(dp3673
g74
(dp3674
g101
g102
ssg83
g3664
sg76
(lp3675
S':'
asbag69
(g90
g71
NtRp3676
(dp3677
g74
(dp3678
sg83
g3664
sg76
(lp3679
g69
(g70
g71
NtRp3680
(dp3681
g74
(dp3682
g82
I5
ssg83
g3676
sg76
(lp3683
S'<cStringIO.StringO object at 0x7f7a7825ec70>'
p3684
asbasbasbag69
(g85
g71
NtRp3685
(dp3686
g74
(dp3687
sg83
g3660
sg76
(lp3688
g69
(g90
g71
NtRp3689
(dp3690
g74
(dp3691
g94
g95
ssg83
g3685
sg76
(lp3692
g255
asbag69
(g90
g71
NtRp3693
(dp3694
g74
(dp3695
g101
g102
ssg83
g3685
sg76
(lp3696
S':'
asbag69
(g90
g71
NtRp3697
(dp3698
g74
(dp3699
sg83
g3685
sg76
(lp3700
g69
(g70
g71
NtRp3701
(dp3702
g74
(dp3703
g82
I5
ssg83
g3697
sg76
(lp3704
g69
(g78
g71
NtRp3705
(dp3706
g74
(dp3707
g82
I4
ssg83
Nsg76
(lp3708
g69
(g85
g71
NtRp3709
(dp3710
g74
(dp3711
sg83
g3705
sg76
(lp3712
g69
(g90
g71
NtRp3713
(dp3714
g74
(dp3715
g94
g95
ssg83
g3709
sg76
(lp3716
S'session_id_funkload'
p3717
asbag69
(g90
g71
NtRp3718
(dp3719
g74
(dp3720
g101
g102
ssg83
g3709
sg76
(lp3721
S':'
asbag69
(g90
g71
NtRp3722
(dp3723
g74
(dp3724
sg83
g3709
sg76
(lp3725
g69
(g70
g71
NtRp3726
(dp3727
g74
(dp3728
g82
I4
ssg83
g3722
sg76
(lp3729
g487
ag69
(g78
g71
NtRp3730
(dp3731
g74
(dp3732
g82
I3
ssg83
Nsg76
(lp3733
g69
(g85
g71
NtRp3734
(dp3735
g74
(dp3736
sg83
g3730
sg76
(lp3737
g69
(g90
g71
NtRp3738
(dp3739
g74
(dp3740
g94
g95
ssg83
g3734
sg76
(lp3741
g306
asbag69
(g90
g71
NtRp3742
(dp3743
g74
(dp3744
g101
g102
ssg83
g3734
sg76
(lp3745
S':'
asbag69
(g90
g71
NtRp3746
(dp3747
g74
(dp3748
sg83
g3734
sg76
(lp3749
g69
(g70
g71
NtRp3750
(dp3751
g74
(dp3752
g82
I3
ssg83
g3746
sg76
(lp3753
S''
asbasbasbag69
(g85
g71
NtRp3754
(dp3755
g74
(dp3756
sg83
g3730
sg76
(lp3757
g69
(g90
g71
NtRp3758
(dp3759
g74
(dp3760
g94
g95
ssg83
g3754
sg76
(lp3761
g327
asbag69
(g90
g71
NtRp3762
(dp3763
g74
(dp3764
g101
g102
ssg83
g3754
sg76
(lp3765
S':'
asbag69
(g90
g71
NtRp3766
(dp3767
g74
(dp3768
sg83
g3754
sg76
(lp3769
g69
(g70
g71
NtRp3770
(dp3771
g74
(dp3772
g82
I3
ssg83
g3766
sg76
(lp3773
S''
asbasbasbag69
(g85
g71
NtRp3774
(dp3775
g74
(dp3776
sg83
g3730
sg76
(lp3777
g69
(g90
g71
NtRp3778
(dp3779
g74
(dp3780
g94
g95
ssg83
g3774
sg76
(lp3781
g348
asbag69
(g90
g71
NtRp3782
(dp3783
g74
(dp3784
g101
g102
ssg83
g3774
sg76
(lp3785
S':'
asbag69
(g90
g71
NtRp3786
(dp3787
g74
(dp3788
sg83
g3774
sg76
(lp3789
g69
(g70
g71
NtRp3790
(dp3791
g74
(dp3792
g82
I3
ssg83
g3786
sg76
(lp3793
S''
asbasbasbag69
(g85
g71
NtRp3794
(dp3795
g74
(dp3796
sg83
g3730
sg76
(lp3797
g69
(g90
g71
NtRp3798
(dp3799
g74
(dp3800
g94
g95
ssg83
g3794
sg76
(lp3801
g369
asbag69
(g90
g71
NtRp3802
(dp3803
g74
(dp3804
g101
g102
ssg83
g3794
sg76
(lp3805
S':'
asbag69
(g90
g71
NtRp3806
(dp3807
g74
(dp3808
sg83
g3794
sg76
(lp3809
g69
(g70
g71
NtRp3810
(dp3811
g74
(dp3812
g82
I3
ssg83
g3806
sg76
(lp3813
S''
asbasbasbag69
(g85
g71
NtRp3814
(dp3815
g74
(dp3816
sg83
g3730
sg76
(lp3817
g69
(g90
g71
NtRp3818
(dp3819
g74
(dp3820
g94
g95
ssg83
g3814
sg76
(lp3821
g390
asbag69
(g90
g71
NtRp3822
(dp3823
g74
(dp3824
g101
g102
ssg83
g3814
sg76
(lp3825
S':'
asbag69
(g90
g71
NtRp3826
(dp3827
g74
(dp3828
sg83
g3814
sg76
(lp3829
g69
(g70
g71
NtRp3830
(dp3831
g74
(dp3832
g82
I3
ssg83
g3826
sg76
(lp3833
S''
asbasbasbag69
(g85
g71
NtRp3834
(dp3835
g74
(dp3836
sg83
g3730
sg76
(lp3837
g69
(g90
g71
NtRp3838
(dp3839
g74
(dp3840
g94
g95
ssg83
g3834
sg76
(lp3841
g411
asbag69
(g90
g71
NtRp3842
(dp3843
g74
(dp3844
g101
g102
ssg83
g3834
sg76
(lp3845
S':'
asbag69
(g90
g71
NtRp3846
(dp3847
g74
(dp3848
sg83
g3834
sg76
(lp3849
g69
(g70
g71
NtRp3850
(dp3851
g74
(dp3852
g82
I3
ssg83
g3846
sg76
(lp3853
S'/'
asbasbasbag69
(g85
g71
NtRp3854
(dp3855
g74
(dp3856
sg83
g3730
sg76
(lp3857
g69
(g90
g71
NtRp3858
(dp3859
g74
(dp3860
g94
g95
ssg83
g3854
sg76
(lp3861
g432
asbag69
(g90
g71
NtRp3862
(dp3863
g74
(dp3864
g101
g102
ssg83
g3854
sg76
(lp3865
S':'
asbag69
(g90
g71
NtRp3866
(dp3867
g74
(dp3868
sg83
g3854
sg76
(lp3869
g69
(g70
g71
NtRp3870
(dp3871
g74
(dp3872
g82
I3
ssg83
g3866
sg76
(lp3873
S''
asbasbasbag69
(g85
g71
NtRp3874
(dp3875
g74
(dp3876
sg83
g3730
sg76
(lp3877
g69
(g90
g71
NtRp3878
(dp3879
g74
(dp3880
g94
g95
ssg83
g3874
sg76
(lp3881
g453
asbag69
(g90
g71
NtRp3882
(dp3883
g74
(dp3884
g101
g102
ssg83
g3874
sg76
(lp3885
S':'
asbag69
(g90
g71
NtRp3886
(dp3887
g74
(dp3888
sg83
g3874
sg76
(lp3889
g69
(g70
g71
NtRp3890
(dp3891
g74
(dp3892
g82
I3
ssg83
g3886
sg76
(lp3893
S''
asbasbasbasbasbasbasbasbasbasbasbag69
(g85
g71
NtRp3894
(dp3895
g74
(dp3896
sg83
g3660
sg76
(lp3897
g69
(g90
g71
NtRp3898
(dp3899
g74
(dp3900
g94
g95
ssg83
g3894
sg76
(lp3901
S'delimiters'
p3902
asbag69
(g90
g71
NtRp3903
(dp3904
g74
(dp3905
g101
g102
ssg83
g3894
sg76
(lp3906
S':'
asbag69
(g90
g71
NtRp3907
(dp3908
g74
(dp3909
sg83
g3894
sg76
(lp3910
g69
(g70
g71
NtRp3911
(dp3912
g74
(dp3913
g82
I5
ssg83
g3907
sg76
(lp3914
g69
(g78
g71
NtRp3915
(dp3916
g74
(dp3917
g82
I4
ssg83
Nsg76
(lp3918
g69
(g85
g71
NtRp3919
(dp3920
g74
(dp3921
sg83
g3915
sg76
(lp3922
g69
(g90
g71
NtRp3923
(dp3924
g74
(dp3925
sg83
g3919
sg76
(lp3926
g69
(g70
g71
NtRp3927
(dp3928
g74
(dp3929
g82
I4
ssg83
g3923
sg76
(lp3930
S'{{'
p3931
asbasbasbag69
(g85
g71
NtRp3932
(dp3933
g74
(dp3934
sg83
g3915
sg76
(lp3935
g69
(g90
g71
NtRp3936
(dp3937
g74
(dp3938
sg83
g3932
sg76
(lp3939
g69
(g70
g71
NtRp3940
(dp3941
g74
(dp3942
g82
I4
ssg83
g3936
sg76
(lp3943
S'}}'
p3944
asbasbasbasbasbasbasbag69
(g85
g71
NtRp3945
(dp3946
g74
(dp3947
sg83
g3660
sg76
(lp3948
g69
(g90
g71
NtRp3949
(dp3950
g74
(dp3951
g94
g95
ssg83
g3945
sg76
(lp3952
S'files'
p3953
asbag69
(g90
g71
NtRp3954
(dp3955
g74
(dp3956
g101
g102
ssg83
g3945
sg76
(lp3957
S':'
asbag69
(g90
g71
NtRp3958
(dp3959
g74
(dp3960
sg83
g3945
sg76
(lp3961
g69
(g70
g71
NtRp3962
(dp3963
g74
(dp3964
g82
I5
ssg83
g3958
sg76
(lp3965
g69
(g78
g71
NtRp3966
(dp3967
g74
(dp3968
g82
I4
ssg83
Nsg76
(lp3969
sbasbasbasbag69
(g85
g71
NtRp3970
(dp3971
g74
(dp3972
sg83
g3660
sg76
(lp3973
g69
(g90
g71
NtRp3974
(dp3975
g74
(dp3976
g94
g95
ssg83
g3970
sg76
(lp3977
S'flash'
p3978
asbag69
(g90
g71
NtRp3979
(dp3980
g74
(dp3981
g101
g102
ssg83
g3970
sg76
(lp3982
S':'
asbag69
(g90
g71
NtRp3983
(dp3984
g74
(dp3985
sg83
g3970
sg76
(lp3986
g69
(g70
g71
NtRp3987
(dp3988
g74
(dp3989
g82
I5
ssg83
g3983
sg76
(lp3990
S''
asbasbasbag69
(g85
g71
NtRp3991
(dp3992
g74
(dp3993
sg83
g3660
sg76
(lp3994
g69
(g90
g71
NtRp3995
(dp3996
g74
(dp3997
g94
g95
ssg83
g3991
sg76
(lp3998
S'generic_patterns'
p3999
asbag69
(g90
g71
NtRp4000
(dp4001
g74
(dp4002
g101
g102
ssg83
g3991
sg76
(lp4003
S':'
asbag69
(g90
g71
NtRp4004
(dp4005
g74
(dp4006
sg83
g3991
sg76
(lp4007
g69
(g70
g71
NtRp4008
(dp4009
g74
(dp4010
g82
I5
ssg83
g4004
sg76
(lp4011
g69
(g78
g71
NtRp4012
(dp4013
g74
(dp4014
g82
I4
ssg83
Nsg76
(lp4015
g69
(g85
g71
NtRp4016
(dp4017
g74
(dp4018
sg83
g4012
sg76
(lp4019
g69
(g90
g71
NtRp4020
(dp4021
g74
(dp4022
sg83
g4016
sg76
(lp4023
g69
(g70
g71
NtRp4024
(dp4025
g74
(dp4026
g82
I4
ssg83
g4020
sg76
(lp4027
S'*'
asbasbasbasbasbasbasbag69
(g85
g71
NtRp4028
(dp4029
g74
(dp4030
sg83
g3660
sg76
(lp4031
g69
(g90
g71
NtRp4032
(dp4033
g74
(dp4034
g94
g95
ssg83
g4028
sg76
(lp4035
S'google_analytics_id'
p4036
asbag69
(g90
g71
NtRp4037
(dp4038
g74
(dp4039
g101
g102
ssg83
g4028
sg76
(lp4040
S':'
asbag69
(g90
g71
NtRp4041
(dp4042
g74
(dp4043
sg83
g4028
sg76
(lp4044
g69
(g70
g71
NtRp4045
(dp4046
g74
(dp4047
g82
I5
ssg83
g4041
sg76
(lp4048
S'None'
p4049
asbasbasbag69
(g85
g71
NtRp4050
(dp4051
g74
(dp4052
sg83
g3660
sg76
(lp4053
g69
(g90
g71
NtRp4054
(dp4055
g74
(dp4056
g94
g95
ssg83
g4050
sg76
(lp4057
S'headers'
p4058
asbag69
(g90
g71
NtRp4059
(dp4060
g74
(dp4061
g101
g102
ssg83
g4050
sg76
(lp4062
S':'
asbag69
(g90
g71
NtRp4063
(dp4064
g74
(dp4065
sg83
g4050
sg76
(lp4066
g69
(g70
g71
NtRp4067
(dp4068
g74
(dp4069
g82
I5
ssg83
g4063
sg76
(lp4070
g69
(g78
g71
NtRp4071
(dp4072
g74
(dp4073
g82
I4
ssg83
Nsg76
(lp4074
g69
(g85
g71
NtRp4075
(dp4076
g74
(dp4077
sg83
g4071
sg76
(lp4078
g69
(g90
g71
NtRp4079
(dp4080
g74
(dp4081
g94
g95
ssg83
g4075
sg76
(lp4082
S'Cache-Control'
p4083
asbag69
(g90
g71
NtRp4084
(dp4085
g74
(dp4086
g101
g102
ssg83
g4075
sg76
(lp4087
S':'
asbag69
(g90
g71
NtRp4088
(dp4089
g74
(dp4090
sg83
g4075
sg76
(lp4091
g69
(g70
g71
NtRp4092
(dp4093
g74
(dp4094
g82
I4
ssg83
g4088
sg76
(lp4095
S'no-store, no-cache, must-revalidate, post-check=0, pre-check=0'
p4096
asbasbasbag69
(g85
g71
NtRp4097
(dp4098
g74
(dp4099
sg83
g4071
sg76
(lp4100
g69
(g90
g71
NtRp4101
(dp4102
g74
(dp4103
g94
g95
ssg83
g4097
sg76
(lp4104
S'Content-Type'
p4105
asbag69
(g90
g71
NtRp4106
(dp4107
g74
(dp4108
g101
g102
ssg83
g4097
sg76
(lp4109
S':'
asbag69
(g90
g71
NtRp4110
(dp4111
g74
(dp4112
sg83
g4097
sg76
(lp4113
g69
(g70
g71
NtRp4114
(dp4115
g74
(dp4116
g82
I4
ssg83
g4110
sg76
(lp4117
S'text/html; charset=utf-8'
p4118
asbasbasbag69
(g85
g71
NtRp4119
(dp4120
g74
(dp4121
sg83
g4071
sg76
(lp4122
g69
(g90
g71
NtRp4123
(dp4124
g74
(dp4125
g94
g95
ssg83
g4119
sg76
(lp4126
S'Expires'
p4127
asbag69
(g90
g71
NtRp4128
(dp4129
g74
(dp4130
g101
g102
ssg83
g4119
sg76
(lp4131
S':'
asbag69
(g90
g71
NtRp4132
(dp4133
g74
(dp4134
sg83
g4119
sg76
(lp4135
g69
(g70
g71
NtRp4136
(dp4137
g74
(dp4138
g82
I4
ssg83
g4132
sg76
(lp4139
S'Sun, 10 Nov 2013 12:46:16 GMT'
p4140
asbasbasbag69
(g85
g71
NtRp4141
(dp4142
g74
(dp4143
sg83
g4071
sg76
(lp4144
g69
(g90
g71
NtRp4145
(dp4146
g74
(dp4147
g94
g95
ssg83
g4141
sg76
(lp4148
S'Pragma'
p4149
asbag69
(g90
g71
NtRp4150
(dp4151
g74
(dp4152
g101
g102
ssg83
g4141
sg76
(lp4153
S':'
asbag69
(g90
g71
NtRp4154
(dp4155
g74
(dp4156
sg83
g4141
sg76
(lp4157
g69
(g70
g71
NtRp4158
(dp4159
g74
(dp4160
g82
I4
ssg83
g4154
sg76
(lp4161
S'no-cache'
p4162
asbasbasbag69
(g85
g71
NtRp4163
(dp4164
g74
(dp4165
sg83
g4071
sg76
(lp4166
g69
(g90
g71
NtRp4167
(dp4168
g74
(dp4169
g94
g95
ssg83
g4163
sg76
(lp4170
S'X-Powered-By'
p4171
asbag69
(g90
g71
NtRp4172
(dp4173
g74
(dp4174
g101
g102
ssg83
g4163
sg76
(lp4175
S':'
asbag69
(g90
g71
NtRp4176
(dp4177
g74
(dp4178
sg83
g4163
sg76
(lp4179
g69
(g70
g71
NtRp4180
(dp4181
g74
(dp4182
g82
I4
ssg83
g4176
sg76
(lp4183
S'web2py'
p4184
asbasbasbasbasbasbasbag69
(g85
g71
NtRp4185
(dp4186
g74
(dp4187
sg83
g3660
sg76
(lp4188
g69
(g90
g71
NtRp4189
(dp4190
g74
(dp4191
g94
g95
ssg83
g4185
sg76
(lp4192
S'menu'
p4193
asbag69
(g90
g71
NtRp4194
(dp4195
g74
(dp4196
g101
g102
ssg83
g4185
sg76
(lp4197
S':'
asbag69
(g90
g71
NtRp4198
(dp4199
g74
(dp4200
sg83
g4185
sg76
(lp4201
g69
(g70
g71
NtRp4202
(dp4203
g74
(dp4204
g82
I5
ssg83
g4198
sg76
(lp4205
g69
(g78
g71
NtRp4206
(dp4207
g74
(dp4208
g82
I4
ssg83
Nsg76
(lp4209
g69
(g85
g71
NtRp4210
(dp4211
g74
(dp4212
sg83
g4206
sg76
(lp4213
g69
(g90
g71
NtRp4214
(dp4215
g74
(dp4216
sg83
g4210
sg76
(lp4217
g69
(g70
g71
NtRp4218
(dp4219
g74
(dp4220
g82
I4
ssg83
g4214
sg76
(lp4221
g69
(g78
g71
NtRp4222
(dp4223
g74
(dp4224
g82
I3
ssg83
Nsg76
(lp4225
g69
(g85
g71
NtRp4226
(dp4227
g74
(dp4228
sg83
g4222
sg76
(lp4229
g69
(g90
g71
NtRp4230
(dp4231
g74
(dp4232
sg83
g4226
sg76
(lp4233
g69
(g70
g71
NtRp4234
(dp4235
g74
(dp4236
g82
I3
ssg83
g4230
sg76
(lp4237
cgluon.languages
lazyT_unpickle
p4238
(S's\x04\x00\x00\x00Home'
tRp4239
asbasbasbag69
(g85
g71
NtRp4240
(dp4241
g74
(dp4242
sg83
g4222
sg76
(lp4243
g69
(g90
g71
NtRp4244
(dp4245
g74
(dp4246
sg83
g4240
sg76
(lp4247
g69
(g70
g71
NtRp4248
(dp4249
g74
(dp4250
g82
I3
ssg83
g4244
sg76
(lp4251
g112
asbasbasbag69
(g85
g71
NtRp4252
(dp4253
g74
(dp4254
sg83
g4222
sg76
(lp4255
g69
(g90
g71
NtRp4256
(dp4257
g74
(dp4258
sg83
g4252
sg76
(lp4259
g69
(g70
g71
NtRp4260
(dp4261
g74
(dp4262
g82
I3
ssg83
g4256
sg76
(lp4263
S'/FunkLoad/default/index'
p4264
asbasbasbag69
(g85
g71
NtRp4265
(dp4266
g74
(dp4267
sg83
g4222
sg76
(lp4268
g69
(g90
g71
NtRp4269
(dp4270
g74
(dp4271
sg83
g4265
sg76
(lp4272
g69
(g70
g71
NtRp4273
(dp4274
g74
(dp4275
g82
I3
ssg83
g4269
sg76
(lp4276
g69
(g78
g71
NtRp4277
(dp4278
g74
(dp4279
g82
I2
ssg83
Nsg76
(lp4280
sbasbasbasbasbasbasbasbag69
(g85
g71
NtRp4281
(dp4282
g74
(dp4283
sg83
g4206
sg76
(lp4284
g69
(g90
g71
NtRp4285
(dp4286
g74
(dp4287
sg83
g4281
sg76
(lp4288
g69
(g70
g71
NtRp4289
(dp4290
g74
(dp4291
g82
I4
ssg83
g4285
sg76
(lp4292
g69
(g78
g71
NtRp4293
(dp4294
g74
(dp4295
g82
I3
ssg83
Nsg76
(lp4296
g69
(g85
g71
NtRp4297
(dp4298
g74
(dp4299
sg83
g4293
sg76
(lp4300
g69
(g90
g71
NtRp4301
(dp4302
g74
(dp4303
sg83
g4297
sg76
(lp4304
g69
(g70
g71
NtRp4305
(dp4306
g74
(dp4307
g82
I3
ssg83
g4301
sg76
(lp4308
g69
(cgluon.html
SPAN
p4309
g71
NtRp4310
(dp4311
g74
(dp4312
g94
S'color:yellow'
p4313
ssg83
Nsg76
(lp4314
g4184
asbasbasbasbag69
(g85
g71
NtRp4315
(dp4316
g74
(dp4317
sg83
g4293
sg76
(lp4318
g69
(g90
g71
NtRp4319
(dp4320
g74
(dp4321
sg83
g4315
sg76
(lp4322
g69
(g70
g71
NtRp4323
(dp4324
g74
(dp4325
g82
I3
ssg83
g4319
sg76
(lp4326
g112
asbasbasbag69
(g85
g71
NtRp4327
(dp4328
g74
(dp4329
sg83
g4293
sg76
(lp4330
g69
(g90
g71
NtRp4331
(dp4332
g74
(dp4333
sg83
g4327
sg76
(lp4334
g69
(g70
g71
NtRp4335
(dp4336
g74
(dp4337
g82
I3
ssg83
g4331
sg76
(lp4338
S'http://web2py.com'
p4339
asbasbasbag69
(g85
g71
NtRp4340
(dp4341
g74
(dp4342
sg83
g4293
sg76
(lp4343
g69
(g90
g71
NtRp4344
(dp4345
g74
(dp4346
sg83
g4340
sg76
(lp4347
g69
(g70
g71
NtRp4348
(dp4349
g74
(dp4350
g82
I3
ssg83
g4344
sg76
(lp4351
g69
(g78
g71
NtRp4352
(dp4353
g74
(dp4354
g82
I2
ssg83
Nsg76
(lp4355
g69
(g85
g71
NtRp4356
(dp4357
g74
(dp4358
sg83
g4352
sg76
(lp4359
g69
(g90
g71
NtRp4360
(dp4361
g74
(dp4362
sg83
g4356
sg76
(lp4363
g69
(g70
g71
NtRp4364
(dp4365
g74
(dp4366
g82
I2
ssg83
g4360
sg76
(lp4367
g69
(g78
g71
NtRp4368
(dp4369
g74
(dp4370
g82
I1
ssg83
Nsg76
(lp4371
g69
(g85
g71
NtRp4372
(dp4373
g74
(dp4374
sg83
g4368
sg76
(lp4375
g69
(g90
g71
NtRp4376
(dp4377
g74
(dp4378
sg83
g4372
sg76
(lp4379
g69
(g70
g71
NtRp4380
(dp4381
g74
(dp4382
g82
I1
ssg83
g4376
sg76
(lp4383
g4238
(S's\x08\x00\x00\x00My Sites'
tRp4384
asbasbasbag69
(g85
g71
NtRp4385
(dp4386
g74
(dp4387
sg83
g4368
sg76
(lp4388
g69
(g90
g71
NtRp4389
(dp4390
g74
(dp4391
sg83
g4385
sg76
(lp4392
g69
(g70
g71
NtRp4393
(dp4394
g74
(dp4395
g82
I1
ssg83
g4389
sg76
(lp4396
I00
asbasbasbag69
(g85
g71
NtRp4397
(dp4398
g74
(dp4399
sg83
g4368
sg76
(lp4400
g69
(g90
g71
NtRp4401
(dp4402
g74
(dp4403
sg83
g4397
sg76
(lp4404
g69
(g70
g71
NtRp4405
(dp4406
g74
(dp4407
g82
I1
ssg83
g4401
sg76
(lp4408
S'/admin/default/site'
p4409
asbasbasbasbasbasbasbag69
(g85
g71
NtRp4410
(dp4411
g74
(dp4412
sg83
g4352
sg76
(lp4413
g69
(g90
g71
NtRp4414
(dp4415
g74
(dp4416
sg83
g4410
sg76
(lp4417
g69
(g70
g71
NtRp4418
(dp4419
g74
(dp4420
g82
I2
ssg83
g4414
sg76
(lp4421
g69
(g78
g71
NtRp4422
(dp4423
g74
(dp4424
g82
I1
ssg83
Nsg76
(lp4425
g69
(g85
g71
NtRp4426
(dp4427
g74
(dp4428
sg83
g4422
sg76
(lp4429
g69
(g90
g71
NtRp4430
(dp4431
g74
(dp4432
sg83
g4426
sg76
(lp4433
g69
(g70
g71
NtRp4434
(dp4435
g74
(dp4436
g82
I1
ssg83
g4430
sg76
(lp4437
g4238
(S's\x08\x00\x00\x00This App'
tRp4438
asbasbasbag69
(g85
g71
NtRp4439
(dp4440
g74
(dp4441
sg83
g4422
sg76
(lp4442
g69
(g90
g71
NtRp4443
(dp4444
g74
(dp4445
sg83
g4439
sg76
(lp4446
g69
(g70
g71
NtRp4447
(dp4448
g74
(dp4449
g82
I1
ssg83
g4443
sg76
(lp4450
I00
asbasbasbag69
(g85
g71
NtRp4451
(dp4452
g74
(dp4453
sg83
g4422
sg76
(lp4454
g69
(g90
g71
NtRp4455
(dp4456
g74
(dp4457
sg83
g4451
sg76
(lp4458
g69
(g70
g71
NtRp4459
(dp4460
g74
(dp4461
g82
I1
ssg83
g4455
sg76
(lp4462
S'/admin/default/design/FunkLoad'
p4463
asbasbasbag69
(g85
g71
NtRp4464
(dp4465
g74
(dp4466
sg83
g4422
sg76
(lp4467
g69
(g90
g71
NtRp4468
(dp4469
g74
(dp4470
sg83
g4464
sg76
(lp4471
g69
(g70
g71
NtRp4472
(dp4473
g74
(dp4474
g82
I1
ssg83
g4468
sg76
(lp4475
(lp4476
(g4238
(S's\n\x00\x00\x00Controller'
tRp4477
I00
S'/admin/default/edit/FunkLoad/controllers/default.py'
tp4478
a(g4238
(S's\x04\x00\x00\x00View'
tRp4479
I00
S'/admin/default/edit/FunkLoad/views/default/testDetails.html'
tp4480
a(g4238
(S's\x06\x00\x00\x00Layout'
tRp4481
I00
S'/admin/default/edit/FunkLoad/views/layout.html'
tp4482
a(g4238
(S's\n\x00\x00\x00Stylesheet'
tRp4483
I00
S'/admin/default/edit/FunkLoad/static/css/web2py.css'
tp4484
a(g4238
(S's\x08\x00\x00\x00DB Model'
tRp4485
I00
S'/admin/default/edit/FunkLoad/models/db.py'
tp4486
a(g4238
(S's\n\x00\x00\x00Menu Model'
tRp4487
I00
S'/admin/default/edit/FunkLoad/models/menu.py'
tp4488
a(g4238
(S's\x08\x00\x00\x00Database'
tRp4489
I00
S'/FunkLoad/appadmin/index'
tp4490
a(g4238
(S's\x06\x00\x00\x00Errors'
tRp4491
I00
S'/admin/default/errors/FunkLoad'
tp4492
a(g4238
(S's\x05\x00\x00\x00About'
tRp4493
I00
S'/admin/default/about/FunkLoad'
tp4494
aasbasbasbasbasbasbasbag69
(g85
g71
NtRp4495
(dp4496
g74
(dp4497
sg83
g4352
sg76
(lp4498
g69
(g90
g71
NtRp4499
(dp4500
g74
(dp4501
sg83
g4495
sg76
(lp4502
g69
(g70
g71
NtRp4503
(dp4504
g74
(dp4505
g82
I2
ssg83
g4499
sg76
(lp4506
g69
(g78
g71
NtRp4507
(dp4508
g74
(dp4509
g82
I1
ssg83
Nsg76
(lp4510
g69
(g85
g71
NtRp4511
(dp4512
g74
(dp4513
sg83
g4507
sg76
(lp4514
g69
(g90
g71
NtRp4515
(dp4516
g74
(dp4517
sg83
g4511
sg76
(lp4518
g69
(g70
g71
NtRp4519
(dp4520
g74
(dp4521
g82
I1
ssg83
g4515
sg76
(lp4522
S'web2py.com'
p4523
asbasbasbag69
(g85
g71
NtRp4524
(dp4525
g74
(dp4526
sg83
g4507
sg76
(lp4527
g69
(g90
g71
NtRp4528
(dp4529
g74
(dp4530
sg83
g4524
sg76
(lp4531
g69
(g70
g71
NtRp4532
(dp4533
g74
(dp4534
g82
I1
ssg83
g4528
sg76
(lp4535
I00
asbasbasbag69
(g85
g71
NtRp4536
(dp4537
g74
(dp4538
sg83
g4507
sg76
(lp4539
g69
(g90
g71
NtRp4540
(dp4541
g74
(dp4542
sg83
g4536
sg76
(lp4543
g69
(g70
g71
NtRp4544
(dp4545
g74
(dp4546
g82
I1
ssg83
g4540
sg76
(lp4547
S'http://www.web2py.com'
p4548
asbasbasbag69
(g85
g71
NtRp4549
(dp4550
g74
(dp4551
sg83
g4507
sg76
(lp4552
g69
(g90
g71
NtRp4553
(dp4554
g74
(dp4555
sg83
g4549
sg76
(lp4556
g69
(g70
g71
NtRp4557
(dp4558
g74
(dp4559
g82
I1
ssg83
g4553
sg76
(lp4560
(lp4561
(g4238
(S's\x08\x00\x00\x00Download'
tRp4562
I00
S'http://www.web2py.com/examples/default/download'
p4563
tp4564
a(g4238
(S's\x07\x00\x00\x00Support'
tRp4565
I00
S'http://www.web2py.com/examples/default/support'
p4566
tp4567
a(g4238
(S's\x04\x00\x00\x00Demo'
tRp4568
I00
S'http://web2py.com/demo_admin'
p4569
tp4570
a(g4238
(S's\x0e\x00\x00\x00Quick Examples'
tRp4571
I00
S'http://web2py.com/examples/default/examples'
p4572
tp4573
a(g4238
(S's\x03\x00\x00\x00FAQ'
tRp4574
I00
S'http://web2py.com/AlterEgo'
p4575
tp4576
a(g4238
(S's\x06\x00\x00\x00Videos'
tRp4577
I00
S'http://www.web2py.com/examples/default/videos/'
p4578
tp4579
a(g4238
(S's\x11\x00\x00\x00Free Applications'
tRp4580
I00
S'http://web2py.com/appliances'
p4581
tp4582
a(g4238
(S's\x07\x00\x00\x00Plugins'
tRp4583
I00
S'http://web2py.com/plugins'
p4584
tp4585
a(g4238
(S's\x07\x00\x00\x00Layouts'
tRp4586
I00
S'http://web2py.com/layouts'
p4587
tp4588
a(g4238
(S's\x07\x00\x00\x00Recipes'
tRp4589
I00
S'http://web2pyslices.com/'
p4590
tp4591
a(g4238
(S's\x08\x00\x00\x00Semantic'
tRp4592
I00
S'http://web2py.com/semantic'
p4593
tp4594
aasbasbasbasbasbasbasbag69
(g85
g71
NtRp4595
(dp4596
g74
(dp4597
sg83
g4352
sg76
(lp4598
g69
(g90
g71
NtRp4599
(dp4600
g74
(dp4601
sg83
g4595
sg76
(lp4602
g69
(g70
g71
NtRp4603
(dp4604
g74
(dp4605
g82
I2
ssg83
g4599
sg76
(lp4606
g69
(g78
g71
NtRp4607
(dp4608
g74
(dp4609
g82
I1
ssg83
Nsg76
(lp4610
g69
(g85
g71
NtRp4611
(dp4612
g74
(dp4613
sg83
g4607
sg76
(lp4614
g69
(g90
g71
NtRp4615
(dp4616
g74
(dp4617
sg83
g4611
sg76
(lp4618
g69
(g70
g71
NtRp4619
(dp4620
g74
(dp4621
g82
I1
ssg83
g4615
sg76
(lp4622
g4238
(S's\r\x00\x00\x00Documentation'
tRp4623
asbasbasbag69
(g85
g71
NtRp4624
(dp4625
g74
(dp4626
sg83
g4607
sg76
(lp4627
g69
(g90
g71
NtRp4628
(dp4629
g74
(dp4630
sg83
g4624
sg76
(lp4631
g69
(g70
g71
NtRp4632
(dp4633
g74
(dp4634
g82
I1
ssg83
g4628
sg76
(lp4635
I00
asbasbasbag69
(g85
g71
NtRp4636
(dp4637
g74
(dp4638
sg83
g4607
sg76
(lp4639
g69
(g90
g71
NtRp4640
(dp4641
g74
(dp4642
sg83
g4636
sg76
(lp4643
g69
(g70
g71
NtRp4644
(dp4645
g74
(dp4646
g82
I1
ssg83
g4640
sg76
(lp4647
S'http://www.web2py.com/book'
p4648
asbasbasbag69
(g85
g71
NtRp4649
(dp4650
g74
(dp4651
sg83
g4607
sg76
(lp4652
g69
(g90
g71
NtRp4653
(dp4654
g74
(dp4655
sg83
g4649
sg76
(lp4656
g69
(g70
g71
NtRp4657
(dp4658
g74
(dp4659
g82
I1
ssg83
g4653
sg76
(lp4660
(lp4661
(g4238
(S's\x07\x00\x00\x00Preface'
tRp4662
I00
S'http://www.web2py.com/book/default/chapter/00'
p4663
tp4664
a(g4238
(S's\x0c\x00\x00\x00Introduction'
tRp4665
I00
S'http://www.web2py.com/book/default/chapter/01'
p4666
tp4667
a(g4238
(S's\x06\x00\x00\x00Python'
tRp4668
I00
S'http://www.web2py.com/book/default/chapter/02'
p4669
tp4670
a(g4238
(S's\x08\x00\x00\x00Overview'
tRp4671
I00
S'http://www.web2py.com/book/default/chapter/03'
p4672
tp4673
a(g4238
(S's\x08\x00\x00\x00The Core'
tRp4674
I00
S'http://www.web2py.com/book/default/chapter/04'
p4675
tp4676
a(g4238
(S's\t\x00\x00\x00The Views'
tRp4677
I00
S'http://www.web2py.com/book/default/chapter/05'
p4678
tp4679
a(g4238
(S's\x08\x00\x00\x00Database'
tRp4680
I00
S'http://www.web2py.com/book/default/chapter/06'
p4681
tp4682
a(g4238
(S's\x14\x00\x00\x00Forms and Validators'
tRp4683
I00
S'http://www.web2py.com/book/default/chapter/07'
p4684
tp4685
a(g4238
(S's\r\x00\x00\x00Email and SMS'
tRp4686
I00
S'http://www.web2py.com/book/default/chapter/08'
p4687
tp4688
a(g4238
(S's\x0e\x00\x00\x00Access Control'
tRp4689
I00
S'http://www.web2py.com/book/default/chapter/09'
p4690
tp4691
a(g4238
(S's\x08\x00\x00\x00Services'
tRp4692
I00
S'http://www.web2py.com/book/default/chapter/10'
p4693
tp4694
a(g4238
(S's\x0c\x00\x00\x00Ajax Recipes'
tRp4695
I00
S'http://www.web2py.com/book/default/chapter/11'
p4696
tp4697
a(g4238
(S's\x16\x00\x00\x00Components and Plugins'
tRp4698
I00
S'http://www.web2py.com/book/default/chapter/12'
p4699
tp4700
a(g4238
(S's\x12\x00\x00\x00Deployment Recipes'
tRp4701
I00
S'http://www.web2py.com/book/default/chapter/13'
p4702
tp4703
a(g4238
(S's\r\x00\x00\x00Other Recipes'
tRp4704
I00
S'http://www.web2py.com/book/default/chapter/14'
p4705
tp4706
a(g4238
(S's\r\x00\x00\x00Buy this book'
tRp4707
I00
S'http://stores.lulu.com/web2py'
p4708
tp4709
aasbasbasbasbasbasbasbag69
(g85
g71
NtRp4710
(dp4711
g74
(dp4712
sg83
g4352
sg76
(lp4713
g69
(g90
g71
NtRp4714
(dp4715
g74
(dp4716
sg83
g4710
sg76
(lp4717
g69
(g70
g71
NtRp4718
(dp4719
g74
(dp4720
g82
I2
ssg83
g4714
sg76
(lp4721
g69
(g78
g71
NtRp4722
(dp4723
g74
(dp4724
g82
I1
ssg83
Nsg76
(lp4725
g69
(g85
g71
NtRp4726
(dp4727
g74
(dp4728
sg83
g4722
sg76
(lp4729
g69
(g90
g71
NtRp4730
(dp4731
g74
(dp4732
sg83
g4726
sg76
(lp4733
g69
(g70
g71
NtRp4734
(dp4735
g74
(dp4736
g82
I1
ssg83
g4730
sg76
(lp4737
g4238
(S's\t\x00\x00\x00Community'
tRp4738
asbasbasbag69
(g85
g71
NtRp4739
(dp4740
g74
(dp4741
sg83
g4722
sg76
(lp4742
g69
(g90
g71
NtRp4743
(dp4744
g74
(dp4745
sg83
g4739
sg76
(lp4746
g69
(g70
g71
NtRp4747
(dp4748
g74
(dp4749
g82
I1
ssg83
g4743
sg76
(lp4750
I00
asbasbasbag69
(g85
g71
NtRp4751
(dp4752
g74
(dp4753
sg83
g4722
sg76
(lp4754
g69
(g90
g71
NtRp4755
(dp4756
g74
(dp4757
sg83
g4751
sg76
(lp4758
g69
(g70
g71
NtRp4759
(dp4760
g74
(dp4761
g82
I1
ssg83
g4755
sg76
(lp4762
Nasbasbasbag69
(g85
g71
NtRp4763
(dp4764
g74
(dp4765
sg83
g4722
sg76
(lp4766
g69
(g90
g71
NtRp4767
(dp4768
g74
(dp4769
sg83
g4763
sg76
(lp4770
g69
(g70
g71
NtRp4771
(dp4772
g74
(dp4773
g82
I1
ssg83
g4767
sg76
(lp4774
(lp4775
(g4238
(S's\x06\x00\x00\x00Groups'
tRp4776
I00
S'http://www.web2py.com/examples/default/usergroups'
p4777
tp4778
a(g4238
(S's\x07\x00\x00\x00Twitter'
tRp4779
I00
S'http://twitter.com/web2py'
p4780
tp4781
a(g4238
(S's\t\x00\x00\x00Live Chat'
tRp4782
I00
S'http://webchat.freenode.net/?channels=web2py'
p4783
tp4784
aasbasbasbasbasbasbasbag69
(g85
g71
NtRp4785
(dp4786
g74
(dp4787
sg83
g4352
sg76
(lp4788
g69
(g90
g71
NtRp4789
(dp4790
g74
(dp4791
sg83
g4785
sg76
(lp4792
g69
(g70
g71
NtRp4793
(dp4794
g74
(dp4795
g82
I2
ssg83
g4789
sg76
(lp4796
g69
(g78
g71
NtRp4797
(dp4798
g74
(dp4799
g82
I1
ssg83
Nsg76
(lp4800
g69
(g85
g71
NtRp4801
(dp4802
g74
(dp4803
sg83
g4797
sg76
(lp4804
g69
(g90
g71
NtRp4805
(dp4806
g74
(dp4807
sg83
g4801
sg76
(lp4808
g69
(g70
g71
NtRp4809
(dp4810
g74
(dp4811
g82
I1
ssg83
g4805
sg76
(lp4812
g4238
(S's\x07\x00\x00\x00Plugins'
tRp4813
asbasbasbag69
(g85
g71
NtRp4814
(dp4815
g74
(dp4816
sg83
g4797
sg76
(lp4817
g69
(g90
g71
NtRp4818
(dp4819
g74
(dp4820
sg83
g4814
sg76
(lp4821
g69
(g70
g71
NtRp4822
(dp4823
g74
(dp4824
g82
I1
ssg83
g4818
sg76
(lp4825
I00
asbasbasbag69
(g85
g71
NtRp4826
(dp4827
g74
(dp4828
sg83
g4797
sg76
(lp4829
g69
(g90
g71
NtRp4830
(dp4831
g74
(dp4832
sg83
g4826
sg76
(lp4833
g69
(g70
g71
NtRp4834
(dp4835
g74
(dp4836
g82
I1
ssg83
g4830
sg76
(lp4837
Nasbasbasbag69
(g85
g71
NtRp4838
(dp4839
g74
(dp4840
sg83
g4797
sg76
(lp4841
g69
(g90
g71
NtRp4842
(dp4843
g74
(dp4844
sg83
g4838
sg76
(lp4845
g69
(g70
g71
NtRp4846
(dp4847
g74
(dp4848
g82
I1
ssg83
g4842
sg76
(lp4849
(lp4850
(S'plugin_wiki'
p4851
I00
S'http://web2py.com/examples/default/download'
p4852
tp4853
a(g4238
(S's\r\x00\x00\x00Other Plugins'
tRp4854
I00
g4584
tp4855
a(g4238
(S's\x0e\x00\x00\x00Layout Plugins'
tRp4856
I00
g4587
tp4857
aasbasbasbasbasbasbasbasbasbasbasbasbasbasbasbasbasbasbasbag69
(g85
g71
NtRp4858
(dp4859
g74
(dp4860
sg83
g3660
sg76
(lp4861
g69
(g90
g71
NtRp4862
(dp4863
g74
(dp4864
g94
g95
ssg83
g4858
sg76
(lp4865
S'meta'
p4866
asbag69
(g90
g71
NtRp4867
(dp4868
g74
(dp4869
g101
g102
ssg83
g4858
sg76
(lp4870
S':'
asbag69
(g90
g71
NtRp4871
(dp4872
g74
(dp4873
sg83
g4858
sg76
(lp4874
g69
(g70
g71
NtRp4875
(dp4876
g74
(dp4877
g82
I5
ssg83
g4871
sg76
(lp4878
g69
(g78
g71
NtRp4879
(dp4880
g74
(dp4881
g82
I4
ssg83
Nsg76
(lp4882
g69
(g85
g71
NtRp4883
(dp4884
g74
(dp4885
sg83
g4879
sg76
(lp4886
g69
(g90
g71
NtRp4887
(dp4888
g74
(dp4889
g94
g95
ssg83
g4883
sg76
(lp4890
S'author'
p4891
asbag69
(g90
g71
NtRp4892
(dp4893
g74
(dp4894
g101
g102
ssg83
g4883
sg76
(lp4895
S':'
asbag69
(g90
g71
NtRp4896
(dp4897
g74
(dp4898
sg83
g4883
sg76
(lp4899
g69
(g70
g71
NtRp4900
(dp4901
g74
(dp4902
g82
I4
ssg83
g4896
sg76
(lp4903
S'Your Name <you@example.com>'
p4904
asbasbasbag69
(g85
g71
NtRp4905
(dp4906
g74
(dp4907
sg83
g4879
sg76
(lp4908
g69
(g90
g71
NtRp4909
(dp4910
g74
(dp4911
g94
g95
ssg83
g4905
sg76
(lp4912
S'description'
p4913
asbag69
(g90
g71
NtRp4914
(dp4915
g74
(dp4916
g101
g102
ssg83
g4905
sg76
(lp4917
S':'
asbag69
(g90
g71
NtRp4918
(dp4919
g74
(dp4920
sg83
g4905
sg76
(lp4921
g69
(g70
g71
NtRp4922
(dp4923
g74
(dp4924
g82
I4
ssg83
g4918
sg76
(lp4925
S'a cool new app'
p4926
asbasbasbag69
(g85
g71
NtRp4927
(dp4928
g74
(dp4929
sg83
g4879
sg76
(lp4930
g69
(g90
g71
NtRp4931
(dp4932
g74
(dp4933
g94
g95
ssg83
g4927
sg76
(lp4934
S'generator'
p4935
asbag69
(g90
g71
NtRp4936
(dp4937
g74
(dp4938
g101
g102
ssg83
g4927
sg76
(lp4939
S':'
asbag69
(g90
g71
NtRp4940
(dp4941
g74
(dp4942
sg83
g4927
sg76
(lp4943
g69
(g70
g71
NtRp4944
(dp4945
g74
(dp4946
g82
I4
ssg83
g4940
sg76
(lp4947
S'Web2py Web Framework'
p4948
asbasbasbag69
(g85
g71
NtRp4949
(dp4950
g74
(dp4951
sg83
g4879
sg76
(lp4952
g69
(g90
g71
NtRp4953
(dp4954
g74
(dp4955
g94
g95
ssg83
g4949
sg76
(lp4956
S'keywords'
p4957
asbag69
(g90
g71
NtRp4958
(dp4959
g74
(dp4960
g101
g102
ssg83
g4949
sg76
(lp4961
S':'
asbag69
(g90
g71
NtRp4962
(dp4963
g74
(dp4964
sg83
g4949
sg76
(lp4965
g69
(g70
g71
NtRp4966
(dp4967
g74
(dp4968
g82
I4
ssg83
g4962
sg76
(lp4969
S'web2py, python, framework'
p4970
asbasbasbasbasbasbasbag69
(g85
g71
NtRp4971
(dp4972
g74
(dp4973
sg83
g3660
sg76
(lp4974
g69
(g90
g71
NtRp4975
(dp4976
g74
(dp4977
g94
g95
ssg83
g4971
sg76
(lp4978
S'models_to_run'
p4979
asbag69
(g90
g71
NtRp4980
(dp4981
g74
(dp4982
g101
g102
ssg83
g4971
sg76
(lp4983
S':'
asbag69
(g90
g71
NtRp4984
(dp4985
g74
(dp4986
sg83
g4971
sg76
(lp4987
g69
(g70
g71
NtRp4988
(dp4989
g74
(dp4990
g82
I5
ssg83
g4984
sg76
(lp4991
g69
(g78
g71
NtRp4992
(dp4993
g74
(dp4994
g82
I4
ssg83
Nsg76
(lp4995
g69
(g85
g71
NtRp4996
(dp4997
g74
(dp4998
sg83
g4992
sg76
(lp4999
g69
(g90
g71
NtRp5000
(dp5001
g74
(dp5002
sg83
g4996
sg76
(lp5003
g69
(g70
g71
NtRp5004
(dp5005
g74
(dp5006
g82
I4
ssg83
g5000
sg76
(lp5007
S'^\\w+\\.py$'
p5008
asbasbasbag69
(g85
g71
NtRp5009
(dp5010
g74
(dp5011
sg83
g4992
sg76
(lp5012
g69
(g90
g71
NtRp5013
(dp5014
g74
(dp5015
sg83
g5009
sg76
(lp5016
g69
(g70
g71
NtRp5017
(dp5018
g74
(dp5019
g82
I4
ssg83
g5013
sg76
(lp5020
S'^default/\\w+\\.py$'
p5021
asbasbasbag69
(g85
g71
NtRp5022
(dp5023
g74
(dp5024
sg83
g4992
sg76
(lp5025
g69
(g90
g71
NtRp5026
(dp5027
g74
(dp5028
sg83
g5022
sg76
(lp5029
g69
(g70
g71
NtRp5030
(dp5031
g74
(dp5032
g82
I4
ssg83
g5026
sg76
(lp5033
S'^default/testDetails/\\w+\\.py$'
p5034
asbasbasbasbasbasbasbag69
(g85
g71
NtRp5035
(dp5036
g74
(dp5037
sg83
g3660
sg76
(lp5038
g69
(g90
g71
NtRp5039
(dp5040
g74
(dp5041
g94
g95
ssg83
g5035
sg76
(lp5042
S'postprocessing'
p5043
asbag69
(g90
g71
NtRp5044
(dp5045
g74
(dp5046
g101
g102
ssg83
g5035
sg76
(lp5047
S':'
asbag69
(g90
g71
NtRp5048
(dp5049
g74
(dp5050
sg83
g5035
sg76
(lp5051
g69
(g70
g71
NtRp5052
(dp5053
g74
(dp5054
g82
I5
ssg83
g5048
sg76
(lp5055
g69
(g78
g71
NtRp5056
(dp5057
g74
(dp5058
g82
I4
ssg83
Nsg76
(lp5059
sbasbasbasbag69
(g85
g71
NtRp5060
(dp5061
g74
(dp5062
sg83
g3660
sg76
(lp5063
g69
(g90
g71
NtRp5064
(dp5065
g74
(dp5066
g94
g95
ssg83
g5060
sg76
(lp5067
S'session_file'
p5068
asbag69
(g90
g71
NtRp5069
(dp5070
g74
(dp5071
g101
g102
ssg83
g5060
sg76
(lp5072
S':'
asbag69
(g90
g71
NtRp5073
(dp5074
g74
(dp5075
sg83
g5060
sg76
(lp5076
g69
(g70
g71
NtRp5077
(dp5078
g74
(dp5079
g82
I5
ssg83
g5073
sg76
(lp5080
S"<open file '/home/mayank/Desktop/web2pyAdmin/web2py/web2py/applications/FunkLoad/sessions/10.1.33.107-36ba3c88-7bcb-4a0e-bb0a-8936efb689ab', mode 'rb+' at 0x7f7a582ded20>"
p5081
asbasbasbag69
(g85
g71
NtRp5082
(dp5083
g74
(dp5084
sg83
g3660
sg76
(lp5085
g69
(g90
g71
NtRp5086
(dp5087
g74
(dp5088
g94
g95
ssg83
g5082
sg76
(lp5089
S'session_filename'
p5090
asbag69
(g90
g71
NtRp5091
(dp5092
g74
(dp5093
g101
g102
ssg83
g5082
sg76
(lp5094
S':'
asbag69
(g90
g71
NtRp5095
(dp5096
g74
(dp5097
sg83
g5082
sg76
(lp5098
g69
(g70
g71
NtRp5099
(dp5100
g74
(dp5101
g82
I5
ssg83
g5095
sg76
(lp5102
S'/home/mayank/Desktop/web2pyAdmin/web2py/web2py/applications/FunkLoad/sessions/10.1.33.107-36ba3c88-7bcb-4a0e-bb0a-8936efb689ab'
p5103
asbasbasbag69
(g85
g71
NtRp5104
(dp5105
g74
(dp5106
sg83
g3660
sg76
(lp5107
g69
(g90
g71
NtRp5108
(dp5109
g74
(dp5110
g94
g95
ssg83
g5104
sg76
(lp5111
S'session_id'
p5112
asbag69
(g90
g71
NtRp5113
(dp5114
g74
(dp5115
g101
g102
ssg83
g5104
sg76
(lp5116
S':'
asbag69
(g90
g71
NtRp5117
(dp5118
g74
(dp5119
sg83
g5104
sg76
(lp5120
g69
(g70
g71
NtRp5121
(dp5122
g74
(dp5123
g82
I5
ssg83
g5117
sg76
(lp5124
g487
asbasbasbag69
(g85
g71
NtRp5125
(dp5126
g74
(dp5127
sg83
g3660
sg76
(lp5128
g69
(g90
g71
NtRp5129
(dp5130
g74
(dp5131
g94
g95
ssg83
g5125
sg76
(lp5132
S'session_id_name'
p5133
asbag69
(g90
g71
NtRp5134
(dp5135
g74
(dp5136
g101
g102
ssg83
g5125
sg76
(lp5137
S':'
asbag69
(g90
g71
NtRp5138
(dp5139
g74
(dp5140
sg83
g5125
sg76
(lp5141
g69
(g70
g71
NtRp5142
(dp5143
g74
(dp5144
g82
I5
ssg83
g5138
sg76
(lp5145
g3717
asbasbasbag69
(g85
g71
NtRp5146
(dp5147
g74
(dp5148
sg83
g3660
sg76
(lp5149
g69
(g90
g71
NtRp5150
(dp5151
g74
(dp5152
g94
g95
ssg83
g5146
sg76
(lp5153
S'session_locked'
p5154
asbag69
(g90
g71
NtRp5155
(dp5156
g74
(dp5157
g101
g102
ssg83
g5146
sg76
(lp5158
S':'
asbag69
(g90
g71
NtRp5159
(dp5160
g74
(dp5161
sg83
g5146
sg76
(lp5162
g69
(g70
g71
NtRp5163
(dp5164
g74
(dp5165
g82
I5
ssg83
g5159
sg76
(lp5166
g1757
asbasbasbag69
(g85
g71
NtRp5167
(dp5168
g74
(dp5169
sg83
g3660
sg76
(lp5170
g69
(g90
g71
NtRp5171
(dp5172
g74
(dp5173
g94
g95
ssg83
g5167
sg76
(lp5174
S'session_new'
p5175
asbag69
(g90
g71
NtRp5176
(dp5177
g74
(dp5178
g101
g102
ssg83
g5167
sg76
(lp5179
S':'
asbag69
(g90
g71
NtRp5180
(dp5181
g74
(dp5182
sg83
g5167
sg76
(lp5183
g69
(g70
g71
NtRp5184
(dp5185
g74
(dp5186
g82
I5
ssg83
g5180
sg76
(lp5187
g112
asbasbasbag69
(g85
g71
NtRp5188
(dp5189
g74
(dp5190
sg83
g3660
sg76
(lp5191
g69
(g90
g71
NtRp5192
(dp5193
g74
(dp5194
g94
g95
ssg83
g5188
sg76
(lp5195
S'status'
p5196
asbag69
(g90
g71
NtRp5197
(dp5198
g74
(dp5199
g101
g102
ssg83
g5188
sg76
(lp5200
S':'
asbag69
(g90
g71
NtRp5201
(dp5202
g74
(dp5203
sg83
g5188
sg76
(lp5204
g69
(g70
g71
NtRp5205
(dp5206
g74
(dp5207
g82
I5
ssg83
g5201
sg76
(lp5208
S'200'
p5209
asbasbasbag69
(g85
g71
NtRp5210
(dp5211
g74
(dp5212
sg83
g3660
sg76
(lp5213
g69
(g90
g71
NtRp5214
(dp5215
g74
(dp5216
g94
g95
ssg83
g5210
sg76
(lp5217
S'subtitle'
p5218
asbag69
(g90
g71
NtRp5219
(dp5220
g74
(dp5221
g101
g102
ssg83
g5210
sg76
(lp5222
S':'
asbag69
(g90
g71
NtRp5223
(dp5224
g74
(dp5225
sg83
g5210
sg76
(lp5226
g69
(g70
g71
NtRp5227
(dp5228
g74
(dp5229
g82
I5
ssg83
g5223
sg76
(lp5230
g4238
(S's\r\x00\x00\x00customize me!'
tRp5231
asbasbasbag69
(g85
g71
NtRp5232
(dp5233
g74
(dp5234
sg83
g3660
sg76
(lp5235
g69
(g90
g71
NtRp5236
(dp5237
g74
(dp5238
g94
g95
ssg83
g5232
sg76
(lp5239
S'title'
p5240
asbag69
(g90
g71
NtRp5241
(dp5242
g74
(dp5243
g101
g102
ssg83
g5232
sg76
(lp5244
S':'
asbag69
(g90
g71
NtRp5245
(dp5246
g74
(dp5247
sg83
g5232
sg76
(lp5248
g69
(g70
g71
NtRp5249
(dp5250
g74
(dp5251
g82
I5
ssg83
g5245
sg76
(lp5252
S'Funkload'
p5253
asbasbasbag69
(g85
g71
NtRp5254
(dp5255
g74
(dp5256
sg83
g3660
sg76
(lp5257
g69
(g90
g71
NtRp5258
(dp5259
g74
(dp5260
g94
g95
ssg83
g5254
sg76
(lp5261
S'view'
p5262
asbag69
(g90
g71
NtRp5263
(dp5264
g74
(dp5265
g101
g102
ssg83
g5254
sg76
(lp5266
S':'
asbag69
(g90
g71
NtRp5267
(dp5268
g74
(dp5269
sg83
g5254
sg76
(lp5270
g69
(g70
g71
NtRp5271
(dp5272
g74
(dp5273
g82
I5
ssg83
g5267
sg76
(lp5274
S'default/testDetails.html'
p5275
asbasbasbasbasbsS'locals'
p5276
(dp5277
g4
S"'/home/mayank/Desktop/web2pyAdmin/web2py/web2py/applications/FunkLoad/views/default/testDetails.html'"
p5278
sg6
S'r"response.write(\'<!DOCTYPE html>\\r\\n<!-- pauliris...ript>  \\r\\n</body>\\r\\n</html>\\r\\n\', escape=False)"'
p5279
sssS'traceback'
p5280
S'Traceback (most recent call last):\n  File "/home/mayank/Desktop/web2pyAdmin/web2py/web2py/gluon/restricted.py", line 208, in restricted\n    ccode = compile2(code,layer)\n  File "/home/mayank/Desktop/web2pyAdmin/web2py/web2py/gluon/restricted.py", line 193, in compile2\n    return compile(code.rstrip().replace(\'\\r\\n\',\'\\n\')+\'\\n\', layer, \'exec\')\n  File "/home/mayank/Desktop/web2pyAdmin/web2py/web2py/applications/FunkLoad/views/default/testDetails.html", line 70\n    if url==\'index\'\n                  ^\nSyntaxError: invalid syntax\n'
p5281
s.