(dp1
S'Url'
p2
(dp3
S'type'
p4
S'string'
p5
sS'sortable'
p6
I3
sS'sql'
p7
S'VARCHAR(255)'
p8
ssS'Status'
p9
(dp10
g4
g5
sg6
I4
sg7
S'VARCHAR(255)'
p11
ssS'id'
p12
(dp13
g4
g12
sg6
I1
sg7
S'INT AUTO_INCREMENT NOT NULL'
p14
ssS'TestId'
p15
(dp16
g4
S'reference TestDetails'
p17
sg6
I2
sg7
S'INT, INDEX TestId__idx (TestId), FOREIGN KEY (TestId) REFERENCES TestDetails (id) ON DELETE CASCADE'
p18
ss.