(dp1
S'output'
p2
S"<type 'exceptions.SyntaxError'> invalid syntax (db.py, line 101)"
p3
sS'layer'
p4
S'/home/mayank/Desktop/web2pyAdmin/web2py/web2py/applications/FunkLoad/models/db.py'
p5
sS'code'
p6
S"# -*- coding: utf-8 -*-\n\n#########################################################################\n## This scaffolding model makes your app work on Google App Engine too\n## File is released under public domain and you can use without limitations\n#########################################################################\n\n## if SSL/HTTPS is properly configured and you want all HTTP requests to\n## be redirected to HTTPS, uncomment the line below:\n# request.requires_https()\n\nif not request.env.web2py_runtime_gae:\n    ## if NOT running on Google App Engine use SQLite or other DB\n    db = DAL('mysql://root:root@localhost/funkLoad')\nelse:\n    ## connect to Google BigTable (optional 'google:datastore://namespace')\n    db = DAL('google:datastore')\n    ## store sessions and tickets there\n    session.connect(request, response, db = db)\n    ## or store session in Memcache, Redis, etc.\n    ## from gluon.contrib.memdb import MEMDB\n    ## from google.appengine.api.memcache import Client\n    ## session.connect(request, response, db = MEMDB(Client()))\n\n## by default give a view/generic.extension to all actions from localhost\n## none otherwise. a pattern can be 'controller/function.extension'\nresponse.generic_patterns = ['*'] if request.is_local else []\n## (optional) optimize handling of static files\n# response.optimize_css = 'concat,minify,inline'\n# response.optimize_js = 'concat,minify,inline'\n\n#########################################################################\n## Here is sample code if you need for\n## - email capabilities\n## - authentication (registration, login, logout, ... )\n## - authorization (role based authorization)\n## - services (xml, csv, json, xmlrpc, jsonrpc, amf, rss)\n## - old style crud actions\n## (more options discussed in gluon/tools.py)\n#########################################################################\n\nfrom gluon.tools import Auth, Crud, Service, PluginManager, prettydate\nauth = Auth(db)\ncrud, service, plugins = Crud(db), Service(), PluginManager()\n\n## create all tables needed by auth if not custom tables\nauth.define_tables(username=False, signature=False)\n\n## configure email\nmail=auth.settings.mailer\nmail.settings.server = 'smtp.gmail.com:587'\nmail.settings.sender = '93mayankgupta@gmail.com'\nmail.settings.login = '93mayankgupta:mayank123'\n\n## configure auth policy\nauth.settings.registration_requires_verification = True\nauth.messages.verify_email = 'Click on the link http://10.1.33.107:8000' + URL(r=request,c='default',f='user',args=['verify_email'])+'/%(key)s to verify your email'\nauth.settings.registration_requires_approval = False\nauth.settings.reset_password_requires_verification = True\nauth.messages.reset_password = 'Click on the link http://10.1.33.107:8000' + URL(r=request,c='default',f='user',args=['reset_password']) +     '/%(key)s to change password'\n\n## if you need to use OpenID, Facebook, MySpace, Twitter, Linkedin, etc.\n## register with janrain.com, write your domain:api_key in private/janrain.key\nfrom gluon.contrib.login_methods.rpx_account import use_janrain\nuse_janrain(auth,filename='private/janrain.key')\n\n#########################################################################\n## Define your tables below (or better in another model file) for example\n##\n## >>> db.define_table('mytable',Field('myfield','string'))\n##\n## Fields can be 'string','text','password','integer','double','boolean'\n##       'date','time','datetime','blob','upload', 'reference TABLENAME'\n## There is an implicit 'id integer autoincrement' field\n## Consult manual for more options, validators, etc.\n##\n## More API examples for controllers:\n##\n## >>> db.mytable.insert(myfield='value')\n## >>> rows=db(db.mytable.myfield=='value').select(db.mytable.ALL)\n## >>> for row in rows: print row.id, row.myfield\n#########################################################################\n\n\ndb.define_table(\n\t'TestDetails',\n\tField('TestName','string',required=True),\n\tField('UserEmail','string',required=True),\n\tField('Status','string',default='0'),\n\tField('Url','string',required=True),\n\tField('CycleDuration','string',required=True),\n\tField('CycleUser','string',required=True),\n\tField('CycleSleepTime','string',default='1'),\n\tField('Sanity','string',default='1'),\n\tField('Functional','string',default='1'),\n\tField('path','string',required=True)\n\t)\n\ndb.define_table(\n\t'FunctionalTesting'\n\tField('TestId',db.TestDetails,required=True),\n\tField('Url','string',required=True),\n\tField('Status','string',required=True)\n\t)\n\n## after defining tables, uncomment below to enable auditing\n# auth.enable_record_versioning(db)\n"
p7
sS'snapshot'
p8
(dp9
S'exception'
p10
(dp11
S'__getslice__'
p12
S"<method-wrapper '__getslice__' of exceptions.SyntaxError object>"
p13
sS'text'
p14
S'"\\tField(\'TestId\',db.TestDetails,required=True),\\n"'
p15
sS'__str__'
p16
S"<method-wrapper '__str__' of exceptions.SyntaxError object>"
p17
sS'__reduce__'
p18
S'<built-in method __reduce__ of exceptions.SyntaxError object>'
p19
sS'__dict__'
p20
S'{}'
p21
sS'__sizeof__'
p22
S'<built-in method __sizeof__ of exceptions.SyntaxError object>'
p23
sS'__init__'
p24
S"<method-wrapper '__init__' of exceptions.SyntaxError object>"
p25
sS'__setattr__'
p26
S"<method-wrapper '__setattr__' of exceptions.SyntaxError object>"
p27
sS'__reduce_ex__'
p28
S'<built-in method __reduce_ex__ of exceptions.SyntaxError object>'
p29
sS'__new__'
p30
S'<built-in method __new__ of type object>'
p31
sS'__format__'
p32
S'<built-in method __format__ of exceptions.SyntaxError object>'
p33
sS'__class__'
p34
S"<type 'exceptions.SyntaxError'>"
p35
sS'filename'
p36
S"'/home/mayank/Desktop/web2pyAdmin/web2py/web2py/applications/FunkLoad/models/db.py'"
p37
sS'lineno'
p38
S'101'
p39
sS'msg'
p40
S"'invalid syntax'"
p41
sS'__doc__'
p42
S"'Invalid syntax.'"
p43
sS'__getitem__'
p44
S"<method-wrapper '__getitem__' of exceptions.SyntaxError object>"
p45
sS'__setstate__'
p46
S'<built-in method __setstate__ of exceptions.SyntaxError object>'
p47
sS'__getattribute__'
p48
S"<method-wrapper '__getattribute__' of exceptions.SyntaxError object>"
p49
sS'print_file_and_line'
p50
S'None'
p51
sS'args'
p52
S'(\'invalid syntax\', (\'/home/mayank/Desktop/web2pyAdmin/web2py/web2py/applications/FunkLoad/models/db.py\', 101, 6, "\\tField(\'TestId\',db.TestDetails,required=True),\\n"))'
p53
sS'__subclasshook__'
p54
S'<built-in method __subclasshook__ of type object>'
p55
sS'offset'
p56
S'6'
sS'__unicode__'
p57
S'<built-in method __unicode__ of exceptions.SyntaxError object>'
p58
sS'__delattr__'
p59
S"<method-wrapper '__delattr__' of exceptions.SyntaxError object>"
p60
sS'__repr__'
p61
S"<method-wrapper '__repr__' of exceptions.SyntaxError object>"
p62
sS'__hash__'
p63
S"<method-wrapper '__hash__' of exceptions.SyntaxError object>"
p64
ssS'evalue'
p65
S'invalid syntax (db.py, line 101)'
p66
sS'request'
p67
ccopy_reg
_reconstructor
p68
(cgluon.html
BEAUTIFY
p69
c__builtin__
object
p70
NtRp71
(dp72
S'attributes'
p73
(dp74
sS'components'
p75
(lp76
g68
(cgluon.html
TABLE
p77
g70
NtRp78
(dp79
g73
(dp80
S'level'
p81
I5
ssS'parent'
p82
Nsg75
(lp83
g68
(cgluon.html
TR
p84
g70
NtRp85
(dp86
g73
(dp87
sg82
g78
sg75
(lp88
g68
(cgluon.html
TD
p89
g70
NtRp90
(dp91
g73
(dp92
S'_style'
p93
S'font-weight:bold;vertical-align:top'
p94
ssg82
g85
sg75
(lp95
S'ajax'
p96
asbag68
(g89
g70
NtRp97
(dp98
g73
(dp99
S'_valign'
p100
S'top'
p101
ssg82
g85
sg75
(lp102
S':'
asbag68
(g89
g70
NtRp103
(dp104
g73
(dp105
sg82
g85
sg75
(lp106
g68
(g69
g70
NtRp107
(dp108
g73
(dp109
g81
I5
ssg82
g103
sg75
(lp110
S'False'
p111
asbasbasbag68
(g84
g70
NtRp112
(dp113
g73
(dp114
sg82
g78
sg75
(lp115
g68
(g89
g70
NtRp116
(dp117
g73
(dp118
g93
g94
ssg82
g112
sg75
(lp119
S'application'
p120
asbag68
(g89
g70
NtRp121
(dp122
g73
(dp123
g100
g101
ssg82
g112
sg75
(lp124
S':'
asbag68
(g89
g70
NtRp125
(dp126
g73
(dp127
sg82
g112
sg75
(lp128
g68
(g69
g70
NtRp129
(dp130
g73
(dp131
g81
I5
ssg82
g125
sg75
(lp132
S'FunkLoad'
p133
asbasbasbag68
(g84
g70
NtRp134
(dp135
g73
(dp136
sg82
g78
sg75
(lp137
g68
(g89
g70
NtRp138
(dp139
g73
(dp140
g93
g94
ssg82
g134
sg75
(lp141
g52
asbag68
(g89
g70
NtRp142
(dp143
g73
(dp144
g100
g101
ssg82
g134
sg75
(lp145
S':'
asbag68
(g89
g70
NtRp146
(dp147
g73
(dp148
sg82
g134
sg75
(lp149
g68
(g69
g70
NtRp150
(dp151
g73
(dp152
g81
I5
ssg82
g146
sg75
(lp153
g68
(g77
g70
NtRp154
(dp155
g73
(dp156
g81
I4
ssg82
Nsg75
(lp157
sbasbasbasbag68
(g84
g70
NtRp158
(dp159
g73
(dp160
sg82
g78
sg75
(lp161
g68
(g89
g70
NtRp162
(dp163
g73
(dp164
g93
g94
ssg82
g158
sg75
(lp165
S'body'
p166
asbag68
(g89
g70
NtRp167
(dp168
g73
(dp169
g100
g101
ssg82
g158
sg75
(lp170
S':'
asbag68
(g89
g70
NtRp171
(dp172
g73
(dp173
sg82
g158
sg75
(lp174
g68
(g69
g70
NtRp175
(dp176
g73
(dp177
g81
I5
ssg82
g171
sg75
(lp178
S'<cStringIO.StringO object at 0x7f7a5445aa08>'
p179
asbasbasbag68
(g84
g70
NtRp180
(dp181
g73
(dp182
sg82
g78
sg75
(lp183
g68
(g89
g70
NtRp184
(dp185
g73
(dp186
g93
g94
ssg82
g180
sg75
(lp187
S'cid'
p188
asbag68
(g89
g70
NtRp189
(dp190
g73
(dp191
g100
g101
ssg82
g180
sg75
(lp192
S':'
asbag68
(g89
g70
NtRp193
(dp194
g73
(dp195
sg82
g180
sg75
(lp196
g68
(g69
g70
NtRp197
(dp198
g73
(dp199
g81
I5
ssg82
g193
sg75
(lp200
S'None'
p201
asbasbasbag68
(g84
g70
NtRp202
(dp203
g73
(dp204
sg82
g78
sg75
(lp205
g68
(g89
g70
NtRp206
(dp207
g73
(dp208
g93
g94
ssg82
g202
sg75
(lp209
S'client'
p210
asbag68
(g89
g70
NtRp211
(dp212
g73
(dp213
g100
g101
ssg82
g202
sg75
(lp214
S':'
asbag68
(g89
g70
NtRp215
(dp216
g73
(dp217
sg82
g202
sg75
(lp218
g68
(g69
g70
NtRp219
(dp220
g73
(dp221
g81
I5
ssg82
g215
sg75
(lp222
S'10.1.33.107'
p223
asbasbasbag68
(g84
g70
NtRp224
(dp225
g73
(dp226
sg82
g78
sg75
(lp227
g68
(g89
g70
NtRp228
(dp229
g73
(dp230
g93
g94
ssg82
g224
sg75
(lp231
S'controller'
p232
asbag68
(g89
g70
NtRp233
(dp234
g73
(dp235
g100
g101
ssg82
g224
sg75
(lp236
S':'
asbag68
(g89
g70
NtRp237
(dp238
g73
(dp239
sg82
g224
sg75
(lp240
g68
(g69
g70
NtRp241
(dp242
g73
(dp243
g81
I5
ssg82
g237
sg75
(lp244
S'default'
p245
asbasbasbag68
(g84
g70
NtRp246
(dp247
g73
(dp248
sg82
g78
sg75
(lp249
g68
(g89
g70
NtRp250
(dp251
g73
(dp252
g93
g94
ssg82
g246
sg75
(lp253
S'cookies'
p254
asbag68
(g89
g70
NtRp255
(dp256
g73
(dp257
g100
g101
ssg82
g246
sg75
(lp258
S':'
asbag68
(g89
g70
NtRp259
(dp260
g73
(dp261
sg82
g246
sg75
(lp262
g68
(g69
g70
NtRp263
(dp264
g73
(dp265
g81
I5
ssg82
g259
sg75
(lp266
g68
(g77
g70
NtRp267
(dp268
g73
(dp269
g81
I4
ssg82
Nsg75
(lp270
g68
(g84
g70
NtRp271
(dp272
g73
(dp273
sg82
g267
sg75
(lp274
g68
(g89
g70
NtRp275
(dp276
g73
(dp277
g93
g94
ssg82
g271
sg75
(lp278
S'session_id_admin'
p279
asbag68
(g89
g70
NtRp280
(dp281
g73
(dp282
g100
g101
ssg82
g271
sg75
(lp283
S':'
asbag68
(g89
g70
NtRp284
(dp285
g73
(dp286
sg82
g271
sg75
(lp287
g68
(g69
g70
NtRp288
(dp289
g73
(dp290
g81
I4
ssg82
g284
sg75
(lp291
S'10.1.33.107-cc833ea9-972a-468c-9599-25843d70bea7'
p292
ag68
(g77
g70
NtRp293
(dp294
g73
(dp295
g81
I3
ssg82
Nsg75
(lp296
g68
(g84
g70
NtRp297
(dp298
g73
(dp299
sg82
g293
sg75
(lp300
g68
(g89
g70
NtRp301
(dp302
g73
(dp303
g93
g94
ssg82
g297
sg75
(lp304
S'comment'
p305
asbag68
(g89
g70
NtRp306
(dp307
g73
(dp308
g100
g101
ssg82
g297
sg75
(lp309
S':'
asbag68
(g89
g70
NtRp310
(dp311
g73
(dp312
sg82
g297
sg75
(lp313
g68
(g69
g70
NtRp314
(dp315
g73
(dp316
g81
I3
ssg82
g310
sg75
(lp317
S''
asbasbasbag68
(g84
g70
NtRp318
(dp319
g73
(dp320
sg82
g293
sg75
(lp321
g68
(g89
g70
NtRp322
(dp323
g73
(dp324
g93
g94
ssg82
g318
sg75
(lp325
S'domain'
p326
asbag68
(g89
g70
NtRp327
(dp328
g73
(dp329
g100
g101
ssg82
g318
sg75
(lp330
S':'
asbag68
(g89
g70
NtRp331
(dp332
g73
(dp333
sg82
g318
sg75
(lp334
g68
(g69
g70
NtRp335
(dp336
g73
(dp337
g81
I3
ssg82
g331
sg75
(lp338
S''
asbasbasbag68
(g84
g70
NtRp339
(dp340
g73
(dp341
sg82
g293
sg75
(lp342
g68
(g89
g70
NtRp343
(dp344
g73
(dp345
g93
g94
ssg82
g339
sg75
(lp346
S'expires'
p347
asbag68
(g89
g70
NtRp348
(dp349
g73
(dp350
g100
g101
ssg82
g339
sg75
(lp351
S':'
asbag68
(g89
g70
NtRp352
(dp353
g73
(dp354
sg82
g339
sg75
(lp355
g68
(g69
g70
NtRp356
(dp357
g73
(dp358
g81
I3
ssg82
g352
sg75
(lp359
S''
asbasbasbag68
(g84
g70
NtRp360
(dp361
g73
(dp362
sg82
g293
sg75
(lp363
g68
(g89
g70
NtRp364
(dp365
g73
(dp366
g93
g94
ssg82
g360
sg75
(lp367
S'httponly'
p368
asbag68
(g89
g70
NtRp369
(dp370
g73
(dp371
g100
g101
ssg82
g360
sg75
(lp372
S':'
asbag68
(g89
g70
NtRp373
(dp374
g73
(dp375
sg82
g360
sg75
(lp376
g68
(g69
g70
NtRp377
(dp378
g73
(dp379
g81
I3
ssg82
g373
sg75
(lp380
S''
asbasbasbag68
(g84
g70
NtRp381
(dp382
g73
(dp383
sg82
g293
sg75
(lp384
g68
(g89
g70
NtRp385
(dp386
g73
(dp387
g93
g94
ssg82
g381
sg75
(lp388
S'max-age'
p389
asbag68
(g89
g70
NtRp390
(dp391
g73
(dp392
g100
g101
ssg82
g381
sg75
(lp393
S':'
asbag68
(g89
g70
NtRp394
(dp395
g73
(dp396
sg82
g381
sg75
(lp397
g68
(g69
g70
NtRp398
(dp399
g73
(dp400
g81
I3
ssg82
g394
sg75
(lp401
S''
asbasbasbag68
(g84
g70
NtRp402
(dp403
g73
(dp404
sg82
g293
sg75
(lp405
g68
(g89
g70
NtRp406
(dp407
g73
(dp408
g93
g94
ssg82
g402
sg75
(lp409
S'path'
p410
asbag68
(g89
g70
NtRp411
(dp412
g73
(dp413
g100
g101
ssg82
g402
sg75
(lp414
S':'
asbag68
(g89
g70
NtRp415
(dp416
g73
(dp417
sg82
g402
sg75
(lp418
g68
(g69
g70
NtRp419
(dp420
g73
(dp421
g81
I3
ssg82
g415
sg75
(lp422
S''
asbasbasbag68
(g84
g70
NtRp423
(dp424
g73
(dp425
sg82
g293
sg75
(lp426
g68
(g89
g70
NtRp427
(dp428
g73
(dp429
g93
g94
ssg82
g423
sg75
(lp430
S'secure'
p431
asbag68
(g89
g70
NtRp432
(dp433
g73
(dp434
g100
g101
ssg82
g423
sg75
(lp435
S':'
asbag68
(g89
g70
NtRp436
(dp437
g73
(dp438
sg82
g423
sg75
(lp439
g68
(g69
g70
NtRp440
(dp441
g73
(dp442
g81
I3
ssg82
g436
sg75
(lp443
S''
asbasbasbag68
(g84
g70
NtRp444
(dp445
g73
(dp446
sg82
g293
sg75
(lp447
g68
(g89
g70
NtRp448
(dp449
g73
(dp450
g93
g94
ssg82
g444
sg75
(lp451
S'version'
p452
asbag68
(g89
g70
NtRp453
(dp454
g73
(dp455
g100
g101
ssg82
g444
sg75
(lp456
S':'
asbag68
(g89
g70
NtRp457
(dp458
g73
(dp459
sg82
g444
sg75
(lp460
g68
(g69
g70
NtRp461
(dp462
g73
(dp463
g81
I3
ssg82
g457
sg75
(lp464
S''
asbasbasbasbasbasbasbag68
(g84
g70
NtRp465
(dp466
g73
(dp467
sg82
g267
sg75
(lp468
g68
(g89
g70
NtRp469
(dp470
g73
(dp471
g93
g94
ssg82
g465
sg75
(lp472
S'session_id_funkload'
p473
asbag68
(g89
g70
NtRp474
(dp475
g73
(dp476
g100
g101
ssg82
g465
sg75
(lp477
S':'
asbag68
(g89
g70
NtRp478
(dp479
g73
(dp480
sg82
g465
sg75
(lp481
g68
(g69
g70
NtRp482
(dp483
g73
(dp484
g81
I4
ssg82
g478
sg75
(lp485
S'10.1.33.107-36ba3c88-7bcb-4a0e-bb0a-8936efb689ab'
p486
ag68
(g77
g70
NtRp487
(dp488
g73
(dp489
g81
I3
ssg82
Nsg75
(lp490
g68
(g84
g70
NtRp491
(dp492
g73
(dp493
sg82
g487
sg75
(lp494
g68
(g89
g70
NtRp495
(dp496
g73
(dp497
g93
g94
ssg82
g491
sg75
(lp498
g305
asbag68
(g89
g70
NtRp499
(dp500
g73
(dp501
g100
g101
ssg82
g491
sg75
(lp502
S':'
asbag68
(g89
g70
NtRp503
(dp504
g73
(dp505
sg82
g491
sg75
(lp506
g68
(g69
g70
NtRp507
(dp508
g73
(dp509
g81
I3
ssg82
g503
sg75
(lp510
S''
asbasbasbag68
(g84
g70
NtRp511
(dp512
g73
(dp513
sg82
g487
sg75
(lp514
g68
(g89
g70
NtRp515
(dp516
g73
(dp517
g93
g94
ssg82
g511
sg75
(lp518
g326
asbag68
(g89
g70
NtRp519
(dp520
g73
(dp521
g100
g101
ssg82
g511
sg75
(lp522
S':'
asbag68
(g89
g70
NtRp523
(dp524
g73
(dp525
sg82
g511
sg75
(lp526
g68
(g69
g70
NtRp527
(dp528
g73
(dp529
g81
I3
ssg82
g523
sg75
(lp530
S''
asbasbasbag68
(g84
g70
NtRp531
(dp532
g73
(dp533
sg82
g487
sg75
(lp534
g68
(g89
g70
NtRp535
(dp536
g73
(dp537
g93
g94
ssg82
g531
sg75
(lp538
g347
asbag68
(g89
g70
NtRp539
(dp540
g73
(dp541
g100
g101
ssg82
g531
sg75
(lp542
S':'
asbag68
(g89
g70
NtRp543
(dp544
g73
(dp545
sg82
g531
sg75
(lp546
g68
(g69
g70
NtRp547
(dp548
g73
(dp549
g81
I3
ssg82
g543
sg75
(lp550
S''
asbasbasbag68
(g84
g70
NtRp551
(dp552
g73
(dp553
sg82
g487
sg75
(lp554
g68
(g89
g70
NtRp555
(dp556
g73
(dp557
g93
g94
ssg82
g551
sg75
(lp558
g368
asbag68
(g89
g70
NtRp559
(dp560
g73
(dp561
g100
g101
ssg82
g551
sg75
(lp562
S':'
asbag68
(g89
g70
NtRp563
(dp564
g73
(dp565
sg82
g551
sg75
(lp566
g68
(g69
g70
NtRp567
(dp568
g73
(dp569
g81
I3
ssg82
g563
sg75
(lp570
S''
asbasbasbag68
(g84
g70
NtRp571
(dp572
g73
(dp573
sg82
g487
sg75
(lp574
g68
(g89
g70
NtRp575
(dp576
g73
(dp577
g93
g94
ssg82
g571
sg75
(lp578
g389
asbag68
(g89
g70
NtRp579
(dp580
g73
(dp581
g100
g101
ssg82
g571
sg75
(lp582
S':'
asbag68
(g89
g70
NtRp583
(dp584
g73
(dp585
sg82
g571
sg75
(lp586
g68
(g69
g70
NtRp587
(dp588
g73
(dp589
g81
I3
ssg82
g583
sg75
(lp590
S''
asbasbasbag68
(g84
g70
NtRp591
(dp592
g73
(dp593
sg82
g487
sg75
(lp594
g68
(g89
g70
NtRp595
(dp596
g73
(dp597
g93
g94
ssg82
g591
sg75
(lp598
g410
asbag68
(g89
g70
NtRp599
(dp600
g73
(dp601
g100
g101
ssg82
g591
sg75
(lp602
S':'
asbag68
(g89
g70
NtRp603
(dp604
g73
(dp605
sg82
g591
sg75
(lp606
g68
(g69
g70
NtRp607
(dp608
g73
(dp609
g81
I3
ssg82
g603
sg75
(lp610
S''
asbasbasbag68
(g84
g70
NtRp611
(dp612
g73
(dp613
sg82
g487
sg75
(lp614
g68
(g89
g70
NtRp615
(dp616
g73
(dp617
g93
g94
ssg82
g611
sg75
(lp618
g431
asbag68
(g89
g70
NtRp619
(dp620
g73
(dp621
g100
g101
ssg82
g611
sg75
(lp622
S':'
asbag68
(g89
g70
NtRp623
(dp624
g73
(dp625
sg82
g611
sg75
(lp626
g68
(g69
g70
NtRp627
(dp628
g73
(dp629
g81
I3
ssg82
g623
sg75
(lp630
S''
asbasbasbag68
(g84
g70
NtRp631
(dp632
g73
(dp633
sg82
g487
sg75
(lp634
g68
(g89
g70
NtRp635
(dp636
g73
(dp637
g93
g94
ssg82
g631
sg75
(lp638
g452
asbag68
(g89
g70
NtRp639
(dp640
g73
(dp641
g100
g101
ssg82
g631
sg75
(lp642
S':'
asbag68
(g89
g70
NtRp643
(dp644
g73
(dp645
sg82
g631
sg75
(lp646
g68
(g69
g70
NtRp647
(dp648
g73
(dp649
g81
I3
ssg82
g643
sg75
(lp650
S''
asbasbasbasbasbasbasbasbasbasbasbag68
(g84
g70
NtRp651
(dp652
g73
(dp653
sg82
g78
sg75
(lp654
g68
(g89
g70
NtRp655
(dp656
g73
(dp657
g93
g94
ssg82
g651
sg75
(lp658
S'env'
p659
asbag68
(g89
g70
NtRp660
(dp661
g73
(dp662
g100
g101
ssg82
g651
sg75
(lp663
S':'
asbag68
(g89
g70
NtRp664
(dp665
g73
(dp666
sg82
g651
sg75
(lp667
g68
(g69
g70
NtRp668
(dp669
g73
(dp670
g81
I5
ssg82
g664
sg75
(lp671
g68
(g77
g70
NtRp672
(dp673
g73
(dp674
g81
I4
ssg82
Nsg75
(lp675
g68
(g84
g70
NtRp676
(dp677
g73
(dp678
sg82
g672
sg75
(lp679
g68
(g89
g70
NtRp680
(dp681
g73
(dp682
g93
g94
ssg82
g676
sg75
(lp683
S'app_folders'
p684
asbag68
(g89
g70
NtRp685
(dp686
g73
(dp687
g100
g101
ssg82
g676
sg75
(lp688
S':'
asbag68
(g89
g70
NtRp689
(dp690
g73
(dp691
sg82
g676
sg75
(lp692
g68
(g69
g70
NtRp693
(dp694
g73
(dp695
g81
I4
ssg82
g689
sg75
(lp696
S"set(['/home/mayank/Desktop/web2pyAdmin/web2py/web2py/applications/welcome/', '/home/mayank/Desktop/web2pyAdmin/web2py/web2py/applications/admin/', '/home/mayank/Desktop/web2pyAdmin/web2py/web2py/applications/FunkLoad/'])"
p697
asbasbasbag68
(g84
g70
NtRp698
(dp699
g73
(dp700
sg82
g672
sg75
(lp701
g68
(g89
g70
NtRp702
(dp703
g73
(dp704
g93
g94
ssg82
g698
sg75
(lp705
S'applications_parent'
p706
asbag68
(g89
g70
NtRp707
(dp708
g73
(dp709
g100
g101
ssg82
g698
sg75
(lp710
S':'
asbag68
(g89
g70
NtRp711
(dp712
g73
(dp713
sg82
g698
sg75
(lp714
g68
(g69
g70
NtRp715
(dp716
g73
(dp717
g81
I4
ssg82
g711
sg75
(lp718
S'/home/mayank/Desktop/web2pyAdmin/web2py/web2py'
p719
asbasbasbag68
(g84
g70
NtRp720
(dp721
g73
(dp722
sg82
g672
sg75
(lp723
g68
(g89
g70
NtRp724
(dp725
g73
(dp726
g93
g94
ssg82
g720
sg75
(lp727
S'cmd_args'
p728
asbag68
(g89
g70
NtRp729
(dp730
g73
(dp731
g100
g101
ssg82
g720
sg75
(lp732
S':'
asbag68
(g89
g70
NtRp733
(dp734
g73
(dp735
sg82
g720
sg75
(lp736
g68
(g69
g70
NtRp737
(dp738
g73
(dp739
g81
I4
ssg82
g733
sg75
(lp740
g68
(g77
g70
NtRp741
(dp742
g73
(dp743
g81
I3
ssg82
Nsg75
(lp744
sbasbasbasbag68
(g84
g70
NtRp745
(dp746
g73
(dp747
sg82
g672
sg75
(lp748
g68
(g89
g70
NtRp749
(dp750
g73
(dp751
g93
g94
ssg82
g745
sg75
(lp752
S'cmd_options'
p753
asbag68
(g89
g70
NtRp754
(dp755
g73
(dp756
g100
g101
ssg82
g745
sg75
(lp757
S':'
asbag68
(g89
g70
NtRp758
(dp759
g73
(dp760
sg82
g745
sg75
(lp761
g68
(g69
g70
NtRp762
(dp763
g73
(dp764
g81
I4
ssg82
g758
sg75
(lp765
S"<Values at 0x2bfd9e0: {'verbose': False, 'ip': '10.1.33.107', 'with_scheduler': False, 'ips': ['127.0.1.1', '10.1.33.121'], 'shutdown_timeout': 5, 'taskbar': False, 'port': 8000, 'maxthreads': None, 'softcron': False, 'server_name': 'mayank', 'bpython': False, 'nogui': False, 'nocron': False, 'extcron': False, 'run_system_tests': False, 'test': None, 'folder': '/home/mayank/Desktop/web2pyAdmin/web2py/web2py', 'config': '', 'import_models': False, 'winservice': '', 'shell': None, 'run': '', 'log_filename': 'httpserver.log', 'debuglevel': 30, 'args': [''], 'socket_timeout': 5, 'ssl_ca_certificate': None, 'scheduler': None, 'profiler_filename': None, 'ssl_private_key': '', 'scheduler_groups': None, 'password': '<ask>', 'request_queue_size': 5, 'ssl_certificate': '', 'cronjob': False, 'numthreads': None, 'quiet': False, 'interfaces': None, 'minthreads': None, 'timeout': 10, 'plain': False, 'nobanner': False, 'pid_filename': 'httpserver.pid'}>"
p766
asbasbasbag68
(g84
g70
NtRp767
(dp768
g73
(dp769
sg82
g672
sg75
(lp770
g68
(g89
g70
NtRp771
(dp772
g73
(dp773
g93
g94
ssg82
g767
sg75
(lp774
S'db_sessions'
p775
asbag68
(g89
g70
NtRp776
(dp777
g73
(dp778
g100
g101
ssg82
g767
sg75
(lp779
S':'
asbag68
(g89
g70
NtRp780
(dp781
g73
(dp782
sg82
g767
sg75
(lp783
g68
(g69
g70
NtRp784
(dp785
g73
(dp786
g81
I4
ssg82
g780
sg75
(lp787
S'set([])'
p788
asbasbasbag68
(g84
g70
NtRp789
(dp790
g73
(dp791
sg82
g672
sg75
(lp792
g68
(g89
g70
NtRp793
(dp794
g73
(dp795
g93
g94
ssg82
g789
sg75
(lp796
S'debugging'
p797
asbag68
(g89
g70
NtRp798
(dp799
g73
(dp800
g100
g101
ssg82
g789
sg75
(lp801
S':'
asbag68
(g89
g70
NtRp802
(dp803
g73
(dp804
sg82
g789
sg75
(lp805
g68
(g69
g70
NtRp806
(dp807
g73
(dp808
g81
I4
ssg82
g802
sg75
(lp809
g111
asbasbasbag68
(g84
g70
NtRp810
(dp811
g73
(dp812
sg82
g672
sg75
(lp813
g68
(g89
g70
NtRp814
(dp815
g73
(dp816
g93
g94
ssg82
g810
sg75
(lp817
S'gluon_parent'
p818
asbag68
(g89
g70
NtRp819
(dp820
g73
(dp821
g100
g101
ssg82
g810
sg75
(lp822
S':'
asbag68
(g89
g70
NtRp823
(dp824
g73
(dp825
sg82
g810
sg75
(lp826
g68
(g69
g70
NtRp827
(dp828
g73
(dp829
g81
I4
ssg82
g823
sg75
(lp830
S'/home/mayank/Desktop/web2pyAdmin/web2py/web2py'
p831
asbasbasbag68
(g84
g70
NtRp832
(dp833
g73
(dp834
sg82
g672
sg75
(lp835
g68
(g89
g70
NtRp836
(dp837
g73
(dp838
g93
g94
ssg82
g832
sg75
(lp839
S'http_accept'
p840
asbag68
(g89
g70
NtRp841
(dp842
g73
(dp843
g100
g101
ssg82
g832
sg75
(lp844
S':'
asbag68
(g89
g70
NtRp845
(dp846
g73
(dp847
sg82
g832
sg75
(lp848
g68
(g69
g70
NtRp849
(dp850
g73
(dp851
g81
I4
ssg82
g845
sg75
(lp852
S'text/html,application/xhtml+xml,application/xml;q=0.9,image/webp,*/*;q=0.8'
p853
asbasbasbag68
(g84
g70
NtRp854
(dp855
g73
(dp856
sg82
g672
sg75
(lp857
g68
(g89
g70
NtRp858
(dp859
g73
(dp860
g93
g94
ssg82
g854
sg75
(lp861
S'http_accept_encoding'
p862
asbag68
(g89
g70
NtRp863
(dp864
g73
(dp865
g100
g101
ssg82
g854
sg75
(lp866
S':'
asbag68
(g89
g70
NtRp867
(dp868
g73
(dp869
sg82
g854
sg75
(lp870
g68
(g69
g70
NtRp871
(dp872
g73
(dp873
g81
I4
ssg82
g867
sg75
(lp874
S'gzip,deflate,sdch'
p875
asbasbasbag68
(g84
g70
NtRp876
(dp877
g73
(dp878
sg82
g672
sg75
(lp879
g68
(g89
g70
NtRp880
(dp881
g73
(dp882
g93
g94
ssg82
g876
sg75
(lp883
S'http_accept_language'
p884
asbag68
(g89
g70
NtRp885
(dp886
g73
(dp887
g100
g101
ssg82
g876
sg75
(lp888
S':'
asbag68
(g89
g70
NtRp889
(dp890
g73
(dp891
sg82
g876
sg75
(lp892
g68
(g69
g70
NtRp893
(dp894
g73
(dp895
g81
I4
ssg82
g889
sg75
(lp896
S'en-US,en;q=0.8'
p897
asbasbasbag68
(g84
g70
NtRp898
(dp899
g73
(dp900
sg82
g672
sg75
(lp901
g68
(g89
g70
NtRp902
(dp903
g73
(dp904
g93
g94
ssg82
g898
sg75
(lp905
S'http_cache_control'
p906
asbag68
(g89
g70
NtRp907
(dp908
g73
(dp909
g100
g101
ssg82
g898
sg75
(lp910
S':'
asbag68
(g89
g70
NtRp911
(dp912
g73
(dp913
sg82
g898
sg75
(lp914
g68
(g69
g70
NtRp915
(dp916
g73
(dp917
g81
I4
ssg82
g911
sg75
(lp918
S'no-cache'
p919
asbasbasbag68
(g84
g70
NtRp920
(dp921
g73
(dp922
sg82
g672
sg75
(lp923
g68
(g89
g70
NtRp924
(dp925
g73
(dp926
g93
g94
ssg82
g920
sg75
(lp927
S'http_connection'
p928
asbag68
(g89
g70
NtRp929
(dp930
g73
(dp931
g100
g101
ssg82
g920
sg75
(lp932
S':'
asbag68
(g89
g70
NtRp933
(dp934
g73
(dp935
sg82
g920
sg75
(lp936
g68
(g69
g70
NtRp937
(dp938
g73
(dp939
g81
I4
ssg82
g933
sg75
(lp940
S'keep-alive'
p941
asbasbasbag68
(g84
g70
NtRp942
(dp943
g73
(dp944
sg82
g672
sg75
(lp945
g68
(g89
g70
NtRp946
(dp947
g73
(dp948
g93
g94
ssg82
g942
sg75
(lp949
S'http_cookie'
p950
asbag68
(g89
g70
NtRp951
(dp952
g73
(dp953
g100
g101
ssg82
g942
sg75
(lp954
S':'
asbag68
(g89
g70
NtRp955
(dp956
g73
(dp957
sg82
g942
sg75
(lp958
g68
(g69
g70
NtRp959
(dp960
g73
(dp961
g81
I4
ssg82
g955
sg75
(lp962
S'session_id_funkload=10.1.33.107-36ba3c88-7bcb-4a0e-bb0a-8936efb689ab; session_id_admin=10.1.33.107-cc833ea9-972a-468c-9599-25843d70bea7'
p963
asbasbasbag68
(g84
g70
NtRp964
(dp965
g73
(dp966
sg82
g672
sg75
(lp967
g68
(g89
g70
NtRp968
(dp969
g73
(dp970
g93
g94
ssg82
g964
sg75
(lp971
S'http_host'
p972
asbag68
(g89
g70
NtRp973
(dp974
g73
(dp975
g100
g101
ssg82
g964
sg75
(lp976
S':'
asbag68
(g89
g70
NtRp977
(dp978
g73
(dp979
sg82
g964
sg75
(lp980
g68
(g69
g70
NtRp981
(dp982
g73
(dp983
g81
I4
ssg82
g977
sg75
(lp984
S'10.1.33.107:8000'
p985
asbasbasbag68
(g84
g70
NtRp986
(dp987
g73
(dp988
sg82
g672
sg75
(lp989
g68
(g89
g70
NtRp990
(dp991
g73
(dp992
g93
g94
ssg82
g986
sg75
(lp993
S'http_pragma'
p994
asbag68
(g89
g70
NtRp995
(dp996
g73
(dp997
g100
g101
ssg82
g986
sg75
(lp998
S':'
asbag68
(g89
g70
NtRp999
(dp1000
g73
(dp1001
sg82
g986
sg75
(lp1002
g68
(g69
g70
NtRp1003
(dp1004
g73
(dp1005
g81
I4
ssg82
g999
sg75
(lp1006
S'no-cache'
p1007
asbasbasbag68
(g84
g70
NtRp1008
(dp1009
g73
(dp1010
sg82
g672
sg75
(lp1011
g68
(g89
g70
NtRp1012
(dp1013
g73
(dp1014
g93
g94
ssg82
g1008
sg75
(lp1015
S'http_referer'
p1016
asbag68
(g89
g70
NtRp1017
(dp1018
g73
(dp1019
g100
g101
ssg82
g1008
sg75
(lp1020
S':'
asbag68
(g89
g70
NtRp1021
(dp1022
g73
(dp1023
sg82
g1008
sg75
(lp1024
g68
(g69
g70
NtRp1025
(dp1026
g73
(dp1027
g81
I4
ssg82
g1021
sg75
(lp1028
S'http://10.1.33.107:8000/FunkLoad/default/addTest'
p1029
asbasbasbag68
(g84
g70
NtRp1030
(dp1031
g73
(dp1032
sg82
g672
sg75
(lp1033
g68
(g89
g70
NtRp1034
(dp1035
g73
(dp1036
g93
g94
ssg82
g1030
sg75
(lp1037
S'http_user_agent'
p1038
asbag68
(g89
g70
NtRp1039
(dp1040
g73
(dp1041
g100
g101
ssg82
g1030
sg75
(lp1042
S':'
asbag68
(g89
g70
NtRp1043
(dp1044
g73
(dp1045
sg82
g1030
sg75
(lp1046
g68
(g69
g70
NtRp1047
(dp1048
g73
(dp1049
g81
I4
ssg82
g1043
sg75
(lp1050
S'Mozilla/5.0 (X11; Linux x86_64) AppleWebKit/537.36 (KHTML, like Gecko) Chrome/30.0.1599.114 Safari/537.36'
p1051
asbasbasbag68
(g84
g70
NtRp1052
(dp1053
g73
(dp1054
sg82
g672
sg75
(lp1055
g68
(g89
g70
NtRp1056
(dp1057
g73
(dp1058
g93
g94
ssg82
g1052
sg75
(lp1059
S'is_jython'
p1060
asbag68
(g89
g70
NtRp1061
(dp1062
g73
(dp1063
g100
g101
ssg82
g1052
sg75
(lp1064
S':'
asbag68
(g89
g70
NtRp1065
(dp1066
g73
(dp1067
sg82
g1052
sg75
(lp1068
g68
(g69
g70
NtRp1069
(dp1070
g73
(dp1071
g81
I4
ssg82
g1065
sg75
(lp1072
g111
asbasbasbag68
(g84
g70
NtRp1073
(dp1074
g73
(dp1075
sg82
g672
sg75
(lp1076
g68
(g89
g70
NtRp1077
(dp1078
g73
(dp1079
g93
g94
ssg82
g1073
sg75
(lp1080
S'is_pypy'
p1081
asbag68
(g89
g70
NtRp1082
(dp1083
g73
(dp1084
g100
g101
ssg82
g1073
sg75
(lp1085
S':'
asbag68
(g89
g70
NtRp1086
(dp1087
g73
(dp1088
sg82
g1073
sg75
(lp1089
g68
(g69
g70
NtRp1090
(dp1091
g73
(dp1092
g81
I4
ssg82
g1086
sg75
(lp1093
g111
asbasbasbag68
(g84
g70
NtRp1094
(dp1095
g73
(dp1096
sg82
g672
sg75
(lp1097
g68
(g89
g70
NtRp1098
(dp1099
g73
(dp1100
g93
g94
ssg82
g1094
sg75
(lp1101
S'path_info'
p1102
asbag68
(g89
g70
NtRp1103
(dp1104
g73
(dp1105
g100
g101
ssg82
g1094
sg75
(lp1106
S':'
asbag68
(g89
g70
NtRp1107
(dp1108
g73
(dp1109
sg82
g1094
sg75
(lp1110
g68
(g69
g70
NtRp1111
(dp1112
g73
(dp1113
g81
I4
ssg82
g1107
sg75
(lp1114
S'/FunkLoad/default/testDetails'
p1115
asbasbasbag68
(g84
g70
NtRp1116
(dp1117
g73
(dp1118
sg82
g672
sg75
(lp1119
g68
(g89
g70
NtRp1120
(dp1121
g73
(dp1122
g93
g94
ssg82
g1116
sg75
(lp1123
S'query_string'
p1124
asbag68
(g89
g70
NtRp1125
(dp1126
g73
(dp1127
g100
g101
ssg82
g1116
sg75
(lp1128
S':'
asbag68
(g89
g70
NtRp1129
(dp1130
g73
(dp1131
sg82
g1116
sg75
(lp1132
g68
(g69
g70
NtRp1133
(dp1134
g73
(dp1135
g81
I4
ssg82
g1129
sg75
(lp1136
S''
asbasbasbag68
(g84
g70
NtRp1137
(dp1138
g73
(dp1139
sg82
g672
sg75
(lp1140
g68
(g89
g70
NtRp1141
(dp1142
g73
(dp1143
g93
g94
ssg82
g1137
sg75
(lp1144
S'remote_addr'
p1145
asbag68
(g89
g70
NtRp1146
(dp1147
g73
(dp1148
g100
g101
ssg82
g1137
sg75
(lp1149
S':'
asbag68
(g89
g70
NtRp1150
(dp1151
g73
(dp1152
sg82
g1137
sg75
(lp1153
g68
(g69
g70
NtRp1154
(dp1155
g73
(dp1156
g81
I4
ssg82
g1150
sg75
(lp1157
g223
asbasbasbag68
(g84
g70
NtRp1158
(dp1159
g73
(dp1160
sg82
g672
sg75
(lp1161
g68
(g89
g70
NtRp1162
(dp1163
g73
(dp1164
g93
g94
ssg82
g1158
sg75
(lp1165
S'remote_port'
p1166
asbag68
(g89
g70
NtRp1167
(dp1168
g73
(dp1169
g100
g101
ssg82
g1158
sg75
(lp1170
S':'
asbag68
(g89
g70
NtRp1171
(dp1172
g73
(dp1173
sg82
g1158
sg75
(lp1174
g68
(g69
g70
NtRp1175
(dp1176
g73
(dp1177
g81
I4
ssg82
g1171
sg75
(lp1178
S'52826'
p1179
asbasbasbag68
(g84
g70
NtRp1180
(dp1181
g73
(dp1182
sg82
g672
sg75
(lp1183
g68
(g89
g70
NtRp1184
(dp1185
g73
(dp1186
g93
g94
ssg82
g1180
sg75
(lp1187
S'request_method'
p1188
asbag68
(g89
g70
NtRp1189
(dp1190
g73
(dp1191
g100
g101
ssg82
g1180
sg75
(lp1192
S':'
asbag68
(g89
g70
NtRp1193
(dp1194
g73
(dp1195
sg82
g1180
sg75
(lp1196
g68
(g69
g70
NtRp1197
(dp1198
g73
(dp1199
g81
I4
ssg82
g1193
sg75
(lp1200
S'GET'
p1201
asbasbasbag68
(g84
g70
NtRp1202
(dp1203
g73
(dp1204
sg82
g672
sg75
(lp1205
g68
(g89
g70
NtRp1206
(dp1207
g73
(dp1208
g93
g94
ssg82
g1202
sg75
(lp1209
S'request_uri'
p1210
asbag68
(g89
g70
NtRp1211
(dp1212
g73
(dp1213
g100
g101
ssg82
g1202
sg75
(lp1214
S':'
asbag68
(g89
g70
NtRp1215
(dp1216
g73
(dp1217
sg82
g1202
sg75
(lp1218
g68
(g69
g70
NtRp1219
(dp1220
g73
(dp1221
g81
I4
ssg82
g1215
sg75
(lp1222
g1115
asbasbasbag68
(g84
g70
NtRp1223
(dp1224
g73
(dp1225
sg82
g672
sg75
(lp1226
g68
(g89
g70
NtRp1227
(dp1228
g73
(dp1229
g93
g94
ssg82
g1223
sg75
(lp1230
S'script_name'
p1231
asbag68
(g89
g70
NtRp1232
(dp1233
g73
(dp1234
g100
g101
ssg82
g1223
sg75
(lp1235
S':'
asbag68
(g89
g70
NtRp1236
(dp1237
g73
(dp1238
sg82
g1223
sg75
(lp1239
g68
(g69
g70
NtRp1240
(dp1241
g73
(dp1242
g81
I4
ssg82
g1236
sg75
(lp1243
S''
asbasbasbag68
(g84
g70
NtRp1244
(dp1245
g73
(dp1246
sg82
g672
sg75
(lp1247
g68
(g89
g70
NtRp1248
(dp1249
g73
(dp1250
g93
g94
ssg82
g1244
sg75
(lp1251
S'server_name'
p1252
asbag68
(g89
g70
NtRp1253
(dp1254
g73
(dp1255
g100
g101
ssg82
g1244
sg75
(lp1256
S':'
asbag68
(g89
g70
NtRp1257
(dp1258
g73
(dp1259
sg82
g1244
sg75
(lp1260
g68
(g69
g70
NtRp1261
(dp1262
g73
(dp1263
g81
I4
ssg82
g1257
sg75
(lp1264
S'mayank'
p1265
asbasbasbag68
(g84
g70
NtRp1266
(dp1267
g73
(dp1268
sg82
g672
sg75
(lp1269
g68
(g89
g70
NtRp1270
(dp1271
g73
(dp1272
g93
g94
ssg82
g1266
sg75
(lp1273
S'server_port'
p1274
asbag68
(g89
g70
NtRp1275
(dp1276
g73
(dp1277
g100
g101
ssg82
g1266
sg75
(lp1278
S':'
asbag68
(g89
g70
NtRp1279
(dp1280
g73
(dp1281
sg82
g1266
sg75
(lp1282
g68
(g69
g70
NtRp1283
(dp1284
g73
(dp1285
g81
I4
ssg82
g1279
sg75
(lp1286
S'8000'
p1287
asbasbasbag68
(g84
g70
NtRp1288
(dp1289
g73
(dp1290
sg82
g672
sg75
(lp1291
g68
(g89
g70
NtRp1292
(dp1293
g73
(dp1294
g93
g94
ssg82
g1288
sg75
(lp1295
S'server_protocol'
p1296
asbag68
(g89
g70
NtRp1297
(dp1298
g73
(dp1299
g100
g101
ssg82
g1288
sg75
(lp1300
S':'
asbag68
(g89
g70
NtRp1301
(dp1302
g73
(dp1303
sg82
g1288
sg75
(lp1304
g68
(g69
g70
NtRp1305
(dp1306
g73
(dp1307
g81
I4
ssg82
g1301
sg75
(lp1308
S'HTTP/1.1'
p1309
asbasbasbag68
(g84
g70
NtRp1310
(dp1311
g73
(dp1312
sg82
g672
sg75
(lp1313
g68
(g89
g70
NtRp1314
(dp1315
g73
(dp1316
g93
g94
ssg82
g1310
sg75
(lp1317
S'server_software'
p1318
asbag68
(g89
g70
NtRp1319
(dp1320
g73
(dp1321
g100
g101
ssg82
g1310
sg75
(lp1322
S':'
asbag68
(g89
g70
NtRp1323
(dp1324
g73
(dp1325
sg82
g1310
sg75
(lp1326
g68
(g69
g70
NtRp1327
(dp1328
g73
(dp1329
g81
I4
ssg82
g1323
sg75
(lp1330
S'Rocket 1.2.4'
p1331
asbasbasbag68
(g84
g70
NtRp1332
(dp1333
g73
(dp1334
sg82
g672
sg75
(lp1335
g68
(g89
g70
NtRp1336
(dp1337
g73
(dp1338
g93
g94
ssg82
g1332
sg75
(lp1339
S'web2py_crontype'
p1340
asbag68
(g89
g70
NtRp1341
(dp1342
g73
(dp1343
g100
g101
ssg82
g1332
sg75
(lp1344
S':'
asbag68
(g89
g70
NtRp1345
(dp1346
g73
(dp1347
sg82
g1332
sg75
(lp1348
g68
(g69
g70
NtRp1349
(dp1350
g73
(dp1351
g81
I4
ssg82
g1345
sg75
(lp1352
S'hard'
p1353
asbasbasbag68
(g84
g70
NtRp1354
(dp1355
g73
(dp1356
sg82
g672
sg75
(lp1357
g68
(g89
g70
NtRp1358
(dp1359
g73
(dp1360
g93
g94
ssg82
g1354
sg75
(lp1361
S'web2py_path'
p1362
asbag68
(g89
g70
NtRp1363
(dp1364
g73
(dp1365
g100
g101
ssg82
g1354
sg75
(lp1366
S':'
asbag68
(g89
g70
NtRp1367
(dp1368
g73
(dp1369
sg82
g1354
sg75
(lp1370
g68
(g69
g70
NtRp1371
(dp1372
g73
(dp1373
g81
I4
ssg82
g1367
sg75
(lp1374
g719
asbasbasbag68
(g84
g70
NtRp1375
(dp1376
g73
(dp1377
sg82
g672
sg75
(lp1378
g68
(g89
g70
NtRp1379
(dp1380
g73
(dp1381
g93
g94
ssg82
g1375
sg75
(lp1382
S'web2py_version'
p1383
asbag68
(g89
g70
NtRp1384
(dp1385
g73
(dp1386
g100
g101
ssg82
g1375
sg75
(lp1387
S':'
asbag68
(g89
g70
NtRp1388
(dp1389
g73
(dp1390
sg82
g1375
sg75
(lp1391
g68
(g69
g70
NtRp1392
(dp1393
g73
(dp1394
g81
I4
ssg82
g1388
sg75
(lp1395
g68
(g77
g70
NtRp1396
(dp1397
g73
(dp1398
g81
I3
ssg82
Nsg75
(lp1399
g68
(g84
g70
NtRp1400
(dp1401
g73
(dp1402
sg82
g1396
sg75
(lp1403
g68
(g89
g70
NtRp1404
(dp1405
g73
(dp1406
sg82
g1400
sg75
(lp1407
g68
(g69
g70
NtRp1408
(dp1409
g73
(dp1410
g81
I3
ssg82
g1404
sg75
(lp1411
S'2'
asbasbasbag68
(g84
g70
NtRp1412
(dp1413
g73
(dp1414
sg82
g1396
sg75
(lp1415
g68
(g89
g70
NtRp1416
(dp1417
g73
(dp1418
sg82
g1412
sg75
(lp1419
g68
(g69
g70
NtRp1420
(dp1421
g73
(dp1422
g81
I3
ssg82
g1416
sg75
(lp1423
S'0'
asbasbasbag68
(g84
g70
NtRp1424
(dp1425
g73
(dp1426
sg82
g1396
sg75
(lp1427
g68
(g89
g70
NtRp1428
(dp1429
g73
(dp1430
sg82
g1424
sg75
(lp1431
g68
(g69
g70
NtRp1432
(dp1433
g73
(dp1434
g81
I3
ssg82
g1428
sg75
(lp1435
S'8'
asbasbasbag68
(g84
g70
NtRp1436
(dp1437
g73
(dp1438
sg82
g1396
sg75
(lp1439
g68
(g89
g70
NtRp1440
(dp1441
g73
(dp1442
sg82
g1436
sg75
(lp1443
g68
(g69
g70
NtRp1444
(dp1445
g73
(dp1446
g81
I3
ssg82
g1440
sg75
(lp1447
S'datetime.datetime(2012, 9, 7, 3, 47, 51)'
p1448
asbasbasbag68
(g84
g70
NtRp1449
(dp1450
g73
(dp1451
sg82
g1396
sg75
(lp1452
g68
(g89
g70
NtRp1453
(dp1454
g73
(dp1455
sg82
g1449
sg75
(lp1456
g68
(g69
g70
NtRp1457
(dp1458
g73
(dp1459
g81
I3
ssg82
g1453
sg75
(lp1460
S'stable'
p1461
asbasbasbasbasbasbasbag68
(g84
g70
NtRp1462
(dp1463
g73
(dp1464
sg82
g672
sg75
(lp1465
g68
(g89
g70
NtRp1466
(dp1467
g73
(dp1468
g93
g94
ssg82
g1462
sg75
(lp1469
S'wsgi_errors'
p1470
asbag68
(g89
g70
NtRp1471
(dp1472
g73
(dp1473
g100
g101
ssg82
g1462
sg75
(lp1474
S':'
asbag68
(g89
g70
NtRp1475
(dp1476
g73
(dp1477
sg82
g1462
sg75
(lp1478
g68
(g69
g70
NtRp1479
(dp1480
g73
(dp1481
g81
I4
ssg82
g1475
sg75
(lp1482
S"<open file '<stderr>', mode 'w' at 0x7f7b39bf91e0>"
p1483
asbasbasbag68
(g84
g70
NtRp1484
(dp1485
g73
(dp1486
sg82
g672
sg75
(lp1487
g68
(g89
g70
NtRp1488
(dp1489
g73
(dp1490
g93
g94
ssg82
g1484
sg75
(lp1491
S'wsgi_file_wrapper'
p1492
asbag68
(g89
g70
NtRp1493
(dp1494
g73
(dp1495
g100
g101
ssg82
g1484
sg75
(lp1496
S':'
asbag68
(g89
g70
NtRp1497
(dp1498
g73
(dp1499
sg82
g1484
sg75
(lp1500
g68
(g69
g70
NtRp1501
(dp1502
g73
(dp1503
g81
I4
ssg82
g1497
sg75
(lp1504
S'<class wsgiref.util.FileWrapper at 0x2756f58>'
p1505
asbasbasbag68
(g84
g70
NtRp1506
(dp1507
g73
(dp1508
sg82
g672
sg75
(lp1509
g68
(g89
g70
NtRp1510
(dp1511
g73
(dp1512
g93
g94
ssg82
g1506
sg75
(lp1513
S'wsgi_input'
p1514
asbag68
(g89
g70
NtRp1515
(dp1516
g73
(dp1517
g100
g101
ssg82
g1506
sg75
(lp1518
S':'
asbag68
(g89
g70
NtRp1519
(dp1520
g73
(dp1521
sg82
g1506
sg75
(lp1522
g68
(g69
g70
NtRp1523
(dp1524
g73
(dp1525
g81
I4
ssg82
g1519
sg75
(lp1526
S'<socket._fileobject object at 0x7f7a6410b850>'
p1527
asbasbasbag68
(g84
g70
NtRp1528
(dp1529
g73
(dp1530
sg82
g672
sg75
(lp1531
g68
(g89
g70
NtRp1532
(dp1533
g73
(dp1534
g93
g94
ssg82
g1528
sg75
(lp1535
S'wsgi_multiprocess'
p1536
asbag68
(g89
g70
NtRp1537
(dp1538
g73
(dp1539
g100
g101
ssg82
g1528
sg75
(lp1540
S':'
asbag68
(g89
g70
NtRp1541
(dp1542
g73
(dp1543
sg82
g1528
sg75
(lp1544
g68
(g69
g70
NtRp1545
(dp1546
g73
(dp1547
g81
I4
ssg82
g1541
sg75
(lp1548
g111
asbasbasbag68
(g84
g70
NtRp1549
(dp1550
g73
(dp1551
sg82
g672
sg75
(lp1552
g68
(g89
g70
NtRp1553
(dp1554
g73
(dp1555
g93
g94
ssg82
g1549
sg75
(lp1556
S'wsgi_multithread'
p1557
asbag68
(g89
g70
NtRp1558
(dp1559
g73
(dp1560
g100
g101
ssg82
g1549
sg75
(lp1561
S':'
asbag68
(g89
g70
NtRp1562
(dp1563
g73
(dp1564
sg82
g1549
sg75
(lp1565
g68
(g69
g70
NtRp1566
(dp1567
g73
(dp1568
g81
I4
ssg82
g1562
sg75
(lp1569
S'True'
p1570
asbasbasbag68
(g84
g70
NtRp1571
(dp1572
g73
(dp1573
sg82
g672
sg75
(lp1574
g68
(g89
g70
NtRp1575
(dp1576
g73
(dp1577
g93
g94
ssg82
g1571
sg75
(lp1578
S'wsgi_run_once'
p1579
asbag68
(g89
g70
NtRp1580
(dp1581
g73
(dp1582
g100
g101
ssg82
g1571
sg75
(lp1583
S':'
asbag68
(g89
g70
NtRp1584
(dp1585
g73
(dp1586
sg82
g1571
sg75
(lp1587
g68
(g69
g70
NtRp1588
(dp1589
g73
(dp1590
g81
I4
ssg82
g1584
sg75
(lp1591
g111
asbasbasbag68
(g84
g70
NtRp1592
(dp1593
g73
(dp1594
sg82
g672
sg75
(lp1595
g68
(g89
g70
NtRp1596
(dp1597
g73
(dp1598
g93
g94
ssg82
g1592
sg75
(lp1599
S'wsgi_url_scheme'
p1600
asbag68
(g89
g70
NtRp1601
(dp1602
g73
(dp1603
g100
g101
ssg82
g1592
sg75
(lp1604
S':'
asbag68
(g89
g70
NtRp1605
(dp1606
g73
(dp1607
sg82
g1592
sg75
(lp1608
g68
(g69
g70
NtRp1609
(dp1610
g73
(dp1611
g81
I4
ssg82
g1605
sg75
(lp1612
S'http'
p1613
asbasbasbag68
(g84
g70
NtRp1614
(dp1615
g73
(dp1616
sg82
g672
sg75
(lp1617
g68
(g89
g70
NtRp1618
(dp1619
g73
(dp1620
g93
g94
ssg82
g1614
sg75
(lp1621
S'wsgi_version'
p1622
asbag68
(g89
g70
NtRp1623
(dp1624
g73
(dp1625
g100
g101
ssg82
g1614
sg75
(lp1626
S':'
asbag68
(g89
g70
NtRp1627
(dp1628
g73
(dp1629
sg82
g1614
sg75
(lp1630
g68
(g69
g70
NtRp1631
(dp1632
g73
(dp1633
g81
I4
ssg82
g1627
sg75
(lp1634
g68
(g77
g70
NtRp1635
(dp1636
g73
(dp1637
g81
I3
ssg82
Nsg75
(lp1638
g68
(g84
g70
NtRp1639
(dp1640
g73
(dp1641
sg82
g1635
sg75
(lp1642
g68
(g89
g70
NtRp1643
(dp1644
g73
(dp1645
sg82
g1639
sg75
(lp1646
g68
(g69
g70
NtRp1647
(dp1648
g73
(dp1649
g81
I3
ssg82
g1643
sg75
(lp1650
S'1'
asbasbasbag68
(g84
g70
NtRp1651
(dp1652
g73
(dp1653
sg82
g1635
sg75
(lp1654
g68
(g89
g70
NtRp1655
(dp1656
g73
(dp1657
sg82
g1651
sg75
(lp1658
g68
(g69
g70
NtRp1659
(dp1660
g73
(dp1661
g81
I3
ssg82
g1655
sg75
(lp1662
S'0'
asbasbasbasbasbasbasbasbasbasbasbag68
(g84
g70
NtRp1663
(dp1664
g73
(dp1665
sg82
g78
sg75
(lp1666
g68
(g89
g70
NtRp1667
(dp1668
g73
(dp1669
g93
g94
ssg82
g1663
sg75
(lp1670
S'extension'
p1671
asbag68
(g89
g70
NtRp1672
(dp1673
g73
(dp1674
g100
g101
ssg82
g1663
sg75
(lp1675
S':'
asbag68
(g89
g70
NtRp1676
(dp1677
g73
(dp1678
sg82
g1663
sg75
(lp1679
g68
(g69
g70
NtRp1680
(dp1681
g73
(dp1682
g81
I5
ssg82
g1676
sg75
(lp1683
S'html'
p1684
asbasbasbag68
(g84
g70
NtRp1685
(dp1686
g73
(dp1687
sg82
g78
sg75
(lp1688
g68
(g89
g70
NtRp1689
(dp1690
g73
(dp1691
g93
g94
ssg82
g1685
sg75
(lp1692
S'folder'
p1693
asbag68
(g89
g70
NtRp1694
(dp1695
g73
(dp1696
g100
g101
ssg82
g1685
sg75
(lp1697
S':'
asbag68
(g89
g70
NtRp1698
(dp1699
g73
(dp1700
sg82
g1685
sg75
(lp1701
g68
(g69
g70
NtRp1702
(dp1703
g73
(dp1704
g81
I5
ssg82
g1698
sg75
(lp1705
S'/home/mayank/Desktop/web2pyAdmin/web2py/web2py/applications/FunkLoad/'
p1706
asbasbasbag68
(g84
g70
NtRp1707
(dp1708
g73
(dp1709
sg82
g78
sg75
(lp1710
g68
(g89
g70
NtRp1711
(dp1712
g73
(dp1713
g93
g94
ssg82
g1707
sg75
(lp1714
S'function'
p1715
asbag68
(g89
g70
NtRp1716
(dp1717
g73
(dp1718
g100
g101
ssg82
g1707
sg75
(lp1719
S':'
asbag68
(g89
g70
NtRp1720
(dp1721
g73
(dp1722
sg82
g1707
sg75
(lp1723
g68
(g69
g70
NtRp1724
(dp1725
g73
(dp1726
g81
I5
ssg82
g1720
sg75
(lp1727
S'testDetails'
p1728
asbasbasbag68
(g84
g70
NtRp1729
(dp1730
g73
(dp1731
sg82
g78
sg75
(lp1732
g68
(g89
g70
NtRp1733
(dp1734
g73
(dp1735
g93
g94
ssg82
g1729
sg75
(lp1736
S'get_vars'
p1737
asbag68
(g89
g70
NtRp1738
(dp1739
g73
(dp1740
g100
g101
ssg82
g1729
sg75
(lp1741
S':'
asbag68
(g89
g70
NtRp1742
(dp1743
g73
(dp1744
sg82
g1729
sg75
(lp1745
g68
(g69
g70
NtRp1746
(dp1747
g73
(dp1748
g81
I5
ssg82
g1742
sg75
(lp1749
g68
(g77
g70
NtRp1750
(dp1751
g73
(dp1752
g81
I4
ssg82
Nsg75
(lp1753
sbasbasbasbag68
(g84
g70
NtRp1754
(dp1755
g73
(dp1756
sg82
g78
sg75
(lp1757
g68
(g89
g70
NtRp1758
(dp1759
g73
(dp1760
g93
g94
ssg82
g1754
sg75
(lp1761
S'global_settings'
p1762
asbag68
(g89
g70
NtRp1763
(dp1764
g73
(dp1765
g100
g101
ssg82
g1754
sg75
(lp1766
S':'
asbag68
(g89
g70
NtRp1767
(dp1768
g73
(dp1769
sg82
g1754
sg75
(lp1770
g68
(g69
g70
NtRp1771
(dp1772
g73
(dp1773
g81
I5
ssg82
g1767
sg75
(lp1774
g68
(g77
g70
NtRp1775
(dp1776
g73
(dp1777
g81
I4
ssg82
Nsg75
(lp1778
g68
(g84
g70
NtRp1779
(dp1780
g73
(dp1781
sg82
g1775
sg75
(lp1782
g68
(g89
g70
NtRp1783
(dp1784
g73
(dp1785
g93
g94
ssg82
g1779
sg75
(lp1786
g684
asbag68
(g89
g70
NtRp1787
(dp1788
g73
(dp1789
g100
g101
ssg82
g1779
sg75
(lp1790
S':'
asbag68
(g89
g70
NtRp1791
(dp1792
g73
(dp1793
sg82
g1779
sg75
(lp1794
g68
(g69
g70
NtRp1795
(dp1796
g73
(dp1797
g81
I4
ssg82
g1791
sg75
(lp1798
S"set(['/home/mayank/Desktop/web2pyAdmin/web2py/web2py/applications/welcome/', '/home/mayank/Desktop/web2pyAdmin/web2py/web2py/applications/admin/', '/home/mayank/Desktop/web2pyAdmin/web2py/web2py/applications/FunkLoad/'])"
p1799
asbasbasbag68
(g84
g70
NtRp1800
(dp1801
g73
(dp1802
sg82
g1775
sg75
(lp1803
g68
(g89
g70
NtRp1804
(dp1805
g73
(dp1806
g93
g94
ssg82
g1800
sg75
(lp1807
g706
asbag68
(g89
g70
NtRp1808
(dp1809
g73
(dp1810
g100
g101
ssg82
g1800
sg75
(lp1811
S':'
asbag68
(g89
g70
NtRp1812
(dp1813
g73
(dp1814
sg82
g1800
sg75
(lp1815
g68
(g69
g70
NtRp1816
(dp1817
g73
(dp1818
g81
I4
ssg82
g1812
sg75
(lp1819
g719
asbasbasbag68
(g84
g70
NtRp1820
(dp1821
g73
(dp1822
sg82
g1775
sg75
(lp1823
g68
(g89
g70
NtRp1824
(dp1825
g73
(dp1826
g93
g94
ssg82
g1820
sg75
(lp1827
g728
asbag68
(g89
g70
NtRp1828
(dp1829
g73
(dp1830
g100
g101
ssg82
g1820
sg75
(lp1831
S':'
asbag68
(g89
g70
NtRp1832
(dp1833
g73
(dp1834
sg82
g1820
sg75
(lp1835
g68
(g69
g70
NtRp1836
(dp1837
g73
(dp1838
g81
I4
ssg82
g1832
sg75
(lp1839
g68
(g77
g70
NtRp1840
(dp1841
g73
(dp1842
g81
I3
ssg82
Nsg75
(lp1843
sbasbasbasbag68
(g84
g70
NtRp1844
(dp1845
g73
(dp1846
sg82
g1775
sg75
(lp1847
g68
(g89
g70
NtRp1848
(dp1849
g73
(dp1850
g93
g94
ssg82
g1844
sg75
(lp1851
g753
asbag68
(g89
g70
NtRp1852
(dp1853
g73
(dp1854
g100
g101
ssg82
g1844
sg75
(lp1855
S':'
asbag68
(g89
g70
NtRp1856
(dp1857
g73
(dp1858
sg82
g1844
sg75
(lp1859
g68
(g69
g70
NtRp1860
(dp1861
g73
(dp1862
g81
I4
ssg82
g1856
sg75
(lp1863
S"<Values at 0x2bfd9e0: {'verbose': False, 'ip': '10.1.33.107', 'with_scheduler': False, 'ips': ['127.0.1.1', '10.1.33.121'], 'shutdown_timeout': 5, 'taskbar': False, 'port': 8000, 'maxthreads': None, 'softcron': False, 'server_name': 'mayank', 'bpython': False, 'nogui': False, 'nocron': False, 'extcron': False, 'run_system_tests': False, 'test': None, 'folder': '/home/mayank/Desktop/web2pyAdmin/web2py/web2py', 'config': '', 'import_models': False, 'winservice': '', 'shell': None, 'run': '', 'log_filename': 'httpserver.log', 'debuglevel': 30, 'args': [''], 'socket_timeout': 5, 'ssl_ca_certificate': None, 'scheduler': None, 'profiler_filename': None, 'ssl_private_key': '', 'scheduler_groups': None, 'password': '<ask>', 'request_queue_size': 5, 'ssl_certificate': '', 'cronjob': False, 'numthreads': None, 'quiet': False, 'interfaces': None, 'minthreads': None, 'timeout': 10, 'plain': False, 'nobanner': False, 'pid_filename': 'httpserver.pid'}>"
p1864
asbasbasbag68
(g84
g70
NtRp1865
(dp1866
g73
(dp1867
sg82
g1775
sg75
(lp1868
g68
(g89
g70
NtRp1869
(dp1870
g73
(dp1871
g93
g94
ssg82
g1865
sg75
(lp1872
g775
asbag68
(g89
g70
NtRp1873
(dp1874
g73
(dp1875
g100
g101
ssg82
g1865
sg75
(lp1876
S':'
asbag68
(g89
g70
NtRp1877
(dp1878
g73
(dp1879
sg82
g1865
sg75
(lp1880
g68
(g69
g70
NtRp1881
(dp1882
g73
(dp1883
g81
I4
ssg82
g1877
sg75
(lp1884
S'set([])'
p1885
asbasbasbag68
(g84
g70
NtRp1886
(dp1887
g73
(dp1888
sg82
g1775
sg75
(lp1889
g68
(g89
g70
NtRp1890
(dp1891
g73
(dp1892
g93
g94
ssg82
g1886
sg75
(lp1893
g797
asbag68
(g89
g70
NtRp1894
(dp1895
g73
(dp1896
g100
g101
ssg82
g1886
sg75
(lp1897
S':'
asbag68
(g89
g70
NtRp1898
(dp1899
g73
(dp1900
sg82
g1886
sg75
(lp1901
g68
(g69
g70
NtRp1902
(dp1903
g73
(dp1904
g81
I4
ssg82
g1898
sg75
(lp1905
g111
asbasbasbag68
(g84
g70
NtRp1906
(dp1907
g73
(dp1908
sg82
g1775
sg75
(lp1909
g68
(g89
g70
NtRp1910
(dp1911
g73
(dp1912
g93
g94
ssg82
g1906
sg75
(lp1913
g818
asbag68
(g89
g70
NtRp1914
(dp1915
g73
(dp1916
g100
g101
ssg82
g1906
sg75
(lp1917
S':'
asbag68
(g89
g70
NtRp1918
(dp1919
g73
(dp1920
sg82
g1906
sg75
(lp1921
g68
(g69
g70
NtRp1922
(dp1923
g73
(dp1924
g81
I4
ssg82
g1918
sg75
(lp1925
g831
asbasbasbag68
(g84
g70
NtRp1926
(dp1927
g73
(dp1928
sg82
g1775
sg75
(lp1929
g68
(g89
g70
NtRp1930
(dp1931
g73
(dp1932
g93
g94
ssg82
g1926
sg75
(lp1933
g1060
asbag68
(g89
g70
NtRp1934
(dp1935
g73
(dp1936
g100
g101
ssg82
g1926
sg75
(lp1937
S':'
asbag68
(g89
g70
NtRp1938
(dp1939
g73
(dp1940
sg82
g1926
sg75
(lp1941
g68
(g69
g70
NtRp1942
(dp1943
g73
(dp1944
g81
I4
ssg82
g1938
sg75
(lp1945
g111
asbasbasbag68
(g84
g70
NtRp1946
(dp1947
g73
(dp1948
sg82
g1775
sg75
(lp1949
g68
(g89
g70
NtRp1950
(dp1951
g73
(dp1952
g93
g94
ssg82
g1946
sg75
(lp1953
g1081
asbag68
(g89
g70
NtRp1954
(dp1955
g73
(dp1956
g100
g101
ssg82
g1946
sg75
(lp1957
S':'
asbag68
(g89
g70
NtRp1958
(dp1959
g73
(dp1960
sg82
g1946
sg75
(lp1961
g68
(g69
g70
NtRp1962
(dp1963
g73
(dp1964
g81
I4
ssg82
g1958
sg75
(lp1965
g111
asbasbasbag68
(g84
g70
NtRp1966
(dp1967
g73
(dp1968
sg82
g1775
sg75
(lp1969
g68
(g89
g70
NtRp1970
(dp1971
g73
(dp1972
g93
g94
ssg82
g1966
sg75
(lp1973
g1340
asbag68
(g89
g70
NtRp1974
(dp1975
g73
(dp1976
g100
g101
ssg82
g1966
sg75
(lp1977
S':'
asbag68
(g89
g70
NtRp1978
(dp1979
g73
(dp1980
sg82
g1966
sg75
(lp1981
g68
(g69
g70
NtRp1982
(dp1983
g73
(dp1984
g81
I4
ssg82
g1978
sg75
(lp1985
g1353
asbasbasbag68
(g84
g70
NtRp1986
(dp1987
g73
(dp1988
sg82
g1775
sg75
(lp1989
g68
(g89
g70
NtRp1990
(dp1991
g73
(dp1992
g93
g94
ssg82
g1986
sg75
(lp1993
g1383
asbag68
(g89
g70
NtRp1994
(dp1995
g73
(dp1996
g100
g101
ssg82
g1986
sg75
(lp1997
S':'
asbag68
(g89
g70
NtRp1998
(dp1999
g73
(dp2000
sg82
g1986
sg75
(lp2001
g68
(g69
g70
NtRp2002
(dp2003
g73
(dp2004
g81
I4
ssg82
g1998
sg75
(lp2005
g68
(g77
g70
NtRp2006
(dp2007
g73
(dp2008
g81
I3
ssg82
Nsg75
(lp2009
g68
(g84
g70
NtRp2010
(dp2011
g73
(dp2012
sg82
g2006
sg75
(lp2013
g68
(g89
g70
NtRp2014
(dp2015
g73
(dp2016
sg82
g2010
sg75
(lp2017
g68
(g69
g70
NtRp2018
(dp2019
g73
(dp2020
g81
I3
ssg82
g2014
sg75
(lp2021
S'2'
asbasbasbag68
(g84
g70
NtRp2022
(dp2023
g73
(dp2024
sg82
g2006
sg75
(lp2025
g68
(g89
g70
NtRp2026
(dp2027
g73
(dp2028
sg82
g2022
sg75
(lp2029
g68
(g69
g70
NtRp2030
(dp2031
g73
(dp2032
g81
I3
ssg82
g2026
sg75
(lp2033
S'0'
asbasbasbag68
(g84
g70
NtRp2034
(dp2035
g73
(dp2036
sg82
g2006
sg75
(lp2037
g68
(g89
g70
NtRp2038
(dp2039
g73
(dp2040
sg82
g2034
sg75
(lp2041
g68
(g69
g70
NtRp2042
(dp2043
g73
(dp2044
g81
I3
ssg82
g2038
sg75
(lp2045
S'8'
asbasbasbag68
(g84
g70
NtRp2046
(dp2047
g73
(dp2048
sg82
g2006
sg75
(lp2049
g68
(g89
g70
NtRp2050
(dp2051
g73
(dp2052
sg82
g2046
sg75
(lp2053
g68
(g69
g70
NtRp2054
(dp2055
g73
(dp2056
g81
I3
ssg82
g2050
sg75
(lp2057
S'datetime.datetime(2012, 9, 7, 3, 47, 51)'
p2058
asbasbasbag68
(g84
g70
NtRp2059
(dp2060
g73
(dp2061
sg82
g2006
sg75
(lp2062
g68
(g89
g70
NtRp2063
(dp2064
g73
(dp2065
sg82
g2059
sg75
(lp2066
g68
(g69
g70
NtRp2067
(dp2068
g73
(dp2069
g81
I3
ssg82
g2063
sg75
(lp2070
g1461
asbasbasbasbasbasbasbasbasbasbasbag68
(g84
g70
NtRp2071
(dp2072
g73
(dp2073
sg82
g78
sg75
(lp2074
g68
(g89
g70
NtRp2075
(dp2076
g73
(dp2077
g93
g94
ssg82
g2071
sg75
(lp2078
S'is_https'
p2079
asbag68
(g89
g70
NtRp2080
(dp2081
g73
(dp2082
g100
g101
ssg82
g2071
sg75
(lp2083
S':'
asbag68
(g89
g70
NtRp2084
(dp2085
g73
(dp2086
sg82
g2071
sg75
(lp2087
g68
(g69
g70
NtRp2088
(dp2089
g73
(dp2090
g81
I5
ssg82
g2084
sg75
(lp2091
g111
asbasbasbag68
(g84
g70
NtRp2092
(dp2093
g73
(dp2094
sg82
g78
sg75
(lp2095
g68
(g89
g70
NtRp2096
(dp2097
g73
(dp2098
g93
g94
ssg82
g2092
sg75
(lp2099
S'is_local'
p2100
asbag68
(g89
g70
NtRp2101
(dp2102
g73
(dp2103
g100
g101
ssg82
g2092
sg75
(lp2104
S':'
asbag68
(g89
g70
NtRp2105
(dp2106
g73
(dp2107
sg82
g2092
sg75
(lp2108
g68
(g69
g70
NtRp2109
(dp2110
g73
(dp2111
g81
I5
ssg82
g2105
sg75
(lp2112
g1570
asbasbasbag68
(g84
g70
NtRp2113
(dp2114
g73
(dp2115
sg82
g78
sg75
(lp2116
g68
(g89
g70
NtRp2117
(dp2118
g73
(dp2119
g93
g94
ssg82
g2113
sg75
(lp2120
S'is_restful'
p2121
asbag68
(g89
g70
NtRp2122
(dp2123
g73
(dp2124
g100
g101
ssg82
g2113
sg75
(lp2125
S':'
asbag68
(g89
g70
NtRp2126
(dp2127
g73
(dp2128
sg82
g2113
sg75
(lp2129
g68
(g69
g70
NtRp2130
(dp2131
g73
(dp2132
g81
I5
ssg82
g2126
sg75
(lp2133
g111
asbasbasbag68
(g84
g70
NtRp2134
(dp2135
g73
(dp2136
sg82
g78
sg75
(lp2137
g68
(g89
g70
NtRp2138
(dp2139
g73
(dp2140
g93
g94
ssg82
g2134
sg75
(lp2141
S'now'
p2142
asbag68
(g89
g70
NtRp2143
(dp2144
g73
(dp2145
g100
g101
ssg82
g2134
sg75
(lp2146
S':'
asbag68
(g89
g70
NtRp2147
(dp2148
g73
(dp2149
sg82
g2134
sg75
(lp2150
g68
(g69
g70
NtRp2151
(dp2152
g73
(dp2153
g81
I5
ssg82
g2147
sg75
(lp2154
S'datetime.datetime(2013, 11, 10, 18, 5, 31, 673383)'
p2155
asbasbasbag68
(g84
g70
NtRp2156
(dp2157
g73
(dp2158
sg82
g78
sg75
(lp2159
g68
(g89
g70
NtRp2160
(dp2161
g73
(dp2162
g93
g94
ssg82
g2156
sg75
(lp2163
S'post_vars'
p2164
asbag68
(g89
g70
NtRp2165
(dp2166
g73
(dp2167
g100
g101
ssg82
g2156
sg75
(lp2168
S':'
asbag68
(g89
g70
NtRp2169
(dp2170
g73
(dp2171
sg82
g2156
sg75
(lp2172
g68
(g69
g70
NtRp2173
(dp2174
g73
(dp2175
g81
I5
ssg82
g2169
sg75
(lp2176
g68
(g77
g70
NtRp2177
(dp2178
g73
(dp2179
g81
I4
ssg82
Nsg75
(lp2180
sbasbasbasbag68
(g84
g70
NtRp2181
(dp2182
g73
(dp2183
sg82
g78
sg75
(lp2184
g68
(g89
g70
NtRp2185
(dp2186
g73
(dp2187
g93
g94
ssg82
g2181
sg75
(lp2188
S'raw_args'
p2189
asbag68
(g89
g70
NtRp2190
(dp2191
g73
(dp2192
g100
g101
ssg82
g2181
sg75
(lp2193
S':'
asbag68
(g89
g70
NtRp2194
(dp2195
g73
(dp2196
sg82
g2181
sg75
(lp2197
g68
(g69
g70
NtRp2198
(dp2199
g73
(dp2200
g81
I5
ssg82
g2194
sg75
(lp2201
S'None'
p2202
asbasbasbag68
(g84
g70
NtRp2203
(dp2204
g73
(dp2205
sg82
g78
sg75
(lp2206
g68
(g89
g70
NtRp2207
(dp2208
g73
(dp2209
g93
g94
ssg82
g2203
sg75
(lp2210
S'raw_extension'
p2211
asbag68
(g89
g70
NtRp2212
(dp2213
g73
(dp2214
g100
g101
ssg82
g2203
sg75
(lp2215
S':'
asbag68
(g89
g70
NtRp2216
(dp2217
g73
(dp2218
sg82
g2203
sg75
(lp2219
g68
(g69
g70
NtRp2220
(dp2221
g73
(dp2222
g81
I5
ssg82
g2216
sg75
(lp2223
S'None'
p2224
asbasbasbag68
(g84
g70
NtRp2225
(dp2226
g73
(dp2227
sg82
g78
sg75
(lp2228
g68
(g89
g70
NtRp2229
(dp2230
g73
(dp2231
g93
g94
ssg82
g2225
sg75
(lp2232
S'url'
p2233
asbag68
(g89
g70
NtRp2234
(dp2235
g73
(dp2236
g100
g101
ssg82
g2225
sg75
(lp2237
S':'
asbag68
(g89
g70
NtRp2238
(dp2239
g73
(dp2240
sg82
g2225
sg75
(lp2241
g68
(g69
g70
NtRp2242
(dp2243
g73
(dp2244
g81
I5
ssg82
g2238
sg75
(lp2245
g1115
asbasbasbag68
(g84
g70
NtRp2246
(dp2247
g73
(dp2248
sg82
g78
sg75
(lp2249
g68
(g89
g70
NtRp2250
(dp2251
g73
(dp2252
g93
g94
ssg82
g2246
sg75
(lp2253
S'utcnow'
p2254
asbag68
(g89
g70
NtRp2255
(dp2256
g73
(dp2257
g100
g101
ssg82
g2246
sg75
(lp2258
S':'
asbag68
(g89
g70
NtRp2259
(dp2260
g73
(dp2261
sg82
g2246
sg75
(lp2262
g68
(g69
g70
NtRp2263
(dp2264
g73
(dp2265
g81
I5
ssg82
g2259
sg75
(lp2266
S'datetime.datetime(2013, 11, 10, 12, 35, 31, 673422)'
p2267
asbasbasbag68
(g84
g70
NtRp2268
(dp2269
g73
(dp2270
sg82
g78
sg75
(lp2271
g68
(g89
g70
NtRp2272
(dp2273
g73
(dp2274
g93
g94
ssg82
g2268
sg75
(lp2275
S'uuid'
p2276
asbag68
(g89
g70
NtRp2277
(dp2278
g73
(dp2279
g100
g101
ssg82
g2268
sg75
(lp2280
S':'
asbag68
(g89
g70
NtRp2281
(dp2282
g73
(dp2283
sg82
g2268
sg75
(lp2284
g68
(g69
g70
NtRp2285
(dp2286
g73
(dp2287
g81
I5
ssg82
g2281
sg75
(lp2288
S'FunkLoad/10.1.33.107.2013-11-10.18-05-31.3cf66ebc-ba1d-4d4f-a094-8c3d6e9ac83e'
p2289
asbasbasbag68
(g84
g70
NtRp2290
(dp2291
g73
(dp2292
sg82
g78
sg75
(lp2293
g68
(g89
g70
NtRp2294
(dp2295
g73
(dp2296
g93
g94
ssg82
g2290
sg75
(lp2297
S'vars'
p2298
asbag68
(g89
g70
NtRp2299
(dp2300
g73
(dp2301
g100
g101
ssg82
g2290
sg75
(lp2302
S':'
asbag68
(g89
g70
NtRp2303
(dp2304
g73
(dp2305
sg82
g2290
sg75
(lp2306
g68
(g69
g70
NtRp2307
(dp2308
g73
(dp2309
g81
I5
ssg82
g2303
sg75
(lp2310
g68
(g77
g70
NtRp2311
(dp2312
g73
(dp2313
g81
I4
ssg82
Nsg75
(lp2314
sbasbasbasbag68
(g84
g70
NtRp2315
(dp2316
g73
(dp2317
sg82
g78
sg75
(lp2318
g68
(g89
g70
NtRp2319
(dp2320
g73
(dp2321
g93
g94
ssg82
g2315
sg75
(lp2322
S'wsgi'
p2323
asbag68
(g89
g70
NtRp2324
(dp2325
g73
(dp2326
g100
g101
ssg82
g2315
sg75
(lp2327
S':'
asbag68
(g89
g70
NtRp2328
(dp2329
g73
(dp2330
sg82
g2315
sg75
(lp2331
g68
(g69
g70
NtRp2332
(dp2333
g73
(dp2334
g81
I5
ssg82
g2328
sg75
(lp2335
g68
(g77
g70
NtRp2336
(dp2337
g73
(dp2338
g81
I4
ssg82
Nsg75
(lp2339
g68
(g84
g70
NtRp2340
(dp2341
g73
(dp2342
sg82
g2336
sg75
(lp2343
g68
(g89
g70
NtRp2344
(dp2345
g73
(dp2346
g93
g94
ssg82
g2340
sg75
(lp2347
S'environ'
p2348
asbag68
(g89
g70
NtRp2349
(dp2350
g73
(dp2351
g100
g101
ssg82
g2340
sg75
(lp2352
S':'
asbag68
(g89
g70
NtRp2353
(dp2354
g73
(dp2355
sg82
g2340
sg75
(lp2356
g68
(g69
g70
NtRp2357
(dp2358
g73
(dp2359
g81
I4
ssg82
g2353
sg75
(lp2360
g68
(g77
g70
NtRp2361
(dp2362
g73
(dp2363
g81
I3
ssg82
Nsg75
(lp2364
g68
(g84
g70
NtRp2365
(dp2366
g73
(dp2367
sg82
g2361
sg75
(lp2368
g68
(g89
g70
NtRp2369
(dp2370
g73
(dp2371
g93
g94
ssg82
g2365
sg75
(lp2372
S'HTTP_ACCEPT'
p2373
asbag68
(g89
g70
NtRp2374
(dp2375
g73
(dp2376
g100
g101
ssg82
g2365
sg75
(lp2377
S':'
asbag68
(g89
g70
NtRp2378
(dp2379
g73
(dp2380
sg82
g2365
sg75
(lp2381
g68
(g69
g70
NtRp2382
(dp2383
g73
(dp2384
g81
I3
ssg82
g2378
sg75
(lp2385
g853
asbasbasbag68
(g84
g70
NtRp2386
(dp2387
g73
(dp2388
sg82
g2361
sg75
(lp2389
g68
(g89
g70
NtRp2390
(dp2391
g73
(dp2392
g93
g94
ssg82
g2386
sg75
(lp2393
S'HTTP_ACCEPT_ENCODING'
p2394
asbag68
(g89
g70
NtRp2395
(dp2396
g73
(dp2397
g100
g101
ssg82
g2386
sg75
(lp2398
S':'
asbag68
(g89
g70
NtRp2399
(dp2400
g73
(dp2401
sg82
g2386
sg75
(lp2402
g68
(g69
g70
NtRp2403
(dp2404
g73
(dp2405
g81
I3
ssg82
g2399
sg75
(lp2406
g875
asbasbasbag68
(g84
g70
NtRp2407
(dp2408
g73
(dp2409
sg82
g2361
sg75
(lp2410
g68
(g89
g70
NtRp2411
(dp2412
g73
(dp2413
g93
g94
ssg82
g2407
sg75
(lp2414
S'HTTP_ACCEPT_LANGUAGE'
p2415
asbag68
(g89
g70
NtRp2416
(dp2417
g73
(dp2418
g100
g101
ssg82
g2407
sg75
(lp2419
S':'
asbag68
(g89
g70
NtRp2420
(dp2421
g73
(dp2422
sg82
g2407
sg75
(lp2423
g68
(g69
g70
NtRp2424
(dp2425
g73
(dp2426
g81
I3
ssg82
g2420
sg75
(lp2427
g897
asbasbasbag68
(g84
g70
NtRp2428
(dp2429
g73
(dp2430
sg82
g2361
sg75
(lp2431
g68
(g89
g70
NtRp2432
(dp2433
g73
(dp2434
g93
g94
ssg82
g2428
sg75
(lp2435
S'HTTP_CACHE_CONTROL'
p2436
asbag68
(g89
g70
NtRp2437
(dp2438
g73
(dp2439
g100
g101
ssg82
g2428
sg75
(lp2440
S':'
asbag68
(g89
g70
NtRp2441
(dp2442
g73
(dp2443
sg82
g2428
sg75
(lp2444
g68
(g69
g70
NtRp2445
(dp2446
g73
(dp2447
g81
I3
ssg82
g2441
sg75
(lp2448
g919
asbasbasbag68
(g84
g70
NtRp2449
(dp2450
g73
(dp2451
sg82
g2361
sg75
(lp2452
g68
(g89
g70
NtRp2453
(dp2454
g73
(dp2455
g93
g94
ssg82
g2449
sg75
(lp2456
S'HTTP_CONNECTION'
p2457
asbag68
(g89
g70
NtRp2458
(dp2459
g73
(dp2460
g100
g101
ssg82
g2449
sg75
(lp2461
S':'
asbag68
(g89
g70
NtRp2462
(dp2463
g73
(dp2464
sg82
g2449
sg75
(lp2465
g68
(g69
g70
NtRp2466
(dp2467
g73
(dp2468
g81
I3
ssg82
g2462
sg75
(lp2469
g941
asbasbasbag68
(g84
g70
NtRp2470
(dp2471
g73
(dp2472
sg82
g2361
sg75
(lp2473
g68
(g89
g70
NtRp2474
(dp2475
g73
(dp2476
g93
g94
ssg82
g2470
sg75
(lp2477
S'HTTP_COOKIE'
p2478
asbag68
(g89
g70
NtRp2479
(dp2480
g73
(dp2481
g100
g101
ssg82
g2470
sg75
(lp2482
S':'
asbag68
(g89
g70
NtRp2483
(dp2484
g73
(dp2485
sg82
g2470
sg75
(lp2486
g68
(g69
g70
NtRp2487
(dp2488
g73
(dp2489
g81
I3
ssg82
g2483
sg75
(lp2490
g963
asbasbasbag68
(g84
g70
NtRp2491
(dp2492
g73
(dp2493
sg82
g2361
sg75
(lp2494
g68
(g89
g70
NtRp2495
(dp2496
g73
(dp2497
g93
g94
ssg82
g2491
sg75
(lp2498
S'HTTP_HOST'
p2499
asbag68
(g89
g70
NtRp2500
(dp2501
g73
(dp2502
g100
g101
ssg82
g2491
sg75
(lp2503
S':'
asbag68
(g89
g70
NtRp2504
(dp2505
g73
(dp2506
sg82
g2491
sg75
(lp2507
g68
(g69
g70
NtRp2508
(dp2509
g73
(dp2510
g81
I3
ssg82
g2504
sg75
(lp2511
g985
asbasbasbag68
(g84
g70
NtRp2512
(dp2513
g73
(dp2514
sg82
g2361
sg75
(lp2515
g68
(g89
g70
NtRp2516
(dp2517
g73
(dp2518
g93
g94
ssg82
g2512
sg75
(lp2519
S'HTTP_PRAGMA'
p2520
asbag68
(g89
g70
NtRp2521
(dp2522
g73
(dp2523
g100
g101
ssg82
g2512
sg75
(lp2524
S':'
asbag68
(g89
g70
NtRp2525
(dp2526
g73
(dp2527
sg82
g2512
sg75
(lp2528
g68
(g69
g70
NtRp2529
(dp2530
g73
(dp2531
g81
I3
ssg82
g2525
sg75
(lp2532
g1007
asbasbasbag68
(g84
g70
NtRp2533
(dp2534
g73
(dp2535
sg82
g2361
sg75
(lp2536
g68
(g89
g70
NtRp2537
(dp2538
g73
(dp2539
g93
g94
ssg82
g2533
sg75
(lp2540
S'HTTP_REFERER'
p2541
asbag68
(g89
g70
NtRp2542
(dp2543
g73
(dp2544
g100
g101
ssg82
g2533
sg75
(lp2545
S':'
asbag68
(g89
g70
NtRp2546
(dp2547
g73
(dp2548
sg82
g2533
sg75
(lp2549
g68
(g69
g70
NtRp2550
(dp2551
g73
(dp2552
g81
I3
ssg82
g2546
sg75
(lp2553
g1029
asbasbasbag68
(g84
g70
NtRp2554
(dp2555
g73
(dp2556
sg82
g2361
sg75
(lp2557
g68
(g89
g70
NtRp2558
(dp2559
g73
(dp2560
g93
g94
ssg82
g2554
sg75
(lp2561
S'HTTP_USER_AGENT'
p2562
asbag68
(g89
g70
NtRp2563
(dp2564
g73
(dp2565
g100
g101
ssg82
g2554
sg75
(lp2566
S':'
asbag68
(g89
g70
NtRp2567
(dp2568
g73
(dp2569
sg82
g2554
sg75
(lp2570
g68
(g69
g70
NtRp2571
(dp2572
g73
(dp2573
g81
I3
ssg82
g2567
sg75
(lp2574
g1051
asbasbasbag68
(g84
g70
NtRp2575
(dp2576
g73
(dp2577
sg82
g2361
sg75
(lp2578
g68
(g89
g70
NtRp2579
(dp2580
g73
(dp2581
g93
g94
ssg82
g2575
sg75
(lp2582
S'PATH_INFO'
p2583
asbag68
(g89
g70
NtRp2584
(dp2585
g73
(dp2586
g100
g101
ssg82
g2575
sg75
(lp2587
S':'
asbag68
(g89
g70
NtRp2588
(dp2589
g73
(dp2590
sg82
g2575
sg75
(lp2591
g68
(g69
g70
NtRp2592
(dp2593
g73
(dp2594
g81
I3
ssg82
g2588
sg75
(lp2595
g1115
asbasbasbag68
(g84
g70
NtRp2596
(dp2597
g73
(dp2598
sg82
g2361
sg75
(lp2599
g68
(g89
g70
NtRp2600
(dp2601
g73
(dp2602
g93
g94
ssg82
g2596
sg75
(lp2603
S'QUERY_STRING'
p2604
asbag68
(g89
g70
NtRp2605
(dp2606
g73
(dp2607
g100
g101
ssg82
g2596
sg75
(lp2608
S':'
asbag68
(g89
g70
NtRp2609
(dp2610
g73
(dp2611
sg82
g2596
sg75
(lp2612
g68
(g69
g70
NtRp2613
(dp2614
g73
(dp2615
g81
I3
ssg82
g2609
sg75
(lp2616
S''
asbasbasbag68
(g84
g70
NtRp2617
(dp2618
g73
(dp2619
sg82
g2361
sg75
(lp2620
g68
(g89
g70
NtRp2621
(dp2622
g73
(dp2623
g93
g94
ssg82
g2617
sg75
(lp2624
S'REMOTE_ADDR'
p2625
asbag68
(g89
g70
NtRp2626
(dp2627
g73
(dp2628
g100
g101
ssg82
g2617
sg75
(lp2629
S':'
asbag68
(g89
g70
NtRp2630
(dp2631
g73
(dp2632
sg82
g2617
sg75
(lp2633
g68
(g69
g70
NtRp2634
(dp2635
g73
(dp2636
g81
I3
ssg82
g2630
sg75
(lp2637
g223
asbasbasbag68
(g84
g70
NtRp2638
(dp2639
g73
(dp2640
sg82
g2361
sg75
(lp2641
g68
(g89
g70
NtRp2642
(dp2643
g73
(dp2644
g93
g94
ssg82
g2638
sg75
(lp2645
S'REMOTE_PORT'
p2646
asbag68
(g89
g70
NtRp2647
(dp2648
g73
(dp2649
g100
g101
ssg82
g2638
sg75
(lp2650
S':'
asbag68
(g89
g70
NtRp2651
(dp2652
g73
(dp2653
sg82
g2638
sg75
(lp2654
g68
(g69
g70
NtRp2655
(dp2656
g73
(dp2657
g81
I3
ssg82
g2651
sg75
(lp2658
g1179
asbasbasbag68
(g84
g70
NtRp2659
(dp2660
g73
(dp2661
sg82
g2361
sg75
(lp2662
g68
(g89
g70
NtRp2663
(dp2664
g73
(dp2665
g93
g94
ssg82
g2659
sg75
(lp2666
S'REQUEST_METHOD'
p2667
asbag68
(g89
g70
NtRp2668
(dp2669
g73
(dp2670
g100
g101
ssg82
g2659
sg75
(lp2671
S':'
asbag68
(g89
g70
NtRp2672
(dp2673
g73
(dp2674
sg82
g2659
sg75
(lp2675
g68
(g69
g70
NtRp2676
(dp2677
g73
(dp2678
g81
I3
ssg82
g2672
sg75
(lp2679
g1201
asbasbasbag68
(g84
g70
NtRp2680
(dp2681
g73
(dp2682
sg82
g2361
sg75
(lp2683
g68
(g89
g70
NtRp2684
(dp2685
g73
(dp2686
g93
g94
ssg82
g2680
sg75
(lp2687
S'REQUEST_URI'
p2688
asbag68
(g89
g70
NtRp2689
(dp2690
g73
(dp2691
g100
g101
ssg82
g2680
sg75
(lp2692
S':'
asbag68
(g89
g70
NtRp2693
(dp2694
g73
(dp2695
sg82
g2680
sg75
(lp2696
g68
(g69
g70
NtRp2697
(dp2698
g73
(dp2699
g81
I3
ssg82
g2693
sg75
(lp2700
g1115
asbasbasbag68
(g84
g70
NtRp2701
(dp2702
g73
(dp2703
sg82
g2361
sg75
(lp2704
g68
(g89
g70
NtRp2705
(dp2706
g73
(dp2707
g93
g94
ssg82
g2701
sg75
(lp2708
S'SCRIPT_NAME'
p2709
asbag68
(g89
g70
NtRp2710
(dp2711
g73
(dp2712
g100
g101
ssg82
g2701
sg75
(lp2713
S':'
asbag68
(g89
g70
NtRp2714
(dp2715
g73
(dp2716
sg82
g2701
sg75
(lp2717
g68
(g69
g70
NtRp2718
(dp2719
g73
(dp2720
g81
I3
ssg82
g2714
sg75
(lp2721
S''
asbasbasbag68
(g84
g70
NtRp2722
(dp2723
g73
(dp2724
sg82
g2361
sg75
(lp2725
g68
(g89
g70
NtRp2726
(dp2727
g73
(dp2728
g93
g94
ssg82
g2722
sg75
(lp2729
S'SERVER_NAME'
p2730
asbag68
(g89
g70
NtRp2731
(dp2732
g73
(dp2733
g100
g101
ssg82
g2722
sg75
(lp2734
S':'
asbag68
(g89
g70
NtRp2735
(dp2736
g73
(dp2737
sg82
g2722
sg75
(lp2738
g68
(g69
g70
NtRp2739
(dp2740
g73
(dp2741
g81
I3
ssg82
g2735
sg75
(lp2742
g1265
asbasbasbag68
(g84
g70
NtRp2743
(dp2744
g73
(dp2745
sg82
g2361
sg75
(lp2746
g68
(g89
g70
NtRp2747
(dp2748
g73
(dp2749
g93
g94
ssg82
g2743
sg75
(lp2750
S'SERVER_PORT'
p2751
asbag68
(g89
g70
NtRp2752
(dp2753
g73
(dp2754
g100
g101
ssg82
g2743
sg75
(lp2755
S':'
asbag68
(g89
g70
NtRp2756
(dp2757
g73
(dp2758
sg82
g2743
sg75
(lp2759
g68
(g69
g70
NtRp2760
(dp2761
g73
(dp2762
g81
I3
ssg82
g2756
sg75
(lp2763
g1287
asbasbasbag68
(g84
g70
NtRp2764
(dp2765
g73
(dp2766
sg82
g2361
sg75
(lp2767
g68
(g89
g70
NtRp2768
(dp2769
g73
(dp2770
g93
g94
ssg82
g2764
sg75
(lp2771
S'SERVER_PROTOCOL'
p2772
asbag68
(g89
g70
NtRp2773
(dp2774
g73
(dp2775
g100
g101
ssg82
g2764
sg75
(lp2776
S':'
asbag68
(g89
g70
NtRp2777
(dp2778
g73
(dp2779
sg82
g2764
sg75
(lp2780
g68
(g69
g70
NtRp2781
(dp2782
g73
(dp2783
g81
I3
ssg82
g2777
sg75
(lp2784
g1309
asbasbasbag68
(g84
g70
NtRp2785
(dp2786
g73
(dp2787
sg82
g2361
sg75
(lp2788
g68
(g89
g70
NtRp2789
(dp2790
g73
(dp2791
g93
g94
ssg82
g2785
sg75
(lp2792
S'SERVER_SOFTWARE'
p2793
asbag68
(g89
g70
NtRp2794
(dp2795
g73
(dp2796
g100
g101
ssg82
g2785
sg75
(lp2797
S':'
asbag68
(g89
g70
NtRp2798
(dp2799
g73
(dp2800
sg82
g2785
sg75
(lp2801
g68
(g69
g70
NtRp2802
(dp2803
g73
(dp2804
g81
I3
ssg82
g2798
sg75
(lp2805
g1331
asbasbasbag68
(g84
g70
NtRp2806
(dp2807
g73
(dp2808
sg82
g2361
sg75
(lp2809
g68
(g89
g70
NtRp2810
(dp2811
g73
(dp2812
g93
g94
ssg82
g2806
sg75
(lp2813
S'wsgi.errors'
p2814
asbag68
(g89
g70
NtRp2815
(dp2816
g73
(dp2817
g100
g101
ssg82
g2806
sg75
(lp2818
S':'
asbag68
(g89
g70
NtRp2819
(dp2820
g73
(dp2821
sg82
g2806
sg75
(lp2822
g68
(g69
g70
NtRp2823
(dp2824
g73
(dp2825
g81
I3
ssg82
g2819
sg75
(lp2826
S"<open file '<stderr>', mode 'w' at 0x7f7b39bf91e0>"
p2827
asbasbasbag68
(g84
g70
NtRp2828
(dp2829
g73
(dp2830
sg82
g2361
sg75
(lp2831
g68
(g89
g70
NtRp2832
(dp2833
g73
(dp2834
g93
g94
ssg82
g2828
sg75
(lp2835
S'wsgi.file_wrapper'
p2836
asbag68
(g89
g70
NtRp2837
(dp2838
g73
(dp2839
g100
g101
ssg82
g2828
sg75
(lp2840
S':'
asbag68
(g89
g70
NtRp2841
(dp2842
g73
(dp2843
sg82
g2828
sg75
(lp2844
g68
(g69
g70
NtRp2845
(dp2846
g73
(dp2847
g81
I3
ssg82
g2841
sg75
(lp2848
S'<class wsgiref.util.FileWrapper at 0x2756f58>'
p2849
asbasbasbag68
(g84
g70
NtRp2850
(dp2851
g73
(dp2852
sg82
g2361
sg75
(lp2853
g68
(g89
g70
NtRp2854
(dp2855
g73
(dp2856
g93
g94
ssg82
g2850
sg75
(lp2857
S'wsgi.input'
p2858
asbag68
(g89
g70
NtRp2859
(dp2860
g73
(dp2861
g100
g101
ssg82
g2850
sg75
(lp2862
S':'
asbag68
(g89
g70
NtRp2863
(dp2864
g73
(dp2865
sg82
g2850
sg75
(lp2866
g68
(g69
g70
NtRp2867
(dp2868
g73
(dp2869
g81
I3
ssg82
g2863
sg75
(lp2870
S'<cStringIO.StringO object at 0x7f7a5445aa08>'
p2871
asbasbasbag68
(g84
g70
NtRp2872
(dp2873
g73
(dp2874
sg82
g2361
sg75
(lp2875
g68
(g89
g70
NtRp2876
(dp2877
g73
(dp2878
g93
g94
ssg82
g2872
sg75
(lp2879
S'wsgi.multiprocess'
p2880
asbag68
(g89
g70
NtRp2881
(dp2882
g73
(dp2883
g100
g101
ssg82
g2872
sg75
(lp2884
S':'
asbag68
(g89
g70
NtRp2885
(dp2886
g73
(dp2887
sg82
g2872
sg75
(lp2888
g68
(g69
g70
NtRp2889
(dp2890
g73
(dp2891
g81
I3
ssg82
g2885
sg75
(lp2892
g111
asbasbasbag68
(g84
g70
NtRp2893
(dp2894
g73
(dp2895
sg82
g2361
sg75
(lp2896
g68
(g89
g70
NtRp2897
(dp2898
g73
(dp2899
g93
g94
ssg82
g2893
sg75
(lp2900
S'wsgi.multithread'
p2901
asbag68
(g89
g70
NtRp2902
(dp2903
g73
(dp2904
g100
g101
ssg82
g2893
sg75
(lp2905
S':'
asbag68
(g89
g70
NtRp2906
(dp2907
g73
(dp2908
sg82
g2893
sg75
(lp2909
g68
(g69
g70
NtRp2910
(dp2911
g73
(dp2912
g81
I3
ssg82
g2906
sg75
(lp2913
g1570
asbasbasbag68
(g84
g70
NtRp2914
(dp2915
g73
(dp2916
sg82
g2361
sg75
(lp2917
g68
(g89
g70
NtRp2918
(dp2919
g73
(dp2920
g93
g94
ssg82
g2914
sg75
(lp2921
S'wsgi.run_once'
p2922
asbag68
(g89
g70
NtRp2923
(dp2924
g73
(dp2925
g100
g101
ssg82
g2914
sg75
(lp2926
S':'
asbag68
(g89
g70
NtRp2927
(dp2928
g73
(dp2929
sg82
g2914
sg75
(lp2930
g68
(g69
g70
NtRp2931
(dp2932
g73
(dp2933
g81
I3
ssg82
g2927
sg75
(lp2934
g111
asbasbasbag68
(g84
g70
NtRp2935
(dp2936
g73
(dp2937
sg82
g2361
sg75
(lp2938
g68
(g89
g70
NtRp2939
(dp2940
g73
(dp2941
g93
g94
ssg82
g2935
sg75
(lp2942
S'wsgi.url_scheme'
p2943
asbag68
(g89
g70
NtRp2944
(dp2945
g73
(dp2946
g100
g101
ssg82
g2935
sg75
(lp2947
S':'
asbag68
(g89
g70
NtRp2948
(dp2949
g73
(dp2950
sg82
g2935
sg75
(lp2951
g68
(g69
g70
NtRp2952
(dp2953
g73
(dp2954
g81
I3
ssg82
g2948
sg75
(lp2955
g1613
asbasbasbag68
(g84
g70
NtRp2956
(dp2957
g73
(dp2958
sg82
g2361
sg75
(lp2959
g68
(g89
g70
NtRp2960
(dp2961
g73
(dp2962
g93
g94
ssg82
g2956
sg75
(lp2963
S'wsgi.version'
p2964
asbag68
(g89
g70
NtRp2965
(dp2966
g73
(dp2967
g100
g101
ssg82
g2956
sg75
(lp2968
S':'
asbag68
(g89
g70
NtRp2969
(dp2970
g73
(dp2971
sg82
g2956
sg75
(lp2972
g68
(g69
g70
NtRp2973
(dp2974
g73
(dp2975
g81
I3
ssg82
g2969
sg75
(lp2976
S'1'
asbasbasbasbasbasbasbasbasbasbasbasbasbsS'frames'
p2977
(lp2978
(dp2979
S'file'
p2980
S'/home/mayank/Desktop/web2pyAdmin/web2py/web2py/gluon/restricted.py'
p2981
sS'dump'
p2982
(dp2983
S'code'
p2984
S"'# -*- coding: utf-8 -*-\\n\\n#######################...ble auditing\\n# auth.enable_record_versioning(db)\\n'"
p2985
sS'layer'
p2986
S"'/home/mayank/Desktop/web2pyAdmin/web2py/web2py/applications/FunkLoad/models/db.py'"
p2987
sS'global compile2'
p2988
S'<function compile2>'
p2989
sS'ccode'
p2990
S'undefined'
p2991
ssS'lnum'
p2992
I208
sS'lines'
p2993
(dp2994
I203
S"    environment['__name__'] = '__restricted__'"
p2995
sI204
S'    try:'
p2996
sI205
S'        if type(code) == types.CodeType:'
p2997
sI206
S'            ccode = code'
p2998
sI207
S'        else:'
p2999
sI208
S'            ccode = compile2(code,layer)'
p3000
sI209
S'        exec ccode in environment'
p3001
sI210
S'    except HTTP:'
p3002
sI211
S'        raise'
p3003
sI212
S'    except RestrictedError:'
p3004
ssS'call'
p3005
S"(code='# -*- coding: utf-8 -*-\\n\\n#######################...ble auditing\\n# auth.enable_record_versioning(db)\\n', environment={'A': <class 'gluon.html.A'>, 'B': <class 'gluon.html.B'>, 'BEAUTIFY': <class 'gluon.html.BEAUTIFY'>, 'BODY': <class 'gluon.html.BODY'>, 'BR': <class 'gluon.html.BR'>, 'BUTTON': <class 'gluon.html.BUTTON'>, 'CAT': <class 'gluon.html.CAT'>, 'CENTER': <class 'gluon.html.CENTER'>, 'CLEANUP': <class 'gluon.validators.CLEANUP'>, 'CODE': <class 'gluon.html.CODE'>, ...}, layer='/home/mayank/Desktop/web2pyAdmin/web2py/web2py/applications/FunkLoad/models/db.py')"
p3006
sS'func'
p3007
S'restricted'
p3008
sa(dp3009
g2980
S'/home/mayank/Desktop/web2pyAdmin/web2py/web2py/gluon/restricted.py'
p3010
sg2982
(dp3011
S'builtincompile'
p3012
S'<built-in function compile>'
p3013
sS'code'
p3014
S"'# -*- coding: utf-8 -*-\\n\\n#######################...ble auditing\\n# auth.enable_record_versioning(db)\\n'"
p3015
sS'code.rstrip'
p3016
S'<built-in method rstrip of str object>'
p3017
sS').replace'
p3018
g2991
sS'layer'
p3019
S"'/home/mayank/Desktop/web2pyAdmin/web2py/web2py/applications/FunkLoad/models/db.py'"
p3020
ssg2992
I193
sg2993
(dp3021
I192
S'    """'
p3022
sI193
S"    return compile(code.rstrip().replace('\\r\\n','\\n')+'\\n', layer, 'exec')"
p3023
sI194
S''
sI195
S"def restricted(code, environment=None, layer='Unknown'):"
p3024
sI196
S'    """'
p3025
sI197
S'    runs code in environment and returns the output. if an exception occurs'
p3026
sI188
S''
sI189
S'def compile2(code,layer):'
p3027
sI190
S'    """'
p3028
sI191
S"    The +'\\n' is necessary else compile fails when code ends in a comment."
p3029
ssg3005
S"(code='# -*- coding: utf-8 -*-\\n\\n#######################...ble auditing\\n# auth.enable_record_versioning(db)\\n', layer='/home/mayank/Desktop/web2pyAdmin/web2py/web2py/applications/FunkLoad/models/db.py')"
p3030
sg3007
S'compile2'
p3031
sasS'pyver'
p3032
S'Python 2.7.4: /usr/bin/python'
p3033
sS'session'
p3034
g68
(g69
g70
NtRp3035
(dp3036
g73
(dp3037
sg75
(lp3038
g68
(g77
g70
NtRp3039
(dp3040
g73
(dp3041
g81
I5
ssg82
Nsg75
(lp3042
g68
(g84
g70
NtRp3043
(dp3044
g73
(dp3045
sg82
g3039
sg75
(lp3046
g68
(g89
g70
NtRp3047
(dp3048
g73
(dp3049
g93
g94
ssg82
g3043
sg75
(lp3050
S'auth'
p3051
asbag68
(g89
g70
NtRp3052
(dp3053
g73
(dp3054
g100
g101
ssg82
g3043
sg75
(lp3055
S':'
asbag68
(g89
g70
NtRp3056
(dp3057
g73
(dp3058
sg82
g3043
sg75
(lp3059
g68
(g69
g70
NtRp3060
(dp3061
g73
(dp3062
g81
I5
ssg82
g3056
sg75
(lp3063
g68
(g77
g70
NtRp3064
(dp3065
g73
(dp3066
g81
I4
ssg82
Nsg75
(lp3067
g68
(g84
g70
NtRp3068
(dp3069
g73
(dp3070
sg82
g3064
sg75
(lp3071
g68
(g89
g70
NtRp3072
(dp3073
g73
(dp3074
g93
g94
ssg82
g3068
sg75
(lp3075
S'expiration'
p3076
asbag68
(g89
g70
NtRp3077
(dp3078
g73
(dp3079
g100
g101
ssg82
g3068
sg75
(lp3080
S':'
asbag68
(g89
g70
NtRp3081
(dp3082
g73
(dp3083
sg82
g3068
sg75
(lp3084
g68
(g69
g70
NtRp3085
(dp3086
g73
(dp3087
g81
I4
ssg82
g3081
sg75
(lp3088
S'3600'
p3089
asbasbasbag68
(g84
g70
NtRp3090
(dp3091
g73
(dp3092
sg82
g3064
sg75
(lp3093
g68
(g89
g70
NtRp3094
(dp3095
g73
(dp3096
g93
g94
ssg82
g3090
sg75
(lp3097
S'hmac_key'
p3098
asbag68
(g89
g70
NtRp3099
(dp3100
g73
(dp3101
g100
g101
ssg82
g3090
sg75
(lp3102
S':'
asbag68
(g89
g70
NtRp3103
(dp3104
g73
(dp3105
sg82
g3090
sg75
(lp3106
g68
(g69
g70
NtRp3107
(dp3108
g73
(dp3109
g81
I4
ssg82
g3103
sg75
(lp3110
S'f35ec030-e176-482c-996c-223295ef3acc'
p3111
asbasbasbag68
(g84
g70
NtRp3112
(dp3113
g73
(dp3114
sg82
g3064
sg75
(lp3115
g68
(g89
g70
NtRp3116
(dp3117
g73
(dp3118
g93
g94
ssg82
g3112
sg75
(lp3119
S'last_visit'
p3120
asbag68
(g89
g70
NtRp3121
(dp3122
g73
(dp3123
g100
g101
ssg82
g3112
sg75
(lp3124
S':'
asbag68
(g89
g70
NtRp3125
(dp3126
g73
(dp3127
sg82
g3112
sg75
(lp3128
g68
(g69
g70
NtRp3129
(dp3130
g73
(dp3131
g81
I4
ssg82
g3125
sg75
(lp3132
S'datetime.datetime(2013, 11, 10, 17, 52, 47, 293476)'
p3133
asbasbasbag68
(g84
g70
NtRp3134
(dp3135
g73
(dp3136
sg82
g3064
sg75
(lp3137
g68
(g89
g70
NtRp3138
(dp3139
g73
(dp3140
g93
g94
ssg82
g3134
sg75
(lp3141
S'remember'
p3142
asbag68
(g89
g70
NtRp3143
(dp3144
g73
(dp3145
g100
g101
ssg82
g3134
sg75
(lp3146
S':'
asbag68
(g89
g70
NtRp3147
(dp3148
g73
(dp3149
sg82
g3134
sg75
(lp3150
g68
(g69
g70
NtRp3151
(dp3152
g73
(dp3153
g81
I4
ssg82
g3147
sg75
(lp3154
g111
asbasbasbag68
(g84
g70
NtRp3155
(dp3156
g73
(dp3157
sg82
g3064
sg75
(lp3158
g68
(g89
g70
NtRp3159
(dp3160
g73
(dp3161
g93
g94
ssg82
g3155
sg75
(lp3162
S'user'
p3163
asbag68
(g89
g70
NtRp3164
(dp3165
g73
(dp3166
g100
g101
ssg82
g3155
sg75
(lp3167
S':'
asbag68
(g89
g70
NtRp3168
(dp3169
g73
(dp3170
sg82
g3155
sg75
(lp3171
g68
(g69
g70
NtRp3172
(dp3173
g73
(dp3174
g81
I4
ssg82
g3168
sg75
(lp3175
g68
(g77
g70
NtRp3176
(dp3177
g73
(dp3178
g81
I3
ssg82
Nsg75
(lp3179
g68
(g84
g70
NtRp3180
(dp3181
g73
(dp3182
sg82
g3176
sg75
(lp3183
g68
(g89
g70
NtRp3184
(dp3185
g73
(dp3186
g93
g94
ssg82
g3180
sg75
(lp3187
S'email'
p3188
asbag68
(g89
g70
NtRp3189
(dp3190
g73
(dp3191
g100
g101
ssg82
g3180
sg75
(lp3192
S':'
asbag68
(g89
g70
NtRp3193
(dp3194
g73
(dp3195
sg82
g3180
sg75
(lp3196
g68
(g69
g70
NtRp3197
(dp3198
g73
(dp3199
g81
I3
ssg82
g3193
sg75
(lp3200
S'mayank.g@students.iiit.ac.in'
p3201
asbasbasbag68
(g84
g70
NtRp3202
(dp3203
g73
(dp3204
sg82
g3176
sg75
(lp3205
g68
(g89
g70
NtRp3206
(dp3207
g73
(dp3208
g93
g94
ssg82
g3202
sg75
(lp3209
S'first_name'
p3210
asbag68
(g89
g70
NtRp3211
(dp3212
g73
(dp3213
g100
g101
ssg82
g3202
sg75
(lp3214
S':'
asbag68
(g89
g70
NtRp3215
(dp3216
g73
(dp3217
sg82
g3202
sg75
(lp3218
g68
(g69
g70
NtRp3219
(dp3220
g73
(dp3221
g81
I3
ssg82
g3215
sg75
(lp3222
S'Mayank'
p3223
asbasbasbag68
(g84
g70
NtRp3224
(dp3225
g73
(dp3226
sg82
g3176
sg75
(lp3227
g68
(g89
g70
NtRp3228
(dp3229
g73
(dp3230
g93
g94
ssg82
g3224
sg75
(lp3231
S'id'
p3232
asbag68
(g89
g70
NtRp3233
(dp3234
g73
(dp3235
g100
g101
ssg82
g3224
sg75
(lp3236
S':'
asbag68
(g89
g70
NtRp3237
(dp3238
g73
(dp3239
sg82
g3224
sg75
(lp3240
g68
(g69
g70
NtRp3241
(dp3242
g73
(dp3243
g81
I3
ssg82
g3237
sg75
(lp3244
S'1'
asbasbasbag68
(g84
g70
NtRp3245
(dp3246
g73
(dp3247
sg82
g3176
sg75
(lp3248
g68
(g89
g70
NtRp3249
(dp3250
g73
(dp3251
g93
g94
ssg82
g3245
sg75
(lp3252
S'last_name'
p3253
asbag68
(g89
g70
NtRp3254
(dp3255
g73
(dp3256
g100
g101
ssg82
g3245
sg75
(lp3257
S':'
asbag68
(g89
g70
NtRp3258
(dp3259
g73
(dp3260
sg82
g3245
sg75
(lp3261
g68
(g69
g70
NtRp3262
(dp3263
g73
(dp3264
g81
I3
ssg82
g3258
sg75
(lp3265
S'Gupta'
p3266
asbasbasbag68
(g84
g70
NtRp3267
(dp3268
g73
(dp3269
sg82
g3176
sg75
(lp3270
g68
(g89
g70
NtRp3271
(dp3272
g73
(dp3273
g93
g94
ssg82
g3267
sg75
(lp3274
S'password'
p3275
asbag68
(g89
g70
NtRp3276
(dp3277
g73
(dp3278
g100
g101
ssg82
g3267
sg75
(lp3279
S':'
asbag68
(g89
g70
NtRp3280
(dp3281
g73
(dp3282
sg82
g3267
sg75
(lp3283
g68
(g69
g70
NtRp3284
(dp3285
g73
(dp3286
g81
I3
ssg82
g3280
sg75
(lp3287
S'pbkdf2(1000,20,sha512)$a496878cc8b951c5$137e42454abf6cff232aebcc4f0c3801419a78ac'
p3288
asbasbasbag68
(g84
g70
NtRp3289
(dp3290
g73
(dp3291
sg82
g3176
sg75
(lp3292
g68
(g89
g70
NtRp3293
(dp3294
g73
(dp3295
g93
g94
ssg82
g3289
sg75
(lp3296
S'registration_id'
p3297
asbag68
(g89
g70
NtRp3298
(dp3299
g73
(dp3300
g100
g101
ssg82
g3289
sg75
(lp3301
S':'
asbag68
(g89
g70
NtRp3302
(dp3303
g73
(dp3304
sg82
g3289
sg75
(lp3305
g68
(g69
g70
NtRp3306
(dp3307
g73
(dp3308
g81
I3
ssg82
g3302
sg75
(lp3309
S''
asbasbasbag68
(g84
g70
NtRp3310
(dp3311
g73
(dp3312
sg82
g3176
sg75
(lp3313
g68
(g89
g70
NtRp3314
(dp3315
g73
(dp3316
g93
g94
ssg82
g3310
sg75
(lp3317
S'registration_key'
p3318
asbag68
(g89
g70
NtRp3319
(dp3320
g73
(dp3321
g100
g101
ssg82
g3310
sg75
(lp3322
S':'
asbag68
(g89
g70
NtRp3323
(dp3324
g73
(dp3325
sg82
g3310
sg75
(lp3326
g68
(g69
g70
NtRp3327
(dp3328
g73
(dp3329
g81
I3
ssg82
g3323
sg75
(lp3330
S''
asbasbasbag68
(g84
g70
NtRp3331
(dp3332
g73
(dp3333
sg82
g3176
sg75
(lp3334
g68
(g89
g70
NtRp3335
(dp3336
g73
(dp3337
g93
g94
ssg82
g3331
sg75
(lp3338
S'reset_password_key'
p3339
asbag68
(g89
g70
NtRp3340
(dp3341
g73
(dp3342
g100
g101
ssg82
g3331
sg75
(lp3343
S':'
asbag68
(g89
g70
NtRp3344
(dp3345
g73
(dp3346
sg82
g3331
sg75
(lp3347
g68
(g69
g70
NtRp3348
(dp3349
g73
(dp3350
g81
I3
ssg82
g3344
sg75
(lp3351
S''
asbasbasbasbasbasbasbag68
(g84
g70
NtRp3352
(dp3353
g73
(dp3354
sg82
g3064
sg75
(lp3355
g68
(g89
g70
NtRp3356
(dp3357
g73
(dp3358
g93
g94
ssg82
g3352
sg75
(lp3359
S'user_groups'
p3360
asbag68
(g89
g70
NtRp3361
(dp3362
g73
(dp3363
g100
g101
ssg82
g3352
sg75
(lp3364
S':'
asbag68
(g89
g70
NtRp3365
(dp3366
g73
(dp3367
sg82
g3352
sg75
(lp3368
g68
(g69
g70
NtRp3369
(dp3370
g73
(dp3371
g81
I4
ssg82
g3365
sg75
(lp3372
g68
(g77
g70
NtRp3373
(dp3374
g73
(dp3375
g81
I3
ssg82
Nsg75
(lp3376
g68
(g84
g70
NtRp3377
(dp3378
g73
(dp3379
sg82
g3373
sg75
(lp3380
g68
(g89
g70
NtRp3381
(dp3382
g73
(dp3383
g93
g94
ssg82
g3377
sg75
(lp3384
S'1'
asbag68
(g89
g70
NtRp3385
(dp3386
g73
(dp3387
g100
g101
ssg82
g3377
sg75
(lp3388
S':'
asbag68
(g89
g70
NtRp3389
(dp3390
g73
(dp3391
sg82
g3377
sg75
(lp3392
g68
(g69
g70
NtRp3393
(dp3394
g73
(dp3395
g81
I3
ssg82
g3389
sg75
(lp3396
S'user_1'
p3397
asbasbasbasbasbasbasbasbasbasbasbag68
(g84
g70
NtRp3398
(dp3399
g73
(dp3400
sg82
g3039
sg75
(lp3401
g68
(g89
g70
NtRp3402
(dp3403
g73
(dp3404
g93
g94
ssg82
g3398
sg75
(lp3405
S'flash'
p3406
asbag68
(g89
g70
NtRp3407
(dp3408
g73
(dp3409
g100
g101
ssg82
g3398
sg75
(lp3410
S':'
asbag68
(g89
g70
NtRp3411
(dp3412
g73
(dp3413
sg82
g3398
sg75
(lp3414
g68
(g69
g70
NtRp3415
(dp3416
g73
(dp3417
g81
I5
ssg82
g3411
sg75
(lp3418
S'None'
p3419
asbasbasbasbasbsS'etype'
p3420
S"<type 'exceptions.SyntaxError'>"
p3421
sS'date'
p3422
S'Sun Nov 10 18:05:31 2013'
p3423
sS'response'
p3424
g68
(g69
g70
NtRp3425
(dp3426
g73
(dp3427
sg75
(lp3428
g68
(g77
g70
NtRp3429
(dp3430
g73
(dp3431
g81
I5
ssg82
Nsg75
(lp3432
g68
(g84
g70
NtRp3433
(dp3434
g73
(dp3435
sg82
g3429
sg75
(lp3436
g68
(g89
g70
NtRp3437
(dp3438
g73
(dp3439
g93
g94
ssg82
g3433
sg75
(lp3440
g166
asbag68
(g89
g70
NtRp3441
(dp3442
g73
(dp3443
g100
g101
ssg82
g3433
sg75
(lp3444
S':'
asbag68
(g89
g70
NtRp3445
(dp3446
g73
(dp3447
sg82
g3433
sg75
(lp3448
g68
(g69
g70
NtRp3449
(dp3450
g73
(dp3451
g81
I5
ssg82
g3445
sg75
(lp3452
S'<cStringIO.StringO object at 0x7f7a6818f6c0>'
p3453
asbasbasbag68
(g84
g70
NtRp3454
(dp3455
g73
(dp3456
sg82
g3429
sg75
(lp3457
g68
(g89
g70
NtRp3458
(dp3459
g73
(dp3460
g93
g94
ssg82
g3454
sg75
(lp3461
g254
asbag68
(g89
g70
NtRp3462
(dp3463
g73
(dp3464
g100
g101
ssg82
g3454
sg75
(lp3465
S':'
asbag68
(g89
g70
NtRp3466
(dp3467
g73
(dp3468
sg82
g3454
sg75
(lp3469
g68
(g69
g70
NtRp3470
(dp3471
g73
(dp3472
g81
I5
ssg82
g3466
sg75
(lp3473
g68
(g77
g70
NtRp3474
(dp3475
g73
(dp3476
g81
I4
ssg82
Nsg75
(lp3477
g68
(g84
g70
NtRp3478
(dp3479
g73
(dp3480
sg82
g3474
sg75
(lp3481
g68
(g89
g70
NtRp3482
(dp3483
g73
(dp3484
g93
g94
ssg82
g3478
sg75
(lp3485
S'session_id_funkload'
p3486
asbag68
(g89
g70
NtRp3487
(dp3488
g73
(dp3489
g100
g101
ssg82
g3478
sg75
(lp3490
S':'
asbag68
(g89
g70
NtRp3491
(dp3492
g73
(dp3493
sg82
g3478
sg75
(lp3494
g68
(g69
g70
NtRp3495
(dp3496
g73
(dp3497
g81
I4
ssg82
g3491
sg75
(lp3498
g486
ag68
(g77
g70
NtRp3499
(dp3500
g73
(dp3501
g81
I3
ssg82
Nsg75
(lp3502
g68
(g84
g70
NtRp3503
(dp3504
g73
(dp3505
sg82
g3499
sg75
(lp3506
g68
(g89
g70
NtRp3507
(dp3508
g73
(dp3509
g93
g94
ssg82
g3503
sg75
(lp3510
g305
asbag68
(g89
g70
NtRp3511
(dp3512
g73
(dp3513
g100
g101
ssg82
g3503
sg75
(lp3514
S':'
asbag68
(g89
g70
NtRp3515
(dp3516
g73
(dp3517
sg82
g3503
sg75
(lp3518
g68
(g69
g70
NtRp3519
(dp3520
g73
(dp3521
g81
I3
ssg82
g3515
sg75
(lp3522
S''
asbasbasbag68
(g84
g70
NtRp3523
(dp3524
g73
(dp3525
sg82
g3499
sg75
(lp3526
g68
(g89
g70
NtRp3527
(dp3528
g73
(dp3529
g93
g94
ssg82
g3523
sg75
(lp3530
g326
asbag68
(g89
g70
NtRp3531
(dp3532
g73
(dp3533
g100
g101
ssg82
g3523
sg75
(lp3534
S':'
asbag68
(g89
g70
NtRp3535
(dp3536
g73
(dp3537
sg82
g3523
sg75
(lp3538
g68
(g69
g70
NtRp3539
(dp3540
g73
(dp3541
g81
I3
ssg82
g3535
sg75
(lp3542
S''
asbasbasbag68
(g84
g70
NtRp3543
(dp3544
g73
(dp3545
sg82
g3499
sg75
(lp3546
g68
(g89
g70
NtRp3547
(dp3548
g73
(dp3549
g93
g94
ssg82
g3543
sg75
(lp3550
g347
asbag68
(g89
g70
NtRp3551
(dp3552
g73
(dp3553
g100
g101
ssg82
g3543
sg75
(lp3554
S':'
asbag68
(g89
g70
NtRp3555
(dp3556
g73
(dp3557
sg82
g3543
sg75
(lp3558
g68
(g69
g70
NtRp3559
(dp3560
g73
(dp3561
g81
I3
ssg82
g3555
sg75
(lp3562
S''
asbasbasbag68
(g84
g70
NtRp3563
(dp3564
g73
(dp3565
sg82
g3499
sg75
(lp3566
g68
(g89
g70
NtRp3567
(dp3568
g73
(dp3569
g93
g94
ssg82
g3563
sg75
(lp3570
g368
asbag68
(g89
g70
NtRp3571
(dp3572
g73
(dp3573
g100
g101
ssg82
g3563
sg75
(lp3574
S':'
asbag68
(g89
g70
NtRp3575
(dp3576
g73
(dp3577
sg82
g3563
sg75
(lp3578
g68
(g69
g70
NtRp3579
(dp3580
g73
(dp3581
g81
I3
ssg82
g3575
sg75
(lp3582
S''
asbasbasbag68
(g84
g70
NtRp3583
(dp3584
g73
(dp3585
sg82
g3499
sg75
(lp3586
g68
(g89
g70
NtRp3587
(dp3588
g73
(dp3589
g93
g94
ssg82
g3583
sg75
(lp3590
g389
asbag68
(g89
g70
NtRp3591
(dp3592
g73
(dp3593
g100
g101
ssg82
g3583
sg75
(lp3594
S':'
asbag68
(g89
g70
NtRp3595
(dp3596
g73
(dp3597
sg82
g3583
sg75
(lp3598
g68
(g69
g70
NtRp3599
(dp3600
g73
(dp3601
g81
I3
ssg82
g3595
sg75
(lp3602
S''
asbasbasbag68
(g84
g70
NtRp3603
(dp3604
g73
(dp3605
sg82
g3499
sg75
(lp3606
g68
(g89
g70
NtRp3607
(dp3608
g73
(dp3609
g93
g94
ssg82
g3603
sg75
(lp3610
g410
asbag68
(g89
g70
NtRp3611
(dp3612
g73
(dp3613
g100
g101
ssg82
g3603
sg75
(lp3614
S':'
asbag68
(g89
g70
NtRp3615
(dp3616
g73
(dp3617
sg82
g3603
sg75
(lp3618
g68
(g69
g70
NtRp3619
(dp3620
g73
(dp3621
g81
I3
ssg82
g3615
sg75
(lp3622
S'/'
asbasbasbag68
(g84
g70
NtRp3623
(dp3624
g73
(dp3625
sg82
g3499
sg75
(lp3626
g68
(g89
g70
NtRp3627
(dp3628
g73
(dp3629
g93
g94
ssg82
g3623
sg75
(lp3630
g431
asbag68
(g89
g70
NtRp3631
(dp3632
g73
(dp3633
g100
g101
ssg82
g3623
sg75
(lp3634
S':'
asbag68
(g89
g70
NtRp3635
(dp3636
g73
(dp3637
sg82
g3623
sg75
(lp3638
g68
(g69
g70
NtRp3639
(dp3640
g73
(dp3641
g81
I3
ssg82
g3635
sg75
(lp3642
S''
asbasbasbag68
(g84
g70
NtRp3643
(dp3644
g73
(dp3645
sg82
g3499
sg75
(lp3646
g68
(g89
g70
NtRp3647
(dp3648
g73
(dp3649
g93
g94
ssg82
g3643
sg75
(lp3650
g452
asbag68
(g89
g70
NtRp3651
(dp3652
g73
(dp3653
g100
g101
ssg82
g3643
sg75
(lp3654
S':'
asbag68
(g89
g70
NtRp3655
(dp3656
g73
(dp3657
sg82
g3643
sg75
(lp3658
g68
(g69
g70
NtRp3659
(dp3660
g73
(dp3661
g81
I3
ssg82
g3655
sg75
(lp3662
S''
asbasbasbasbasbasbasbasbasbasbasbag68
(g84
g70
NtRp3663
(dp3664
g73
(dp3665
sg82
g3429
sg75
(lp3666
g68
(g89
g70
NtRp3667
(dp3668
g73
(dp3669
g93
g94
ssg82
g3663
sg75
(lp3670
S'delimiters'
p3671
asbag68
(g89
g70
NtRp3672
(dp3673
g73
(dp3674
g100
g101
ssg82
g3663
sg75
(lp3675
S':'
asbag68
(g89
g70
NtRp3676
(dp3677
g73
(dp3678
sg82
g3663
sg75
(lp3679
g68
(g69
g70
NtRp3680
(dp3681
g73
(dp3682
g81
I5
ssg82
g3676
sg75
(lp3683
g68
(g77
g70
NtRp3684
(dp3685
g73
(dp3686
g81
I4
ssg82
Nsg75
(lp3687
g68
(g84
g70
NtRp3688
(dp3689
g73
(dp3690
sg82
g3684
sg75
(lp3691
g68
(g89
g70
NtRp3692
(dp3693
g73
(dp3694
sg82
g3688
sg75
(lp3695
g68
(g69
g70
NtRp3696
(dp3697
g73
(dp3698
g81
I4
ssg82
g3692
sg75
(lp3699
S'{{'
p3700
asbasbasbag68
(g84
g70
NtRp3701
(dp3702
g73
(dp3703
sg82
g3684
sg75
(lp3704
g68
(g89
g70
NtRp3705
(dp3706
g73
(dp3707
sg82
g3701
sg75
(lp3708
g68
(g69
g70
NtRp3709
(dp3710
g73
(dp3711
g81
I4
ssg82
g3705
sg75
(lp3712
S'}}'
p3713
asbasbasbasbasbasbasbag68
(g84
g70
NtRp3714
(dp3715
g73
(dp3716
sg82
g3429
sg75
(lp3717
g68
(g89
g70
NtRp3718
(dp3719
g73
(dp3720
g93
g94
ssg82
g3714
sg75
(lp3721
S'files'
p3722
asbag68
(g89
g70
NtRp3723
(dp3724
g73
(dp3725
g100
g101
ssg82
g3714
sg75
(lp3726
S':'
asbag68
(g89
g70
NtRp3727
(dp3728
g73
(dp3729
sg82
g3714
sg75
(lp3730
g68
(g69
g70
NtRp3731
(dp3732
g73
(dp3733
g81
I5
ssg82
g3727
sg75
(lp3734
g68
(g77
g70
NtRp3735
(dp3736
g73
(dp3737
g81
I4
ssg82
Nsg75
(lp3738
sbasbasbasbag68
(g84
g70
NtRp3739
(dp3740
g73
(dp3741
sg82
g3429
sg75
(lp3742
g68
(g89
g70
NtRp3743
(dp3744
g73
(dp3745
g93
g94
ssg82
g3739
sg75
(lp3746
S'flash'
p3747
asbag68
(g89
g70
NtRp3748
(dp3749
g73
(dp3750
g100
g101
ssg82
g3739
sg75
(lp3751
S':'
asbag68
(g89
g70
NtRp3752
(dp3753
g73
(dp3754
sg82
g3739
sg75
(lp3755
g68
(g69
g70
NtRp3756
(dp3757
g73
(dp3758
g81
I5
ssg82
g3752
sg75
(lp3759
S''
asbasbasbag68
(g84
g70
NtRp3760
(dp3761
g73
(dp3762
sg82
g3429
sg75
(lp3763
g68
(g89
g70
NtRp3764
(dp3765
g73
(dp3766
g93
g94
ssg82
g3760
sg75
(lp3767
S'generic_patterns'
p3768
asbag68
(g89
g70
NtRp3769
(dp3770
g73
(dp3771
g100
g101
ssg82
g3760
sg75
(lp3772
S':'
asbag68
(g89
g70
NtRp3773
(dp3774
g73
(dp3775
sg82
g3760
sg75
(lp3776
g68
(g69
g70
NtRp3777
(dp3778
g73
(dp3779
g81
I5
ssg82
g3773
sg75
(lp3780
g68
(g77
g70
NtRp3781
(dp3782
g73
(dp3783
g81
I4
ssg82
Nsg75
(lp3784
sbasbasbasbag68
(g84
g70
NtRp3785
(dp3786
g73
(dp3787
sg82
g3429
sg75
(lp3788
g68
(g89
g70
NtRp3789
(dp3790
g73
(dp3791
g93
g94
ssg82
g3785
sg75
(lp3792
S'headers'
p3793
asbag68
(g89
g70
NtRp3794
(dp3795
g73
(dp3796
g100
g101
ssg82
g3785
sg75
(lp3797
S':'
asbag68
(g89
g70
NtRp3798
(dp3799
g73
(dp3800
sg82
g3785
sg75
(lp3801
g68
(g69
g70
NtRp3802
(dp3803
g73
(dp3804
g81
I5
ssg82
g3798
sg75
(lp3805
g68
(g77
g70
NtRp3806
(dp3807
g73
(dp3808
g81
I4
ssg82
Nsg75
(lp3809
g68
(g84
g70
NtRp3810
(dp3811
g73
(dp3812
sg82
g3806
sg75
(lp3813
g68
(g89
g70
NtRp3814
(dp3815
g73
(dp3816
g93
g94
ssg82
g3810
sg75
(lp3817
S'Cache-Control'
p3818
asbag68
(g89
g70
NtRp3819
(dp3820
g73
(dp3821
g100
g101
ssg82
g3810
sg75
(lp3822
S':'
asbag68
(g89
g70
NtRp3823
(dp3824
g73
(dp3825
sg82
g3810
sg75
(lp3826
g68
(g69
g70
NtRp3827
(dp3828
g73
(dp3829
g81
I4
ssg82
g3823
sg75
(lp3830
S'no-store, no-cache, must-revalidate, post-check=0, pre-check=0'
p3831
asbasbasbag68
(g84
g70
NtRp3832
(dp3833
g73
(dp3834
sg82
g3806
sg75
(lp3835
g68
(g89
g70
NtRp3836
(dp3837
g73
(dp3838
g93
g94
ssg82
g3832
sg75
(lp3839
S'Content-Type'
p3840
asbag68
(g89
g70
NtRp3841
(dp3842
g73
(dp3843
g100
g101
ssg82
g3832
sg75
(lp3844
S':'
asbag68
(g89
g70
NtRp3845
(dp3846
g73
(dp3847
sg82
g3832
sg75
(lp3848
g68
(g69
g70
NtRp3849
(dp3850
g73
(dp3851
g81
I4
ssg82
g3845
sg75
(lp3852
S'text/html; charset=utf-8'
p3853
asbasbasbag68
(g84
g70
NtRp3854
(dp3855
g73
(dp3856
sg82
g3806
sg75
(lp3857
g68
(g89
g70
NtRp3858
(dp3859
g73
(dp3860
g93
g94
ssg82
g3854
sg75
(lp3861
S'Expires'
p3862
asbag68
(g89
g70
NtRp3863
(dp3864
g73
(dp3865
g100
g101
ssg82
g3854
sg75
(lp3866
S':'
asbag68
(g89
g70
NtRp3867
(dp3868
g73
(dp3869
sg82
g3854
sg75
(lp3870
g68
(g69
g70
NtRp3871
(dp3872
g73
(dp3873
g81
I4
ssg82
g3867
sg75
(lp3874
S'Sun, 10 Nov 2013 12:35:31 GMT'
p3875
asbasbasbag68
(g84
g70
NtRp3876
(dp3877
g73
(dp3878
sg82
g3806
sg75
(lp3879
g68
(g89
g70
NtRp3880
(dp3881
g73
(dp3882
g93
g94
ssg82
g3876
sg75
(lp3883
S'Pragma'
p3884
asbag68
(g89
g70
NtRp3885
(dp3886
g73
(dp3887
g100
g101
ssg82
g3876
sg75
(lp3888
S':'
asbag68
(g89
g70
NtRp3889
(dp3890
g73
(dp3891
sg82
g3876
sg75
(lp3892
g68
(g69
g70
NtRp3893
(dp3894
g73
(dp3895
g81
I4
ssg82
g3889
sg75
(lp3896
S'no-cache'
p3897
asbasbasbag68
(g84
g70
NtRp3898
(dp3899
g73
(dp3900
sg82
g3806
sg75
(lp3901
g68
(g89
g70
NtRp3902
(dp3903
g73
(dp3904
g93
g94
ssg82
g3898
sg75
(lp3905
S'X-Powered-By'
p3906
asbag68
(g89
g70
NtRp3907
(dp3908
g73
(dp3909
g100
g101
ssg82
g3898
sg75
(lp3910
S':'
asbag68
(g89
g70
NtRp3911
(dp3912
g73
(dp3913
sg82
g3898
sg75
(lp3914
g68
(g69
g70
NtRp3915
(dp3916
g73
(dp3917
g81
I4
ssg82
g3911
sg75
(lp3918
S'web2py'
p3919
asbasbasbasbasbasbasbag68
(g84
g70
NtRp3920
(dp3921
g73
(dp3922
sg82
g3429
sg75
(lp3923
g68
(g89
g70
NtRp3924
(dp3925
g73
(dp3926
g93
g94
ssg82
g3920
sg75
(lp3927
S'menu'
p3928
asbag68
(g89
g70
NtRp3929
(dp3930
g73
(dp3931
g100
g101
ssg82
g3920
sg75
(lp3932
S':'
asbag68
(g89
g70
NtRp3933
(dp3934
g73
(dp3935
sg82
g3920
sg75
(lp3936
g68
(g69
g70
NtRp3937
(dp3938
g73
(dp3939
g81
I5
ssg82
g3933
sg75
(lp3940
g68
(g77
g70
NtRp3941
(dp3942
g73
(dp3943
g81
I4
ssg82
Nsg75
(lp3944
sbasbasbasbag68
(g84
g70
NtRp3945
(dp3946
g73
(dp3947
sg82
g3429
sg75
(lp3948
g68
(g89
g70
NtRp3949
(dp3950
g73
(dp3951
g93
g94
ssg82
g3945
sg75
(lp3952
S'meta'
p3953
asbag68
(g89
g70
NtRp3954
(dp3955
g73
(dp3956
g100
g101
ssg82
g3945
sg75
(lp3957
S':'
asbag68
(g89
g70
NtRp3958
(dp3959
g73
(dp3960
sg82
g3945
sg75
(lp3961
g68
(g69
g70
NtRp3962
(dp3963
g73
(dp3964
g81
I5
ssg82
g3958
sg75
(lp3965
g68
(g77
g70
NtRp3966
(dp3967
g73
(dp3968
g81
I4
ssg82
Nsg75
(lp3969
sbasbasbasbag68
(g84
g70
NtRp3970
(dp3971
g73
(dp3972
sg82
g3429
sg75
(lp3973
g68
(g89
g70
NtRp3974
(dp3975
g73
(dp3976
g93
g94
ssg82
g3970
sg75
(lp3977
S'models_to_run'
p3978
asbag68
(g89
g70
NtRp3979
(dp3980
g73
(dp3981
g100
g101
ssg82
g3970
sg75
(lp3982
S':'
asbag68
(g89
g70
NtRp3983
(dp3984
g73
(dp3985
sg82
g3970
sg75
(lp3986
g68
(g69
g70
NtRp3987
(dp3988
g73
(dp3989
g81
I5
ssg82
g3983
sg75
(lp3990
g68
(g77
g70
NtRp3991
(dp3992
g73
(dp3993
g81
I4
ssg82
Nsg75
(lp3994
g68
(g84
g70
NtRp3995
(dp3996
g73
(dp3997
sg82
g3991
sg75
(lp3998
g68
(g89
g70
NtRp3999
(dp4000
g73
(dp4001
sg82
g3995
sg75
(lp4002
g68
(g69
g70
NtRp4003
(dp4004
g73
(dp4005
g81
I4
ssg82
g3999
sg75
(lp4006
S'^\\w+\\.py$'
p4007
asbasbasbag68
(g84
g70
NtRp4008
(dp4009
g73
(dp4010
sg82
g3991
sg75
(lp4011
g68
(g89
g70
NtRp4012
(dp4013
g73
(dp4014
sg82
g4008
sg75
(lp4015
g68
(g69
g70
NtRp4016
(dp4017
g73
(dp4018
g81
I4
ssg82
g4012
sg75
(lp4019
S'^default/\\w+\\.py$'
p4020
asbasbasbag68
(g84
g70
NtRp4021
(dp4022
g73
(dp4023
sg82
g3991
sg75
(lp4024
g68
(g89
g70
NtRp4025
(dp4026
g73
(dp4027
sg82
g4021
sg75
(lp4028
g68
(g69
g70
NtRp4029
(dp4030
g73
(dp4031
g81
I4
ssg82
g4025
sg75
(lp4032
S'^default/testDetails/\\w+\\.py$'
p4033
asbasbasbasbasbasbasbag68
(g84
g70
NtRp4034
(dp4035
g73
(dp4036
sg82
g3429
sg75
(lp4037
g68
(g89
g70
NtRp4038
(dp4039
g73
(dp4040
g93
g94
ssg82
g4034
sg75
(lp4041
S'postprocessing'
p4042
asbag68
(g89
g70
NtRp4043
(dp4044
g73
(dp4045
g100
g101
ssg82
g4034
sg75
(lp4046
S':'
asbag68
(g89
g70
NtRp4047
(dp4048
g73
(dp4049
sg82
g4034
sg75
(lp4050
g68
(g69
g70
NtRp4051
(dp4052
g73
(dp4053
g81
I5
ssg82
g4047
sg75
(lp4054
g68
(g77
g70
NtRp4055
(dp4056
g73
(dp4057
g81
I4
ssg82
Nsg75
(lp4058
sbasbasbasbag68
(g84
g70
NtRp4059
(dp4060
g73
(dp4061
sg82
g3429
sg75
(lp4062
g68
(g89
g70
NtRp4063
(dp4064
g73
(dp4065
g93
g94
ssg82
g4059
sg75
(lp4066
S'session_file'
p4067
asbag68
(g89
g70
NtRp4068
(dp4069
g73
(dp4070
g100
g101
ssg82
g4059
sg75
(lp4071
S':'
asbag68
(g89
g70
NtRp4072
(dp4073
g73
(dp4074
sg82
g4059
sg75
(lp4075
g68
(g69
g70
NtRp4076
(dp4077
g73
(dp4078
g81
I5
ssg82
g4072
sg75
(lp4079
S"<open file '/home/mayank/Desktop/web2pyAdmin/web2py/web2py/applications/FunkLoad/sessions/10.1.33.107-36ba3c88-7bcb-4a0e-bb0a-8936efb689ab', mode 'rb+' at 0x7f7a582de6f0>"
p4080
asbasbasbag68
(g84
g70
NtRp4081
(dp4082
g73
(dp4083
sg82
g3429
sg75
(lp4084
g68
(g89
g70
NtRp4085
(dp4086
g73
(dp4087
g93
g94
ssg82
g4081
sg75
(lp4088
S'session_filename'
p4089
asbag68
(g89
g70
NtRp4090
(dp4091
g73
(dp4092
g100
g101
ssg82
g4081
sg75
(lp4093
S':'
asbag68
(g89
g70
NtRp4094
(dp4095
g73
(dp4096
sg82
g4081
sg75
(lp4097
g68
(g69
g70
NtRp4098
(dp4099
g73
(dp4100
g81
I5
ssg82
g4094
sg75
(lp4101
S'/home/mayank/Desktop/web2pyAdmin/web2py/web2py/applications/FunkLoad/sessions/10.1.33.107-36ba3c88-7bcb-4a0e-bb0a-8936efb689ab'
p4102
asbasbasbag68
(g84
g70
NtRp4103
(dp4104
g73
(dp4105
sg82
g3429
sg75
(lp4106
g68
(g89
g70
NtRp4107
(dp4108
g73
(dp4109
g93
g94
ssg82
g4103
sg75
(lp4110
S'session_id'
p4111
asbag68
(g89
g70
NtRp4112
(dp4113
g73
(dp4114
g100
g101
ssg82
g4103
sg75
(lp4115
S':'
asbag68
(g89
g70
NtRp4116
(dp4117
g73
(dp4118
sg82
g4103
sg75
(lp4119
g68
(g69
g70
NtRp4120
(dp4121
g73
(dp4122
g81
I5
ssg82
g4116
sg75
(lp4123
g486
asbasbasbag68
(g84
g70
NtRp4124
(dp4125
g73
(dp4126
sg82
g3429
sg75
(lp4127
g68
(g89
g70
NtRp4128
(dp4129
g73
(dp4130
g93
g94
ssg82
g4124
sg75
(lp4131
S'session_id_name'
p4132
asbag68
(g89
g70
NtRp4133
(dp4134
g73
(dp4135
g100
g101
ssg82
g4124
sg75
(lp4136
S':'
asbag68
(g89
g70
NtRp4137
(dp4138
g73
(dp4139
sg82
g4124
sg75
(lp4140
g68
(g69
g70
NtRp4141
(dp4142
g73
(dp4143
g81
I5
ssg82
g4137
sg75
(lp4144
g3486
asbasbasbag68
(g84
g70
NtRp4145
(dp4146
g73
(dp4147
sg82
g3429
sg75
(lp4148
g68
(g89
g70
NtRp4149
(dp4150
g73
(dp4151
g93
g94
ssg82
g4145
sg75
(lp4152
S'session_locked'
p4153
asbag68
(g89
g70
NtRp4154
(dp4155
g73
(dp4156
g100
g101
ssg82
g4145
sg75
(lp4157
S':'
asbag68
(g89
g70
NtRp4158
(dp4159
g73
(dp4160
sg82
g4145
sg75
(lp4161
g68
(g69
g70
NtRp4162
(dp4163
g73
(dp4164
g81
I5
ssg82
g4158
sg75
(lp4165
g1570
asbasbasbag68
(g84
g70
NtRp4166
(dp4167
g73
(dp4168
sg82
g3429
sg75
(lp4169
g68
(g89
g70
NtRp4170
(dp4171
g73
(dp4172
g93
g94
ssg82
g4166
sg75
(lp4173
S'session_new'
p4174
asbag68
(g89
g70
NtRp4175
(dp4176
g73
(dp4177
g100
g101
ssg82
g4166
sg75
(lp4178
S':'
asbag68
(g89
g70
NtRp4179
(dp4180
g73
(dp4181
sg82
g4166
sg75
(lp4182
g68
(g69
g70
NtRp4183
(dp4184
g73
(dp4185
g81
I5
ssg82
g4179
sg75
(lp4186
g111
asbasbasbag68
(g84
g70
NtRp4187
(dp4188
g73
(dp4189
sg82
g3429
sg75
(lp4190
g68
(g89
g70
NtRp4191
(dp4192
g73
(dp4193
g93
g94
ssg82
g4187
sg75
(lp4194
S'status'
p4195
asbag68
(g89
g70
NtRp4196
(dp4197
g73
(dp4198
g100
g101
ssg82
g4187
sg75
(lp4199
S':'
asbag68
(g89
g70
NtRp4200
(dp4201
g73
(dp4202
sg82
g4187
sg75
(lp4203
g68
(g69
g70
NtRp4204
(dp4205
g73
(dp4206
g81
I5
ssg82
g4200
sg75
(lp4207
S'200'
p4208
asbasbasbag68
(g84
g70
NtRp4209
(dp4210
g73
(dp4211
sg82
g3429
sg75
(lp4212
g68
(g89
g70
NtRp4213
(dp4214
g73
(dp4215
g93
g94
ssg82
g4209
sg75
(lp4216
S'view'
p4217
asbag68
(g89
g70
NtRp4218
(dp4219
g73
(dp4220
g100
g101
ssg82
g4209
sg75
(lp4221
S':'
asbag68
(g89
g70
NtRp4222
(dp4223
g73
(dp4224
sg82
g4209
sg75
(lp4225
g68
(g69
g70
NtRp4226
(dp4227
g73
(dp4228
g81
I5
ssg82
g4222
sg75
(lp4229
S'default/testDetails.html'
p4230
asbasbasbasbasbsS'locals'
p4231
(dp4232
g4
S"'/home/mayank/Desktop/web2pyAdmin/web2py/web2py/applications/FunkLoad/models/db.py'"
p4233
sg6
S"'# -*- coding: utf-8 -*-\\n\\n#######################...ble auditing\\n# auth.enable_record_versioning(db)\\n'"
p4234
sssS'traceback'
p4235
S'Traceback (most recent call last):\n  File "/home/mayank/Desktop/web2pyAdmin/web2py/web2py/gluon/restricted.py", line 208, in restricted\n    ccode = compile2(code,layer)\n  File "/home/mayank/Desktop/web2pyAdmin/web2py/web2py/gluon/restricted.py", line 193, in compile2\n    return compile(code.rstrip().replace(\'\\r\\n\',\'\\n\')+\'\\n\', layer, \'exec\')\n  File "/home/mayank/Desktop/web2pyAdmin/web2py/web2py/applications/FunkLoad/models/db.py", line 101\n    Field(\'TestId\',db.TestDetails,required=True),\n        ^\nSyntaxError: invalid syntax\n'
p4236
s.