(dp1
S'output'
p2
S"<type 'exceptions.IndentationError'> unindent does not match any outer indentation level (default.py, line 30)"
p3
sS'layer'
p4
S'/home/lordinvader/Studies/Presentation-day-code/web2py/applications/FunkLoad/controllers/default.py'
p5
sS'code'
p6
S'# -*- coding: utf-8 -*-\n# this file is released under public domain and you can use without limitations\nimport os\n#########################################################################\n## This is a samples controller\n## - index is the default action of any application\n## - user is required for authentication and authorization\n## - download is for downloading files uploaded in the db (does streaming)\n## - call exposes all registered services (none by default)\n#########################################################################\n\n\n#-----------------------Error Page-----------------------------------\n#if java script dissabled\ndef error():\n\t        return dict()\n\n#-----------------------Home Page------------------------------------\n@auth.requires_login()\ndef index():\n    \tsession.email=auth.user.email\n    \tprint session.email\n    \treturn dict()\n\n\n@auth.requires_login()\ndef test():\n\ttid=request.args[0]\n\tprint tid\n    session.email=auth.user.email\n    print session.email\n\tdetails=db(db.TestDetails.id == tid).select()[0]\n\tprint details\n\tfunctionalDetails=db(db.FunctionalTesting.TestId == tid).select()\n\tstressDetails=str(tid)+\'/index.html\'\n    return dict(details=details,stressDetails=stressDetails,functionalDetails=functionalDetails)\n\n@auth.requires_login()\ndef testDetails():\n    \tsession.email=auth.user.email\n    \tprint session.email\n\tdetails=db(db.TestDetails.UserEmail == session.email).select() \n\tprint details\n\treturn dict(details=details)\n\n@auth.requires_login()\ndef addTest():\n    \tsession.email=auth.user.email\n    \tprint session.email\n\tif request.vars.Submit==\'Submit\' :\n\t\tTestName=request.vars.TestName\n\t\tUrlName=request.vars.UrlName\n\t\tCycleUser=request.vars.CycleUser\n\t\tCycleDuration=request.vars.CycleDuration\n\t\tRequestPerUser=request.vars.RequestPerUser\n\t\tDescription=request.vars.Description\n\t\tSanityFlag=request.vars.Sanity\n\t\tStressFlag=request.vars.Stress\n\t\tFunctionalFlag=request.vars.Functional\n\t\tif not Description:\n\t\t\tDescription=UrlName\n\t\tif not SanityFlag==\'true\':\n\t\t   SanityFlag=\'false\'\n\t\tif not StressFlag==\'true\':\n\t\t   StressFlag=\'false\'\n\t\tif not FunctionalFlag==\'true\':\n\t\t   FunctionalFlag=\'false\'\n\t\tprint TestName\n\t\tprint UrlName\n\t\tprint CycleUser\n\t\tprint CycleDuration\n\t\tprint RequestPerUser\n\t\tprint SanityFlag\n#\t\tm=\'\'\n#\t\tmail.send(auth.user.email,subject=\' Received your Updated Response"\',message=m)\n\t\ttid=db.TestDetails.insert(TestName=TestName,UserEmail=session.email,Url=UrlName,CycleDuration=CycleDuration,CycleUser=CycleUser,RequestPerUser=RequestPerUser,Description=Description,SanityFlag=SanityFlag,StressFlag=StressFlag,FunctionalFlag=FunctionalFlag)\n\t\tdb.commit()\n#\t\ta=os.getcwd()+\'/applications/FunkLoad/static/\'+str(tid)\n#\t\tos.mkdir(a)\n\t\tredirect(URL(r=request, f=\'testDetails\'))\n\treturn dict()\n\ndef user():\n    """\n    exposes:\n    http://..../[app]/default/user/login\n    http://..../[app]/default/user/logout\n    http://..../[app]/default/user/register\n    http://..../[app]/default/user/profile\n    http://..../[app]/default/user/retrieve_password\n    http://..../[app]/default/user/change_password\n    use @auth.requires_login()\n        @auth.requires_membership(\'group name\')\n        @auth.requires_permission(\'read\',\'table name\',record_id)\n    to decorate functions that need access control\n    """\n    return dict(form=auth())\n\n\ndef download():\n    """\n    allows downloading of uploaded files\n    http://..../[app]/default/download/[filename]\n    """\n    return response.download(request,db)\n\n\ndef call():\n    """\n    exposes services. for example:\n    http://..../[app]/default/call/jsonrpc\n    decorate with @services.jsonrpc the functions to expose\n    supports xml, json, xmlrpc, jsonrpc, amfrpc, rss, csv\n    """\n    return service()\n\n\n@auth.requires_signature()\ndef data():\n    """\n    http://..../[app]/default/data/tables\n    http://..../[app]/default/data/create/[table]\n    http://..../[app]/default/data/read/[table]/[id]\n    http://..../[app]/default/data/update/[table]/[id]\n    http://..../[app]/default/data/delete/[table]/[id]\n    http://..../[app]/default/data/select/[table]\n    http://..../[app]/default/data/search/[table]\n    but URLs must be signed, i.e. linked with\n      A(\'table\',_href=URL(\'data/tables\',user_signature=True))\n    or with the signed load operator\n      LOAD(\'default\',\'data.load\',args=\'tables\',ajax=True,user_signature=True)\n    """\n    return dict(form=crud())\n\nresponse._vars=response._caller(index)\n'
p7
sS'snapshot'
p8
(dp9
S'exception'
p10
(dp11
S'__getslice__'
p12
S"<method-wrapper '__getslice__' of exceptions.IndentationError object>"
p13
sS'text'
p14
S"'    session.email=auth.user.email\\n'"
p15
sS'__str__'
p16
S"<method-wrapper '__str__' of exceptions.IndentationError object>"
p17
sS'__reduce__'
p18
S'<built-in method __reduce__ of exceptions.IndentationError object>'
p19
sS'__dict__'
p20
S'{}'
p21
sS'__sizeof__'
p22
S'<built-in method __sizeof__ of exceptions.IndentationError object>'
p23
sS'__init__'
p24
S"<method-wrapper '__init__' of exceptions.IndentationError object>"
p25
sS'__setattr__'
p26
S"<method-wrapper '__setattr__' of exceptions.IndentationError object>"
p27
sS'__reduce_ex__'
p28
S'<built-in method __reduce_ex__ of exceptions.IndentationError object>'
p29
sS'__new__'
p30
S'<built-in method __new__ of type object>'
p31
sS'__format__'
p32
S'<built-in method __format__ of exceptions.IndentationError object>'
p33
sS'__class__'
p34
S"<type 'exceptions.IndentationError'>"
p35
sS'filename'
p36
S"'/home/lordinvader/Studies/Presentation-day-code/web2py/applications/FunkLoad/controllers/default.py'"
p37
sS'lineno'
p38
S'30'
p39
sS'msg'
p40
S"'unindent does not match any outer indentation level'"
p41
sS'__doc__'
p42
S"'Improper indentation.'"
p43
sS'__getitem__'
p44
S"<method-wrapper '__getitem__' of exceptions.IndentationError object>"
p45
sS'__setstate__'
p46
S'<built-in method __setstate__ of exceptions.IndentationError object>'
p47
sS'__getattribute__'
p48
S"<method-wrapper '__getattribute__' of exceptions.IndentationError object>"
p49
sS'print_file_and_line'
p50
S'None'
p51
sS'args'
p52
S"('unindent does not match any outer indentation level', ('/home/lordinvader/Studies/Presentation-day-code/web2py/applications/FunkLoad/controllers/default.py', 30, 34, '    session.email=auth.user.email\\n'))"
p53
sS'__subclasshook__'
p54
S'<built-in method __subclasshook__ of type object>'
p55
sS'offset'
p56
S'34'
p57
sS'__unicode__'
p58
S'<built-in method __unicode__ of exceptions.IndentationError object>'
p59
sS'__delattr__'
p60
S"<method-wrapper '__delattr__' of exceptions.IndentationError object>"
p61
sS'__repr__'
p62
S"<method-wrapper '__repr__' of exceptions.IndentationError object>"
p63
sS'__hash__'
p64
S"<method-wrapper '__hash__' of exceptions.IndentationError object>"
p65
ssS'evalue'
p66
S'unindent does not match any outer indentation level (default.py, line 30)'
p67
sS'request'
p68
ccopy_reg
_reconstructor
p69
(cgluon.html
BEAUTIFY
p70
c__builtin__
object
p71
NtRp72
(dp73
S'attributes'
p74
(dp75
sS'components'
p76
(lp77
g69
(cgluon.html
TABLE
p78
g71
NtRp79
(dp80
g74
(dp81
S'level'
p82
I5
ssS'parent'
p83
Nsg76
(lp84
g69
(cgluon.html
TR
p85
g71
NtRp86
(dp87
g74
(dp88
sg83
g79
sg76
(lp89
g69
(cgluon.html
TD
p90
g71
NtRp91
(dp92
g74
(dp93
S'_style'
p94
S'font-weight:bold;vertical-align:top'
p95
ssg83
g86
sg76
(lp96
S'ajax'
p97
asbag69
(g90
g71
NtRp98
(dp99
g74
(dp100
S'_valign'
p101
S'top'
p102
ssg83
g86
sg76
(lp103
S':'
asbag69
(g90
g71
NtRp104
(dp105
g74
(dp106
sg83
g86
sg76
(lp107
g69
(g70
g71
NtRp108
(dp109
g74
(dp110
g82
I5
ssg83
g104
sg76
(lp111
S'False'
p112
asbasbasbag69
(g85
g71
NtRp113
(dp114
g74
(dp115
sg83
g79
sg76
(lp116
g69
(g90
g71
NtRp117
(dp118
g74
(dp119
g94
g95
ssg83
g113
sg76
(lp120
S'application'
p121
asbag69
(g90
g71
NtRp122
(dp123
g74
(dp124
g101
g102
ssg83
g113
sg76
(lp125
S':'
asbag69
(g90
g71
NtRp126
(dp127
g74
(dp128
sg83
g113
sg76
(lp129
g69
(g70
g71
NtRp130
(dp131
g74
(dp132
g82
I5
ssg83
g126
sg76
(lp133
S'FunkLoad'
p134
asbasbasbag69
(g85
g71
NtRp135
(dp136
g74
(dp137
sg83
g79
sg76
(lp138
g69
(g90
g71
NtRp139
(dp140
g74
(dp141
g94
g95
ssg83
g135
sg76
(lp142
g52
asbag69
(g90
g71
NtRp143
(dp144
g74
(dp145
g101
g102
ssg83
g135
sg76
(lp146
S':'
asbag69
(g90
g71
NtRp147
(dp148
g74
(dp149
sg83
g135
sg76
(lp150
g69
(g70
g71
NtRp151
(dp152
g74
(dp153
g82
I5
ssg83
g147
sg76
(lp154
g69
(g78
g71
NtRp155
(dp156
g74
(dp157
g82
I4
ssg83
Nsg76
(lp158
sbasbasbasbag69
(g85
g71
NtRp159
(dp160
g74
(dp161
sg83
g79
sg76
(lp162
g69
(g90
g71
NtRp163
(dp164
g74
(dp165
g94
g95
ssg83
g159
sg76
(lp166
S'body'
p167
asbag69
(g90
g71
NtRp168
(dp169
g74
(dp170
g101
g102
ssg83
g159
sg76
(lp171
S':'
asbag69
(g90
g71
NtRp172
(dp173
g74
(dp174
sg83
g159
sg76
(lp175
g69
(g70
g71
NtRp176
(dp177
g74
(dp178
g82
I5
ssg83
g172
sg76
(lp179
S'<cStringIO.StringO object at 0x7fa27c192bc8>'
p180
asbasbasbag69
(g85
g71
NtRp181
(dp182
g74
(dp183
sg83
g79
sg76
(lp184
g69
(g90
g71
NtRp185
(dp186
g74
(dp187
g94
g95
ssg83
g181
sg76
(lp188
S'cid'
p189
asbag69
(g90
g71
NtRp190
(dp191
g74
(dp192
g101
g102
ssg83
g181
sg76
(lp193
S':'
asbag69
(g90
g71
NtRp194
(dp195
g74
(dp196
sg83
g181
sg76
(lp197
g69
(g70
g71
NtRp198
(dp199
g74
(dp200
g82
I5
ssg83
g194
sg76
(lp201
S'None'
p202
asbasbasbag69
(g85
g71
NtRp203
(dp204
g74
(dp205
sg83
g79
sg76
(lp206
g69
(g90
g71
NtRp207
(dp208
g74
(dp209
g94
g95
ssg83
g203
sg76
(lp210
S'client'
p211
asbag69
(g90
g71
NtRp212
(dp213
g74
(dp214
g101
g102
ssg83
g203
sg76
(lp215
S':'
asbag69
(g90
g71
NtRp216
(dp217
g74
(dp218
sg83
g203
sg76
(lp219
g69
(g70
g71
NtRp220
(dp221
g74
(dp222
g82
I5
ssg83
g216
sg76
(lp223
S'127.0.0.1'
p224
asbasbasbag69
(g85
g71
NtRp225
(dp226
g74
(dp227
sg83
g79
sg76
(lp228
g69
(g90
g71
NtRp229
(dp230
g74
(dp231
g94
g95
ssg83
g225
sg76
(lp232
S'controller'
p233
asbag69
(g90
g71
NtRp234
(dp235
g74
(dp236
g101
g102
ssg83
g225
sg76
(lp237
S':'
asbag69
(g90
g71
NtRp238
(dp239
g74
(dp240
sg83
g225
sg76
(lp241
g69
(g70
g71
NtRp242
(dp243
g74
(dp244
g82
I5
ssg83
g238
sg76
(lp245
S'default'
p246
asbasbasbag69
(g85
g71
NtRp247
(dp248
g74
(dp249
sg83
g79
sg76
(lp250
g69
(g90
g71
NtRp251
(dp252
g74
(dp253
g94
g95
ssg83
g247
sg76
(lp254
S'cookies'
p255
asbag69
(g90
g71
NtRp256
(dp257
g74
(dp258
g101
g102
ssg83
g247
sg76
(lp259
S':'
asbag69
(g90
g71
NtRp260
(dp261
g74
(dp262
sg83
g247
sg76
(lp263
g69
(g70
g71
NtRp264
(dp265
g74
(dp266
g82
I5
ssg83
g260
sg76
(lp267
g69
(g78
g71
NtRp268
(dp269
g74
(dp270
g82
I4
ssg83
Nsg76
(lp271
sbasbasbasbag69
(g85
g71
NtRp272
(dp273
g74
(dp274
sg83
g79
sg76
(lp275
g69
(g90
g71
NtRp276
(dp277
g74
(dp278
g94
g95
ssg83
g272
sg76
(lp279
S'env'
p280
asbag69
(g90
g71
NtRp281
(dp282
g74
(dp283
g101
g102
ssg83
g272
sg76
(lp284
S':'
asbag69
(g90
g71
NtRp285
(dp286
g74
(dp287
sg83
g272
sg76
(lp288
g69
(g70
g71
NtRp289
(dp290
g74
(dp291
g82
I5
ssg83
g285
sg76
(lp292
g69
(g78
g71
NtRp293
(dp294
g74
(dp295
g82
I4
ssg83
Nsg76
(lp296
g69
(g85
g71
NtRp297
(dp298
g74
(dp299
sg83
g293
sg76
(lp300
g69
(g90
g71
NtRp301
(dp302
g74
(dp303
g94
g95
ssg83
g297
sg76
(lp304
S'app_folders'
p305
asbag69
(g90
g71
NtRp306
(dp307
g74
(dp308
g101
g102
ssg83
g297
sg76
(lp309
S':'
asbag69
(g90
g71
NtRp310
(dp311
g74
(dp312
sg83
g297
sg76
(lp313
g69
(g70
g71
NtRp314
(dp315
g74
(dp316
g82
I4
ssg83
g310
sg76
(lp317
S"set(['/home/lordinvader/Studies/Presentation-day-code/web2py/applications/FunkLoad/', '/home/lordinvader/Studies/Presentation-day-code/web2py/applications/welcome/'])"
p318
asbasbasbag69
(g85
g71
NtRp319
(dp320
g74
(dp321
sg83
g293
sg76
(lp322
g69
(g90
g71
NtRp323
(dp324
g74
(dp325
g94
g95
ssg83
g319
sg76
(lp326
S'applications_parent'
p327
asbag69
(g90
g71
NtRp328
(dp329
g74
(dp330
g101
g102
ssg83
g319
sg76
(lp331
S':'
asbag69
(g90
g71
NtRp332
(dp333
g74
(dp334
sg83
g319
sg76
(lp335
g69
(g70
g71
NtRp336
(dp337
g74
(dp338
g82
I4
ssg83
g332
sg76
(lp339
S'/home/lordinvader/Studies/Presentation-day-code/web2py'
p340
asbasbasbag69
(g85
g71
NtRp341
(dp342
g74
(dp343
sg83
g293
sg76
(lp344
g69
(g90
g71
NtRp345
(dp346
g74
(dp347
g94
g95
ssg83
g341
sg76
(lp348
S'cmd_args'
p349
asbag69
(g90
g71
NtRp350
(dp351
g74
(dp352
g101
g102
ssg83
g341
sg76
(lp353
S':'
asbag69
(g90
g71
NtRp354
(dp355
g74
(dp356
sg83
g341
sg76
(lp357
g69
(g70
g71
NtRp358
(dp359
g74
(dp360
g82
I4
ssg83
g354
sg76
(lp361
g69
(g78
g71
NtRp362
(dp363
g74
(dp364
g82
I3
ssg83
Nsg76
(lp365
sbasbasbasbag69
(g85
g71
NtRp366
(dp367
g74
(dp368
sg83
g293
sg76
(lp369
g69
(g90
g71
NtRp370
(dp371
g74
(dp372
g94
g95
ssg83
g366
sg76
(lp373
S'cmd_options'
p374
asbag69
(g90
g71
NtRp375
(dp376
g74
(dp377
g101
g102
ssg83
g366
sg76
(lp378
S':'
asbag69
(g90
g71
NtRp379
(dp380
g74
(dp381
sg83
g366
sg76
(lp382
g69
(g70
g71
NtRp383
(dp384
g74
(dp385
g82
I4
ssg83
g379
sg76
(lp386
S"<Values at 0x20fac20: {'verbose': False, 'ip': '192.168.0.100', 'with_scheduler': False, 'ips': ['127.0.1.1'], 'shutdown_timeout': 5, 'taskbar': False, 'port': 8000, 'maxthreads': None, 'softcron': False, 'server_name': 'artoo', 'bpython': False, 'nogui': False, 'nocron': False, 'extcron': False, 'run_system_tests': False, 'test': None, 'folder': '/home/lordinvader/Studies/Presentation-day-code/web2py', 'config': '', 'import_models': False, 'winservice': '', 'shell': None, 'run': '', 'log_filename': 'httpserver.log', 'debuglevel': 30, 'args': [''], 'socket_timeout': 5, 'ssl_ca_certificate': None, 'scheduler': None, 'profiler_filename': None, 'ssl_private_key': '', 'scheduler_groups': None, 'password': '<ask>', 'request_queue_size': 5, 'ssl_certificate': '', 'cronjob': False, 'numthreads': None, 'quiet': False, 'interfaces': None, 'minthreads': None, 'timeout': 10, 'plain': False, 'nobanner': False, 'pid_filename': 'httpserver.pid'}>"
p387
asbasbasbag69
(g85
g71
NtRp388
(dp389
g74
(dp390
sg83
g293
sg76
(lp391
g69
(g90
g71
NtRp392
(dp393
g74
(dp394
g94
g95
ssg83
g388
sg76
(lp395
S'db_sessions'
p396
asbag69
(g90
g71
NtRp397
(dp398
g74
(dp399
g101
g102
ssg83
g388
sg76
(lp400
S':'
asbag69
(g90
g71
NtRp401
(dp402
g74
(dp403
sg83
g388
sg76
(lp404
g69
(g70
g71
NtRp405
(dp406
g74
(dp407
g82
I4
ssg83
g401
sg76
(lp408
S'set([])'
p409
asbasbasbag69
(g85
g71
NtRp410
(dp411
g74
(dp412
sg83
g293
sg76
(lp413
g69
(g90
g71
NtRp414
(dp415
g74
(dp416
g94
g95
ssg83
g410
sg76
(lp417
S'debugging'
p418
asbag69
(g90
g71
NtRp419
(dp420
g74
(dp421
g101
g102
ssg83
g410
sg76
(lp422
S':'
asbag69
(g90
g71
NtRp423
(dp424
g74
(dp425
sg83
g410
sg76
(lp426
g69
(g70
g71
NtRp427
(dp428
g74
(dp429
g82
I4
ssg83
g423
sg76
(lp430
g112
asbasbasbag69
(g85
g71
NtRp431
(dp432
g74
(dp433
sg83
g293
sg76
(lp434
g69
(g90
g71
NtRp435
(dp436
g74
(dp437
g94
g95
ssg83
g431
sg76
(lp438
S'gluon_parent'
p439
asbag69
(g90
g71
NtRp440
(dp441
g74
(dp442
g101
g102
ssg83
g431
sg76
(lp443
S':'
asbag69
(g90
g71
NtRp444
(dp445
g74
(dp446
sg83
g431
sg76
(lp447
g69
(g70
g71
NtRp448
(dp449
g74
(dp450
g82
I4
ssg83
g444
sg76
(lp451
S'/home/lordinvader/Studies/Presentation-day-code/web2py'
p452
asbasbasbag69
(g85
g71
NtRp453
(dp454
g74
(dp455
sg83
g293
sg76
(lp456
g69
(g90
g71
NtRp457
(dp458
g74
(dp459
g94
g95
ssg83
g453
sg76
(lp460
S'http_accept'
p461
asbag69
(g90
g71
NtRp462
(dp463
g74
(dp464
g101
g102
ssg83
g453
sg76
(lp465
S':'
asbag69
(g90
g71
NtRp466
(dp467
g74
(dp468
sg83
g453
sg76
(lp469
g69
(g70
g71
NtRp470
(dp471
g74
(dp472
g82
I4
ssg83
g466
sg76
(lp473
S'text/html,application/xhtml+xml,application/xml;q=0.9,*/*;q=0.8'
p474
asbasbasbag69
(g85
g71
NtRp475
(dp476
g74
(dp477
sg83
g293
sg76
(lp478
g69
(g90
g71
NtRp479
(dp480
g74
(dp481
g94
g95
ssg83
g475
sg76
(lp482
S'http_accept_encoding'
p483
asbag69
(g90
g71
NtRp484
(dp485
g74
(dp486
g101
g102
ssg83
g475
sg76
(lp487
S':'
asbag69
(g90
g71
NtRp488
(dp489
g74
(dp490
sg83
g475
sg76
(lp491
g69
(g70
g71
NtRp492
(dp493
g74
(dp494
g82
I4
ssg83
g488
sg76
(lp495
S'gzip, deflate'
p496
asbasbasbag69
(g85
g71
NtRp497
(dp498
g74
(dp499
sg83
g293
sg76
(lp500
g69
(g90
g71
NtRp501
(dp502
g74
(dp503
g94
g95
ssg83
g497
sg76
(lp504
S'http_accept_language'
p505
asbag69
(g90
g71
NtRp506
(dp507
g74
(dp508
g101
g102
ssg83
g497
sg76
(lp509
S':'
asbag69
(g90
g71
NtRp510
(dp511
g74
(dp512
sg83
g497
sg76
(lp513
g69
(g70
g71
NtRp514
(dp515
g74
(dp516
g82
I4
ssg83
g510
sg76
(lp517
S'en-US,en;q=0.5'
p518
asbasbasbag69
(g85
g71
NtRp519
(dp520
g74
(dp521
sg83
g293
sg76
(lp522
g69
(g90
g71
NtRp523
(dp524
g74
(dp525
g94
g95
ssg83
g519
sg76
(lp526
S'http_connection'
p527
asbag69
(g90
g71
NtRp528
(dp529
g74
(dp530
g101
g102
ssg83
g519
sg76
(lp531
S':'
asbag69
(g90
g71
NtRp532
(dp533
g74
(dp534
sg83
g519
sg76
(lp535
g69
(g70
g71
NtRp536
(dp537
g74
(dp538
g82
I4
ssg83
g532
sg76
(lp539
S'keep-alive'
p540
asbasbasbag69
(g85
g71
NtRp541
(dp542
g74
(dp543
sg83
g293
sg76
(lp544
g69
(g90
g71
NtRp545
(dp546
g74
(dp547
g94
g95
ssg83
g541
sg76
(lp548
S'http_dnt'
p549
asbag69
(g90
g71
NtRp550
(dp551
g74
(dp552
g101
g102
ssg83
g541
sg76
(lp553
S':'
asbag69
(g90
g71
NtRp554
(dp555
g74
(dp556
sg83
g541
sg76
(lp557
g69
(g70
g71
NtRp558
(dp559
g74
(dp560
g82
I4
ssg83
g554
sg76
(lp561
S'1'
asbasbasbag69
(g85
g71
NtRp562
(dp563
g74
(dp564
sg83
g293
sg76
(lp565
g69
(g90
g71
NtRp566
(dp567
g74
(dp568
g94
g95
ssg83
g562
sg76
(lp569
S'http_host'
p570
asbag69
(g90
g71
NtRp571
(dp572
g74
(dp573
g101
g102
ssg83
g562
sg76
(lp574
S':'
asbag69
(g90
g71
NtRp575
(dp576
g74
(dp577
sg83
g562
sg76
(lp578
g69
(g70
g71
NtRp579
(dp580
g74
(dp581
g82
I4
ssg83
g575
sg76
(lp582
S'localhost:8000'
p583
asbasbasbag69
(g85
g71
NtRp584
(dp585
g74
(dp586
sg83
g293
sg76
(lp587
g69
(g90
g71
NtRp588
(dp589
g74
(dp590
g94
g95
ssg83
g584
sg76
(lp591
S'http_user_agent'
p592
asbag69
(g90
g71
NtRp593
(dp594
g74
(dp595
g101
g102
ssg83
g584
sg76
(lp596
S':'
asbag69
(g90
g71
NtRp597
(dp598
g74
(dp599
sg83
g584
sg76
(lp600
g69
(g70
g71
NtRp601
(dp602
g74
(dp603
g82
I4
ssg83
g597
sg76
(lp604
S'Mozilla/5.0 (X11; Ubuntu; Linux x86_64; rv:25.0) Gecko/20100101 Firefox/25.0'
p605
asbasbasbag69
(g85
g71
NtRp606
(dp607
g74
(dp608
sg83
g293
sg76
(lp609
g69
(g90
g71
NtRp610
(dp611
g74
(dp612
g94
g95
ssg83
g606
sg76
(lp613
S'is_jython'
p614
asbag69
(g90
g71
NtRp615
(dp616
g74
(dp617
g101
g102
ssg83
g606
sg76
(lp618
S':'
asbag69
(g90
g71
NtRp619
(dp620
g74
(dp621
sg83
g606
sg76
(lp622
g69
(g70
g71
NtRp623
(dp624
g74
(dp625
g82
I4
ssg83
g619
sg76
(lp626
g112
asbasbasbag69
(g85
g71
NtRp627
(dp628
g74
(dp629
sg83
g293
sg76
(lp630
g69
(g90
g71
NtRp631
(dp632
g74
(dp633
g94
g95
ssg83
g627
sg76
(lp634
S'is_pypy'
p635
asbag69
(g90
g71
NtRp636
(dp637
g74
(dp638
g101
g102
ssg83
g627
sg76
(lp639
S':'
asbag69
(g90
g71
NtRp640
(dp641
g74
(dp642
sg83
g627
sg76
(lp643
g69
(g70
g71
NtRp644
(dp645
g74
(dp646
g82
I4
ssg83
g640
sg76
(lp647
g112
asbasbasbag69
(g85
g71
NtRp648
(dp649
g74
(dp650
sg83
g293
sg76
(lp651
g69
(g90
g71
NtRp652
(dp653
g74
(dp654
g94
g95
ssg83
g648
sg76
(lp655
S'path_info'
p656
asbag69
(g90
g71
NtRp657
(dp658
g74
(dp659
g101
g102
ssg83
g648
sg76
(lp660
S':'
asbag69
(g90
g71
NtRp661
(dp662
g74
(dp663
sg83
g648
sg76
(lp664
g69
(g70
g71
NtRp665
(dp666
g74
(dp667
g82
I4
ssg83
g661
sg76
(lp668
S'/FunkLoad'
p669
asbasbasbag69
(g85
g71
NtRp670
(dp671
g74
(dp672
sg83
g293
sg76
(lp673
g69
(g90
g71
NtRp674
(dp675
g74
(dp676
g94
g95
ssg83
g670
sg76
(lp677
S'query_string'
p678
asbag69
(g90
g71
NtRp679
(dp680
g74
(dp681
g101
g102
ssg83
g670
sg76
(lp682
S':'
asbag69
(g90
g71
NtRp683
(dp684
g74
(dp685
sg83
g670
sg76
(lp686
g69
(g70
g71
NtRp687
(dp688
g74
(dp689
g82
I4
ssg83
g683
sg76
(lp690
S''
asbasbasbag69
(g85
g71
NtRp691
(dp692
g74
(dp693
sg83
g293
sg76
(lp694
g69
(g90
g71
NtRp695
(dp696
g74
(dp697
g94
g95
ssg83
g691
sg76
(lp698
S'remote_addr'
p699
asbag69
(g90
g71
NtRp700
(dp701
g74
(dp702
g101
g102
ssg83
g691
sg76
(lp703
S':'
asbag69
(g90
g71
NtRp704
(dp705
g74
(dp706
sg83
g691
sg76
(lp707
g69
(g70
g71
NtRp708
(dp709
g74
(dp710
g82
I4
ssg83
g704
sg76
(lp711
g224
asbasbasbag69
(g85
g71
NtRp712
(dp713
g74
(dp714
sg83
g293
sg76
(lp715
g69
(g90
g71
NtRp716
(dp717
g74
(dp718
g94
g95
ssg83
g712
sg76
(lp719
S'remote_port'
p720
asbag69
(g90
g71
NtRp721
(dp722
g74
(dp723
g101
g102
ssg83
g712
sg76
(lp724
S':'
asbag69
(g90
g71
NtRp725
(dp726
g74
(dp727
sg83
g712
sg76
(lp728
g69
(g70
g71
NtRp729
(dp730
g74
(dp731
g82
I4
ssg83
g725
sg76
(lp732
S'60938'
p733
asbasbasbag69
(g85
g71
NtRp734
(dp735
g74
(dp736
sg83
g293
sg76
(lp737
g69
(g90
g71
NtRp738
(dp739
g74
(dp740
g94
g95
ssg83
g734
sg76
(lp741
S'request_method'
p742
asbag69
(g90
g71
NtRp743
(dp744
g74
(dp745
g101
g102
ssg83
g734
sg76
(lp746
S':'
asbag69
(g90
g71
NtRp747
(dp748
g74
(dp749
sg83
g734
sg76
(lp750
g69
(g70
g71
NtRp751
(dp752
g74
(dp753
g82
I4
ssg83
g747
sg76
(lp754
S'GET'
p755
asbasbasbag69
(g85
g71
NtRp756
(dp757
g74
(dp758
sg83
g293
sg76
(lp759
g69
(g90
g71
NtRp760
(dp761
g74
(dp762
g94
g95
ssg83
g756
sg76
(lp763
S'request_uri'
p764
asbag69
(g90
g71
NtRp765
(dp766
g74
(dp767
g101
g102
ssg83
g756
sg76
(lp768
S':'
asbag69
(g90
g71
NtRp769
(dp770
g74
(dp771
sg83
g756
sg76
(lp772
g69
(g70
g71
NtRp773
(dp774
g74
(dp775
g82
I4
ssg83
g769
sg76
(lp776
g669
asbasbasbag69
(g85
g71
NtRp777
(dp778
g74
(dp779
sg83
g293
sg76
(lp780
g69
(g90
g71
NtRp781
(dp782
g74
(dp783
g94
g95
ssg83
g777
sg76
(lp784
S'script_name'
p785
asbag69
(g90
g71
NtRp786
(dp787
g74
(dp788
g101
g102
ssg83
g777
sg76
(lp789
S':'
asbag69
(g90
g71
NtRp790
(dp791
g74
(dp792
sg83
g777
sg76
(lp793
g69
(g70
g71
NtRp794
(dp795
g74
(dp796
g82
I4
ssg83
g790
sg76
(lp797
S''
asbasbasbag69
(g85
g71
NtRp798
(dp799
g74
(dp800
sg83
g293
sg76
(lp801
g69
(g90
g71
NtRp802
(dp803
g74
(dp804
g94
g95
ssg83
g798
sg76
(lp805
S'server_name'
p806
asbag69
(g90
g71
NtRp807
(dp808
g74
(dp809
g101
g102
ssg83
g798
sg76
(lp810
S':'
asbag69
(g90
g71
NtRp811
(dp812
g74
(dp813
sg83
g798
sg76
(lp814
g69
(g70
g71
NtRp815
(dp816
g74
(dp817
g82
I4
ssg83
g811
sg76
(lp818
S'artoo'
p819
asbasbasbag69
(g85
g71
NtRp820
(dp821
g74
(dp822
sg83
g293
sg76
(lp823
g69
(g90
g71
NtRp824
(dp825
g74
(dp826
g94
g95
ssg83
g820
sg76
(lp827
S'server_port'
p828
asbag69
(g90
g71
NtRp829
(dp830
g74
(dp831
g101
g102
ssg83
g820
sg76
(lp832
S':'
asbag69
(g90
g71
NtRp833
(dp834
g74
(dp835
sg83
g820
sg76
(lp836
g69
(g70
g71
NtRp837
(dp838
g74
(dp839
g82
I4
ssg83
g833
sg76
(lp840
S'8000'
p841
asbasbasbag69
(g85
g71
NtRp842
(dp843
g74
(dp844
sg83
g293
sg76
(lp845
g69
(g90
g71
NtRp846
(dp847
g74
(dp848
g94
g95
ssg83
g842
sg76
(lp849
S'server_protocol'
p850
asbag69
(g90
g71
NtRp851
(dp852
g74
(dp853
g101
g102
ssg83
g842
sg76
(lp854
S':'
asbag69
(g90
g71
NtRp855
(dp856
g74
(dp857
sg83
g842
sg76
(lp858
g69
(g70
g71
NtRp859
(dp860
g74
(dp861
g82
I4
ssg83
g855
sg76
(lp862
S'HTTP/1.1'
p863
asbasbasbag69
(g85
g71
NtRp864
(dp865
g74
(dp866
sg83
g293
sg76
(lp867
g69
(g90
g71
NtRp868
(dp869
g74
(dp870
g94
g95
ssg83
g864
sg76
(lp871
S'server_software'
p872
asbag69
(g90
g71
NtRp873
(dp874
g74
(dp875
g101
g102
ssg83
g864
sg76
(lp876
S':'
asbag69
(g90
g71
NtRp877
(dp878
g74
(dp879
sg83
g864
sg76
(lp880
g69
(g70
g71
NtRp881
(dp882
g74
(dp883
g82
I4
ssg83
g877
sg76
(lp884
S'Rocket 1.2.4'
p885
asbasbasbag69
(g85
g71
NtRp886
(dp887
g74
(dp888
sg83
g293
sg76
(lp889
g69
(g90
g71
NtRp890
(dp891
g74
(dp892
g94
g95
ssg83
g886
sg76
(lp893
S'web2py_crontype'
p894
asbag69
(g90
g71
NtRp895
(dp896
g74
(dp897
g101
g102
ssg83
g886
sg76
(lp898
S':'
asbag69
(g90
g71
NtRp899
(dp900
g74
(dp901
sg83
g886
sg76
(lp902
g69
(g70
g71
NtRp903
(dp904
g74
(dp905
g82
I4
ssg83
g899
sg76
(lp906
S'hard'
p907
asbasbasbag69
(g85
g71
NtRp908
(dp909
g74
(dp910
sg83
g293
sg76
(lp911
g69
(g90
g71
NtRp912
(dp913
g74
(dp914
g94
g95
ssg83
g908
sg76
(lp915
S'web2py_path'
p916
asbag69
(g90
g71
NtRp917
(dp918
g74
(dp919
g101
g102
ssg83
g908
sg76
(lp920
S':'
asbag69
(g90
g71
NtRp921
(dp922
g74
(dp923
sg83
g908
sg76
(lp924
g69
(g70
g71
NtRp925
(dp926
g74
(dp927
g82
I4
ssg83
g921
sg76
(lp928
g340
asbasbasbag69
(g85
g71
NtRp929
(dp930
g74
(dp931
sg83
g293
sg76
(lp932
g69
(g90
g71
NtRp933
(dp934
g74
(dp935
g94
g95
ssg83
g929
sg76
(lp936
S'web2py_version'
p937
asbag69
(g90
g71
NtRp938
(dp939
g74
(dp940
g101
g102
ssg83
g929
sg76
(lp941
S':'
asbag69
(g90
g71
NtRp942
(dp943
g74
(dp944
sg83
g929
sg76
(lp945
g69
(g70
g71
NtRp946
(dp947
g74
(dp948
g82
I4
ssg83
g942
sg76
(lp949
g69
(g78
g71
NtRp950
(dp951
g74
(dp952
g82
I3
ssg83
Nsg76
(lp953
g69
(g85
g71
NtRp954
(dp955
g74
(dp956
sg83
g950
sg76
(lp957
g69
(g90
g71
NtRp958
(dp959
g74
(dp960
sg83
g954
sg76
(lp961
g69
(g70
g71
NtRp962
(dp963
g74
(dp964
g82
I3
ssg83
g958
sg76
(lp965
S'2'
asbasbasbag69
(g85
g71
NtRp966
(dp967
g74
(dp968
sg83
g950
sg76
(lp969
g69
(g90
g71
NtRp970
(dp971
g74
(dp972
sg83
g966
sg76
(lp973
g69
(g70
g71
NtRp974
(dp975
g74
(dp976
g82
I3
ssg83
g970
sg76
(lp977
S'0'
asbasbasbag69
(g85
g71
NtRp978
(dp979
g74
(dp980
sg83
g950
sg76
(lp981
g69
(g90
g71
NtRp982
(dp983
g74
(dp984
sg83
g978
sg76
(lp985
g69
(g70
g71
NtRp986
(dp987
g74
(dp988
g82
I3
ssg83
g982
sg76
(lp989
S'8'
asbasbasbag69
(g85
g71
NtRp990
(dp991
g74
(dp992
sg83
g950
sg76
(lp993
g69
(g90
g71
NtRp994
(dp995
g74
(dp996
sg83
g990
sg76
(lp997
g69
(g70
g71
NtRp998
(dp999
g74
(dp1000
g82
I3
ssg83
g994
sg76
(lp1001
S'datetime.datetime(2012, 9, 7, 3, 47, 51)'
p1002
asbasbasbag69
(g85
g71
NtRp1003
(dp1004
g74
(dp1005
sg83
g950
sg76
(lp1006
g69
(g90
g71
NtRp1007
(dp1008
g74
(dp1009
sg83
g1003
sg76
(lp1010
g69
(g70
g71
NtRp1011
(dp1012
g74
(dp1013
g82
I3
ssg83
g1007
sg76
(lp1014
S'stable'
p1015
asbasbasbasbasbasbasbag69
(g85
g71
NtRp1016
(dp1017
g74
(dp1018
sg83
g293
sg76
(lp1019
g69
(g90
g71
NtRp1020
(dp1021
g74
(dp1022
g94
g95
ssg83
g1016
sg76
(lp1023
S'wsgi_errors'
p1024
asbag69
(g90
g71
NtRp1025
(dp1026
g74
(dp1027
g101
g102
ssg83
g1016
sg76
(lp1028
S':'
asbag69
(g90
g71
NtRp1029
(dp1030
g74
(dp1031
sg83
g1016
sg76
(lp1032
g69
(g70
g71
NtRp1033
(dp1034
g74
(dp1035
g82
I4
ssg83
g1029
sg76
(lp1036
S"<open file '<stderr>', mode 'w' at 0x7fa299e3f270>"
p1037
asbasbasbag69
(g85
g71
NtRp1038
(dp1039
g74
(dp1040
sg83
g293
sg76
(lp1041
g69
(g90
g71
NtRp1042
(dp1043
g74
(dp1044
g94
g95
ssg83
g1038
sg76
(lp1045
S'wsgi_file_wrapper'
p1046
asbag69
(g90
g71
NtRp1047
(dp1048
g74
(dp1049
g101
g102
ssg83
g1038
sg76
(lp1050
S':'
asbag69
(g90
g71
NtRp1051
(dp1052
g74
(dp1053
sg83
g1038
sg76
(lp1054
g69
(g70
g71
NtRp1055
(dp1056
g74
(dp1057
g82
I4
ssg83
g1051
sg76
(lp1058
S'<class wsgiref.util.FileWrapper at 0x2098600>'
p1059
asbasbasbag69
(g85
g71
NtRp1060
(dp1061
g74
(dp1062
sg83
g293
sg76
(lp1063
g69
(g90
g71
NtRp1064
(dp1065
g74
(dp1066
g94
g95
ssg83
g1060
sg76
(lp1067
S'wsgi_input'
p1068
asbag69
(g90
g71
NtRp1069
(dp1070
g74
(dp1071
g101
g102
ssg83
g1060
sg76
(lp1072
S':'
asbag69
(g90
g71
NtRp1073
(dp1074
g74
(dp1075
sg83
g1060
sg76
(lp1076
g69
(g70
g71
NtRp1077
(dp1078
g74
(dp1079
g82
I4
ssg83
g1073
sg76
(lp1080
S'<socket._fileobject object at 0x7fa27c185050>'
p1081
asbasbasbag69
(g85
g71
NtRp1082
(dp1083
g74
(dp1084
sg83
g293
sg76
(lp1085
g69
(g90
g71
NtRp1086
(dp1087
g74
(dp1088
g94
g95
ssg83
g1082
sg76
(lp1089
S'wsgi_multiprocess'
p1090
asbag69
(g90
g71
NtRp1091
(dp1092
g74
(dp1093
g101
g102
ssg83
g1082
sg76
(lp1094
S':'
asbag69
(g90
g71
NtRp1095
(dp1096
g74
(dp1097
sg83
g1082
sg76
(lp1098
g69
(g70
g71
NtRp1099
(dp1100
g74
(dp1101
g82
I4
ssg83
g1095
sg76
(lp1102
g112
asbasbasbag69
(g85
g71
NtRp1103
(dp1104
g74
(dp1105
sg83
g293
sg76
(lp1106
g69
(g90
g71
NtRp1107
(dp1108
g74
(dp1109
g94
g95
ssg83
g1103
sg76
(lp1110
S'wsgi_multithread'
p1111
asbag69
(g90
g71
NtRp1112
(dp1113
g74
(dp1114
g101
g102
ssg83
g1103
sg76
(lp1115
S':'
asbag69
(g90
g71
NtRp1116
(dp1117
g74
(dp1118
sg83
g1103
sg76
(lp1119
g69
(g70
g71
NtRp1120
(dp1121
g74
(dp1122
g82
I4
ssg83
g1116
sg76
(lp1123
S'True'
p1124
asbasbasbag69
(g85
g71
NtRp1125
(dp1126
g74
(dp1127
sg83
g293
sg76
(lp1128
g69
(g90
g71
NtRp1129
(dp1130
g74
(dp1131
g94
g95
ssg83
g1125
sg76
(lp1132
S'wsgi_run_once'
p1133
asbag69
(g90
g71
NtRp1134
(dp1135
g74
(dp1136
g101
g102
ssg83
g1125
sg76
(lp1137
S':'
asbag69
(g90
g71
NtRp1138
(dp1139
g74
(dp1140
sg83
g1125
sg76
(lp1141
g69
(g70
g71
NtRp1142
(dp1143
g74
(dp1144
g82
I4
ssg83
g1138
sg76
(lp1145
g112
asbasbasbag69
(g85
g71
NtRp1146
(dp1147
g74
(dp1148
sg83
g293
sg76
(lp1149
g69
(g90
g71
NtRp1150
(dp1151
g74
(dp1152
g94
g95
ssg83
g1146
sg76
(lp1153
S'wsgi_url_scheme'
p1154
asbag69
(g90
g71
NtRp1155
(dp1156
g74
(dp1157
g101
g102
ssg83
g1146
sg76
(lp1158
S':'
asbag69
(g90
g71
NtRp1159
(dp1160
g74
(dp1161
sg83
g1146
sg76
(lp1162
g69
(g70
g71
NtRp1163
(dp1164
g74
(dp1165
g82
I4
ssg83
g1159
sg76
(lp1166
S'http'
p1167
asbasbasbag69
(g85
g71
NtRp1168
(dp1169
g74
(dp1170
sg83
g293
sg76
(lp1171
g69
(g90
g71
NtRp1172
(dp1173
g74
(dp1174
g94
g95
ssg83
g1168
sg76
(lp1175
S'wsgi_version'
p1176
asbag69
(g90
g71
NtRp1177
(dp1178
g74
(dp1179
g101
g102
ssg83
g1168
sg76
(lp1180
S':'
asbag69
(g90
g71
NtRp1181
(dp1182
g74
(dp1183
sg83
g1168
sg76
(lp1184
g69
(g70
g71
NtRp1185
(dp1186
g74
(dp1187
g82
I4
ssg83
g1181
sg76
(lp1188
g69
(g78
g71
NtRp1189
(dp1190
g74
(dp1191
g82
I3
ssg83
Nsg76
(lp1192
g69
(g85
g71
NtRp1193
(dp1194
g74
(dp1195
sg83
g1189
sg76
(lp1196
g69
(g90
g71
NtRp1197
(dp1198
g74
(dp1199
sg83
g1193
sg76
(lp1200
g69
(g70
g71
NtRp1201
(dp1202
g74
(dp1203
g82
I3
ssg83
g1197
sg76
(lp1204
S'1'
asbasbasbag69
(g85
g71
NtRp1205
(dp1206
g74
(dp1207
sg83
g1189
sg76
(lp1208
g69
(g90
g71
NtRp1209
(dp1210
g74
(dp1211
sg83
g1205
sg76
(lp1212
g69
(g70
g71
NtRp1213
(dp1214
g74
(dp1215
g82
I3
ssg83
g1209
sg76
(lp1216
S'0'
asbasbasbasbasbasbasbasbasbasbasbag69
(g85
g71
NtRp1217
(dp1218
g74
(dp1219
sg83
g79
sg76
(lp1220
g69
(g90
g71
NtRp1221
(dp1222
g74
(dp1223
g94
g95
ssg83
g1217
sg76
(lp1224
S'extension'
p1225
asbag69
(g90
g71
NtRp1226
(dp1227
g74
(dp1228
g101
g102
ssg83
g1217
sg76
(lp1229
S':'
asbag69
(g90
g71
NtRp1230
(dp1231
g74
(dp1232
sg83
g1217
sg76
(lp1233
g69
(g70
g71
NtRp1234
(dp1235
g74
(dp1236
g82
I5
ssg83
g1230
sg76
(lp1237
S'html'
p1238
asbasbasbag69
(g85
g71
NtRp1239
(dp1240
g74
(dp1241
sg83
g79
sg76
(lp1242
g69
(g90
g71
NtRp1243
(dp1244
g74
(dp1245
g94
g95
ssg83
g1239
sg76
(lp1246
S'folder'
p1247
asbag69
(g90
g71
NtRp1248
(dp1249
g74
(dp1250
g101
g102
ssg83
g1239
sg76
(lp1251
S':'
asbag69
(g90
g71
NtRp1252
(dp1253
g74
(dp1254
sg83
g1239
sg76
(lp1255
g69
(g70
g71
NtRp1256
(dp1257
g74
(dp1258
g82
I5
ssg83
g1252
sg76
(lp1259
S'/home/lordinvader/Studies/Presentation-day-code/web2py/applications/FunkLoad/'
p1260
asbasbasbag69
(g85
g71
NtRp1261
(dp1262
g74
(dp1263
sg83
g79
sg76
(lp1264
g69
(g90
g71
NtRp1265
(dp1266
g74
(dp1267
g94
g95
ssg83
g1261
sg76
(lp1268
S'function'
p1269
asbag69
(g90
g71
NtRp1270
(dp1271
g74
(dp1272
g101
g102
ssg83
g1261
sg76
(lp1273
S':'
asbag69
(g90
g71
NtRp1274
(dp1275
g74
(dp1276
sg83
g1261
sg76
(lp1277
g69
(g70
g71
NtRp1278
(dp1279
g74
(dp1280
g82
I5
ssg83
g1274
sg76
(lp1281
S'index'
p1282
asbasbasbag69
(g85
g71
NtRp1283
(dp1284
g74
(dp1285
sg83
g79
sg76
(lp1286
g69
(g90
g71
NtRp1287
(dp1288
g74
(dp1289
g94
g95
ssg83
g1283
sg76
(lp1290
S'get_vars'
p1291
asbag69
(g90
g71
NtRp1292
(dp1293
g74
(dp1294
g101
g102
ssg83
g1283
sg76
(lp1295
S':'
asbag69
(g90
g71
NtRp1296
(dp1297
g74
(dp1298
sg83
g1283
sg76
(lp1299
g69
(g70
g71
NtRp1300
(dp1301
g74
(dp1302
g82
I5
ssg83
g1296
sg76
(lp1303
g69
(g78
g71
NtRp1304
(dp1305
g74
(dp1306
g82
I4
ssg83
Nsg76
(lp1307
sbasbasbasbag69
(g85
g71
NtRp1308
(dp1309
g74
(dp1310
sg83
g79
sg76
(lp1311
g69
(g90
g71
NtRp1312
(dp1313
g74
(dp1314
g94
g95
ssg83
g1308
sg76
(lp1315
S'global_settings'
p1316
asbag69
(g90
g71
NtRp1317
(dp1318
g74
(dp1319
g101
g102
ssg83
g1308
sg76
(lp1320
S':'
asbag69
(g90
g71
NtRp1321
(dp1322
g74
(dp1323
sg83
g1308
sg76
(lp1324
g69
(g70
g71
NtRp1325
(dp1326
g74
(dp1327
g82
I5
ssg83
g1321
sg76
(lp1328
g69
(g78
g71
NtRp1329
(dp1330
g74
(dp1331
g82
I4
ssg83
Nsg76
(lp1332
g69
(g85
g71
NtRp1333
(dp1334
g74
(dp1335
sg83
g1329
sg76
(lp1336
g69
(g90
g71
NtRp1337
(dp1338
g74
(dp1339
g94
g95
ssg83
g1333
sg76
(lp1340
g305
asbag69
(g90
g71
NtRp1341
(dp1342
g74
(dp1343
g101
g102
ssg83
g1333
sg76
(lp1344
S':'
asbag69
(g90
g71
NtRp1345
(dp1346
g74
(dp1347
sg83
g1333
sg76
(lp1348
g69
(g70
g71
NtRp1349
(dp1350
g74
(dp1351
g82
I4
ssg83
g1345
sg76
(lp1352
S"set(['/home/lordinvader/Studies/Presentation-day-code/web2py/applications/FunkLoad/', '/home/lordinvader/Studies/Presentation-day-code/web2py/applications/welcome/'])"
p1353
asbasbasbag69
(g85
g71
NtRp1354
(dp1355
g74
(dp1356
sg83
g1329
sg76
(lp1357
g69
(g90
g71
NtRp1358
(dp1359
g74
(dp1360
g94
g95
ssg83
g1354
sg76
(lp1361
g327
asbag69
(g90
g71
NtRp1362
(dp1363
g74
(dp1364
g101
g102
ssg83
g1354
sg76
(lp1365
S':'
asbag69
(g90
g71
NtRp1366
(dp1367
g74
(dp1368
sg83
g1354
sg76
(lp1369
g69
(g70
g71
NtRp1370
(dp1371
g74
(dp1372
g82
I4
ssg83
g1366
sg76
(lp1373
g340
asbasbasbag69
(g85
g71
NtRp1374
(dp1375
g74
(dp1376
sg83
g1329
sg76
(lp1377
g69
(g90
g71
NtRp1378
(dp1379
g74
(dp1380
g94
g95
ssg83
g1374
sg76
(lp1381
g349
asbag69
(g90
g71
NtRp1382
(dp1383
g74
(dp1384
g101
g102
ssg83
g1374
sg76
(lp1385
S':'
asbag69
(g90
g71
NtRp1386
(dp1387
g74
(dp1388
sg83
g1374
sg76
(lp1389
g69
(g70
g71
NtRp1390
(dp1391
g74
(dp1392
g82
I4
ssg83
g1386
sg76
(lp1393
g69
(g78
g71
NtRp1394
(dp1395
g74
(dp1396
g82
I3
ssg83
Nsg76
(lp1397
sbasbasbasbag69
(g85
g71
NtRp1398
(dp1399
g74
(dp1400
sg83
g1329
sg76
(lp1401
g69
(g90
g71
NtRp1402
(dp1403
g74
(dp1404
g94
g95
ssg83
g1398
sg76
(lp1405
g374
asbag69
(g90
g71
NtRp1406
(dp1407
g74
(dp1408
g101
g102
ssg83
g1398
sg76
(lp1409
S':'
asbag69
(g90
g71
NtRp1410
(dp1411
g74
(dp1412
sg83
g1398
sg76
(lp1413
g69
(g70
g71
NtRp1414
(dp1415
g74
(dp1416
g82
I4
ssg83
g1410
sg76
(lp1417
S"<Values at 0x20fac20: {'verbose': False, 'ip': '192.168.0.100', 'with_scheduler': False, 'ips': ['127.0.1.1'], 'shutdown_timeout': 5, 'taskbar': False, 'port': 8000, 'maxthreads': None, 'softcron': False, 'server_name': 'artoo', 'bpython': False, 'nogui': False, 'nocron': False, 'extcron': False, 'run_system_tests': False, 'test': None, 'folder': '/home/lordinvader/Studies/Presentation-day-code/web2py', 'config': '', 'import_models': False, 'winservice': '', 'shell': None, 'run': '', 'log_filename': 'httpserver.log', 'debuglevel': 30, 'args': [''], 'socket_timeout': 5, 'ssl_ca_certificate': None, 'scheduler': None, 'profiler_filename': None, 'ssl_private_key': '', 'scheduler_groups': None, 'password': '<ask>', 'request_queue_size': 5, 'ssl_certificate': '', 'cronjob': False, 'numthreads': None, 'quiet': False, 'interfaces': None, 'minthreads': None, 'timeout': 10, 'plain': False, 'nobanner': False, 'pid_filename': 'httpserver.pid'}>"
p1418
asbasbasbag69
(g85
g71
NtRp1419
(dp1420
g74
(dp1421
sg83
g1329
sg76
(lp1422
g69
(g90
g71
NtRp1423
(dp1424
g74
(dp1425
g94
g95
ssg83
g1419
sg76
(lp1426
g396
asbag69
(g90
g71
NtRp1427
(dp1428
g74
(dp1429
g101
g102
ssg83
g1419
sg76
(lp1430
S':'
asbag69
(g90
g71
NtRp1431
(dp1432
g74
(dp1433
sg83
g1419
sg76
(lp1434
g69
(g70
g71
NtRp1435
(dp1436
g74
(dp1437
g82
I4
ssg83
g1431
sg76
(lp1438
S'set([])'
p1439
asbasbasbag69
(g85
g71
NtRp1440
(dp1441
g74
(dp1442
sg83
g1329
sg76
(lp1443
g69
(g90
g71
NtRp1444
(dp1445
g74
(dp1446
g94
g95
ssg83
g1440
sg76
(lp1447
g418
asbag69
(g90
g71
NtRp1448
(dp1449
g74
(dp1450
g101
g102
ssg83
g1440
sg76
(lp1451
S':'
asbag69
(g90
g71
NtRp1452
(dp1453
g74
(dp1454
sg83
g1440
sg76
(lp1455
g69
(g70
g71
NtRp1456
(dp1457
g74
(dp1458
g82
I4
ssg83
g1452
sg76
(lp1459
g112
asbasbasbag69
(g85
g71
NtRp1460
(dp1461
g74
(dp1462
sg83
g1329
sg76
(lp1463
g69
(g90
g71
NtRp1464
(dp1465
g74
(dp1466
g94
g95
ssg83
g1460
sg76
(lp1467
g439
asbag69
(g90
g71
NtRp1468
(dp1469
g74
(dp1470
g101
g102
ssg83
g1460
sg76
(lp1471
S':'
asbag69
(g90
g71
NtRp1472
(dp1473
g74
(dp1474
sg83
g1460
sg76
(lp1475
g69
(g70
g71
NtRp1476
(dp1477
g74
(dp1478
g82
I4
ssg83
g1472
sg76
(lp1479
g452
asbasbasbag69
(g85
g71
NtRp1480
(dp1481
g74
(dp1482
sg83
g1329
sg76
(lp1483
g69
(g90
g71
NtRp1484
(dp1485
g74
(dp1486
g94
g95
ssg83
g1480
sg76
(lp1487
g614
asbag69
(g90
g71
NtRp1488
(dp1489
g74
(dp1490
g101
g102
ssg83
g1480
sg76
(lp1491
S':'
asbag69
(g90
g71
NtRp1492
(dp1493
g74
(dp1494
sg83
g1480
sg76
(lp1495
g69
(g70
g71
NtRp1496
(dp1497
g74
(dp1498
g82
I4
ssg83
g1492
sg76
(lp1499
g112
asbasbasbag69
(g85
g71
NtRp1500
(dp1501
g74
(dp1502
sg83
g1329
sg76
(lp1503
g69
(g90
g71
NtRp1504
(dp1505
g74
(dp1506
g94
g95
ssg83
g1500
sg76
(lp1507
g635
asbag69
(g90
g71
NtRp1508
(dp1509
g74
(dp1510
g101
g102
ssg83
g1500
sg76
(lp1511
S':'
asbag69
(g90
g71
NtRp1512
(dp1513
g74
(dp1514
sg83
g1500
sg76
(lp1515
g69
(g70
g71
NtRp1516
(dp1517
g74
(dp1518
g82
I4
ssg83
g1512
sg76
(lp1519
g112
asbasbasbag69
(g85
g71
NtRp1520
(dp1521
g74
(dp1522
sg83
g1329
sg76
(lp1523
g69
(g90
g71
NtRp1524
(dp1525
g74
(dp1526
g94
g95
ssg83
g1520
sg76
(lp1527
g894
asbag69
(g90
g71
NtRp1528
(dp1529
g74
(dp1530
g101
g102
ssg83
g1520
sg76
(lp1531
S':'
asbag69
(g90
g71
NtRp1532
(dp1533
g74
(dp1534
sg83
g1520
sg76
(lp1535
g69
(g70
g71
NtRp1536
(dp1537
g74
(dp1538
g82
I4
ssg83
g1532
sg76
(lp1539
g907
asbasbasbag69
(g85
g71
NtRp1540
(dp1541
g74
(dp1542
sg83
g1329
sg76
(lp1543
g69
(g90
g71
NtRp1544
(dp1545
g74
(dp1546
g94
g95
ssg83
g1540
sg76
(lp1547
g937
asbag69
(g90
g71
NtRp1548
(dp1549
g74
(dp1550
g101
g102
ssg83
g1540
sg76
(lp1551
S':'
asbag69
(g90
g71
NtRp1552
(dp1553
g74
(dp1554
sg83
g1540
sg76
(lp1555
g69
(g70
g71
NtRp1556
(dp1557
g74
(dp1558
g82
I4
ssg83
g1552
sg76
(lp1559
g69
(g78
g71
NtRp1560
(dp1561
g74
(dp1562
g82
I3
ssg83
Nsg76
(lp1563
g69
(g85
g71
NtRp1564
(dp1565
g74
(dp1566
sg83
g1560
sg76
(lp1567
g69
(g90
g71
NtRp1568
(dp1569
g74
(dp1570
sg83
g1564
sg76
(lp1571
g69
(g70
g71
NtRp1572
(dp1573
g74
(dp1574
g82
I3
ssg83
g1568
sg76
(lp1575
S'2'
asbasbasbag69
(g85
g71
NtRp1576
(dp1577
g74
(dp1578
sg83
g1560
sg76
(lp1579
g69
(g90
g71
NtRp1580
(dp1581
g74
(dp1582
sg83
g1576
sg76
(lp1583
g69
(g70
g71
NtRp1584
(dp1585
g74
(dp1586
g82
I3
ssg83
g1580
sg76
(lp1587
S'0'
asbasbasbag69
(g85
g71
NtRp1588
(dp1589
g74
(dp1590
sg83
g1560
sg76
(lp1591
g69
(g90
g71
NtRp1592
(dp1593
g74
(dp1594
sg83
g1588
sg76
(lp1595
g69
(g70
g71
NtRp1596
(dp1597
g74
(dp1598
g82
I3
ssg83
g1592
sg76
(lp1599
S'8'
asbasbasbag69
(g85
g71
NtRp1600
(dp1601
g74
(dp1602
sg83
g1560
sg76
(lp1603
g69
(g90
g71
NtRp1604
(dp1605
g74
(dp1606
sg83
g1600
sg76
(lp1607
g69
(g70
g71
NtRp1608
(dp1609
g74
(dp1610
g82
I3
ssg83
g1604
sg76
(lp1611
S'datetime.datetime(2012, 9, 7, 3, 47, 51)'
p1612
asbasbasbag69
(g85
g71
NtRp1613
(dp1614
g74
(dp1615
sg83
g1560
sg76
(lp1616
g69
(g90
g71
NtRp1617
(dp1618
g74
(dp1619
sg83
g1613
sg76
(lp1620
g69
(g70
g71
NtRp1621
(dp1622
g74
(dp1623
g82
I3
ssg83
g1617
sg76
(lp1624
g1015
asbasbasbasbasbasbasbasbasbasbasbag69
(g85
g71
NtRp1625
(dp1626
g74
(dp1627
sg83
g79
sg76
(lp1628
g69
(g90
g71
NtRp1629
(dp1630
g74
(dp1631
g94
g95
ssg83
g1625
sg76
(lp1632
S'is_https'
p1633
asbag69
(g90
g71
NtRp1634
(dp1635
g74
(dp1636
g101
g102
ssg83
g1625
sg76
(lp1637
S':'
asbag69
(g90
g71
NtRp1638
(dp1639
g74
(dp1640
sg83
g1625
sg76
(lp1641
g69
(g70
g71
NtRp1642
(dp1643
g74
(dp1644
g82
I5
ssg83
g1638
sg76
(lp1645
g112
asbasbasbag69
(g85
g71
NtRp1646
(dp1647
g74
(dp1648
sg83
g79
sg76
(lp1649
g69
(g90
g71
NtRp1650
(dp1651
g74
(dp1652
g94
g95
ssg83
g1646
sg76
(lp1653
S'is_local'
p1654
asbag69
(g90
g71
NtRp1655
(dp1656
g74
(dp1657
g101
g102
ssg83
g1646
sg76
(lp1658
S':'
asbag69
(g90
g71
NtRp1659
(dp1660
g74
(dp1661
sg83
g1646
sg76
(lp1662
g69
(g70
g71
NtRp1663
(dp1664
g74
(dp1665
g82
I5
ssg83
g1659
sg76
(lp1666
g1124
asbasbasbag69
(g85
g71
NtRp1667
(dp1668
g74
(dp1669
sg83
g79
sg76
(lp1670
g69
(g90
g71
NtRp1671
(dp1672
g74
(dp1673
g94
g95
ssg83
g1667
sg76
(lp1674
S'is_restful'
p1675
asbag69
(g90
g71
NtRp1676
(dp1677
g74
(dp1678
g101
g102
ssg83
g1667
sg76
(lp1679
S':'
asbag69
(g90
g71
NtRp1680
(dp1681
g74
(dp1682
sg83
g1667
sg76
(lp1683
g69
(g70
g71
NtRp1684
(dp1685
g74
(dp1686
g82
I5
ssg83
g1680
sg76
(lp1687
g112
asbasbasbag69
(g85
g71
NtRp1688
(dp1689
g74
(dp1690
sg83
g79
sg76
(lp1691
g69
(g90
g71
NtRp1692
(dp1693
g74
(dp1694
g94
g95
ssg83
g1688
sg76
(lp1695
S'now'
p1696
asbag69
(g90
g71
NtRp1697
(dp1698
g74
(dp1699
g101
g102
ssg83
g1688
sg76
(lp1700
S':'
asbag69
(g90
g71
NtRp1701
(dp1702
g74
(dp1703
sg83
g1688
sg76
(lp1704
g69
(g70
g71
NtRp1705
(dp1706
g74
(dp1707
g82
I5
ssg83
g1701
sg76
(lp1708
S'datetime.datetime(2013, 11, 21, 14, 38, 56, 405244)'
p1709
asbasbasbag69
(g85
g71
NtRp1710
(dp1711
g74
(dp1712
sg83
g79
sg76
(lp1713
g69
(g90
g71
NtRp1714
(dp1715
g74
(dp1716
g94
g95
ssg83
g1710
sg76
(lp1717
S'post_vars'
p1718
asbag69
(g90
g71
NtRp1719
(dp1720
g74
(dp1721
g101
g102
ssg83
g1710
sg76
(lp1722
S':'
asbag69
(g90
g71
NtRp1723
(dp1724
g74
(dp1725
sg83
g1710
sg76
(lp1726
g69
(g70
g71
NtRp1727
(dp1728
g74
(dp1729
g82
I5
ssg83
g1723
sg76
(lp1730
g69
(g78
g71
NtRp1731
(dp1732
g74
(dp1733
g82
I4
ssg83
Nsg76
(lp1734
sbasbasbasbag69
(g85
g71
NtRp1735
(dp1736
g74
(dp1737
sg83
g79
sg76
(lp1738
g69
(g90
g71
NtRp1739
(dp1740
g74
(dp1741
g94
g95
ssg83
g1735
sg76
(lp1742
S'raw_args'
p1743
asbag69
(g90
g71
NtRp1744
(dp1745
g74
(dp1746
g101
g102
ssg83
g1735
sg76
(lp1747
S':'
asbag69
(g90
g71
NtRp1748
(dp1749
g74
(dp1750
sg83
g1735
sg76
(lp1751
g69
(g70
g71
NtRp1752
(dp1753
g74
(dp1754
g82
I5
ssg83
g1748
sg76
(lp1755
S'None'
p1756
asbasbasbag69
(g85
g71
NtRp1757
(dp1758
g74
(dp1759
sg83
g79
sg76
(lp1760
g69
(g90
g71
NtRp1761
(dp1762
g74
(dp1763
g94
g95
ssg83
g1757
sg76
(lp1764
S'raw_extension'
p1765
asbag69
(g90
g71
NtRp1766
(dp1767
g74
(dp1768
g101
g102
ssg83
g1757
sg76
(lp1769
S':'
asbag69
(g90
g71
NtRp1770
(dp1771
g74
(dp1772
sg83
g1757
sg76
(lp1773
g69
(g70
g71
NtRp1774
(dp1775
g74
(dp1776
g82
I5
ssg83
g1770
sg76
(lp1777
S'None'
p1778
asbasbasbag69
(g85
g71
NtRp1779
(dp1780
g74
(dp1781
sg83
g79
sg76
(lp1782
g69
(g90
g71
NtRp1783
(dp1784
g74
(dp1785
g94
g95
ssg83
g1779
sg76
(lp1786
S'url'
p1787
asbag69
(g90
g71
NtRp1788
(dp1789
g74
(dp1790
g101
g102
ssg83
g1779
sg76
(lp1791
S':'
asbag69
(g90
g71
NtRp1792
(dp1793
g74
(dp1794
sg83
g1779
sg76
(lp1795
g69
(g70
g71
NtRp1796
(dp1797
g74
(dp1798
g82
I5
ssg83
g1792
sg76
(lp1799
g669
asbasbasbag69
(g85
g71
NtRp1800
(dp1801
g74
(dp1802
sg83
g79
sg76
(lp1803
g69
(g90
g71
NtRp1804
(dp1805
g74
(dp1806
g94
g95
ssg83
g1800
sg76
(lp1807
S'utcnow'
p1808
asbag69
(g90
g71
NtRp1809
(dp1810
g74
(dp1811
g101
g102
ssg83
g1800
sg76
(lp1812
S':'
asbag69
(g90
g71
NtRp1813
(dp1814
g74
(dp1815
sg83
g1800
sg76
(lp1816
g69
(g70
g71
NtRp1817
(dp1818
g74
(dp1819
g82
I5
ssg83
g1813
sg76
(lp1820
S'datetime.datetime(2013, 11, 21, 9, 8, 56, 405262)'
p1821
asbasbasbag69
(g85
g71
NtRp1822
(dp1823
g74
(dp1824
sg83
g79
sg76
(lp1825
g69
(g90
g71
NtRp1826
(dp1827
g74
(dp1828
g94
g95
ssg83
g1822
sg76
(lp1829
S'uuid'
p1830
asbag69
(g90
g71
NtRp1831
(dp1832
g74
(dp1833
g101
g102
ssg83
g1822
sg76
(lp1834
S':'
asbag69
(g90
g71
NtRp1835
(dp1836
g74
(dp1837
sg83
g1822
sg76
(lp1838
g69
(g70
g71
NtRp1839
(dp1840
g74
(dp1841
g82
I5
ssg83
g1835
sg76
(lp1842
S'FunkLoad/127.0.0.1.2013-11-21.14-38-56.3ba87fd7-bce3-46b4-88ef-718cb5d603f8'
p1843
asbasbasbag69
(g85
g71
NtRp1844
(dp1845
g74
(dp1846
sg83
g79
sg76
(lp1847
g69
(g90
g71
NtRp1848
(dp1849
g74
(dp1850
g94
g95
ssg83
g1844
sg76
(lp1851
S'vars'
p1852
asbag69
(g90
g71
NtRp1853
(dp1854
g74
(dp1855
g101
g102
ssg83
g1844
sg76
(lp1856
S':'
asbag69
(g90
g71
NtRp1857
(dp1858
g74
(dp1859
sg83
g1844
sg76
(lp1860
g69
(g70
g71
NtRp1861
(dp1862
g74
(dp1863
g82
I5
ssg83
g1857
sg76
(lp1864
g69
(g78
g71
NtRp1865
(dp1866
g74
(dp1867
g82
I4
ssg83
Nsg76
(lp1868
sbasbasbasbag69
(g85
g71
NtRp1869
(dp1870
g74
(dp1871
sg83
g79
sg76
(lp1872
g69
(g90
g71
NtRp1873
(dp1874
g74
(dp1875
g94
g95
ssg83
g1869
sg76
(lp1876
S'wsgi'
p1877
asbag69
(g90
g71
NtRp1878
(dp1879
g74
(dp1880
g101
g102
ssg83
g1869
sg76
(lp1881
S':'
asbag69
(g90
g71
NtRp1882
(dp1883
g74
(dp1884
sg83
g1869
sg76
(lp1885
g69
(g70
g71
NtRp1886
(dp1887
g74
(dp1888
g82
I5
ssg83
g1882
sg76
(lp1889
g69
(g78
g71
NtRp1890
(dp1891
g74
(dp1892
g82
I4
ssg83
Nsg76
(lp1893
g69
(g85
g71
NtRp1894
(dp1895
g74
(dp1896
sg83
g1890
sg76
(lp1897
g69
(g90
g71
NtRp1898
(dp1899
g74
(dp1900
g94
g95
ssg83
g1894
sg76
(lp1901
S'environ'
p1902
asbag69
(g90
g71
NtRp1903
(dp1904
g74
(dp1905
g101
g102
ssg83
g1894
sg76
(lp1906
S':'
asbag69
(g90
g71
NtRp1907
(dp1908
g74
(dp1909
sg83
g1894
sg76
(lp1910
g69
(g70
g71
NtRp1911
(dp1912
g74
(dp1913
g82
I4
ssg83
g1907
sg76
(lp1914
g69
(g78
g71
NtRp1915
(dp1916
g74
(dp1917
g82
I3
ssg83
Nsg76
(lp1918
g69
(g85
g71
NtRp1919
(dp1920
g74
(dp1921
sg83
g1915
sg76
(lp1922
g69
(g90
g71
NtRp1923
(dp1924
g74
(dp1925
g94
g95
ssg83
g1919
sg76
(lp1926
S'HTTP_ACCEPT'
p1927
asbag69
(g90
g71
NtRp1928
(dp1929
g74
(dp1930
g101
g102
ssg83
g1919
sg76
(lp1931
S':'
asbag69
(g90
g71
NtRp1932
(dp1933
g74
(dp1934
sg83
g1919
sg76
(lp1935
g69
(g70
g71
NtRp1936
(dp1937
g74
(dp1938
g82
I3
ssg83
g1932
sg76
(lp1939
g474
asbasbasbag69
(g85
g71
NtRp1940
(dp1941
g74
(dp1942
sg83
g1915
sg76
(lp1943
g69
(g90
g71
NtRp1944
(dp1945
g74
(dp1946
g94
g95
ssg83
g1940
sg76
(lp1947
S'HTTP_ACCEPT_ENCODING'
p1948
asbag69
(g90
g71
NtRp1949
(dp1950
g74
(dp1951
g101
g102
ssg83
g1940
sg76
(lp1952
S':'
asbag69
(g90
g71
NtRp1953
(dp1954
g74
(dp1955
sg83
g1940
sg76
(lp1956
g69
(g70
g71
NtRp1957
(dp1958
g74
(dp1959
g82
I3
ssg83
g1953
sg76
(lp1960
g496
asbasbasbag69
(g85
g71
NtRp1961
(dp1962
g74
(dp1963
sg83
g1915
sg76
(lp1964
g69
(g90
g71
NtRp1965
(dp1966
g74
(dp1967
g94
g95
ssg83
g1961
sg76
(lp1968
S'HTTP_ACCEPT_LANGUAGE'
p1969
asbag69
(g90
g71
NtRp1970
(dp1971
g74
(dp1972
g101
g102
ssg83
g1961
sg76
(lp1973
S':'
asbag69
(g90
g71
NtRp1974
(dp1975
g74
(dp1976
sg83
g1961
sg76
(lp1977
g69
(g70
g71
NtRp1978
(dp1979
g74
(dp1980
g82
I3
ssg83
g1974
sg76
(lp1981
g518
asbasbasbag69
(g85
g71
NtRp1982
(dp1983
g74
(dp1984
sg83
g1915
sg76
(lp1985
g69
(g90
g71
NtRp1986
(dp1987
g74
(dp1988
g94
g95
ssg83
g1982
sg76
(lp1989
S'HTTP_CONNECTION'
p1990
asbag69
(g90
g71
NtRp1991
(dp1992
g74
(dp1993
g101
g102
ssg83
g1982
sg76
(lp1994
S':'
asbag69
(g90
g71
NtRp1995
(dp1996
g74
(dp1997
sg83
g1982
sg76
(lp1998
g69
(g70
g71
NtRp1999
(dp2000
g74
(dp2001
g82
I3
ssg83
g1995
sg76
(lp2002
g540
asbasbasbag69
(g85
g71
NtRp2003
(dp2004
g74
(dp2005
sg83
g1915
sg76
(lp2006
g69
(g90
g71
NtRp2007
(dp2008
g74
(dp2009
g94
g95
ssg83
g2003
sg76
(lp2010
S'HTTP_DNT'
p2011
asbag69
(g90
g71
NtRp2012
(dp2013
g74
(dp2014
g101
g102
ssg83
g2003
sg76
(lp2015
S':'
asbag69
(g90
g71
NtRp2016
(dp2017
g74
(dp2018
sg83
g2003
sg76
(lp2019
g69
(g70
g71
NtRp2020
(dp2021
g74
(dp2022
g82
I3
ssg83
g2016
sg76
(lp2023
S'1'
asbasbasbag69
(g85
g71
NtRp2024
(dp2025
g74
(dp2026
sg83
g1915
sg76
(lp2027
g69
(g90
g71
NtRp2028
(dp2029
g74
(dp2030
g94
g95
ssg83
g2024
sg76
(lp2031
S'HTTP_HOST'
p2032
asbag69
(g90
g71
NtRp2033
(dp2034
g74
(dp2035
g101
g102
ssg83
g2024
sg76
(lp2036
S':'
asbag69
(g90
g71
NtRp2037
(dp2038
g74
(dp2039
sg83
g2024
sg76
(lp2040
g69
(g70
g71
NtRp2041
(dp2042
g74
(dp2043
g82
I3
ssg83
g2037
sg76
(lp2044
g583
asbasbasbag69
(g85
g71
NtRp2045
(dp2046
g74
(dp2047
sg83
g1915
sg76
(lp2048
g69
(g90
g71
NtRp2049
(dp2050
g74
(dp2051
g94
g95
ssg83
g2045
sg76
(lp2052
S'HTTP_USER_AGENT'
p2053
asbag69
(g90
g71
NtRp2054
(dp2055
g74
(dp2056
g101
g102
ssg83
g2045
sg76
(lp2057
S':'
asbag69
(g90
g71
NtRp2058
(dp2059
g74
(dp2060
sg83
g2045
sg76
(lp2061
g69
(g70
g71
NtRp2062
(dp2063
g74
(dp2064
g82
I3
ssg83
g2058
sg76
(lp2065
g605
asbasbasbag69
(g85
g71
NtRp2066
(dp2067
g74
(dp2068
sg83
g1915
sg76
(lp2069
g69
(g90
g71
NtRp2070
(dp2071
g74
(dp2072
g94
g95
ssg83
g2066
sg76
(lp2073
S'PATH_INFO'
p2074
asbag69
(g90
g71
NtRp2075
(dp2076
g74
(dp2077
g101
g102
ssg83
g2066
sg76
(lp2078
S':'
asbag69
(g90
g71
NtRp2079
(dp2080
g74
(dp2081
sg83
g2066
sg76
(lp2082
g69
(g70
g71
NtRp2083
(dp2084
g74
(dp2085
g82
I3
ssg83
g2079
sg76
(lp2086
g669
asbasbasbag69
(g85
g71
NtRp2087
(dp2088
g74
(dp2089
sg83
g1915
sg76
(lp2090
g69
(g90
g71
NtRp2091
(dp2092
g74
(dp2093
g94
g95
ssg83
g2087
sg76
(lp2094
S'QUERY_STRING'
p2095
asbag69
(g90
g71
NtRp2096
(dp2097
g74
(dp2098
g101
g102
ssg83
g2087
sg76
(lp2099
S':'
asbag69
(g90
g71
NtRp2100
(dp2101
g74
(dp2102
sg83
g2087
sg76
(lp2103
g69
(g70
g71
NtRp2104
(dp2105
g74
(dp2106
g82
I3
ssg83
g2100
sg76
(lp2107
S''
asbasbasbag69
(g85
g71
NtRp2108
(dp2109
g74
(dp2110
sg83
g1915
sg76
(lp2111
g69
(g90
g71
NtRp2112
(dp2113
g74
(dp2114
g94
g95
ssg83
g2108
sg76
(lp2115
S'REMOTE_ADDR'
p2116
asbag69
(g90
g71
NtRp2117
(dp2118
g74
(dp2119
g101
g102
ssg83
g2108
sg76
(lp2120
S':'
asbag69
(g90
g71
NtRp2121
(dp2122
g74
(dp2123
sg83
g2108
sg76
(lp2124
g69
(g70
g71
NtRp2125
(dp2126
g74
(dp2127
g82
I3
ssg83
g2121
sg76
(lp2128
g224
asbasbasbag69
(g85
g71
NtRp2129
(dp2130
g74
(dp2131
sg83
g1915
sg76
(lp2132
g69
(g90
g71
NtRp2133
(dp2134
g74
(dp2135
g94
g95
ssg83
g2129
sg76
(lp2136
S'REMOTE_PORT'
p2137
asbag69
(g90
g71
NtRp2138
(dp2139
g74
(dp2140
g101
g102
ssg83
g2129
sg76
(lp2141
S':'
asbag69
(g90
g71
NtRp2142
(dp2143
g74
(dp2144
sg83
g2129
sg76
(lp2145
g69
(g70
g71
NtRp2146
(dp2147
g74
(dp2148
g82
I3
ssg83
g2142
sg76
(lp2149
g733
asbasbasbag69
(g85
g71
NtRp2150
(dp2151
g74
(dp2152
sg83
g1915
sg76
(lp2153
g69
(g90
g71
NtRp2154
(dp2155
g74
(dp2156
g94
g95
ssg83
g2150
sg76
(lp2157
S'REQUEST_METHOD'
p2158
asbag69
(g90
g71
NtRp2159
(dp2160
g74
(dp2161
g101
g102
ssg83
g2150
sg76
(lp2162
S':'
asbag69
(g90
g71
NtRp2163
(dp2164
g74
(dp2165
sg83
g2150
sg76
(lp2166
g69
(g70
g71
NtRp2167
(dp2168
g74
(dp2169
g82
I3
ssg83
g2163
sg76
(lp2170
g755
asbasbasbag69
(g85
g71
NtRp2171
(dp2172
g74
(dp2173
sg83
g1915
sg76
(lp2174
g69
(g90
g71
NtRp2175
(dp2176
g74
(dp2177
g94
g95
ssg83
g2171
sg76
(lp2178
S'REQUEST_URI'
p2179
asbag69
(g90
g71
NtRp2180
(dp2181
g74
(dp2182
g101
g102
ssg83
g2171
sg76
(lp2183
S':'
asbag69
(g90
g71
NtRp2184
(dp2185
g74
(dp2186
sg83
g2171
sg76
(lp2187
g69
(g70
g71
NtRp2188
(dp2189
g74
(dp2190
g82
I3
ssg83
g2184
sg76
(lp2191
g669
asbasbasbag69
(g85
g71
NtRp2192
(dp2193
g74
(dp2194
sg83
g1915
sg76
(lp2195
g69
(g90
g71
NtRp2196
(dp2197
g74
(dp2198
g94
g95
ssg83
g2192
sg76
(lp2199
S'SCRIPT_NAME'
p2200
asbag69
(g90
g71
NtRp2201
(dp2202
g74
(dp2203
g101
g102
ssg83
g2192
sg76
(lp2204
S':'
asbag69
(g90
g71
NtRp2205
(dp2206
g74
(dp2207
sg83
g2192
sg76
(lp2208
g69
(g70
g71
NtRp2209
(dp2210
g74
(dp2211
g82
I3
ssg83
g2205
sg76
(lp2212
S''
asbasbasbag69
(g85
g71
NtRp2213
(dp2214
g74
(dp2215
sg83
g1915
sg76
(lp2216
g69
(g90
g71
NtRp2217
(dp2218
g74
(dp2219
g94
g95
ssg83
g2213
sg76
(lp2220
S'SERVER_NAME'
p2221
asbag69
(g90
g71
NtRp2222
(dp2223
g74
(dp2224
g101
g102
ssg83
g2213
sg76
(lp2225
S':'
asbag69
(g90
g71
NtRp2226
(dp2227
g74
(dp2228
sg83
g2213
sg76
(lp2229
g69
(g70
g71
NtRp2230
(dp2231
g74
(dp2232
g82
I3
ssg83
g2226
sg76
(lp2233
g819
asbasbasbag69
(g85
g71
NtRp2234
(dp2235
g74
(dp2236
sg83
g1915
sg76
(lp2237
g69
(g90
g71
NtRp2238
(dp2239
g74
(dp2240
g94
g95
ssg83
g2234
sg76
(lp2241
S'SERVER_PORT'
p2242
asbag69
(g90
g71
NtRp2243
(dp2244
g74
(dp2245
g101
g102
ssg83
g2234
sg76
(lp2246
S':'
asbag69
(g90
g71
NtRp2247
(dp2248
g74
(dp2249
sg83
g2234
sg76
(lp2250
g69
(g70
g71
NtRp2251
(dp2252
g74
(dp2253
g82
I3
ssg83
g2247
sg76
(lp2254
g841
asbasbasbag69
(g85
g71
NtRp2255
(dp2256
g74
(dp2257
sg83
g1915
sg76
(lp2258
g69
(g90
g71
NtRp2259
(dp2260
g74
(dp2261
g94
g95
ssg83
g2255
sg76
(lp2262
S'SERVER_PROTOCOL'
p2263
asbag69
(g90
g71
NtRp2264
(dp2265
g74
(dp2266
g101
g102
ssg83
g2255
sg76
(lp2267
S':'
asbag69
(g90
g71
NtRp2268
(dp2269
g74
(dp2270
sg83
g2255
sg76
(lp2271
g69
(g70
g71
NtRp2272
(dp2273
g74
(dp2274
g82
I3
ssg83
g2268
sg76
(lp2275
g863
asbasbasbag69
(g85
g71
NtRp2276
(dp2277
g74
(dp2278
sg83
g1915
sg76
(lp2279
g69
(g90
g71
NtRp2280
(dp2281
g74
(dp2282
g94
g95
ssg83
g2276
sg76
(lp2283
S'SERVER_SOFTWARE'
p2284
asbag69
(g90
g71
NtRp2285
(dp2286
g74
(dp2287
g101
g102
ssg83
g2276
sg76
(lp2288
S':'
asbag69
(g90
g71
NtRp2289
(dp2290
g74
(dp2291
sg83
g2276
sg76
(lp2292
g69
(g70
g71
NtRp2293
(dp2294
g74
(dp2295
g82
I3
ssg83
g2289
sg76
(lp2296
g885
asbasbasbag69
(g85
g71
NtRp2297
(dp2298
g74
(dp2299
sg83
g1915
sg76
(lp2300
g69
(g90
g71
NtRp2301
(dp2302
g74
(dp2303
g94
g95
ssg83
g2297
sg76
(lp2304
S'wsgi.errors'
p2305
asbag69
(g90
g71
NtRp2306
(dp2307
g74
(dp2308
g101
g102
ssg83
g2297
sg76
(lp2309
S':'
asbag69
(g90
g71
NtRp2310
(dp2311
g74
(dp2312
sg83
g2297
sg76
(lp2313
g69
(g70
g71
NtRp2314
(dp2315
g74
(dp2316
g82
I3
ssg83
g2310
sg76
(lp2317
S"<open file '<stderr>', mode 'w' at 0x7fa299e3f270>"
p2318
asbasbasbag69
(g85
g71
NtRp2319
(dp2320
g74
(dp2321
sg83
g1915
sg76
(lp2322
g69
(g90
g71
NtRp2323
(dp2324
g74
(dp2325
g94
g95
ssg83
g2319
sg76
(lp2326
S'wsgi.file_wrapper'
p2327
asbag69
(g90
g71
NtRp2328
(dp2329
g74
(dp2330
g101
g102
ssg83
g2319
sg76
(lp2331
S':'
asbag69
(g90
g71
NtRp2332
(dp2333
g74
(dp2334
sg83
g2319
sg76
(lp2335
g69
(g70
g71
NtRp2336
(dp2337
g74
(dp2338
g82
I3
ssg83
g2332
sg76
(lp2339
S'<class wsgiref.util.FileWrapper at 0x2098600>'
p2340
asbasbasbag69
(g85
g71
NtRp2341
(dp2342
g74
(dp2343
sg83
g1915
sg76
(lp2344
g69
(g90
g71
NtRp2345
(dp2346
g74
(dp2347
g94
g95
ssg83
g2341
sg76
(lp2348
S'wsgi.input'
p2349
asbag69
(g90
g71
NtRp2350
(dp2351
g74
(dp2352
g101
g102
ssg83
g2341
sg76
(lp2353
S':'
asbag69
(g90
g71
NtRp2354
(dp2355
g74
(dp2356
sg83
g2341
sg76
(lp2357
g69
(g70
g71
NtRp2358
(dp2359
g74
(dp2360
g82
I3
ssg83
g2354
sg76
(lp2361
S'<cStringIO.StringO object at 0x7fa27c192bc8>'
p2362
asbasbasbag69
(g85
g71
NtRp2363
(dp2364
g74
(dp2365
sg83
g1915
sg76
(lp2366
g69
(g90
g71
NtRp2367
(dp2368
g74
(dp2369
g94
g95
ssg83
g2363
sg76
(lp2370
S'wsgi.multiprocess'
p2371
asbag69
(g90
g71
NtRp2372
(dp2373
g74
(dp2374
g101
g102
ssg83
g2363
sg76
(lp2375
S':'
asbag69
(g90
g71
NtRp2376
(dp2377
g74
(dp2378
sg83
g2363
sg76
(lp2379
g69
(g70
g71
NtRp2380
(dp2381
g74
(dp2382
g82
I3
ssg83
g2376
sg76
(lp2383
g112
asbasbasbag69
(g85
g71
NtRp2384
(dp2385
g74
(dp2386
sg83
g1915
sg76
(lp2387
g69
(g90
g71
NtRp2388
(dp2389
g74
(dp2390
g94
g95
ssg83
g2384
sg76
(lp2391
S'wsgi.multithread'
p2392
asbag69
(g90
g71
NtRp2393
(dp2394
g74
(dp2395
g101
g102
ssg83
g2384
sg76
(lp2396
S':'
asbag69
(g90
g71
NtRp2397
(dp2398
g74
(dp2399
sg83
g2384
sg76
(lp2400
g69
(g70
g71
NtRp2401
(dp2402
g74
(dp2403
g82
I3
ssg83
g2397
sg76
(lp2404
g1124
asbasbasbag69
(g85
g71
NtRp2405
(dp2406
g74
(dp2407
sg83
g1915
sg76
(lp2408
g69
(g90
g71
NtRp2409
(dp2410
g74
(dp2411
g94
g95
ssg83
g2405
sg76
(lp2412
S'wsgi.run_once'
p2413
asbag69
(g90
g71
NtRp2414
(dp2415
g74
(dp2416
g101
g102
ssg83
g2405
sg76
(lp2417
S':'
asbag69
(g90
g71
NtRp2418
(dp2419
g74
(dp2420
sg83
g2405
sg76
(lp2421
g69
(g70
g71
NtRp2422
(dp2423
g74
(dp2424
g82
I3
ssg83
g2418
sg76
(lp2425
g112
asbasbasbag69
(g85
g71
NtRp2426
(dp2427
g74
(dp2428
sg83
g1915
sg76
(lp2429
g69
(g90
g71
NtRp2430
(dp2431
g74
(dp2432
g94
g95
ssg83
g2426
sg76
(lp2433
S'wsgi.url_scheme'
p2434
asbag69
(g90
g71
NtRp2435
(dp2436
g74
(dp2437
g101
g102
ssg83
g2426
sg76
(lp2438
S':'
asbag69
(g90
g71
NtRp2439
(dp2440
g74
(dp2441
sg83
g2426
sg76
(lp2442
g69
(g70
g71
NtRp2443
(dp2444
g74
(dp2445
g82
I3
ssg83
g2439
sg76
(lp2446
g1167
asbasbasbag69
(g85
g71
NtRp2447
(dp2448
g74
(dp2449
sg83
g1915
sg76
(lp2450
g69
(g90
g71
NtRp2451
(dp2452
g74
(dp2453
g94
g95
ssg83
g2447
sg76
(lp2454
S'wsgi.version'
p2455
asbag69
(g90
g71
NtRp2456
(dp2457
g74
(dp2458
g101
g102
ssg83
g2447
sg76
(lp2459
S':'
asbag69
(g90
g71
NtRp2460
(dp2461
g74
(dp2462
sg83
g2447
sg76
(lp2463
g69
(g70
g71
NtRp2464
(dp2465
g74
(dp2466
g82
I3
ssg83
g2460
sg76
(lp2467
S'1'
asbasbasbasbasbasbasbasbasbasbasbasbasbsS'frames'
p2468
(lp2469
(dp2470
S'file'
p2471
S'/home/lordinvader/Studies/Presentation-day-code/web2py/gluon/restricted.py'
p2472
sS'dump'
p2473
(dp2474
S'code'
p2475
S"'# -*- coding: utf-8 -*-\\n# this file is released ...=crud())\\n\\nresponse._vars=response._caller(index)\\n'"
p2476
sS'layer'
p2477
S"'/home/lordinvader/Studies/Presentation-day-code/web2py/applications/FunkLoad/controllers/default.py'"
p2478
sS'global compile2'
p2479
S'<function compile2>'
p2480
sS'ccode'
p2481
S'undefined'
p2482
ssS'lnum'
p2483
I208
sS'lines'
p2484
(dp2485
I203
S"    environment['__name__'] = '__restricted__'"
p2486
sI204
S'    try:'
p2487
sI205
S'        if type(code) == types.CodeType:'
p2488
sI206
S'            ccode = code'
p2489
sI207
S'        else:'
p2490
sI208
S'            ccode = compile2(code,layer)'
p2491
sI209
S'        exec ccode in environment'
p2492
sI210
S'    except HTTP:'
p2493
sI211
S'        raise'
p2494
sI212
S'    except RestrictedError:'
p2495
ssS'call'
p2496
S"(code='# -*- coding: utf-8 -*-\\n# this file is released ...=crud())\\n\\nresponse._vars=response._caller(index)\\n', environment={'A': <class 'gluon.html.A'>, 'Auth': <class 'gluon.tools.Auth'>, 'B': <class 'gluon.html.B'>, 'BEAUTIFY': <class 'gluon.html.BEAUTIFY'>, 'BODY': <class 'gluon.html.BODY'>, 'BR': <class 'gluon.html.BR'>, 'BUTTON': <class 'gluon.html.BUTTON'>, 'CAT': <class 'gluon.html.CAT'>, 'CENTER': <class 'gluon.html.CENTER'>, 'CLEANUP': <class 'gluon.validators.CLEANUP'>, ...}, layer='/home/lordinvader/Studies/Presentation-day-code/web2py/applications/FunkLoad/controllers/default.py')"
p2497
sS'func'
p2498
S'restricted'
p2499
sa(dp2500
g2471
S'/home/lordinvader/Studies/Presentation-day-code/web2py/gluon/restricted.py'
p2501
sg2473
(dp2502
S'builtincompile'
p2503
S'<built-in function compile>'
p2504
sS'code'
p2505
S"'# -*- coding: utf-8 -*-\\n# this file is released ...=crud())\\n\\nresponse._vars=response._caller(index)\\n'"
p2506
sS'code.rstrip'
p2507
S'<built-in method rstrip of str object>'
p2508
sS').replace'
p2509
g2482
sS'layer'
p2510
S"'/home/lordinvader/Studies/Presentation-day-code/web2py/applications/FunkLoad/controllers/default.py'"
p2511
ssg2483
I193
sg2484
(dp2512
I192
S'    """'
p2513
sI193
S"    return compile(code.rstrip().replace('\\r\\n','\\n')+'\\n', layer, 'exec')"
p2514
sI194
S''
sI195
S"def restricted(code, environment=None, layer='Unknown'):"
p2515
sI196
S'    """'
p2516
sI197
S'    runs code in environment and returns the output. if an exception occurs'
p2517
sI188
S''
sI189
S'def compile2(code,layer):'
p2518
sI190
S'    """'
p2519
sI191
S"    The +'\\n' is necessary else compile fails when code ends in a comment."
p2520
ssg2496
S"(code='# -*- coding: utf-8 -*-\\n# this file is released ...=crud())\\n\\nresponse._vars=response._caller(index)\\n', layer='/home/lordinvader/Studies/Presentation-day-code/web2py/applications/FunkLoad/controllers/default.py')"
p2521
sg2498
S'compile2'
p2522
sasS'pyver'
p2523
S'Python 2.7.3: /usr/bin/python'
p2524
sS'session'
p2525
g69
(g70
g71
NtRp2526
(dp2527
g74
(dp2528
sg76
(lp2529
g69
(g78
g71
NtRp2530
(dp2531
g74
(dp2532
g82
I5
ssg83
Nsg76
(lp2533
g69
(g85
g71
NtRp2534
(dp2535
g74
(dp2536
sg83
g2530
sg76
(lp2537
g69
(g90
g71
NtRp2538
(dp2539
g74
(dp2540
g94
g95
ssg83
g2534
sg76
(lp2541
S'auth'
p2542
asbag69
(g90
g71
NtRp2543
(dp2544
g74
(dp2545
g101
g102
ssg83
g2534
sg76
(lp2546
S':'
asbag69
(g90
g71
NtRp2547
(dp2548
g74
(dp2549
sg83
g2534
sg76
(lp2550
g69
(g70
g71
NtRp2551
(dp2552
g74
(dp2553
g82
I5
ssg83
g2547
sg76
(lp2554
S'None'
p2555
asbasbasbasbasbsS'etype'
p2556
S"<type 'exceptions.IndentationError'>"
p2557
sS'date'
p2558
S'Thu Nov 21 14:38:58 2013'
p2559
sS'response'
p2560
g69
(g70
g71
NtRp2561
(dp2562
g74
(dp2563
sg76
(lp2564
g69
(g78
g71
NtRp2565
(dp2566
g74
(dp2567
g82
I5
ssg83
Nsg76
(lp2568
g69
(g85
g71
NtRp2569
(dp2570
g74
(dp2571
sg83
g2565
sg76
(lp2572
g69
(g90
g71
NtRp2573
(dp2574
g74
(dp2575
g94
g95
ssg83
g2569
sg76
(lp2576
g167
asbag69
(g90
g71
NtRp2577
(dp2578
g74
(dp2579
g101
g102
ssg83
g2569
sg76
(lp2580
S':'
asbag69
(g90
g71
NtRp2581
(dp2582
g74
(dp2583
sg83
g2569
sg76
(lp2584
g69
(g70
g71
NtRp2585
(dp2586
g74
(dp2587
g82
I5
ssg83
g2581
sg76
(lp2588
S'<cStringIO.StringO object at 0x7fa27c28a298>'
p2589
asbasbasbag69
(g85
g71
NtRp2590
(dp2591
g74
(dp2592
sg83
g2565
sg76
(lp2593
g69
(g90
g71
NtRp2594
(dp2595
g74
(dp2596
g94
g95
ssg83
g2590
sg76
(lp2597
g255
asbag69
(g90
g71
NtRp2598
(dp2599
g74
(dp2600
g101
g102
ssg83
g2590
sg76
(lp2601
S':'
asbag69
(g90
g71
NtRp2602
(dp2603
g74
(dp2604
sg83
g2590
sg76
(lp2605
g69
(g70
g71
NtRp2606
(dp2607
g74
(dp2608
g82
I5
ssg83
g2602
sg76
(lp2609
g69
(g78
g71
NtRp2610
(dp2611
g74
(dp2612
g82
I4
ssg83
Nsg76
(lp2613
g69
(g85
g71
NtRp2614
(dp2615
g74
(dp2616
sg83
g2610
sg76
(lp2617
g69
(g90
g71
NtRp2618
(dp2619
g74
(dp2620
g94
g95
ssg83
g2614
sg76
(lp2621
S'session_id_funkload'
p2622
asbag69
(g90
g71
NtRp2623
(dp2624
g74
(dp2625
g101
g102
ssg83
g2614
sg76
(lp2626
S':'
asbag69
(g90
g71
NtRp2627
(dp2628
g74
(dp2629
sg83
g2614
sg76
(lp2630
g69
(g70
g71
NtRp2631
(dp2632
g74
(dp2633
g82
I4
ssg83
g2627
sg76
(lp2634
S'127.0.0.1-3ed962e5-c3c6-4ba8-a1c9-2512d21b323f'
p2635
ag69
(g78
g71
NtRp2636
(dp2637
g74
(dp2638
g82
I3
ssg83
Nsg76
(lp2639
g69
(g85
g71
NtRp2640
(dp2641
g74
(dp2642
sg83
g2636
sg76
(lp2643
g69
(g90
g71
NtRp2644
(dp2645
g74
(dp2646
g94
g95
ssg83
g2640
sg76
(lp2647
S'comment'
p2648
asbag69
(g90
g71
NtRp2649
(dp2650
g74
(dp2651
g101
g102
ssg83
g2640
sg76
(lp2652
S':'
asbag69
(g90
g71
NtRp2653
(dp2654
g74
(dp2655
sg83
g2640
sg76
(lp2656
g69
(g70
g71
NtRp2657
(dp2658
g74
(dp2659
g82
I3
ssg83
g2653
sg76
(lp2660
S''
asbasbasbag69
(g85
g71
NtRp2661
(dp2662
g74
(dp2663
sg83
g2636
sg76
(lp2664
g69
(g90
g71
NtRp2665
(dp2666
g74
(dp2667
g94
g95
ssg83
g2661
sg76
(lp2668
S'domain'
p2669
asbag69
(g90
g71
NtRp2670
(dp2671
g74
(dp2672
g101
g102
ssg83
g2661
sg76
(lp2673
S':'
asbag69
(g90
g71
NtRp2674
(dp2675
g74
(dp2676
sg83
g2661
sg76
(lp2677
g69
(g70
g71
NtRp2678
(dp2679
g74
(dp2680
g82
I3
ssg83
g2674
sg76
(lp2681
S''
asbasbasbag69
(g85
g71
NtRp2682
(dp2683
g74
(dp2684
sg83
g2636
sg76
(lp2685
g69
(g90
g71
NtRp2686
(dp2687
g74
(dp2688
g94
g95
ssg83
g2682
sg76
(lp2689
S'expires'
p2690
asbag69
(g90
g71
NtRp2691
(dp2692
g74
(dp2693
g101
g102
ssg83
g2682
sg76
(lp2694
S':'
asbag69
(g90
g71
NtRp2695
(dp2696
g74
(dp2697
sg83
g2682
sg76
(lp2698
g69
(g70
g71
NtRp2699
(dp2700
g74
(dp2701
g82
I3
ssg83
g2695
sg76
(lp2702
S''
asbasbasbag69
(g85
g71
NtRp2703
(dp2704
g74
(dp2705
sg83
g2636
sg76
(lp2706
g69
(g90
g71
NtRp2707
(dp2708
g74
(dp2709
g94
g95
ssg83
g2703
sg76
(lp2710
S'httponly'
p2711
asbag69
(g90
g71
NtRp2712
(dp2713
g74
(dp2714
g101
g102
ssg83
g2703
sg76
(lp2715
S':'
asbag69
(g90
g71
NtRp2716
(dp2717
g74
(dp2718
sg83
g2703
sg76
(lp2719
g69
(g70
g71
NtRp2720
(dp2721
g74
(dp2722
g82
I3
ssg83
g2716
sg76
(lp2723
S''
asbasbasbag69
(g85
g71
NtRp2724
(dp2725
g74
(dp2726
sg83
g2636
sg76
(lp2727
g69
(g90
g71
NtRp2728
(dp2729
g74
(dp2730
g94
g95
ssg83
g2724
sg76
(lp2731
S'max-age'
p2732
asbag69
(g90
g71
NtRp2733
(dp2734
g74
(dp2735
g101
g102
ssg83
g2724
sg76
(lp2736
S':'
asbag69
(g90
g71
NtRp2737
(dp2738
g74
(dp2739
sg83
g2724
sg76
(lp2740
g69
(g70
g71
NtRp2741
(dp2742
g74
(dp2743
g82
I3
ssg83
g2737
sg76
(lp2744
S''
asbasbasbag69
(g85
g71
NtRp2745
(dp2746
g74
(dp2747
sg83
g2636
sg76
(lp2748
g69
(g90
g71
NtRp2749
(dp2750
g74
(dp2751
g94
g95
ssg83
g2745
sg76
(lp2752
S'path'
p2753
asbag69
(g90
g71
NtRp2754
(dp2755
g74
(dp2756
g101
g102
ssg83
g2745
sg76
(lp2757
S':'
asbag69
(g90
g71
NtRp2758
(dp2759
g74
(dp2760
sg83
g2745
sg76
(lp2761
g69
(g70
g71
NtRp2762
(dp2763
g74
(dp2764
g82
I3
ssg83
g2758
sg76
(lp2765
S'/'
asbasbasbag69
(g85
g71
NtRp2766
(dp2767
g74
(dp2768
sg83
g2636
sg76
(lp2769
g69
(g90
g71
NtRp2770
(dp2771
g74
(dp2772
g94
g95
ssg83
g2766
sg76
(lp2773
S'secure'
p2774
asbag69
(g90
g71
NtRp2775
(dp2776
g74
(dp2777
g101
g102
ssg83
g2766
sg76
(lp2778
S':'
asbag69
(g90
g71
NtRp2779
(dp2780
g74
(dp2781
sg83
g2766
sg76
(lp2782
g69
(g70
g71
NtRp2783
(dp2784
g74
(dp2785
g82
I3
ssg83
g2779
sg76
(lp2786
S''
asbasbasbag69
(g85
g71
NtRp2787
(dp2788
g74
(dp2789
sg83
g2636
sg76
(lp2790
g69
(g90
g71
NtRp2791
(dp2792
g74
(dp2793
g94
g95
ssg83
g2787
sg76
(lp2794
S'version'
p2795
asbag69
(g90
g71
NtRp2796
(dp2797
g74
(dp2798
g101
g102
ssg83
g2787
sg76
(lp2799
S':'
asbag69
(g90
g71
NtRp2800
(dp2801
g74
(dp2802
sg83
g2787
sg76
(lp2803
g69
(g70
g71
NtRp2804
(dp2805
g74
(dp2806
g82
I3
ssg83
g2800
sg76
(lp2807
S''
asbasbasbasbasbasbasbasbasbasbasbag69
(g85
g71
NtRp2808
(dp2809
g74
(dp2810
sg83
g2565
sg76
(lp2811
g69
(g90
g71
NtRp2812
(dp2813
g74
(dp2814
g94
g95
ssg83
g2808
sg76
(lp2815
S'delimiters'
p2816
asbag69
(g90
g71
NtRp2817
(dp2818
g74
(dp2819
g101
g102
ssg83
g2808
sg76
(lp2820
S':'
asbag69
(g90
g71
NtRp2821
(dp2822
g74
(dp2823
sg83
g2808
sg76
(lp2824
g69
(g70
g71
NtRp2825
(dp2826
g74
(dp2827
g82
I5
ssg83
g2821
sg76
(lp2828
g69
(g78
g71
NtRp2829
(dp2830
g74
(dp2831
g82
I4
ssg83
Nsg76
(lp2832
g69
(g85
g71
NtRp2833
(dp2834
g74
(dp2835
sg83
g2829
sg76
(lp2836
g69
(g90
g71
NtRp2837
(dp2838
g74
(dp2839
sg83
g2833
sg76
(lp2840
g69
(g70
g71
NtRp2841
(dp2842
g74
(dp2843
g82
I4
ssg83
g2837
sg76
(lp2844
S'{{'
p2845
asbasbasbag69
(g85
g71
NtRp2846
(dp2847
g74
(dp2848
sg83
g2829
sg76
(lp2849
g69
(g90
g71
NtRp2850
(dp2851
g74
(dp2852
sg83
g2846
sg76
(lp2853
g69
(g70
g71
NtRp2854
(dp2855
g74
(dp2856
g82
I4
ssg83
g2850
sg76
(lp2857
S'}}'
p2858
asbasbasbasbasbasbasbag69
(g85
g71
NtRp2859
(dp2860
g74
(dp2861
sg83
g2565
sg76
(lp2862
g69
(g90
g71
NtRp2863
(dp2864
g74
(dp2865
g94
g95
ssg83
g2859
sg76
(lp2866
S'files'
p2867
asbag69
(g90
g71
NtRp2868
(dp2869
g74
(dp2870
g101
g102
ssg83
g2859
sg76
(lp2871
S':'
asbag69
(g90
g71
NtRp2872
(dp2873
g74
(dp2874
sg83
g2859
sg76
(lp2875
g69
(g70
g71
NtRp2876
(dp2877
g74
(dp2878
g82
I5
ssg83
g2872
sg76
(lp2879
g69
(g78
g71
NtRp2880
(dp2881
g74
(dp2882
g82
I4
ssg83
Nsg76
(lp2883
sbasbasbasbag69
(g85
g71
NtRp2884
(dp2885
g74
(dp2886
sg83
g2565
sg76
(lp2887
g69
(g90
g71
NtRp2888
(dp2889
g74
(dp2890
g94
g95
ssg83
g2884
sg76
(lp2891
S'flash'
p2892
asbag69
(g90
g71
NtRp2893
(dp2894
g74
(dp2895
g101
g102
ssg83
g2884
sg76
(lp2896
S':'
asbag69
(g90
g71
NtRp2897
(dp2898
g74
(dp2899
sg83
g2884
sg76
(lp2900
g69
(g70
g71
NtRp2901
(dp2902
g74
(dp2903
g82
I5
ssg83
g2897
sg76
(lp2904
S''
asbasbasbag69
(g85
g71
NtRp2905
(dp2906
g74
(dp2907
sg83
g2565
sg76
(lp2908
g69
(g90
g71
NtRp2909
(dp2910
g74
(dp2911
g94
g95
ssg83
g2905
sg76
(lp2912
S'generic_patterns'
p2913
asbag69
(g90
g71
NtRp2914
(dp2915
g74
(dp2916
g101
g102
ssg83
g2905
sg76
(lp2917
S':'
asbag69
(g90
g71
NtRp2918
(dp2919
g74
(dp2920
sg83
g2905
sg76
(lp2921
g69
(g70
g71
NtRp2922
(dp2923
g74
(dp2924
g82
I5
ssg83
g2918
sg76
(lp2925
g69
(g78
g71
NtRp2926
(dp2927
g74
(dp2928
g82
I4
ssg83
Nsg76
(lp2929
g69
(g85
g71
NtRp2930
(dp2931
g74
(dp2932
sg83
g2926
sg76
(lp2933
g69
(g90
g71
NtRp2934
(dp2935
g74
(dp2936
sg83
g2930
sg76
(lp2937
g69
(g70
g71
NtRp2938
(dp2939
g74
(dp2940
g82
I4
ssg83
g2934
sg76
(lp2941
S'*'
asbasbasbasbasbasbasbag69
(g85
g71
NtRp2942
(dp2943
g74
(dp2944
sg83
g2565
sg76
(lp2945
g69
(g90
g71
NtRp2946
(dp2947
g74
(dp2948
g94
g95
ssg83
g2942
sg76
(lp2949
S'google_analytics_id'
p2950
asbag69
(g90
g71
NtRp2951
(dp2952
g74
(dp2953
g101
g102
ssg83
g2942
sg76
(lp2954
S':'
asbag69
(g90
g71
NtRp2955
(dp2956
g74
(dp2957
sg83
g2942
sg76
(lp2958
g69
(g70
g71
NtRp2959
(dp2960
g74
(dp2961
g82
I5
ssg83
g2955
sg76
(lp2962
S'None'
p2963
asbasbasbag69
(g85
g71
NtRp2964
(dp2965
g74
(dp2966
sg83
g2565
sg76
(lp2967
g69
(g90
g71
NtRp2968
(dp2969
g74
(dp2970
g94
g95
ssg83
g2964
sg76
(lp2971
S'headers'
p2972
asbag69
(g90
g71
NtRp2973
(dp2974
g74
(dp2975
g101
g102
ssg83
g2964
sg76
(lp2976
S':'
asbag69
(g90
g71
NtRp2977
(dp2978
g74
(dp2979
sg83
g2964
sg76
(lp2980
g69
(g70
g71
NtRp2981
(dp2982
g74
(dp2983
g82
I5
ssg83
g2977
sg76
(lp2984
g69
(g78
g71
NtRp2985
(dp2986
g74
(dp2987
g82
I4
ssg83
Nsg76
(lp2988
g69
(g85
g71
NtRp2989
(dp2990
g74
(dp2991
sg83
g2985
sg76
(lp2992
g69
(g90
g71
NtRp2993
(dp2994
g74
(dp2995
g94
g95
ssg83
g2989
sg76
(lp2996
S'Cache-Control'
p2997
asbag69
(g90
g71
NtRp2998
(dp2999
g74
(dp3000
g101
g102
ssg83
g2989
sg76
(lp3001
S':'
asbag69
(g90
g71
NtRp3002
(dp3003
g74
(dp3004
sg83
g2989
sg76
(lp3005
g69
(g70
g71
NtRp3006
(dp3007
g74
(dp3008
g82
I4
ssg83
g3002
sg76
(lp3009
S'no-store, no-cache, must-revalidate, post-check=0, pre-check=0'
p3010
asbasbasbag69
(g85
g71
NtRp3011
(dp3012
g74
(dp3013
sg83
g2985
sg76
(lp3014
g69
(g90
g71
NtRp3015
(dp3016
g74
(dp3017
g94
g95
ssg83
g3011
sg76
(lp3018
S'Content-Type'
p3019
asbag69
(g90
g71
NtRp3020
(dp3021
g74
(dp3022
g101
g102
ssg83
g3011
sg76
(lp3023
S':'
asbag69
(g90
g71
NtRp3024
(dp3025
g74
(dp3026
sg83
g3011
sg76
(lp3027
g69
(g70
g71
NtRp3028
(dp3029
g74
(dp3030
g82
I4
ssg83
g3024
sg76
(lp3031
S'text/html; charset=utf-8'
p3032
asbasbasbag69
(g85
g71
NtRp3033
(dp3034
g74
(dp3035
sg83
g2985
sg76
(lp3036
g69
(g90
g71
NtRp3037
(dp3038
g74
(dp3039
g94
g95
ssg83
g3033
sg76
(lp3040
S'Expires'
p3041
asbag69
(g90
g71
NtRp3042
(dp3043
g74
(dp3044
g101
g102
ssg83
g3033
sg76
(lp3045
S':'
asbag69
(g90
g71
NtRp3046
(dp3047
g74
(dp3048
sg83
g3033
sg76
(lp3049
g69
(g70
g71
NtRp3050
(dp3051
g74
(dp3052
g82
I4
ssg83
g3046
sg76
(lp3053
S'Thu, 21 Nov 2013 09:08:56 GMT'
p3054
asbasbasbag69
(g85
g71
NtRp3055
(dp3056
g74
(dp3057
sg83
g2985
sg76
(lp3058
g69
(g90
g71
NtRp3059
(dp3060
g74
(dp3061
g94
g95
ssg83
g3055
sg76
(lp3062
S'Pragma'
p3063
asbag69
(g90
g71
NtRp3064
(dp3065
g74
(dp3066
g101
g102
ssg83
g3055
sg76
(lp3067
S':'
asbag69
(g90
g71
NtRp3068
(dp3069
g74
(dp3070
sg83
g3055
sg76
(lp3071
g69
(g70
g71
NtRp3072
(dp3073
g74
(dp3074
g82
I4
ssg83
g3068
sg76
(lp3075
S'no-cache'
p3076
asbasbasbag69
(g85
g71
NtRp3077
(dp3078
g74
(dp3079
sg83
g2985
sg76
(lp3080
g69
(g90
g71
NtRp3081
(dp3082
g74
(dp3083
g94
g95
ssg83
g3077
sg76
(lp3084
S'X-Powered-By'
p3085
asbag69
(g90
g71
NtRp3086
(dp3087
g74
(dp3088
g101
g102
ssg83
g3077
sg76
(lp3089
S':'
asbag69
(g90
g71
NtRp3090
(dp3091
g74
(dp3092
sg83
g3077
sg76
(lp3093
g69
(g70
g71
NtRp3094
(dp3095
g74
(dp3096
g82
I4
ssg83
g3090
sg76
(lp3097
S'web2py'
p3098
asbasbasbasbasbasbasbag69
(g85
g71
NtRp3099
(dp3100
g74
(dp3101
sg83
g2565
sg76
(lp3102
g69
(g90
g71
NtRp3103
(dp3104
g74
(dp3105
g94
g95
ssg83
g3099
sg76
(lp3106
S'menu'
p3107
asbag69
(g90
g71
NtRp3108
(dp3109
g74
(dp3110
g101
g102
ssg83
g3099
sg76
(lp3111
S':'
asbag69
(g90
g71
NtRp3112
(dp3113
g74
(dp3114
sg83
g3099
sg76
(lp3115
g69
(g70
g71
NtRp3116
(dp3117
g74
(dp3118
g82
I5
ssg83
g3112
sg76
(lp3119
g69
(g78
g71
NtRp3120
(dp3121
g74
(dp3122
g82
I4
ssg83
Nsg76
(lp3123
g69
(g85
g71
NtRp3124
(dp3125
g74
(dp3126
sg83
g3120
sg76
(lp3127
g69
(g90
g71
NtRp3128
(dp3129
g74
(dp3130
sg83
g3124
sg76
(lp3131
g69
(g70
g71
NtRp3132
(dp3133
g74
(dp3134
g82
I4
ssg83
g3128
sg76
(lp3135
g69
(g78
g71
NtRp3136
(dp3137
g74
(dp3138
g82
I3
ssg83
Nsg76
(lp3139
g69
(g85
g71
NtRp3140
(dp3141
g74
(dp3142
sg83
g3136
sg76
(lp3143
g69
(g90
g71
NtRp3144
(dp3145
g74
(dp3146
sg83
g3140
sg76
(lp3147
g69
(g70
g71
NtRp3148
(dp3149
g74
(dp3150
g82
I3
ssg83
g3144
sg76
(lp3151
cgluon.languages
lazyT_unpickle
p3152
(S's\x04\x00\x00\x00Home'
tRp3153
asbasbasbag69
(g85
g71
NtRp3154
(dp3155
g74
(dp3156
sg83
g3136
sg76
(lp3157
g69
(g90
g71
NtRp3158
(dp3159
g74
(dp3160
sg83
g3154
sg76
(lp3161
g69
(g70
g71
NtRp3162
(dp3163
g74
(dp3164
g82
I3
ssg83
g3158
sg76
(lp3165
g112
asbasbasbag69
(g85
g71
NtRp3166
(dp3167
g74
(dp3168
sg83
g3136
sg76
(lp3169
g69
(g90
g71
NtRp3170
(dp3171
g74
(dp3172
sg83
g3166
sg76
(lp3173
g69
(g70
g71
NtRp3174
(dp3175
g74
(dp3176
g82
I3
ssg83
g3170
sg76
(lp3177
S'/FunkLoad/default/index'
p3178
asbasbasbag69
(g85
g71
NtRp3179
(dp3180
g74
(dp3181
sg83
g3136
sg76
(lp3182
g69
(g90
g71
NtRp3183
(dp3184
g74
(dp3185
sg83
g3179
sg76
(lp3186
g69
(g70
g71
NtRp3187
(dp3188
g74
(dp3189
g82
I3
ssg83
g3183
sg76
(lp3190
g69
(g78
g71
NtRp3191
(dp3192
g74
(dp3193
g82
I2
ssg83
Nsg76
(lp3194
sbasbasbasbasbasbasbasbag69
(g85
g71
NtRp3195
(dp3196
g74
(dp3197
sg83
g3120
sg76
(lp3198
g69
(g90
g71
NtRp3199
(dp3200
g74
(dp3201
sg83
g3195
sg76
(lp3202
g69
(g70
g71
NtRp3203
(dp3204
g74
(dp3205
g82
I4
ssg83
g3199
sg76
(lp3206
g69
(g78
g71
NtRp3207
(dp3208
g74
(dp3209
g82
I3
ssg83
Nsg76
(lp3210
g69
(g85
g71
NtRp3211
(dp3212
g74
(dp3213
sg83
g3207
sg76
(lp3214
g69
(g90
g71
NtRp3215
(dp3216
g74
(dp3217
sg83
g3211
sg76
(lp3218
g69
(g70
g71
NtRp3219
(dp3220
g74
(dp3221
g82
I3
ssg83
g3215
sg76
(lp3222
g69
(cgluon.html
SPAN
p3223
g71
NtRp3224
(dp3225
g74
(dp3226
g94
S'color:yellow'
p3227
ssg83
Nsg76
(lp3228
g3098
asbasbasbasbag69
(g85
g71
NtRp3229
(dp3230
g74
(dp3231
sg83
g3207
sg76
(lp3232
g69
(g90
g71
NtRp3233
(dp3234
g74
(dp3235
sg83
g3229
sg76
(lp3236
g69
(g70
g71
NtRp3237
(dp3238
g74
(dp3239
g82
I3
ssg83
g3233
sg76
(lp3240
g112
asbasbasbag69
(g85
g71
NtRp3241
(dp3242
g74
(dp3243
sg83
g3207
sg76
(lp3244
g69
(g90
g71
NtRp3245
(dp3246
g74
(dp3247
sg83
g3241
sg76
(lp3248
g69
(g70
g71
NtRp3249
(dp3250
g74
(dp3251
g82
I3
ssg83
g3245
sg76
(lp3252
S'http://web2py.com'
p3253
asbasbasbag69
(g85
g71
NtRp3254
(dp3255
g74
(dp3256
sg83
g3207
sg76
(lp3257
g69
(g90
g71
NtRp3258
(dp3259
g74
(dp3260
sg83
g3254
sg76
(lp3261
g69
(g70
g71
NtRp3262
(dp3263
g74
(dp3264
g82
I3
ssg83
g3258
sg76
(lp3265
g69
(g78
g71
NtRp3266
(dp3267
g74
(dp3268
g82
I2
ssg83
Nsg76
(lp3269
g69
(g85
g71
NtRp3270
(dp3271
g74
(dp3272
sg83
g3266
sg76
(lp3273
g69
(g90
g71
NtRp3274
(dp3275
g74
(dp3276
sg83
g3270
sg76
(lp3277
g69
(g70
g71
NtRp3278
(dp3279
g74
(dp3280
g82
I2
ssg83
g3274
sg76
(lp3281
g69
(g78
g71
NtRp3282
(dp3283
g74
(dp3284
g82
I1
ssg83
Nsg76
(lp3285
g69
(g85
g71
NtRp3286
(dp3287
g74
(dp3288
sg83
g3282
sg76
(lp3289
g69
(g90
g71
NtRp3290
(dp3291
g74
(dp3292
sg83
g3286
sg76
(lp3293
g69
(g70
g71
NtRp3294
(dp3295
g74
(dp3296
g82
I1
ssg83
g3290
sg76
(lp3297
g3152
(S's\x08\x00\x00\x00My Sites'
tRp3298
asbasbasbag69
(g85
g71
NtRp3299
(dp3300
g74
(dp3301
sg83
g3282
sg76
(lp3302
g69
(g90
g71
NtRp3303
(dp3304
g74
(dp3305
sg83
g3299
sg76
(lp3306
g69
(g70
g71
NtRp3307
(dp3308
g74
(dp3309
g82
I1
ssg83
g3303
sg76
(lp3310
I00
asbasbasbag69
(g85
g71
NtRp3311
(dp3312
g74
(dp3313
sg83
g3282
sg76
(lp3314
g69
(g90
g71
NtRp3315
(dp3316
g74
(dp3317
sg83
g3311
sg76
(lp3318
g69
(g70
g71
NtRp3319
(dp3320
g74
(dp3321
g82
I1
ssg83
g3315
sg76
(lp3322
S'/admin/default/site'
p3323
asbasbasbasbasbasbasbag69
(g85
g71
NtRp3324
(dp3325
g74
(dp3326
sg83
g3266
sg76
(lp3327
g69
(g90
g71
NtRp3328
(dp3329
g74
(dp3330
sg83
g3324
sg76
(lp3331
g69
(g70
g71
NtRp3332
(dp3333
g74
(dp3334
g82
I2
ssg83
g3328
sg76
(lp3335
g69
(g78
g71
NtRp3336
(dp3337
g74
(dp3338
g82
I1
ssg83
Nsg76
(lp3339
g69
(g85
g71
NtRp3340
(dp3341
g74
(dp3342
sg83
g3336
sg76
(lp3343
g69
(g90
g71
NtRp3344
(dp3345
g74
(dp3346
sg83
g3340
sg76
(lp3347
g69
(g70
g71
NtRp3348
(dp3349
g74
(dp3350
g82
I1
ssg83
g3344
sg76
(lp3351
g3152
(S's\x08\x00\x00\x00This App'
tRp3352
asbasbasbag69
(g85
g71
NtRp3353
(dp3354
g74
(dp3355
sg83
g3336
sg76
(lp3356
g69
(g90
g71
NtRp3357
(dp3358
g74
(dp3359
sg83
g3353
sg76
(lp3360
g69
(g70
g71
NtRp3361
(dp3362
g74
(dp3363
g82
I1
ssg83
g3357
sg76
(lp3364
I00
asbasbasbag69
(g85
g71
NtRp3365
(dp3366
g74
(dp3367
sg83
g3336
sg76
(lp3368
g69
(g90
g71
NtRp3369
(dp3370
g74
(dp3371
sg83
g3365
sg76
(lp3372
g69
(g70
g71
NtRp3373
(dp3374
g74
(dp3375
g82
I1
ssg83
g3369
sg76
(lp3376
S'/admin/default/design/FunkLoad'
p3377
asbasbasbag69
(g85
g71
NtRp3378
(dp3379
g74
(dp3380
sg83
g3336
sg76
(lp3381
g69
(g90
g71
NtRp3382
(dp3383
g74
(dp3384
sg83
g3378
sg76
(lp3385
g69
(g70
g71
NtRp3386
(dp3387
g74
(dp3388
g82
I1
ssg83
g3382
sg76
(lp3389
(lp3390
(g3152
(S's\n\x00\x00\x00Controller'
tRp3391
I00
S'/admin/default/edit/FunkLoad/controllers/default.py'
tp3392
a(g3152
(S's\x04\x00\x00\x00View'
tRp3393
I00
S'/admin/default/edit/FunkLoad/views/default/index.html'
tp3394
a(g3152
(S's\x06\x00\x00\x00Layout'
tRp3395
I00
S'/admin/default/edit/FunkLoad/views/layout.html'
tp3396
a(g3152
(S's\n\x00\x00\x00Stylesheet'
tRp3397
I00
S'/admin/default/edit/FunkLoad/static/css/web2py.css'
tp3398
a(g3152
(S's\x08\x00\x00\x00DB Model'
tRp3399
I00
S'/admin/default/edit/FunkLoad/models/db.py'
tp3400
a(g3152
(S's\n\x00\x00\x00Menu Model'
tRp3401
I00
S'/admin/default/edit/FunkLoad/models/menu.py'
tp3402
a(g3152
(S's\x08\x00\x00\x00Database'
tRp3403
I00
S'/FunkLoad/appadmin/index'
tp3404
a(g3152
(S's\x06\x00\x00\x00Errors'
tRp3405
I00
S'/admin/default/errors/FunkLoad'
tp3406
a(g3152
(S's\x05\x00\x00\x00About'
tRp3407
I00
S'/admin/default/about/FunkLoad'
tp3408
aasbasbasbasbasbasbasbag69
(g85
g71
NtRp3409
(dp3410
g74
(dp3411
sg83
g3266
sg76
(lp3412
g69
(g90
g71
NtRp3413
(dp3414
g74
(dp3415
sg83
g3409
sg76
(lp3416
g69
(g70
g71
NtRp3417
(dp3418
g74
(dp3419
g82
I2
ssg83
g3413
sg76
(lp3420
g69
(g78
g71
NtRp3421
(dp3422
g74
(dp3423
g82
I1
ssg83
Nsg76
(lp3424
g69
(g85
g71
NtRp3425
(dp3426
g74
(dp3427
sg83
g3421
sg76
(lp3428
g69
(g90
g71
NtRp3429
(dp3430
g74
(dp3431
sg83
g3425
sg76
(lp3432
g69
(g70
g71
NtRp3433
(dp3434
g74
(dp3435
g82
I1
ssg83
g3429
sg76
(lp3436
S'web2py.com'
p3437
asbasbasbag69
(g85
g71
NtRp3438
(dp3439
g74
(dp3440
sg83
g3421
sg76
(lp3441
g69
(g90
g71
NtRp3442
(dp3443
g74
(dp3444
sg83
g3438
sg76
(lp3445
g69
(g70
g71
NtRp3446
(dp3447
g74
(dp3448
g82
I1
ssg83
g3442
sg76
(lp3449
I00
asbasbasbag69
(g85
g71
NtRp3450
(dp3451
g74
(dp3452
sg83
g3421
sg76
(lp3453
g69
(g90
g71
NtRp3454
(dp3455
g74
(dp3456
sg83
g3450
sg76
(lp3457
g69
(g70
g71
NtRp3458
(dp3459
g74
(dp3460
g82
I1
ssg83
g3454
sg76
(lp3461
S'http://www.web2py.com'
p3462
asbasbasbag69
(g85
g71
NtRp3463
(dp3464
g74
(dp3465
sg83
g3421
sg76
(lp3466
g69
(g90
g71
NtRp3467
(dp3468
g74
(dp3469
sg83
g3463
sg76
(lp3470
g69
(g70
g71
NtRp3471
(dp3472
g74
(dp3473
g82
I1
ssg83
g3467
sg76
(lp3474
(lp3475
(g3152
(S's\x08\x00\x00\x00Download'
tRp3476
I00
S'http://www.web2py.com/examples/default/download'
p3477
tp3478
a(g3152
(S's\x07\x00\x00\x00Support'
tRp3479
I00
S'http://www.web2py.com/examples/default/support'
p3480
tp3481
a(g3152
(S's\x04\x00\x00\x00Demo'
tRp3482
I00
S'http://web2py.com/demo_admin'
p3483
tp3484
a(g3152
(S's\x0e\x00\x00\x00Quick Examples'
tRp3485
I00
S'http://web2py.com/examples/default/examples'
p3486
tp3487
a(g3152
(S's\x03\x00\x00\x00FAQ'
tRp3488
I00
S'http://web2py.com/AlterEgo'
p3489
tp3490
a(g3152
(S's\x06\x00\x00\x00Videos'
tRp3491
I00
S'http://www.web2py.com/examples/default/videos/'
p3492
tp3493
a(g3152
(S's\x11\x00\x00\x00Free Applications'
tRp3494
I00
S'http://web2py.com/appliances'
p3495
tp3496
a(g3152
(S's\x07\x00\x00\x00Plugins'
tRp3497
I00
S'http://web2py.com/plugins'
p3498
tp3499
a(g3152
(S's\x07\x00\x00\x00Layouts'
tRp3500
I00
S'http://web2py.com/layouts'
p3501
tp3502
a(g3152
(S's\x07\x00\x00\x00Recipes'
tRp3503
I00
S'http://web2pyslices.com/'
p3504
tp3505
a(g3152
(S's\x08\x00\x00\x00Semantic'
tRp3506
I00
S'http://web2py.com/semantic'
p3507
tp3508
aasbasbasbasbasbasbasbag69
(g85
g71
NtRp3509
(dp3510
g74
(dp3511
sg83
g3266
sg76
(lp3512
g69
(g90
g71
NtRp3513
(dp3514
g74
(dp3515
sg83
g3509
sg76
(lp3516
g69
(g70
g71
NtRp3517
(dp3518
g74
(dp3519
g82
I2
ssg83
g3513
sg76
(lp3520
g69
(g78
g71
NtRp3521
(dp3522
g74
(dp3523
g82
I1
ssg83
Nsg76
(lp3524
g69
(g85
g71
NtRp3525
(dp3526
g74
(dp3527
sg83
g3521
sg76
(lp3528
g69
(g90
g71
NtRp3529
(dp3530
g74
(dp3531
sg83
g3525
sg76
(lp3532
g69
(g70
g71
NtRp3533
(dp3534
g74
(dp3535
g82
I1
ssg83
g3529
sg76
(lp3536
g3152
(S's\r\x00\x00\x00Documentation'
tRp3537
asbasbasbag69
(g85
g71
NtRp3538
(dp3539
g74
(dp3540
sg83
g3521
sg76
(lp3541
g69
(g90
g71
NtRp3542
(dp3543
g74
(dp3544
sg83
g3538
sg76
(lp3545
g69
(g70
g71
NtRp3546
(dp3547
g74
(dp3548
g82
I1
ssg83
g3542
sg76
(lp3549
I00
asbasbasbag69
(g85
g71
NtRp3550
(dp3551
g74
(dp3552
sg83
g3521
sg76
(lp3553
g69
(g90
g71
NtRp3554
(dp3555
g74
(dp3556
sg83
g3550
sg76
(lp3557
g69
(g70
g71
NtRp3558
(dp3559
g74
(dp3560
g82
I1
ssg83
g3554
sg76
(lp3561
S'http://www.web2py.com/book'
p3562
asbasbasbag69
(g85
g71
NtRp3563
(dp3564
g74
(dp3565
sg83
g3521
sg76
(lp3566
g69
(g90
g71
NtRp3567
(dp3568
g74
(dp3569
sg83
g3563
sg76
(lp3570
g69
(g70
g71
NtRp3571
(dp3572
g74
(dp3573
g82
I1
ssg83
g3567
sg76
(lp3574
(lp3575
(g3152
(S's\x07\x00\x00\x00Preface'
tRp3576
I00
S'http://www.web2py.com/book/default/chapter/00'
p3577
tp3578
a(g3152
(S's\x0c\x00\x00\x00Introduction'
tRp3579
I00
S'http://www.web2py.com/book/default/chapter/01'
p3580
tp3581
a(g3152
(S's\x06\x00\x00\x00Python'
tRp3582
I00
S'http://www.web2py.com/book/default/chapter/02'
p3583
tp3584
a(g3152
(S's\x08\x00\x00\x00Overview'
tRp3585
I00
S'http://www.web2py.com/book/default/chapter/03'
p3586
tp3587
a(g3152
(S's\x08\x00\x00\x00The Core'
tRp3588
I00
S'http://www.web2py.com/book/default/chapter/04'
p3589
tp3590
a(g3152
(S's\t\x00\x00\x00The Views'
tRp3591
I00
S'http://www.web2py.com/book/default/chapter/05'
p3592
tp3593
a(g3152
(S's\x08\x00\x00\x00Database'
tRp3594
I00
S'http://www.web2py.com/book/default/chapter/06'
p3595
tp3596
a(g3152
(S's\x14\x00\x00\x00Forms and Validators'
tRp3597
I00
S'http://www.web2py.com/book/default/chapter/07'
p3598
tp3599
a(g3152
(S's\r\x00\x00\x00Email and SMS'
tRp3600
I00
S'http://www.web2py.com/book/default/chapter/08'
p3601
tp3602
a(g3152
(S's\x0e\x00\x00\x00Access Control'
tRp3603
I00
S'http://www.web2py.com/book/default/chapter/09'
p3604
tp3605
a(g3152
(S's\x08\x00\x00\x00Services'
tRp3606
I00
S'http://www.web2py.com/book/default/chapter/10'
p3607
tp3608
a(g3152
(S's\x0c\x00\x00\x00Ajax Recipes'
tRp3609
I00
S'http://www.web2py.com/book/default/chapter/11'
p3610
tp3611
a(g3152
(S's\x16\x00\x00\x00Components and Plugins'
tRp3612
I00
S'http://www.web2py.com/book/default/chapter/12'
p3613
tp3614
a(g3152
(S's\x12\x00\x00\x00Deployment Recipes'
tRp3615
I00
S'http://www.web2py.com/book/default/chapter/13'
p3616
tp3617
a(g3152
(S's\r\x00\x00\x00Other Recipes'
tRp3618
I00
S'http://www.web2py.com/book/default/chapter/14'
p3619
tp3620
a(g3152
(S's\r\x00\x00\x00Buy this book'
tRp3621
I00
S'http://stores.lulu.com/web2py'
p3622
tp3623
aasbasbasbasbasbasbasbag69
(g85
g71
NtRp3624
(dp3625
g74
(dp3626
sg83
g3266
sg76
(lp3627
g69
(g90
g71
NtRp3628
(dp3629
g74
(dp3630
sg83
g3624
sg76
(lp3631
g69
(g70
g71
NtRp3632
(dp3633
g74
(dp3634
g82
I2
ssg83
g3628
sg76
(lp3635
g69
(g78
g71
NtRp3636
(dp3637
g74
(dp3638
g82
I1
ssg83
Nsg76
(lp3639
g69
(g85
g71
NtRp3640
(dp3641
g74
(dp3642
sg83
g3636
sg76
(lp3643
g69
(g90
g71
NtRp3644
(dp3645
g74
(dp3646
sg83
g3640
sg76
(lp3647
g69
(g70
g71
NtRp3648
(dp3649
g74
(dp3650
g82
I1
ssg83
g3644
sg76
(lp3651
g3152
(S's\t\x00\x00\x00Community'
tRp3652
asbasbasbag69
(g85
g71
NtRp3653
(dp3654
g74
(dp3655
sg83
g3636
sg76
(lp3656
g69
(g90
g71
NtRp3657
(dp3658
g74
(dp3659
sg83
g3653
sg76
(lp3660
g69
(g70
g71
NtRp3661
(dp3662
g74
(dp3663
g82
I1
ssg83
g3657
sg76
(lp3664
I00
asbasbasbag69
(g85
g71
NtRp3665
(dp3666
g74
(dp3667
sg83
g3636
sg76
(lp3668
g69
(g90
g71
NtRp3669
(dp3670
g74
(dp3671
sg83
g3665
sg76
(lp3672
g69
(g70
g71
NtRp3673
(dp3674
g74
(dp3675
g82
I1
ssg83
g3669
sg76
(lp3676
Nasbasbasbag69
(g85
g71
NtRp3677
(dp3678
g74
(dp3679
sg83
g3636
sg76
(lp3680
g69
(g90
g71
NtRp3681
(dp3682
g74
(dp3683
sg83
g3677
sg76
(lp3684
g69
(g70
g71
NtRp3685
(dp3686
g74
(dp3687
g82
I1
ssg83
g3681
sg76
(lp3688
(lp3689
(g3152
(S's\x06\x00\x00\x00Groups'
tRp3690
I00
S'http://www.web2py.com/examples/default/usergroups'
p3691
tp3692
a(g3152
(S's\x07\x00\x00\x00Twitter'
tRp3693
I00
S'http://twitter.com/web2py'
p3694
tp3695
a(g3152
(S's\t\x00\x00\x00Live Chat'
tRp3696
I00
S'http://webchat.freenode.net/?channels=web2py'
p3697
tp3698
aasbasbasbasbasbasbasbag69
(g85
g71
NtRp3699
(dp3700
g74
(dp3701
sg83
g3266
sg76
(lp3702
g69
(g90
g71
NtRp3703
(dp3704
g74
(dp3705
sg83
g3699
sg76
(lp3706
g69
(g70
g71
NtRp3707
(dp3708
g74
(dp3709
g82
I2
ssg83
g3703
sg76
(lp3710
g69
(g78
g71
NtRp3711
(dp3712
g74
(dp3713
g82
I1
ssg83
Nsg76
(lp3714
g69
(g85
g71
NtRp3715
(dp3716
g74
(dp3717
sg83
g3711
sg76
(lp3718
g69
(g90
g71
NtRp3719
(dp3720
g74
(dp3721
sg83
g3715
sg76
(lp3722
g69
(g70
g71
NtRp3723
(dp3724
g74
(dp3725
g82
I1
ssg83
g3719
sg76
(lp3726
g3152
(S's\x07\x00\x00\x00Plugins'
tRp3727
asbasbasbag69
(g85
g71
NtRp3728
(dp3729
g74
(dp3730
sg83
g3711
sg76
(lp3731
g69
(g90
g71
NtRp3732
(dp3733
g74
(dp3734
sg83
g3728
sg76
(lp3735
g69
(g70
g71
NtRp3736
(dp3737
g74
(dp3738
g82
I1
ssg83
g3732
sg76
(lp3739
I00
asbasbasbag69
(g85
g71
NtRp3740
(dp3741
g74
(dp3742
sg83
g3711
sg76
(lp3743
g69
(g90
g71
NtRp3744
(dp3745
g74
(dp3746
sg83
g3740
sg76
(lp3747
g69
(g70
g71
NtRp3748
(dp3749
g74
(dp3750
g82
I1
ssg83
g3744
sg76
(lp3751
Nasbasbasbag69
(g85
g71
NtRp3752
(dp3753
g74
(dp3754
sg83
g3711
sg76
(lp3755
g69
(g90
g71
NtRp3756
(dp3757
g74
(dp3758
sg83
g3752
sg76
(lp3759
g69
(g70
g71
NtRp3760
(dp3761
g74
(dp3762
g82
I1
ssg83
g3756
sg76
(lp3763
(lp3764
(S'plugin_wiki'
p3765
I00
S'http://web2py.com/examples/default/download'
p3766
tp3767
a(g3152
(S's\r\x00\x00\x00Other Plugins'
tRp3768
I00
g3498
tp3769
a(g3152
(S's\x0e\x00\x00\x00Layout Plugins'
tRp3770
I00
g3501
tp3771
aasbasbasbasbasbasbasbasbasbasbasbasbasbasbasbasbasbasbasbag69
(g85
g71
NtRp3772
(dp3773
g74
(dp3774
sg83
g2565
sg76
(lp3775
g69
(g90
g71
NtRp3776
(dp3777
g74
(dp3778
g94
g95
ssg83
g3772
sg76
(lp3779
S'meta'
p3780
asbag69
(g90
g71
NtRp3781
(dp3782
g74
(dp3783
g101
g102
ssg83
g3772
sg76
(lp3784
S':'
asbag69
(g90
g71
NtRp3785
(dp3786
g74
(dp3787
sg83
g3772
sg76
(lp3788
g69
(g70
g71
NtRp3789
(dp3790
g74
(dp3791
g82
I5
ssg83
g3785
sg76
(lp3792
g69
(g78
g71
NtRp3793
(dp3794
g74
(dp3795
g82
I4
ssg83
Nsg76
(lp3796
g69
(g85
g71
NtRp3797
(dp3798
g74
(dp3799
sg83
g3793
sg76
(lp3800
g69
(g90
g71
NtRp3801
(dp3802
g74
(dp3803
g94
g95
ssg83
g3797
sg76
(lp3804
S'author'
p3805
asbag69
(g90
g71
NtRp3806
(dp3807
g74
(dp3808
g101
g102
ssg83
g3797
sg76
(lp3809
S':'
asbag69
(g90
g71
NtRp3810
(dp3811
g74
(dp3812
sg83
g3797
sg76
(lp3813
g69
(g70
g71
NtRp3814
(dp3815
g74
(dp3816
g82
I4
ssg83
g3810
sg76
(lp3817
S'Your Name <you@example.com>'
p3818
asbasbasbag69
(g85
g71
NtRp3819
(dp3820
g74
(dp3821
sg83
g3793
sg76
(lp3822
g69
(g90
g71
NtRp3823
(dp3824
g74
(dp3825
g94
g95
ssg83
g3819
sg76
(lp3826
S'description'
p3827
asbag69
(g90
g71
NtRp3828
(dp3829
g74
(dp3830
g101
g102
ssg83
g3819
sg76
(lp3831
S':'
asbag69
(g90
g71
NtRp3832
(dp3833
g74
(dp3834
sg83
g3819
sg76
(lp3835
g69
(g70
g71
NtRp3836
(dp3837
g74
(dp3838
g82
I4
ssg83
g3832
sg76
(lp3839
S'a cool new app'
p3840
asbasbasbag69
(g85
g71
NtRp3841
(dp3842
g74
(dp3843
sg83
g3793
sg76
(lp3844
g69
(g90
g71
NtRp3845
(dp3846
g74
(dp3847
g94
g95
ssg83
g3841
sg76
(lp3848
S'generator'
p3849
asbag69
(g90
g71
NtRp3850
(dp3851
g74
(dp3852
g101
g102
ssg83
g3841
sg76
(lp3853
S':'
asbag69
(g90
g71
NtRp3854
(dp3855
g74
(dp3856
sg83
g3841
sg76
(lp3857
g69
(g70
g71
NtRp3858
(dp3859
g74
(dp3860
g82
I4
ssg83
g3854
sg76
(lp3861
S'Web2py Web Framework'
p3862
asbasbasbag69
(g85
g71
NtRp3863
(dp3864
g74
(dp3865
sg83
g3793
sg76
(lp3866
g69
(g90
g71
NtRp3867
(dp3868
g74
(dp3869
g94
g95
ssg83
g3863
sg76
(lp3870
S'keywords'
p3871
asbag69
(g90
g71
NtRp3872
(dp3873
g74
(dp3874
g101
g102
ssg83
g3863
sg76
(lp3875
S':'
asbag69
(g90
g71
NtRp3876
(dp3877
g74
(dp3878
sg83
g3863
sg76
(lp3879
g69
(g70
g71
NtRp3880
(dp3881
g74
(dp3882
g82
I4
ssg83
g3876
sg76
(lp3883
S'web2py, python, framework'
p3884
asbasbasbasbasbasbasbag69
(g85
g71
NtRp3885
(dp3886
g74
(dp3887
sg83
g2565
sg76
(lp3888
g69
(g90
g71
NtRp3889
(dp3890
g74
(dp3891
g94
g95
ssg83
g3885
sg76
(lp3892
S'models_to_run'
p3893
asbag69
(g90
g71
NtRp3894
(dp3895
g74
(dp3896
g101
g102
ssg83
g3885
sg76
(lp3897
S':'
asbag69
(g90
g71
NtRp3898
(dp3899
g74
(dp3900
sg83
g3885
sg76
(lp3901
g69
(g70
g71
NtRp3902
(dp3903
g74
(dp3904
g82
I5
ssg83
g3898
sg76
(lp3905
g69
(g78
g71
NtRp3906
(dp3907
g74
(dp3908
g82
I4
ssg83
Nsg76
(lp3909
g69
(g85
g71
NtRp3910
(dp3911
g74
(dp3912
sg83
g3906
sg76
(lp3913
g69
(g90
g71
NtRp3914
(dp3915
g74
(dp3916
sg83
g3910
sg76
(lp3917
g69
(g70
g71
NtRp3918
(dp3919
g74
(dp3920
g82
I4
ssg83
g3914
sg76
(lp3921
S'^\\w+\\.py$'
p3922
asbasbasbag69
(g85
g71
NtRp3923
(dp3924
g74
(dp3925
sg83
g3906
sg76
(lp3926
g69
(g90
g71
NtRp3927
(dp3928
g74
(dp3929
sg83
g3923
sg76
(lp3930
g69
(g70
g71
NtRp3931
(dp3932
g74
(dp3933
g82
I4
ssg83
g3927
sg76
(lp3934
S'^default/\\w+\\.py$'
p3935
asbasbasbag69
(g85
g71
NtRp3936
(dp3937
g74
(dp3938
sg83
g3906
sg76
(lp3939
g69
(g90
g71
NtRp3940
(dp3941
g74
(dp3942
sg83
g3936
sg76
(lp3943
g69
(g70
g71
NtRp3944
(dp3945
g74
(dp3946
g82
I4
ssg83
g3940
sg76
(lp3947
S'^default/index/\\w+\\.py$'
p3948
asbasbasbasbasbasbasbag69
(g85
g71
NtRp3949
(dp3950
g74
(dp3951
sg83
g2565
sg76
(lp3952
g69
(g90
g71
NtRp3953
(dp3954
g74
(dp3955
g94
g95
ssg83
g3949
sg76
(lp3956
S'postprocessing'
p3957
asbag69
(g90
g71
NtRp3958
(dp3959
g74
(dp3960
g101
g102
ssg83
g3949
sg76
(lp3961
S':'
asbag69
(g90
g71
NtRp3962
(dp3963
g74
(dp3964
sg83
g3949
sg76
(lp3965
g69
(g70
g71
NtRp3966
(dp3967
g74
(dp3968
g82
I5
ssg83
g3962
sg76
(lp3969
g69
(g78
g71
NtRp3970
(dp3971
g74
(dp3972
g82
I4
ssg83
Nsg76
(lp3973
sbasbasbasbag69
(g85
g71
NtRp3974
(dp3975
g74
(dp3976
sg83
g2565
sg76
(lp3977
g69
(g90
g71
NtRp3978
(dp3979
g74
(dp3980
g94
g95
ssg83
g3974
sg76
(lp3981
S'session_filename'
p3982
asbag69
(g90
g71
NtRp3983
(dp3984
g74
(dp3985
g101
g102
ssg83
g3974
sg76
(lp3986
S':'
asbag69
(g90
g71
NtRp3987
(dp3988
g74
(dp3989
sg83
g3974
sg76
(lp3990
g69
(g70
g71
NtRp3991
(dp3992
g74
(dp3993
g82
I5
ssg83
g3987
sg76
(lp3994
S'/home/lordinvader/Studies/Presentation-day-code/web2py/applications/FunkLoad/sessions/127.0.0.1-3ed962e5-c3c6-4ba8-a1c9-2512d21b323f'
p3995
asbasbasbag69
(g85
g71
NtRp3996
(dp3997
g74
(dp3998
sg83
g2565
sg76
(lp3999
g69
(g90
g71
NtRp4000
(dp4001
g74
(dp4002
g94
g95
ssg83
g3996
sg76
(lp4003
S'session_id'
p4004
asbag69
(g90
g71
NtRp4005
(dp4006
g74
(dp4007
g101
g102
ssg83
g3996
sg76
(lp4008
S':'
asbag69
(g90
g71
NtRp4009
(dp4010
g74
(dp4011
sg83
g3996
sg76
(lp4012
g69
(g70
g71
NtRp4013
(dp4014
g74
(dp4015
g82
I5
ssg83
g4009
sg76
(lp4016
g2635
asbasbasbag69
(g85
g71
NtRp4017
(dp4018
g74
(dp4019
sg83
g2565
sg76
(lp4020
g69
(g90
g71
NtRp4021
(dp4022
g74
(dp4023
g94
g95
ssg83
g4017
sg76
(lp4024
S'session_id_name'
p4025
asbag69
(g90
g71
NtRp4026
(dp4027
g74
(dp4028
g101
g102
ssg83
g4017
sg76
(lp4029
S':'
asbag69
(g90
g71
NtRp4030
(dp4031
g74
(dp4032
sg83
g4017
sg76
(lp4033
g69
(g70
g71
NtRp4034
(dp4035
g74
(dp4036
g82
I5
ssg83
g4030
sg76
(lp4037
g2622
asbasbasbag69
(g85
g71
NtRp4038
(dp4039
g74
(dp4040
sg83
g2565
sg76
(lp4041
g69
(g90
g71
NtRp4042
(dp4043
g74
(dp4044
g94
g95
ssg83
g4038
sg76
(lp4045
S'session_new'
p4046
asbag69
(g90
g71
NtRp4047
(dp4048
g74
(dp4049
g101
g102
ssg83
g4038
sg76
(lp4050
S':'
asbag69
(g90
g71
NtRp4051
(dp4052
g74
(dp4053
sg83
g4038
sg76
(lp4054
g69
(g70
g71
NtRp4055
(dp4056
g74
(dp4057
g82
I5
ssg83
g4051
sg76
(lp4058
g1124
asbasbasbag69
(g85
g71
NtRp4059
(dp4060
g74
(dp4061
sg83
g2565
sg76
(lp4062
g69
(g90
g71
NtRp4063
(dp4064
g74
(dp4065
g94
g95
ssg83
g4059
sg76
(lp4066
S'status'
p4067
asbag69
(g90
g71
NtRp4068
(dp4069
g74
(dp4070
g101
g102
ssg83
g4059
sg76
(lp4071
S':'
asbag69
(g90
g71
NtRp4072
(dp4073
g74
(dp4074
sg83
g4059
sg76
(lp4075
g69
(g70
g71
NtRp4076
(dp4077
g74
(dp4078
g82
I5
ssg83
g4072
sg76
(lp4079
S'200'
p4080
asbasbasbag69
(g85
g71
NtRp4081
(dp4082
g74
(dp4083
sg83
g2565
sg76
(lp4084
g69
(g90
g71
NtRp4085
(dp4086
g74
(dp4087
g94
g95
ssg83
g4081
sg76
(lp4088
S'subtitle'
p4089
asbag69
(g90
g71
NtRp4090
(dp4091
g74
(dp4092
g101
g102
ssg83
g4081
sg76
(lp4093
S':'
asbag69
(g90
g71
NtRp4094
(dp4095
g74
(dp4096
sg83
g4081
sg76
(lp4097
g69
(g70
g71
NtRp4098
(dp4099
g74
(dp4100
g82
I5
ssg83
g4094
sg76
(lp4101
g3152
(S's\r\x00\x00\x00customize me!'
tRp4102
asbasbasbag69
(g85
g71
NtRp4103
(dp4104
g74
(dp4105
sg83
g2565
sg76
(lp4106
g69
(g90
g71
NtRp4107
(dp4108
g74
(dp4109
g94
g95
ssg83
g4103
sg76
(lp4110
S'title'
p4111
asbag69
(g90
g71
NtRp4112
(dp4113
g74
(dp4114
g101
g102
ssg83
g4103
sg76
(lp4115
S':'
asbag69
(g90
g71
NtRp4116
(dp4117
g74
(dp4118
sg83
g4103
sg76
(lp4119
g69
(g70
g71
NtRp4120
(dp4121
g74
(dp4122
g82
I5
ssg83
g4116
sg76
(lp4123
S'Funkload'
p4124
asbasbasbag69
(g85
g71
NtRp4125
(dp4126
g74
(dp4127
sg83
g2565
sg76
(lp4128
g69
(g90
g71
NtRp4129
(dp4130
g74
(dp4131
g94
g95
ssg83
g4125
sg76
(lp4132
S'view'
p4133
asbag69
(g90
g71
NtRp4134
(dp4135
g74
(dp4136
g101
g102
ssg83
g4125
sg76
(lp4137
S':'
asbag69
(g90
g71
NtRp4138
(dp4139
g74
(dp4140
sg83
g4125
sg76
(lp4141
g69
(g70
g71
NtRp4142
(dp4143
g74
(dp4144
g82
I5
ssg83
g4138
sg76
(lp4145
S'default/index.html'
p4146
asbasbasbasbasbsS'locals'
p4147
(dp4148
g4
S"'/home/lordinvader/Studies/Presentation-day-code/web2py/applications/FunkLoad/controllers/default.py'"
p4149
sg6
S"'# -*- coding: utf-8 -*-\\n# this file is released ...=crud())\\n\\nresponse._vars=response._caller(index)\\n'"
p4150
sssS'traceback'
p4151
S'Traceback (most recent call last):\n  File "/home/lordinvader/Studies/Presentation-day-code/web2py/gluon/restricted.py", line 208, in restricted\n    ccode = compile2(code,layer)\n  File "/home/lordinvader/Studies/Presentation-day-code/web2py/gluon/restricted.py", line 193, in compile2\n    return compile(code.rstrip().replace(\'\\r\\n\',\'\\n\')+\'\\n\', layer, \'exec\')\n  File "/home/lordinvader/Studies/Presentation-day-code/web2py/applications/FunkLoad/controllers/default.py", line 30\n    session.email=auth.user.email\n                                ^\nIndentationError: unindent does not match any outer indentation level\n'
p4152
s.