(dp1
S'output'
p2
S"<type 'exceptions.SyntaxError'> invalid syntax (test.html, line 105)"
p3
sS'layer'
p4
S'/home/mayank/Production/Final-code/web2py/applications/FunkLoad/views/default/test.html'
p5
sS'code'
p6
S'response.write(\'<!DOCTYPE html>\\r\\n<!-- paulirish.com/2008/conditional-stylesheets-vs-css-hacks-answer-neither/ -->\\r\\n<!--[if lt IE 7]><html class="ie ie6 ie-lte9 ie-lte8 ie-lte7 no-js" lang="\', escape=False)\nresponse.write(T.accepted_language or \'en\')\nresponse.write(\'"> <![endif]-->\\r\\n<!--[if IE 7]><html class="ie ie7 ie-lte9 ie-lte8 ie-lte7 no-js" lang="\', escape=False)\nresponse.write(T.accepted_language or \'en\')\nresponse.write(\'"> <![endif]-->\\r\\n<!--[if IE 8]><html class="ie ie8 ie-lte9 ie-lte8 no-js" lang="\', escape=False)\nresponse.write(T.accepted_language or \'en\')\nresponse.write(\'"> <![endif]-->\\r\\n<!--[if IE 9]><html class="ie9 ie-lte9 no-js" lang="\', escape=False)\nresponse.write(T.accepted_language or \'en\')\nresponse.write(\'"> <![endif]-->\\r\\n<!--[if (gt IE 9)|!(IE)]><!--> <html class="no-js" lang="\', escape=False)\nresponse.write(T.accepted_language or \'en\')\nresponse.write(\'"> <!--<![endif]-->\\r\\n<html>\\r\\n<head>\\r\\n    <meta http-equiv="Content-Type" content="text/html; charset=utf-8">\\r\\n\\t<meta name="viewport" content="width=device-width, initial-scale=1.0">\\r\\n  \\r\\n  <!-- http://dev.w3.org/html5/markup/meta.name.html -->\\r\\n  <meta name="application-name" content="\', escape=False)\nresponse.write(request.application)\nresponse.write(\'" />\\r\\n  \\r\\n  <!-- Speaking of Google, don\\\'t forget to set your site up:\\r\\n       http://google.com/webmasters -->\\r\\n  <meta name="google-site-verification" content="" />\\r\\n  \\r\\n  <!--  Mobile Viewport Fix\\r\\n\\tj.mp/mobileviewport & davidbcalhoun.com/2010/viewport-metatag\\r\\n\\tdevice-width: Occupy full width of the screen in its current orientation\\r\\n\\tinitial-scale = 1.0 retains dimensions instead of zooming out if page height > device height\\r\\n\\tuser-scalable = yes allows the user to zoom in -->\\r\\n  <meta name="viewport" content="width=device-width, initial-scale=1.0">\\r\\n  <title>\', escape=False)\nresponse.write(response.title or request.application)\nresponse.write(\'</title>\\r\\n  <link rel="shortcut icon" href="\', escape=False)\nresponse.write(URL(\'static\',\'images/favicon.ico\'))\nresponse.write(\'" type="image/x-icon">\\r\\n  <link rel="apple-touch-icon" href="\', escape=False)\nresponse.write(URL(\'static\',\'images/favicon.png\'))\nresponse.write(\'">\\r\\n  \\r\\n  <!-- All JavaScript at the bottom, except for Modernizr which enables \\r\\n\\r\\n       HTML5 elements & feature detects -->\\r\\n  <script src="\', escape=False)\nresponse.write(URL(\'static\',\'js/modernizr.custom.js\'))\nresponse.write(\'"></script>   \\r\\n  \\r\\n  <!-- include stylesheets -->\\r\\n  \', escape=False)\nresponse.files.append(URL(\'static\',"css/bootstrap/bootstrap.css"))\nresponse.files.append(URL(\'static\',"css/bootstrap/bootstrap-responsive.css"))\nresponse.files.append(URL(\'static\',\'css/web2py.css\'))\nresponse.files.append(URL(\'static\',\'css/web2py_bootstrap.css\'))\nresponse.files.append(URL(\'static\',"css/bootstrap/bootstrap-overrides.css"))\nresponse.files.append(URL(\'static\',"css/lib/jquery-ui-1.10.2.custom.css"))\nresponse.files.append(URL(\'static\',"css/lib/font-awesome.css"))\nresponse.files.append(URL(\'static\',"css/layout.css"))\nresponse.files.append(URL(\'static\',"css/elements.css"))\nresponse.files.append(URL(\'static\',"css/icons.css"))\nresponse.files.append(URL(\'static\',"css/compiled/index.css"))\nresponse.files.append(URL(\'static\',"css/css5c84.css?family=Open+Sans:300italic,400italic,600italic,700italic,800italic,400,300,600,700,800"))\nresponse.files.append(URL(\'static\',"css/cssef21.css?family=Lato:300,400,700,900,300italic,400italic,700italic,900italic"))\nresponse.write(\'\\r\\n\\r\\n  \', escape=False)\nresponse.write(\'<script type="text/javascript"><!--\\n    // These variables are used by the web2py_ajax_init function in web2py_ajax.js (which is loaded below).\\n    var w2p_ajax_confirm_message = "\', escape=False)\nresponse.write(T(\'Are you sure you want to delete this object?\'))\nresponse.write(\'";\\n    var w2p_ajax_date_format = "\', escape=False)\nresponse.write(T(\'%Y-%m-%d\'))\nresponse.write(\'";\\n    var w2p_ajax_datetime_format = "\', escape=False)\nresponse.write(T(\'%Y-%m-%d %H:%M:%S\'))\nresponse.write(\'";\\n    //--></script>\\n\', escape=False)\nresponse.files.insert(0,URL(\'static\',\'js/jquery.js\'))\nresponse.files.insert(1,URL(\'static\',\'css/calendar.css\'))\nresponse.files.insert(2,URL(\'static\',\'js/calendar.js\'))\nresponse.files.insert(3,URL(\'static\',\'js/web2py.js\'))\nresponse.include_meta()\nresponse.include_files()\nresponse.write(\'\\n\', escape=False)\nresponse.write(\'\\r\\n  \\r\\n  \', escape=False)\n# using sidebars need to know what sidebar you want to use\nleft_sidebar_enabled = globals().get(\'left_sidebar_enabled\',False)\nright_sidebar_enabled = globals().get(\'right_sidebar_enabled\',False)\nmiddle_columns = {0:\'span12\',1:\'span9\',2:\'span6\'}[\n(left_sidebar_enabled and 1 or 0)+(right_sidebar_enabled and 1 or 0)]\nresponse.write(\'\\r\\n\\r\\n  <noscript><link href="\', escape=False)\nresponse.write(URL(\'static\', \'css/web2py_bootstrap_nojs.css\'))\nresponse.write(\'" rel="stylesheet" type="text/css" /></noscript>\\r\\n  \', escape=False)\nresponse.write(\'\\r\\n  \\r\\n  <!--[if lt IE 9]>\\r\\n      <script src="http://html5shim.googlecode.com/svn/trunk/html5.js"></script>\\r\\n    <![endif]-->\\r\\n   <style>\\r\\n   .box {\\r\\nmargin: 0 auto;\\r\\npadding: 35px 0 30px;\\r\\nfloat: none;\\r\\nwidth: 700px;\\r\\nborder-radius: 5px;\\r\\nbackground-color: #f7f7f7;\\r\\n   }\\r\\n   </style>\\r\\n</head>\\r\\n<body>\\r\\n  <!-- navbar -->\\r\\n    <div class="navbar navbar-inverse">\\r\\n        <div class="navbar-inner">\\r\\n            <button type="button" class="btn btn-navbar visible-phone" id="menu-toggler">\\r\\n                <span class="icon-bar"></span>\\r\\n                <span class="icon-bar"></span>\\r\\n                <span class="icon-bar"></span>\\r\\n            </button>\\r\\n            \\r\\n            <a class="brand" href="index.html">\', escape=False)\nresponse.write(response.title or request.application)\nresponse.write(\'</a>\\r\\n\\t\\t\', escape=False)\nurl=request.url.split(\'/\')[-1]\nresponse.write(\'\\r\\n            <ul class="nav pull-right">        \\r\\n\\t    \\t<!--\\r\\n                <li class="hidden-phone">\\r\\n                    <input class="search" type="text" />\\r\\n                </li>\\r\\n                <li class="notification-dropdown hidden-phone">\\r\\n                    <a href="#" class="trigger">\\r\\n                        <i class="icon-warning-sign"></i>\\r\\n                        <span class="count">8</span>\\r\\n                    </a>\\r\\n                    <div class="pop-dialog">\\r\\n                        <div class="pointer right">\\r\\n                            <div class="arrow"></div>\\r\\n                            <div class="arrow_border"></div>\\r\\n                        </div>\\r\\n                        <div class="body">\\r\\n                            <a href="#" class="close-icon"><i class="icon-remove-sign"></i></a>\\r\\n                            <div class="notifications">\\r\\n                                <h3>You have 6 new notifications</h3>\\r\\n                                <a href="#" class="item">\\r\\n                                    <i class="icon-signin"></i> New user registration\\r\\n                                    <span class="time"><i class="icon-time"></i> 13 min.</span>\\r\\n                                </a>\\r\\n                                <a href="#" class="item">\\r\\n                                    <i class="icon-signin"></i> New user registration\\r\\n                                    <span class="time"><i class="icon-time"></i> 18 min.</span>\\r\\n                                </a>\\r\\n                                <a href="#" class="item">\\r\\n                                    <i class="icon-envelope-alt"></i> New message from Alejandra\\r\\n                                    <span class="time"><i class="icon-time"></i> 28 min.</span>\\r\\n                                </a>\\r\\n                                <a href="#" class="item">\\r\\n                                    <i class="icon-signin"></i> New user registration\\r\\n                                    <span class="time"><i class="icon-time"></i> 49 min.</span>\\r\\n                                </a>\\r\\n                                <a href="#" class="item">\\r\\n                                    <i class="icon-download-alt"></i> New order placed\\r\\n                                    <span class="time"><i class="icon-time"></i> 1 day.</span>\\r\\n                                </a>\\r\\n                                <div class="footer">\\r\\n                                    <a href="#" class="logout">View all notifications</a>\\r\\n                                </div>\\r\\n                            </div>\\r\\n                        </div>\\r\\n                    </div>\\r\\n                </li>\\r\\n                <li class="notification-dropdown hidden-phone">\\r\\n                    <a href="#" class="trigger">\\r\\n                        <i class="icon-envelope-alt"></i>\\r\\n                    </a>\\r\\n                    <div class="pop-dialog">\\r\\n                        <div class="pointer right">\\r\\n                            <div class="arrow"></div>\\r\\n                            <div class="arrow_border"></div>\\r\\n                        </div>\\r\\n                        <div class="body">\\r\\n                            <a href="#" class="close-icon"><i class="icon-remove-sign"></i></a>\\r\\n                            <div class="messages">\\r\\n                                <a href="#" class="item">\\r\\n                                    <img src="img/contact-img.png" class="display" />\\r\\n                                    <div class="name">Alejandra Galv\\xc3\\xa1n</div>\\r\\n                                    <div class="msg">\\r\\n                                        There are many variations of available, but the majority have suffered alterations.\\r\\n                                    </div>\\r\\n                                    <span class="time"><i class="icon-time"></i> 13 min.</span>\\r\\n                                </a>\\r\\n                                <a href="#" class="item">\\r\\n                                    <img src="img/contact-img2.png" class="display" />\\r\\n                                    <div class="name">Alejandra Galv\\xc3\\xa1n</div>\\r\\n                                    <div class="msg">\\r\\n                                        There are many variations of available, have suffered alterations.\\r\\n                                    </div>\\r\\n                                    <span class="time"><i class="icon-time"></i> 26 min.</span>\\r\\n                                </a>\\r\\n                                <a href="#" class="item last">\\r\\n                                    <img src="img/contact-img.png" class="display" />\\r\\n                                    <div class="name">Alejandra Galv\\xc3\\xa1n</div>\\r\\n                                    <div class="msg">\\r\\n                                        There are many variations of available, but the majority have suffered alterations.\\r\\n                                    </div>\\r\\n                                    <span class="time"><i class="icon-time"></i> 48 min.</span>\\r\\n                                </a>\\r\\n                                <div class="footer">\\r\\n                                    <a href="#" class="logout">View all messages</a>\\r\\n                                </div>\\r\\n                            </div>\\r\\n                        </div>\\r\\n                    </div>\\r\\n                </li>\\r\\n\\t\\t\\t-->\\r\\n                <li class="dropdown">\\r\\n                    <a href="#" class="dropdown-toggle hidden-phone" data-toggle="dropdown">\\r\\n\\t\\t\\t\', escape=False)\nresponse.write(auth.user.first_name+\' \'+auth.user.last_name)\nresponse.write(\'\\r\\n                        <b class="caret"></b>\\r\\n                    </a>\\r\\n                    <ul class="dropdown-menu">\\r\\n                        <li><a href="\', escape=False)\nresponse.write(URL(r = request, f = \'user\' ,args=\'logout\'))\nresponse.write(\'">SignOut</a></li>\\r\\n                        <li><a href="#">About</a></li>\\r\\n                    </ul>\\r\\n                </li>\\r\\n                <li class="settings hidden-phone">\\r\\n                    <a href="\', escape=False)\nresponse.write(URL(r = request, f = \'user\' ,args=\'login\'))\nresponse.write(\'" role="button">\\r\\n                        <i class="icon-share-alt"></i>\\r\\n                    </a>\\r\\n                </li>\\r\\n            </ul>            \\r\\n        </div>\\r\\n    </div>\\r\\n    <!-- end navbar -->\\r\\n\\r\\n    <!-- sidebar -->\\r\\n    <div id="sidebar-nav">\\r\\n        <ul id="dashboard-menu">\\r\\n\\t\\t\', escape=False)\nprint url\nresponse.write(\'\\r\\n            <li \', escape=False)\nif url==\'index\' :\n    response.write(\'class="active"\', escape=False)\n    pass\nresponse.write(\'>\\r\\n\\t    \\t\', escape=False)\nif url==\'index\' :\n    response.write(\'\\r\\n                <div class="pointer">\\r\\n                    <div class="arrow"></div>\\r\\n                    <div class="arrow_border"></div>\\r\\n                </div>\\r\\n\\t\\t\', escape=False)\n    pass\nresponse.write(\'\\r\\n                <a href="\', escape=False)\nresponse.write(URL(r = request, f = \'index\'))\nresponse.write(\'">\\r\\n                    <i class="icon-home"></i>\\r\\n                    <span>Home</span>\\r\\n                </a>\\r\\n            </li>            \\r\\n            <li \', escape=False)\nif url==\'addTest\' :\n    response.write(\'class="active"\', escape=False)\n    pass\nresponse.write(\'>\\r\\n\\t    \\t\', escape=False)\nif url==\'addTest\' :\n    response.write(\'\\r\\n                <div class="pointer">\\r\\n                    <div class="arrow"></div>\\r\\n                    <div class="arrow_border"></div>\\r\\n                </div>\\r\\n\\t\\t\', escape=False)\n    pass\nresponse.write(\'\\r\\n                <a href="\', escape=False)\nresponse.write(URL(r = request, f = \'addTest\'))\nresponse.write(\'">\\r\\n                    <i class="icon-edit"></i>\\r\\n                    <span>AddTest</span>\\r\\n                </a>\\r\\n            </li>\\r\\n            <li \', escape=False)\nif url==\'testDetails\' :\n    response.write(\'class="active"\', escape=False)\n    pass\nresponse.write(\'>\\r\\n\\t    \\t\', escape=False)\nif url==\'testDetails\' :\n    response.write(\'\\r\\n                <div class="pointer">\\r\\n                    <div class="arrow"></div>\\r\\n                    <div class="arrow_border"></div>\\r\\n                </div>\\r\\n\\t\\t\', escape=False)\n    pass\nresponse.write(\'\\r\\n                <a href="\', escape=False)\nresponse.write(URL(r = request, f = \'testDetails\'))\nresponse.write(\'">\\r\\n                    <i class="icon-signal"></i>\\r\\n                    <span>Show Test Details</span>\\r\\n                </a>\\r\\n                </li>\\r\\n                <li>\\r\\n                <a class="dropdown-toggle" href="#">\\r\\n                    <i class="icon-group"></i>\\r\\n                    <span>Developers</span>\\r\\n                    <i class="icon-chevron-down"></i>\\r\\n                </a>\\r\\n                <ul class="submenu">\\r\\n                    <li><a href=\\\'https://github.com/mayank93\\\'>Mayank Gupta</a></li>\\r\\n                    <li><a href=\\\'#\\\'>Rohan Shah</a></li>\\r\\n                    <li><a href=\\\'#\\\'>Ankush Jain</a></li>\\r\\n                    <li><a href=\\\'#\\\'>Rishbah Ladha</a></li>\\r\\n\\r\\n                </ul>\\r\\n                </li>\\r\\n        </ul>\\r\\n    </div>\\r\\n    <!-- end sidebar -->\\r\\n  \\r\\n  <div >\\r\\n    <div class="flash">\', escape=False)\nresponse.write(response.flash or \'\')\nresponse.write(\'</div>\\r\\n\\r\\n   \\t  \', escape=False)\nresponse.write(\'\\n<script>\\nfunction toggle(a,b,c){\\n\\t$(a).show();\\n\\t$(b).hide();\\n\\t$(c).hide();\\n}\\n</script>\\n<style>\\n .line.blue {\\nbackground-color: #30a1ec;\\nheight: 3px;\\nwidth: 25px;\\ndisplay: inline-block;\\nmargin-right: 10px;\\n}\\n</style>\\n<div class="content">\\n    <div class="span10" style="margin:10px">\\n        \', escape=False)\nif details.SanityFlag==\'true\'\nresponse.write(\'\\n        <div class="span3">\\n            <a class="btn btn-success" type="button" data-toggle="collapse" href="#add-skills" onclick=\\\'toggle("#SanityTesting","#FunctionalTesting","#StressTesting")\\\'>Sanity Result</a>\\n        </div>\\n        \', escape=False)\npass\nresponse.write(\'\\n        \', escape=False)\nif details.StressFlag==\'true\'\nresponse.write(\'\\n        <div class="span3">\\n            <a class="btn btn-success" type="button" data-toggle="collapse" href="#add-skills" onclick=\\\'toggle("#FunctionalTesting","#SanityTesting","#StressTesting")\\\'>Functional Result</a>\\n        </div>\\n        \', escape=False)\npass\nresponse.write(\'\\n        \', escape=False)\nif details.FunctionalFlag==\'true\'\nresponse.write(\'\\n        <div class="span3">\\n\\t\\t<a class="btn btn-success" type="button" data-toggle="collapse" href="#add-skills" onclick=\\\'toggle("#StressTesting","#SanityTesting","#FunctionalTesting")\\\'>Stress Result</a>\\n        </div>\\n        \', escape=False)\npass\nresponse.write(\'\\n        <br/>\\n        <br/>\\n        <br/>\\n\\n\\t</div>\\n\\t<div class="span10" id="SanityTesting" style="display:none">\\n        <h3>Sanity Result</h3>\\n        <br/>\\n\\t\\t<div class=\\\'span6 \\\' style="margin:10px;padding:10px 30px 10px 30px">\\n            \', escape=False)\nif details.Sanity==\'true\':\n    response.write(\'\\n            <p style="color:#448A03;font-size:15px">\\n            <i class="icon icon-ok" ></i>\\n            <b>   Given url is online and responsive</b>\\n            </p>\\n            \', escape=False)\nelse:\n    response.write(\'\\n            <p style="color:red;font-size:15px">\\n            <i class="icon icon-remove"></i>\\n            <b>   Given url is not responding</b>\\n            </p>\\n            \', escape=False)\n    pass\nresponse.write(\'\\n\\t\\t</div>\\n\\t</div>\\n\\t<div class="span10" id="FunctionalTesting" style="display:none">\\n\\t\\t<h3>Functional Result</h3>\\n        <br/>\\n\\t\\t\\t<div class="span5 knobs">\\n                        \\t<div class="knob-wrapper">\\n                            \\t\\t<input type="text" value="\', escape=False)\nresponse.write(details.Functional)\nresponse.write(\'" class="knob" data-thickness=".3" data-inputColor="#333" data-fgColor="#30a1ec" data-bgColor="#d4ecfd" data-width="150">\\n                            \\t\\t<div class="info">\\n                            \\t\\t</div>\\n                        \\t</div>\\n                        </div>   \\n\\t\\t\\t<div class="span2"> \\n                        \\t<div class="param">\\n                                <span class="line blue"></span>\\n                                <h4>% of Active Urls</h4>\\n                            </div>\\n           </div>\\n                        <!-- table sample -->\\n                        <!-- the script for the toggle all checkboxes from header is located in js/theme.js -->\\n                        <div class="table-products section">\\n                            <div class="row-fluid head">\\n                                <div class="span12">\\n                                    <h4>Tests <small>Status</small></h4>\\n                                </div>\\n                            </div>\\n                            <div class="row-fluid">\\n                                <table class="table table-hover">\\n                                    <thead>\\n                                        <tr>\\n                                            <th class="span3">\\n                                                Url Name\\n                                            </th>\\n                                            <th class="span3">\\n                                                <span class="line"></span>\\n                                                Status\\n                                            </th>\\n                                        </tr>\\n                                    </thead>\\n                                    \', escape=False)\ndetails=[1,2,3]\nresponse.write(\'\\n                                    <tbody>\\n                                        <!-- row -->\\n                                        \', escape=False)\nfor i in functionalDetails:\n    response.write(\'\\n                                        \', escape=False)\n    print i\n    response.write(\'\\n                                        <tr>\\n                                            <td>\\n                                                <a href="\', escape=False)\n    response.write(i.Url)\n    response.write(\'">\', escape=False)\n    response.write(i.Url)\n    response.write(\'</a>\\n                                            </td>\\n                                            <td class="description" \', escape=False)\n    if i.Status==\'False\':\n        response.write(\'style="color:red;"\', escape=False)\n    else:\n        response.write(\'style="color:#448A03;"\', escape=False)\n        pass\n    response.write(\'>\\n                                                \', escape=False)\n    response.write(i.Status)\n    response.write(\'\\n                                            </td>\\n                                        </tr>\\n                                        \', escape=False)\n    pass\nresponse.write(\'\\n                                        <!-- row -->\\n                                    </tbody>\\n                                </table>\\n\\n\\n\\t        </div>\\n\\t    </div>\\n\\t</div>\\n\\n\\t<div class="span10" id="StressTesting" style="display:none">\\n\\t\\t<h3>Stress Result</h3>\\n        <br/>\\n        <iframe style="height:1000px;width:100%" src="\', escape=False)\nresponse.write(URL(\'static\',stressDetails))\nresponse.write(\'"></iframe>\\n\\t</div>\\n</div>\\n <script type="text/javascript">\\n $(function () {\\n       // jQuery Knobs\\n       $(".knob").knob();\\n});\\n</script>\\n\', escape=False)\nresponse.write(\'\\r\\n \\r\\n    <!-- Footer ================================================== -->\\r\\n    <footer class="footer" id="footer">\\r\\n      \', escape=False)\nresponse.write(\' <!-- this is default footer -->\\r\\n      <div class="footer-content">\\r\\n\\t<div class="copyright pull-left">\', escape=False)\nresponse.write(T(\'Copyright\'))\nresponse.write(\' &#169; \', escape=False)\nresponse.write(request.now.year)\nresponse.write(\'</div>\\r\\n\\t<div id="poweredBy" class="pull-right">\\r\\n\\t  \', escape=False)\nresponse.write(T(\'Powered by\'))\nresponse.write(\'\\r\\n\\t  <a href="http://www.web2py.com/">web2py</a>\\r\\n\\t</div>\\r\\n      </div>\\r\\n      \', escape=False)\nresponse.write(\'\\r\\n    </footer>\\r\\n    \\r\\n  </div> <!-- /container -->\\r\\n\\r\\n\\r\\n\\r\\n    <script src="\', escape=False)\nresponse.write(URL(\'static\',\'js/jquery-latest.js\'))\nresponse.write(\'"></script>\\r\\n    <script src="\', escape=False)\nresponse.write(URL(\'static\',\'js/bootstrap.min.js\'))\nresponse.write(\'"></script>\\r\\n    <script src="\', escape=False)\nresponse.write(URL(\'static\',\'js/jquery-ui-1.10.2.custom.min.js\'))\nresponse.write(\'"></script>\\r\\n    <!-- knob -->\\r\\n    <script src="\', escape=False)\nresponse.write(URL(\'static\',\'js/jquery.knob.js\'))\nresponse.write(\'"></script>\\r\\n    <!-- flot charts -->\\r\\n    <script src="\', escape=False)\nresponse.write(URL(\'static\',\'js/jquery.flot.js\'))\nresponse.write(\'"></script>\\r\\n    <script src="\', escape=False)\nresponse.write(URL(\'static\',\'js/jquery.flot.stack.js\'))\nresponse.write(\'"></script>\\r\\n    <script src="\', escape=False)\nresponse.write(URL(\'static\',\'js/jquery.flot.resize.js\'))\nresponse.write(\'"></script>\\r\\n    <script src="\', escape=False)\nresponse.write(URL(\'static\',\'js/theme.js\'))\nresponse.write(\'"></script>\\r\\n    <script src="\', escape=False)\nresponse.write(URL(\'static\',\'js/jquery.validate.min.js\'))\nresponse.write(\'"></script>\\r\\n  <!--[if lt IE 7 ]>\\r\\n      <script src="\', escape=False)\nresponse.write(URL(\'static\',\'js/dd_belatedpng.js\'))\nresponse.write(\'"></script>\\r\\n      <script> DD_belatedPNG.fix(\\\'img, .png_bg\\\'); //fix any <img> or .png_bg background-images </script>\\r\\n      <![endif]-->\\r\\n  \', escape=False)\nif response.google_analytics_id:\n    response.write(\'<script type="text/javascript"> var _gaq = _gaq || []; _gaq.push([\\\'_setAccount\\\', \\\'\', escape=False)\n    response.write(response.google_analytics_id)\n    response.write("\']); _gaq.push([\'_trackPageview\']); (function() { var ga = document.createElement(\'script\'); ga.type = \'text/javascript\'; ga.async = true; ga.src = (\'https:\' == document.location.protocol ? \'https://ssl\' : \'http://www\') + \'.google-analytics.com/ga.js\'; var s = document.getElementsByTagName(\'script\')[0]; s.parentNode.insertBefore(ga, s); })(); </script> ", escape=False)\n    pass\nresponse.write(\'\\r\\n  <script src="\', escape=False)\nresponse.write(URL(\'static\',\'js/share.js\',vars=dict(static=URL(\'static\',\'images\'))))\nresponse.write(\'"></script>  \\r\\n</body>\\r\\n</html>\\r\\n\', escape=False)'
p7
sS'snapshot'
p8
(dp9
S'exception'
p10
(dp11
S'__getslice__'
p12
S"<method-wrapper '__getslice__' of exceptions.SyntaxError object>"
p13
sS'text'
p14
S'"if details.SanityFlag==\'true\'\\n"'
p15
sS'__str__'
p16
S"<method-wrapper '__str__' of exceptions.SyntaxError object>"
p17
sS'__reduce__'
p18
S'<built-in method __reduce__ of exceptions.SyntaxError object>'
p19
sS'__dict__'
p20
S'{}'
p21
sS'__sizeof__'
p22
S'<built-in method __sizeof__ of exceptions.SyntaxError object>'
p23
sS'__init__'
p24
S"<method-wrapper '__init__' of exceptions.SyntaxError object>"
p25
sS'__setattr__'
p26
S"<method-wrapper '__setattr__' of exceptions.SyntaxError object>"
p27
sS'__reduce_ex__'
p28
S'<built-in method __reduce_ex__ of exceptions.SyntaxError object>'
p29
sS'__new__'
p30
S'<built-in method __new__ of type object>'
p31
sS'__format__'
p32
S'<built-in method __format__ of exceptions.SyntaxError object>'
p33
sS'__class__'
p34
S"<type 'exceptions.SyntaxError'>"
p35
sS'filename'
p36
S"'/home/mayank/Production/Final-code/web2py/applications/FunkLoad/views/default/test.html'"
p37
sS'lineno'
p38
S'105'
p39
sS'msg'
p40
S"'invalid syntax'"
p41
sS'__doc__'
p42
S"'Invalid syntax.'"
p43
sS'__getitem__'
p44
S"<method-wrapper '__getitem__' of exceptions.SyntaxError object>"
p45
sS'__setstate__'
p46
S'<built-in method __setstate__ of exceptions.SyntaxError object>'
p47
sS'__getattribute__'
p48
S"<method-wrapper '__getattribute__' of exceptions.SyntaxError object>"
p49
sS'print_file_and_line'
p50
S'None'
p51
sS'args'
p52
S'(\'invalid syntax\', (\'/home/mayank/Production/Final-code/web2py/applications/FunkLoad/views/default/test.html\', 105, 30, "if details.SanityFlag==\'true\'\\n"))'
p53
sS'__subclasshook__'
p54
S'<built-in method __subclasshook__ of type object>'
p55
sS'offset'
p56
S'30'
p57
sS'__unicode__'
p58
S'<built-in method __unicode__ of exceptions.SyntaxError object>'
p59
sS'__delattr__'
p60
S"<method-wrapper '__delattr__' of exceptions.SyntaxError object>"
p61
sS'__repr__'
p62
S"<method-wrapper '__repr__' of exceptions.SyntaxError object>"
p63
sS'__hash__'
p64
S"<method-wrapper '__hash__' of exceptions.SyntaxError object>"
p65
ssS'evalue'
p66
S'invalid syntax (test.html, line 105)'
p67
sS'request'
p68
ccopy_reg
_reconstructor
p69
(cgluon.html
BEAUTIFY
p70
c__builtin__
object
p71
NtRp72
(dp73
S'attributes'
p74
(dp75
sS'components'
p76
(lp77
g69
(cgluon.html
TABLE
p78
g71
NtRp79
(dp80
g74
(dp81
S'level'
p82
I5
ssS'parent'
p83
Nsg76
(lp84
g69
(cgluon.html
TR
p85
g71
NtRp86
(dp87
g74
(dp88
sg83
g79
sg76
(lp89
g69
(cgluon.html
TD
p90
g71
NtRp91
(dp92
g74
(dp93
S'_style'
p94
S'font-weight:bold;vertical-align:top'
p95
ssg83
g86
sg76
(lp96
S'ajax'
p97
asbag69
(g90
g71
NtRp98
(dp99
g74
(dp100
S'_valign'
p101
S'top'
p102
ssg83
g86
sg76
(lp103
S':'
asbag69
(g90
g71
NtRp104
(dp105
g74
(dp106
sg83
g86
sg76
(lp107
g69
(g70
g71
NtRp108
(dp109
g74
(dp110
g82
I5
ssg83
g104
sg76
(lp111
S'False'
p112
asbasbasbag69
(g85
g71
NtRp113
(dp114
g74
(dp115
sg83
g79
sg76
(lp116
g69
(g90
g71
NtRp117
(dp118
g74
(dp119
g94
g95
ssg83
g113
sg76
(lp120
S'application'
p121
asbag69
(g90
g71
NtRp122
(dp123
g74
(dp124
g101
g102
ssg83
g113
sg76
(lp125
S':'
asbag69
(g90
g71
NtRp126
(dp127
g74
(dp128
sg83
g113
sg76
(lp129
g69
(g70
g71
NtRp130
(dp131
g74
(dp132
g82
I5
ssg83
g126
sg76
(lp133
S'FunkLoad'
p134
asbasbasbag69
(g85
g71
NtRp135
(dp136
g74
(dp137
sg83
g79
sg76
(lp138
g69
(g90
g71
NtRp139
(dp140
g74
(dp141
g94
g95
ssg83
g135
sg76
(lp142
g52
asbag69
(g90
g71
NtRp143
(dp144
g74
(dp145
g101
g102
ssg83
g135
sg76
(lp146
S':'
asbag69
(g90
g71
NtRp147
(dp148
g74
(dp149
sg83
g135
sg76
(lp150
g69
(g70
g71
NtRp151
(dp152
g74
(dp153
g82
I5
ssg83
g147
sg76
(lp154
g69
(g78
g71
NtRp155
(dp156
g74
(dp157
g82
I4
ssg83
Nsg76
(lp158
g69
(g85
g71
NtRp159
(dp160
g74
(dp161
sg83
g155
sg76
(lp162
g69
(g90
g71
NtRp163
(dp164
g74
(dp165
sg83
g159
sg76
(lp166
g69
(g70
g71
NtRp167
(dp168
g74
(dp169
g82
I4
ssg83
g163
sg76
(lp170
S'30'
p171
asbasbasbasbasbasbasbag69
(g85
g71
NtRp172
(dp173
g74
(dp174
sg83
g79
sg76
(lp175
g69
(g90
g71
NtRp176
(dp177
g74
(dp178
g94
g95
ssg83
g172
sg76
(lp179
S'body'
p180
asbag69
(g90
g71
NtRp181
(dp182
g74
(dp183
g101
g102
ssg83
g172
sg76
(lp184
S':'
asbag69
(g90
g71
NtRp185
(dp186
g74
(dp187
sg83
g172
sg76
(lp188
g69
(g70
g71
NtRp189
(dp190
g74
(dp191
g82
I5
ssg83
g185
sg76
(lp192
S'<cStringIO.StringO object at 0x7f050c706030>'
p193
asbasbasbag69
(g85
g71
NtRp194
(dp195
g74
(dp196
sg83
g79
sg76
(lp197
g69
(g90
g71
NtRp198
(dp199
g74
(dp200
g94
g95
ssg83
g194
sg76
(lp201
S'cid'
p202
asbag69
(g90
g71
NtRp203
(dp204
g74
(dp205
g101
g102
ssg83
g194
sg76
(lp206
S':'
asbag69
(g90
g71
NtRp207
(dp208
g74
(dp209
sg83
g194
sg76
(lp210
g69
(g70
g71
NtRp211
(dp212
g74
(dp213
g82
I5
ssg83
g207
sg76
(lp214
S'None'
p215
asbasbasbag69
(g85
g71
NtRp216
(dp217
g74
(dp218
sg83
g79
sg76
(lp219
g69
(g90
g71
NtRp220
(dp221
g74
(dp222
g94
g95
ssg83
g216
sg76
(lp223
S'client'
p224
asbag69
(g90
g71
NtRp225
(dp226
g74
(dp227
g101
g102
ssg83
g216
sg76
(lp228
S':'
asbag69
(g90
g71
NtRp229
(dp230
g74
(dp231
sg83
g216
sg76
(lp232
g69
(g70
g71
NtRp233
(dp234
g74
(dp235
g82
I5
ssg83
g229
sg76
(lp236
S'127.0.0.1'
p237
asbasbasbag69
(g85
g71
NtRp238
(dp239
g74
(dp240
sg83
g79
sg76
(lp241
g69
(g90
g71
NtRp242
(dp243
g74
(dp244
g94
g95
ssg83
g238
sg76
(lp245
S'controller'
p246
asbag69
(g90
g71
NtRp247
(dp248
g74
(dp249
g101
g102
ssg83
g238
sg76
(lp250
S':'
asbag69
(g90
g71
NtRp251
(dp252
g74
(dp253
sg83
g238
sg76
(lp254
g69
(g70
g71
NtRp255
(dp256
g74
(dp257
g82
I5
ssg83
g251
sg76
(lp258
S'default'
p259
asbasbasbag69
(g85
g71
NtRp260
(dp261
g74
(dp262
sg83
g79
sg76
(lp263
g69
(g90
g71
NtRp264
(dp265
g74
(dp266
g94
g95
ssg83
g260
sg76
(lp267
S'cookies'
p268
asbag69
(g90
g71
NtRp269
(dp270
g74
(dp271
g101
g102
ssg83
g260
sg76
(lp272
S':'
asbag69
(g90
g71
NtRp273
(dp274
g74
(dp275
sg83
g260
sg76
(lp276
g69
(g70
g71
NtRp277
(dp278
g74
(dp279
g82
I5
ssg83
g273
sg76
(lp280
g69
(g78
g71
NtRp281
(dp282
g74
(dp283
g82
I4
ssg83
Nsg76
(lp284
g69
(g85
g71
NtRp285
(dp286
g74
(dp287
sg83
g281
sg76
(lp288
g69
(g90
g71
NtRp289
(dp290
g74
(dp291
g94
g95
ssg83
g285
sg76
(lp292
S'session_id_admin'
p293
asbag69
(g90
g71
NtRp294
(dp295
g74
(dp296
g101
g102
ssg83
g285
sg76
(lp297
S':'
asbag69
(g90
g71
NtRp298
(dp299
g74
(dp300
sg83
g285
sg76
(lp301
g69
(g70
g71
NtRp302
(dp303
g74
(dp304
g82
I4
ssg83
g298
sg76
(lp305
S'127.0.0.1-d4d9b33a-909e-41cd-b8d6-cf5d55621806'
p306
ag69
(g78
g71
NtRp307
(dp308
g74
(dp309
g82
I3
ssg83
Nsg76
(lp310
g69
(g85
g71
NtRp311
(dp312
g74
(dp313
sg83
g307
sg76
(lp314
g69
(g90
g71
NtRp315
(dp316
g74
(dp317
g94
g95
ssg83
g311
sg76
(lp318
S'comment'
p319
asbag69
(g90
g71
NtRp320
(dp321
g74
(dp322
g101
g102
ssg83
g311
sg76
(lp323
S':'
asbag69
(g90
g71
NtRp324
(dp325
g74
(dp326
sg83
g311
sg76
(lp327
g69
(g70
g71
NtRp328
(dp329
g74
(dp330
g82
I3
ssg83
g324
sg76
(lp331
S''
asbasbasbag69
(g85
g71
NtRp332
(dp333
g74
(dp334
sg83
g307
sg76
(lp335
g69
(g90
g71
NtRp336
(dp337
g74
(dp338
g94
g95
ssg83
g332
sg76
(lp339
S'domain'
p340
asbag69
(g90
g71
NtRp341
(dp342
g74
(dp343
g101
g102
ssg83
g332
sg76
(lp344
S':'
asbag69
(g90
g71
NtRp345
(dp346
g74
(dp347
sg83
g332
sg76
(lp348
g69
(g70
g71
NtRp349
(dp350
g74
(dp351
g82
I3
ssg83
g345
sg76
(lp352
S''
asbasbasbag69
(g85
g71
NtRp353
(dp354
g74
(dp355
sg83
g307
sg76
(lp356
g69
(g90
g71
NtRp357
(dp358
g74
(dp359
g94
g95
ssg83
g353
sg76
(lp360
S'expires'
p361
asbag69
(g90
g71
NtRp362
(dp363
g74
(dp364
g101
g102
ssg83
g353
sg76
(lp365
S':'
asbag69
(g90
g71
NtRp366
(dp367
g74
(dp368
sg83
g353
sg76
(lp369
g69
(g70
g71
NtRp370
(dp371
g74
(dp372
g82
I3
ssg83
g366
sg76
(lp373
S''
asbasbasbag69
(g85
g71
NtRp374
(dp375
g74
(dp376
sg83
g307
sg76
(lp377
g69
(g90
g71
NtRp378
(dp379
g74
(dp380
g94
g95
ssg83
g374
sg76
(lp381
S'httponly'
p382
asbag69
(g90
g71
NtRp383
(dp384
g74
(dp385
g101
g102
ssg83
g374
sg76
(lp386
S':'
asbag69
(g90
g71
NtRp387
(dp388
g74
(dp389
sg83
g374
sg76
(lp390
g69
(g70
g71
NtRp391
(dp392
g74
(dp393
g82
I3
ssg83
g387
sg76
(lp394
S''
asbasbasbag69
(g85
g71
NtRp395
(dp396
g74
(dp397
sg83
g307
sg76
(lp398
g69
(g90
g71
NtRp399
(dp400
g74
(dp401
g94
g95
ssg83
g395
sg76
(lp402
S'max-age'
p403
asbag69
(g90
g71
NtRp404
(dp405
g74
(dp406
g101
g102
ssg83
g395
sg76
(lp407
S':'
asbag69
(g90
g71
NtRp408
(dp409
g74
(dp410
sg83
g395
sg76
(lp411
g69
(g70
g71
NtRp412
(dp413
g74
(dp414
g82
I3
ssg83
g408
sg76
(lp415
S''
asbasbasbag69
(g85
g71
NtRp416
(dp417
g74
(dp418
sg83
g307
sg76
(lp419
g69
(g90
g71
NtRp420
(dp421
g74
(dp422
g94
g95
ssg83
g416
sg76
(lp423
S'path'
p424
asbag69
(g90
g71
NtRp425
(dp426
g74
(dp427
g101
g102
ssg83
g416
sg76
(lp428
S':'
asbag69
(g90
g71
NtRp429
(dp430
g74
(dp431
sg83
g416
sg76
(lp432
g69
(g70
g71
NtRp433
(dp434
g74
(dp435
g82
I3
ssg83
g429
sg76
(lp436
S''
asbasbasbag69
(g85
g71
NtRp437
(dp438
g74
(dp439
sg83
g307
sg76
(lp440
g69
(g90
g71
NtRp441
(dp442
g74
(dp443
g94
g95
ssg83
g437
sg76
(lp444
S'secure'
p445
asbag69
(g90
g71
NtRp446
(dp447
g74
(dp448
g101
g102
ssg83
g437
sg76
(lp449
S':'
asbag69
(g90
g71
NtRp450
(dp451
g74
(dp452
sg83
g437
sg76
(lp453
g69
(g70
g71
NtRp454
(dp455
g74
(dp456
g82
I3
ssg83
g450
sg76
(lp457
S''
asbasbasbag69
(g85
g71
NtRp458
(dp459
g74
(dp460
sg83
g307
sg76
(lp461
g69
(g90
g71
NtRp462
(dp463
g74
(dp464
g94
g95
ssg83
g458
sg76
(lp465
S'version'
p466
asbag69
(g90
g71
NtRp467
(dp468
g74
(dp469
g101
g102
ssg83
g458
sg76
(lp470
S':'
asbag69
(g90
g71
NtRp471
(dp472
g74
(dp473
sg83
g458
sg76
(lp474
g69
(g70
g71
NtRp475
(dp476
g74
(dp477
g82
I3
ssg83
g471
sg76
(lp478
S''
asbasbasbasbasbasbasbag69
(g85
g71
NtRp479
(dp480
g74
(dp481
sg83
g281
sg76
(lp482
g69
(g90
g71
NtRp483
(dp484
g74
(dp485
g94
g95
ssg83
g479
sg76
(lp486
S'session_id_funkload'
p487
asbag69
(g90
g71
NtRp488
(dp489
g74
(dp490
g101
g102
ssg83
g479
sg76
(lp491
S':'
asbag69
(g90
g71
NtRp492
(dp493
g74
(dp494
sg83
g479
sg76
(lp495
g69
(g70
g71
NtRp496
(dp497
g74
(dp498
g82
I4
ssg83
g492
sg76
(lp499
S'127.0.0.1-d75bbcb9-beea-435d-912c-788bccec637c'
p500
ag69
(g78
g71
NtRp501
(dp502
g74
(dp503
g82
I3
ssg83
Nsg76
(lp504
g69
(g85
g71
NtRp505
(dp506
g74
(dp507
sg83
g501
sg76
(lp508
g69
(g90
g71
NtRp509
(dp510
g74
(dp511
g94
g95
ssg83
g505
sg76
(lp512
g319
asbag69
(g90
g71
NtRp513
(dp514
g74
(dp515
g101
g102
ssg83
g505
sg76
(lp516
S':'
asbag69
(g90
g71
NtRp517
(dp518
g74
(dp519
sg83
g505
sg76
(lp520
g69
(g70
g71
NtRp521
(dp522
g74
(dp523
g82
I3
ssg83
g517
sg76
(lp524
S''
asbasbasbag69
(g85
g71
NtRp525
(dp526
g74
(dp527
sg83
g501
sg76
(lp528
g69
(g90
g71
NtRp529
(dp530
g74
(dp531
g94
g95
ssg83
g525
sg76
(lp532
g340
asbag69
(g90
g71
NtRp533
(dp534
g74
(dp535
g101
g102
ssg83
g525
sg76
(lp536
S':'
asbag69
(g90
g71
NtRp537
(dp538
g74
(dp539
sg83
g525
sg76
(lp540
g69
(g70
g71
NtRp541
(dp542
g74
(dp543
g82
I3
ssg83
g537
sg76
(lp544
S''
asbasbasbag69
(g85
g71
NtRp545
(dp546
g74
(dp547
sg83
g501
sg76
(lp548
g69
(g90
g71
NtRp549
(dp550
g74
(dp551
g94
g95
ssg83
g545
sg76
(lp552
g361
asbag69
(g90
g71
NtRp553
(dp554
g74
(dp555
g101
g102
ssg83
g545
sg76
(lp556
S':'
asbag69
(g90
g71
NtRp557
(dp558
g74
(dp559
sg83
g545
sg76
(lp560
g69
(g70
g71
NtRp561
(dp562
g74
(dp563
g82
I3
ssg83
g557
sg76
(lp564
S''
asbasbasbag69
(g85
g71
NtRp565
(dp566
g74
(dp567
sg83
g501
sg76
(lp568
g69
(g90
g71
NtRp569
(dp570
g74
(dp571
g94
g95
ssg83
g565
sg76
(lp572
g382
asbag69
(g90
g71
NtRp573
(dp574
g74
(dp575
g101
g102
ssg83
g565
sg76
(lp576
S':'
asbag69
(g90
g71
NtRp577
(dp578
g74
(dp579
sg83
g565
sg76
(lp580
g69
(g70
g71
NtRp581
(dp582
g74
(dp583
g82
I3
ssg83
g577
sg76
(lp584
S''
asbasbasbag69
(g85
g71
NtRp585
(dp586
g74
(dp587
sg83
g501
sg76
(lp588
g69
(g90
g71
NtRp589
(dp590
g74
(dp591
g94
g95
ssg83
g585
sg76
(lp592
g403
asbag69
(g90
g71
NtRp593
(dp594
g74
(dp595
g101
g102
ssg83
g585
sg76
(lp596
S':'
asbag69
(g90
g71
NtRp597
(dp598
g74
(dp599
sg83
g585
sg76
(lp600
g69
(g70
g71
NtRp601
(dp602
g74
(dp603
g82
I3
ssg83
g597
sg76
(lp604
S''
asbasbasbag69
(g85
g71
NtRp605
(dp606
g74
(dp607
sg83
g501
sg76
(lp608
g69
(g90
g71
NtRp609
(dp610
g74
(dp611
g94
g95
ssg83
g605
sg76
(lp612
g424
asbag69
(g90
g71
NtRp613
(dp614
g74
(dp615
g101
g102
ssg83
g605
sg76
(lp616
S':'
asbag69
(g90
g71
NtRp617
(dp618
g74
(dp619
sg83
g605
sg76
(lp620
g69
(g70
g71
NtRp621
(dp622
g74
(dp623
g82
I3
ssg83
g617
sg76
(lp624
S''
asbasbasbag69
(g85
g71
NtRp625
(dp626
g74
(dp627
sg83
g501
sg76
(lp628
g69
(g90
g71
NtRp629
(dp630
g74
(dp631
g94
g95
ssg83
g625
sg76
(lp632
g445
asbag69
(g90
g71
NtRp633
(dp634
g74
(dp635
g101
g102
ssg83
g625
sg76
(lp636
S':'
asbag69
(g90
g71
NtRp637
(dp638
g74
(dp639
sg83
g625
sg76
(lp640
g69
(g70
g71
NtRp641
(dp642
g74
(dp643
g82
I3
ssg83
g637
sg76
(lp644
S''
asbasbasbag69
(g85
g71
NtRp645
(dp646
g74
(dp647
sg83
g501
sg76
(lp648
g69
(g90
g71
NtRp649
(dp650
g74
(dp651
g94
g95
ssg83
g645
sg76
(lp652
g466
asbag69
(g90
g71
NtRp653
(dp654
g74
(dp655
g101
g102
ssg83
g645
sg76
(lp656
S':'
asbag69
(g90
g71
NtRp657
(dp658
g74
(dp659
sg83
g645
sg76
(lp660
g69
(g70
g71
NtRp661
(dp662
g74
(dp663
g82
I3
ssg83
g657
sg76
(lp664
S''
asbasbasbasbasbasbasbag69
(g85
g71
NtRp665
(dp666
g74
(dp667
sg83
g281
sg76
(lp668
g69
(g90
g71
NtRp669
(dp670
g74
(dp671
g94
g95
ssg83
g665
sg76
(lp672
S'session_id_welcome'
p673
asbag69
(g90
g71
NtRp674
(dp675
g74
(dp676
g101
g102
ssg83
g665
sg76
(lp677
S':'
asbag69
(g90
g71
NtRp678
(dp679
g74
(dp680
sg83
g665
sg76
(lp681
g69
(g70
g71
NtRp682
(dp683
g74
(dp684
g82
I4
ssg83
g678
sg76
(lp685
S'127.0.0.1-823c7077-239d-406c-9a34-a784ff00daab'
p686
ag69
(g78
g71
NtRp687
(dp688
g74
(dp689
g82
I3
ssg83
Nsg76
(lp690
g69
(g85
g71
NtRp691
(dp692
g74
(dp693
sg83
g687
sg76
(lp694
g69
(g90
g71
NtRp695
(dp696
g74
(dp697
g94
g95
ssg83
g691
sg76
(lp698
g319
asbag69
(g90
g71
NtRp699
(dp700
g74
(dp701
g101
g102
ssg83
g691
sg76
(lp702
S':'
asbag69
(g90
g71
NtRp703
(dp704
g74
(dp705
sg83
g691
sg76
(lp706
g69
(g70
g71
NtRp707
(dp708
g74
(dp709
g82
I3
ssg83
g703
sg76
(lp710
S''
asbasbasbag69
(g85
g71
NtRp711
(dp712
g74
(dp713
sg83
g687
sg76
(lp714
g69
(g90
g71
NtRp715
(dp716
g74
(dp717
g94
g95
ssg83
g711
sg76
(lp718
g340
asbag69
(g90
g71
NtRp719
(dp720
g74
(dp721
g101
g102
ssg83
g711
sg76
(lp722
S':'
asbag69
(g90
g71
NtRp723
(dp724
g74
(dp725
sg83
g711
sg76
(lp726
g69
(g70
g71
NtRp727
(dp728
g74
(dp729
g82
I3
ssg83
g723
sg76
(lp730
S''
asbasbasbag69
(g85
g71
NtRp731
(dp732
g74
(dp733
sg83
g687
sg76
(lp734
g69
(g90
g71
NtRp735
(dp736
g74
(dp737
g94
g95
ssg83
g731
sg76
(lp738
g361
asbag69
(g90
g71
NtRp739
(dp740
g74
(dp741
g101
g102
ssg83
g731
sg76
(lp742
S':'
asbag69
(g90
g71
NtRp743
(dp744
g74
(dp745
sg83
g731
sg76
(lp746
g69
(g70
g71
NtRp747
(dp748
g74
(dp749
g82
I3
ssg83
g743
sg76
(lp750
S''
asbasbasbag69
(g85
g71
NtRp751
(dp752
g74
(dp753
sg83
g687
sg76
(lp754
g69
(g90
g71
NtRp755
(dp756
g74
(dp757
g94
g95
ssg83
g751
sg76
(lp758
g382
asbag69
(g90
g71
NtRp759
(dp760
g74
(dp761
g101
g102
ssg83
g751
sg76
(lp762
S':'
asbag69
(g90
g71
NtRp763
(dp764
g74
(dp765
sg83
g751
sg76
(lp766
g69
(g70
g71
NtRp767
(dp768
g74
(dp769
g82
I3
ssg83
g763
sg76
(lp770
S''
asbasbasbag69
(g85
g71
NtRp771
(dp772
g74
(dp773
sg83
g687
sg76
(lp774
g69
(g90
g71
NtRp775
(dp776
g74
(dp777
g94
g95
ssg83
g771
sg76
(lp778
g403
asbag69
(g90
g71
NtRp779
(dp780
g74
(dp781
g101
g102
ssg83
g771
sg76
(lp782
S':'
asbag69
(g90
g71
NtRp783
(dp784
g74
(dp785
sg83
g771
sg76
(lp786
g69
(g70
g71
NtRp787
(dp788
g74
(dp789
g82
I3
ssg83
g783
sg76
(lp790
S''
asbasbasbag69
(g85
g71
NtRp791
(dp792
g74
(dp793
sg83
g687
sg76
(lp794
g69
(g90
g71
NtRp795
(dp796
g74
(dp797
g94
g95
ssg83
g791
sg76
(lp798
g424
asbag69
(g90
g71
NtRp799
(dp800
g74
(dp801
g101
g102
ssg83
g791
sg76
(lp802
S':'
asbag69
(g90
g71
NtRp803
(dp804
g74
(dp805
sg83
g791
sg76
(lp806
g69
(g70
g71
NtRp807
(dp808
g74
(dp809
g82
I3
ssg83
g803
sg76
(lp810
S''
asbasbasbag69
(g85
g71
NtRp811
(dp812
g74
(dp813
sg83
g687
sg76
(lp814
g69
(g90
g71
NtRp815
(dp816
g74
(dp817
g94
g95
ssg83
g811
sg76
(lp818
g445
asbag69
(g90
g71
NtRp819
(dp820
g74
(dp821
g101
g102
ssg83
g811
sg76
(lp822
S':'
asbag69
(g90
g71
NtRp823
(dp824
g74
(dp825
sg83
g811
sg76
(lp826
g69
(g70
g71
NtRp827
(dp828
g74
(dp829
g82
I3
ssg83
g823
sg76
(lp830
S''
asbasbasbag69
(g85
g71
NtRp831
(dp832
g74
(dp833
sg83
g687
sg76
(lp834
g69
(g90
g71
NtRp835
(dp836
g74
(dp837
g94
g95
ssg83
g831
sg76
(lp838
g466
asbag69
(g90
g71
NtRp839
(dp840
g74
(dp841
g101
g102
ssg83
g831
sg76
(lp842
S':'
asbag69
(g90
g71
NtRp843
(dp844
g74
(dp845
sg83
g831
sg76
(lp846
g69
(g70
g71
NtRp847
(dp848
g74
(dp849
g82
I3
ssg83
g843
sg76
(lp850
S''
asbasbasbasbasbasbasbasbasbasbasbag69
(g85
g71
NtRp851
(dp852
g74
(dp853
sg83
g79
sg76
(lp854
g69
(g90
g71
NtRp855
(dp856
g74
(dp857
g94
g95
ssg83
g851
sg76
(lp858
S'env'
p859
asbag69
(g90
g71
NtRp860
(dp861
g74
(dp862
g101
g102
ssg83
g851
sg76
(lp863
S':'
asbag69
(g90
g71
NtRp864
(dp865
g74
(dp866
sg83
g851
sg76
(lp867
g69
(g70
g71
NtRp868
(dp869
g74
(dp870
g82
I5
ssg83
g864
sg76
(lp871
g69
(g78
g71
NtRp872
(dp873
g74
(dp874
g82
I4
ssg83
Nsg76
(lp875
g69
(g85
g71
NtRp876
(dp877
g74
(dp878
sg83
g872
sg76
(lp879
g69
(g90
g71
NtRp880
(dp881
g74
(dp882
g94
g95
ssg83
g876
sg76
(lp883
S'app_folders'
p884
asbag69
(g90
g71
NtRp885
(dp886
g74
(dp887
g101
g102
ssg83
g876
sg76
(lp888
S':'
asbag69
(g90
g71
NtRp889
(dp890
g74
(dp891
sg83
g876
sg76
(lp892
g69
(g70
g71
NtRp893
(dp894
g74
(dp895
g82
I4
ssg83
g889
sg76
(lp896
S"set(['/home/mayank/Production/Final-code/web2py/applications/welcome/', '/home/mayank/Production/Final-code/web2py/applications/FunkLoad/', '/home/mayank/Production/Final-code/web2py/applications/admin/'])"
p897
asbasbasbag69
(g85
g71
NtRp898
(dp899
g74
(dp900
sg83
g872
sg76
(lp901
g69
(g90
g71
NtRp902
(dp903
g74
(dp904
g94
g95
ssg83
g898
sg76
(lp905
S'applications_parent'
p906
asbag69
(g90
g71
NtRp907
(dp908
g74
(dp909
g101
g102
ssg83
g898
sg76
(lp910
S':'
asbag69
(g90
g71
NtRp911
(dp912
g74
(dp913
sg83
g898
sg76
(lp914
g69
(g70
g71
NtRp915
(dp916
g74
(dp917
g82
I4
ssg83
g911
sg76
(lp918
S'/home/mayank/Production/Final-code/web2py'
p919
asbasbasbag69
(g85
g71
NtRp920
(dp921
g74
(dp922
sg83
g872
sg76
(lp923
g69
(g90
g71
NtRp924
(dp925
g74
(dp926
g94
g95
ssg83
g920
sg76
(lp927
S'cmd_args'
p928
asbag69
(g90
g71
NtRp929
(dp930
g74
(dp931
g101
g102
ssg83
g920
sg76
(lp932
S':'
asbag69
(g90
g71
NtRp933
(dp934
g74
(dp935
sg83
g920
sg76
(lp936
g69
(g70
g71
NtRp937
(dp938
g74
(dp939
g82
I4
ssg83
g933
sg76
(lp940
g69
(g78
g71
NtRp941
(dp942
g74
(dp943
g82
I3
ssg83
Nsg76
(lp944
sbasbasbasbag69
(g85
g71
NtRp945
(dp946
g74
(dp947
sg83
g872
sg76
(lp948
g69
(g90
g71
NtRp949
(dp950
g74
(dp951
g94
g95
ssg83
g945
sg76
(lp952
S'cmd_options'
p953
asbag69
(g90
g71
NtRp954
(dp955
g74
(dp956
g101
g102
ssg83
g945
sg76
(lp957
S':'
asbag69
(g90
g71
NtRp958
(dp959
g74
(dp960
sg83
g945
sg76
(lp961
g69
(g70
g71
NtRp962
(dp963
g74
(dp964
g82
I4
ssg83
g958
sg76
(lp965
S"<Values at 0x171e5f0: {'verbose': False, 'ip': '127.0.0.1', 'with_scheduler': False, 'ips': ['127.0.1.1', '10.1.33.121'], 'shutdown_timeout': 5, 'taskbar': False, 'port': 8000, 'maxthreads': None, 'softcron': False, 'server_name': 'mayank', 'bpython': False, 'nogui': False, 'nocron': False, 'extcron': False, 'run_system_tests': False, 'test': None, 'folder': '/home/mayank/Production/Final-code/web2py', 'config': '', 'import_models': False, 'winservice': '', 'shell': None, 'run': '', 'log_filename': 'httpserver.log', 'debuglevel': 30, 'args': [''], 'socket_timeout': 5, 'ssl_ca_certificate': None, 'scheduler': None, 'profiler_filename': None, 'ssl_private_key': '', 'scheduler_groups': None, 'password': '<ask>', 'request_queue_size': 5, 'ssl_certificate': '', 'cronjob': False, 'numthreads': None, 'quiet': False, 'interfaces': None, 'minthreads': None, 'timeout': 10, 'plain': False, 'nobanner': False, 'pid_filename': 'httpserver.pid'}>"
p966
asbasbasbag69
(g85
g71
NtRp967
(dp968
g74
(dp969
sg83
g872
sg76
(lp970
g69
(g90
g71
NtRp971
(dp972
g74
(dp973
g94
g95
ssg83
g967
sg76
(lp974
S'db_sessions'
p975
asbag69
(g90
g71
NtRp976
(dp977
g74
(dp978
g101
g102
ssg83
g967
sg76
(lp979
S':'
asbag69
(g90
g71
NtRp980
(dp981
g74
(dp982
sg83
g967
sg76
(lp983
g69
(g70
g71
NtRp984
(dp985
g74
(dp986
g82
I4
ssg83
g980
sg76
(lp987
S'set([])'
p988
asbasbasbag69
(g85
g71
NtRp989
(dp990
g74
(dp991
sg83
g872
sg76
(lp992
g69
(g90
g71
NtRp993
(dp994
g74
(dp995
g94
g95
ssg83
g989
sg76
(lp996
S'debugging'
p997
asbag69
(g90
g71
NtRp998
(dp999
g74
(dp1000
g101
g102
ssg83
g989
sg76
(lp1001
S':'
asbag69
(g90
g71
NtRp1002
(dp1003
g74
(dp1004
sg83
g989
sg76
(lp1005
g69
(g70
g71
NtRp1006
(dp1007
g74
(dp1008
g82
I4
ssg83
g1002
sg76
(lp1009
g112
asbasbasbag69
(g85
g71
NtRp1010
(dp1011
g74
(dp1012
sg83
g872
sg76
(lp1013
g69
(g90
g71
NtRp1014
(dp1015
g74
(dp1016
g94
g95
ssg83
g1010
sg76
(lp1017
S'gluon_parent'
p1018
asbag69
(g90
g71
NtRp1019
(dp1020
g74
(dp1021
g101
g102
ssg83
g1010
sg76
(lp1022
S':'
asbag69
(g90
g71
NtRp1023
(dp1024
g74
(dp1025
sg83
g1010
sg76
(lp1026
g69
(g70
g71
NtRp1027
(dp1028
g74
(dp1029
g82
I4
ssg83
g1023
sg76
(lp1030
S'/home/mayank/Production/Final-code/web2py'
p1031
asbasbasbag69
(g85
g71
NtRp1032
(dp1033
g74
(dp1034
sg83
g872
sg76
(lp1035
g69
(g90
g71
NtRp1036
(dp1037
g74
(dp1038
g94
g95
ssg83
g1032
sg76
(lp1039
S'http_accept'
p1040
asbag69
(g90
g71
NtRp1041
(dp1042
g74
(dp1043
g101
g102
ssg83
g1032
sg76
(lp1044
S':'
asbag69
(g90
g71
NtRp1045
(dp1046
g74
(dp1047
sg83
g1032
sg76
(lp1048
g69
(g70
g71
NtRp1049
(dp1050
g74
(dp1051
g82
I4
ssg83
g1045
sg76
(lp1052
S'text/html,application/xhtml+xml,application/xml;q=0.9,*/*;q=0.8'
p1053
asbasbasbag69
(g85
g71
NtRp1054
(dp1055
g74
(dp1056
sg83
g872
sg76
(lp1057
g69
(g90
g71
NtRp1058
(dp1059
g74
(dp1060
g94
g95
ssg83
g1054
sg76
(lp1061
S'http_accept_encoding'
p1062
asbag69
(g90
g71
NtRp1063
(dp1064
g74
(dp1065
g101
g102
ssg83
g1054
sg76
(lp1066
S':'
asbag69
(g90
g71
NtRp1067
(dp1068
g74
(dp1069
sg83
g1054
sg76
(lp1070
g69
(g70
g71
NtRp1071
(dp1072
g74
(dp1073
g82
I4
ssg83
g1067
sg76
(lp1074
S'gzip, deflate'
p1075
asbasbasbag69
(g85
g71
NtRp1076
(dp1077
g74
(dp1078
sg83
g872
sg76
(lp1079
g69
(g90
g71
NtRp1080
(dp1081
g74
(dp1082
g94
g95
ssg83
g1076
sg76
(lp1083
S'http_accept_language'
p1084
asbag69
(g90
g71
NtRp1085
(dp1086
g74
(dp1087
g101
g102
ssg83
g1076
sg76
(lp1088
S':'
asbag69
(g90
g71
NtRp1089
(dp1090
g74
(dp1091
sg83
g1076
sg76
(lp1092
g69
(g70
g71
NtRp1093
(dp1094
g74
(dp1095
g82
I4
ssg83
g1089
sg76
(lp1096
S'en-US,en;q=0.5'
p1097
asbasbasbag69
(g85
g71
NtRp1098
(dp1099
g74
(dp1100
sg83
g872
sg76
(lp1101
g69
(g90
g71
NtRp1102
(dp1103
g74
(dp1104
g94
g95
ssg83
g1098
sg76
(lp1105
S'http_connection'
p1106
asbag69
(g90
g71
NtRp1107
(dp1108
g74
(dp1109
g101
g102
ssg83
g1098
sg76
(lp1110
S':'
asbag69
(g90
g71
NtRp1111
(dp1112
g74
(dp1113
sg83
g1098
sg76
(lp1114
g69
(g70
g71
NtRp1115
(dp1116
g74
(dp1117
g82
I4
ssg83
g1111
sg76
(lp1118
S'keep-alive'
p1119
asbasbasbag69
(g85
g71
NtRp1120
(dp1121
g74
(dp1122
sg83
g872
sg76
(lp1123
g69
(g90
g71
NtRp1124
(dp1125
g74
(dp1126
g94
g95
ssg83
g1120
sg76
(lp1127
S'http_cookie'
p1128
asbag69
(g90
g71
NtRp1129
(dp1130
g74
(dp1131
g101
g102
ssg83
g1120
sg76
(lp1132
S':'
asbag69
(g90
g71
NtRp1133
(dp1134
g74
(dp1135
sg83
g1120
sg76
(lp1136
g69
(g70
g71
NtRp1137
(dp1138
g74
(dp1139
g82
I4
ssg83
g1133
sg76
(lp1140
S'session_id_welcome=127.0.0.1-823c7077-239d-406c-9a34-a784ff00daab; session_id_admin=127.0.0.1-d4d9b33a-909e-41cd-b8d6-cf5d55621806; session_id_funkload=127.0.0.1-d75bbcb9-beea-435d-912c-788bccec637c'
p1141
asbasbasbag69
(g85
g71
NtRp1142
(dp1143
g74
(dp1144
sg83
g872
sg76
(lp1145
g69
(g90
g71
NtRp1146
(dp1147
g74
(dp1148
g94
g95
ssg83
g1142
sg76
(lp1149
S'http_host'
p1150
asbag69
(g90
g71
NtRp1151
(dp1152
g74
(dp1153
g101
g102
ssg83
g1142
sg76
(lp1154
S':'
asbag69
(g90
g71
NtRp1155
(dp1156
g74
(dp1157
sg83
g1142
sg76
(lp1158
g69
(g70
g71
NtRp1159
(dp1160
g74
(dp1161
g82
I4
ssg83
g1155
sg76
(lp1162
S'127.0.0.1:8000'
p1163
asbasbasbag69
(g85
g71
NtRp1164
(dp1165
g74
(dp1166
sg83
g872
sg76
(lp1167
g69
(g90
g71
NtRp1168
(dp1169
g74
(dp1170
g94
g95
ssg83
g1164
sg76
(lp1171
S'http_referer'
p1172
asbag69
(g90
g71
NtRp1173
(dp1174
g74
(dp1175
g101
g102
ssg83
g1164
sg76
(lp1176
S':'
asbag69
(g90
g71
NtRp1177
(dp1178
g74
(dp1179
sg83
g1164
sg76
(lp1180
g69
(g70
g71
NtRp1181
(dp1182
g74
(dp1183
g82
I4
ssg83
g1177
sg76
(lp1184
S'http://127.0.0.1:8000/FunkLoad/default/testDetails'
p1185
asbasbasbag69
(g85
g71
NtRp1186
(dp1187
g74
(dp1188
sg83
g872
sg76
(lp1189
g69
(g90
g71
NtRp1190
(dp1191
g74
(dp1192
g94
g95
ssg83
g1186
sg76
(lp1193
S'http_user_agent'
p1194
asbag69
(g90
g71
NtRp1195
(dp1196
g74
(dp1197
g101
g102
ssg83
g1186
sg76
(lp1198
S':'
asbag69
(g90
g71
NtRp1199
(dp1200
g74
(dp1201
sg83
g1186
sg76
(lp1202
g69
(g70
g71
NtRp1203
(dp1204
g74
(dp1205
g82
I4
ssg83
g1199
sg76
(lp1206
S'Mozilla/5.0 (X11; Ubuntu; Linux x86_64; rv:25.0) Gecko/20100101 Firefox/25.0'
p1207
asbasbasbag69
(g85
g71
NtRp1208
(dp1209
g74
(dp1210
sg83
g872
sg76
(lp1211
g69
(g90
g71
NtRp1212
(dp1213
g74
(dp1214
g94
g95
ssg83
g1208
sg76
(lp1215
S'is_jython'
p1216
asbag69
(g90
g71
NtRp1217
(dp1218
g74
(dp1219
g101
g102
ssg83
g1208
sg76
(lp1220
S':'
asbag69
(g90
g71
NtRp1221
(dp1222
g74
(dp1223
sg83
g1208
sg76
(lp1224
g69
(g70
g71
NtRp1225
(dp1226
g74
(dp1227
g82
I4
ssg83
g1221
sg76
(lp1228
g112
asbasbasbag69
(g85
g71
NtRp1229
(dp1230
g74
(dp1231
sg83
g872
sg76
(lp1232
g69
(g90
g71
NtRp1233
(dp1234
g74
(dp1235
g94
g95
ssg83
g1229
sg76
(lp1236
S'is_pypy'
p1237
asbag69
(g90
g71
NtRp1238
(dp1239
g74
(dp1240
g101
g102
ssg83
g1229
sg76
(lp1241
S':'
asbag69
(g90
g71
NtRp1242
(dp1243
g74
(dp1244
sg83
g1229
sg76
(lp1245
g69
(g70
g71
NtRp1246
(dp1247
g74
(dp1248
g82
I4
ssg83
g1242
sg76
(lp1249
g112
asbasbasbag69
(g85
g71
NtRp1250
(dp1251
g74
(dp1252
sg83
g872
sg76
(lp1253
g69
(g90
g71
NtRp1254
(dp1255
g74
(dp1256
g94
g95
ssg83
g1250
sg76
(lp1257
S'path_info'
p1258
asbag69
(g90
g71
NtRp1259
(dp1260
g74
(dp1261
g101
g102
ssg83
g1250
sg76
(lp1262
S':'
asbag69
(g90
g71
NtRp1263
(dp1264
g74
(dp1265
sg83
g1250
sg76
(lp1266
g69
(g70
g71
NtRp1267
(dp1268
g74
(dp1269
g82
I4
ssg83
g1263
sg76
(lp1270
S'/FunkLoad/default/test/30'
p1271
asbasbasbag69
(g85
g71
NtRp1272
(dp1273
g74
(dp1274
sg83
g872
sg76
(lp1275
g69
(g90
g71
NtRp1276
(dp1277
g74
(dp1278
g94
g95
ssg83
g1272
sg76
(lp1279
S'query_string'
p1280
asbag69
(g90
g71
NtRp1281
(dp1282
g74
(dp1283
g101
g102
ssg83
g1272
sg76
(lp1284
S':'
asbag69
(g90
g71
NtRp1285
(dp1286
g74
(dp1287
sg83
g1272
sg76
(lp1288
g69
(g70
g71
NtRp1289
(dp1290
g74
(dp1291
g82
I4
ssg83
g1285
sg76
(lp1292
S''
asbasbasbag69
(g85
g71
NtRp1293
(dp1294
g74
(dp1295
sg83
g872
sg76
(lp1296
g69
(g90
g71
NtRp1297
(dp1298
g74
(dp1299
g94
g95
ssg83
g1293
sg76
(lp1300
S'remote_addr'
p1301
asbag69
(g90
g71
NtRp1302
(dp1303
g74
(dp1304
g101
g102
ssg83
g1293
sg76
(lp1305
S':'
asbag69
(g90
g71
NtRp1306
(dp1307
g74
(dp1308
sg83
g1293
sg76
(lp1309
g69
(g70
g71
NtRp1310
(dp1311
g74
(dp1312
g82
I4
ssg83
g1306
sg76
(lp1313
g237
asbasbasbag69
(g85
g71
NtRp1314
(dp1315
g74
(dp1316
sg83
g872
sg76
(lp1317
g69
(g90
g71
NtRp1318
(dp1319
g74
(dp1320
g94
g95
ssg83
g1314
sg76
(lp1321
S'remote_port'
p1322
asbag69
(g90
g71
NtRp1323
(dp1324
g74
(dp1325
g101
g102
ssg83
g1314
sg76
(lp1326
S':'
asbag69
(g90
g71
NtRp1327
(dp1328
g74
(dp1329
sg83
g1314
sg76
(lp1330
g69
(g70
g71
NtRp1331
(dp1332
g74
(dp1333
g82
I4
ssg83
g1327
sg76
(lp1334
S'40381'
p1335
asbasbasbag69
(g85
g71
NtRp1336
(dp1337
g74
(dp1338
sg83
g872
sg76
(lp1339
g69
(g90
g71
NtRp1340
(dp1341
g74
(dp1342
g94
g95
ssg83
g1336
sg76
(lp1343
S'request_method'
p1344
asbag69
(g90
g71
NtRp1345
(dp1346
g74
(dp1347
g101
g102
ssg83
g1336
sg76
(lp1348
S':'
asbag69
(g90
g71
NtRp1349
(dp1350
g74
(dp1351
sg83
g1336
sg76
(lp1352
g69
(g70
g71
NtRp1353
(dp1354
g74
(dp1355
g82
I4
ssg83
g1349
sg76
(lp1356
S'GET'
p1357
asbasbasbag69
(g85
g71
NtRp1358
(dp1359
g74
(dp1360
sg83
g872
sg76
(lp1361
g69
(g90
g71
NtRp1362
(dp1363
g74
(dp1364
g94
g95
ssg83
g1358
sg76
(lp1365
S'request_uri'
p1366
asbag69
(g90
g71
NtRp1367
(dp1368
g74
(dp1369
g101
g102
ssg83
g1358
sg76
(lp1370
S':'
asbag69
(g90
g71
NtRp1371
(dp1372
g74
(dp1373
sg83
g1358
sg76
(lp1374
g69
(g70
g71
NtRp1375
(dp1376
g74
(dp1377
g82
I4
ssg83
g1371
sg76
(lp1378
g1271
asbasbasbag69
(g85
g71
NtRp1379
(dp1380
g74
(dp1381
sg83
g872
sg76
(lp1382
g69
(g90
g71
NtRp1383
(dp1384
g74
(dp1385
g94
g95
ssg83
g1379
sg76
(lp1386
S'script_name'
p1387
asbag69
(g90
g71
NtRp1388
(dp1389
g74
(dp1390
g101
g102
ssg83
g1379
sg76
(lp1391
S':'
asbag69
(g90
g71
NtRp1392
(dp1393
g74
(dp1394
sg83
g1379
sg76
(lp1395
g69
(g70
g71
NtRp1396
(dp1397
g74
(dp1398
g82
I4
ssg83
g1392
sg76
(lp1399
S''
asbasbasbag69
(g85
g71
NtRp1400
(dp1401
g74
(dp1402
sg83
g872
sg76
(lp1403
g69
(g90
g71
NtRp1404
(dp1405
g74
(dp1406
g94
g95
ssg83
g1400
sg76
(lp1407
S'server_name'
p1408
asbag69
(g90
g71
NtRp1409
(dp1410
g74
(dp1411
g101
g102
ssg83
g1400
sg76
(lp1412
S':'
asbag69
(g90
g71
NtRp1413
(dp1414
g74
(dp1415
sg83
g1400
sg76
(lp1416
g69
(g70
g71
NtRp1417
(dp1418
g74
(dp1419
g82
I4
ssg83
g1413
sg76
(lp1420
S'mayank'
p1421
asbasbasbag69
(g85
g71
NtRp1422
(dp1423
g74
(dp1424
sg83
g872
sg76
(lp1425
g69
(g90
g71
NtRp1426
(dp1427
g74
(dp1428
g94
g95
ssg83
g1422
sg76
(lp1429
S'server_port'
p1430
asbag69
(g90
g71
NtRp1431
(dp1432
g74
(dp1433
g101
g102
ssg83
g1422
sg76
(lp1434
S':'
asbag69
(g90
g71
NtRp1435
(dp1436
g74
(dp1437
sg83
g1422
sg76
(lp1438
g69
(g70
g71
NtRp1439
(dp1440
g74
(dp1441
g82
I4
ssg83
g1435
sg76
(lp1442
S'8000'
p1443
asbasbasbag69
(g85
g71
NtRp1444
(dp1445
g74
(dp1446
sg83
g872
sg76
(lp1447
g69
(g90
g71
NtRp1448
(dp1449
g74
(dp1450
g94
g95
ssg83
g1444
sg76
(lp1451
S'server_protocol'
p1452
asbag69
(g90
g71
NtRp1453
(dp1454
g74
(dp1455
g101
g102
ssg83
g1444
sg76
(lp1456
S':'
asbag69
(g90
g71
NtRp1457
(dp1458
g74
(dp1459
sg83
g1444
sg76
(lp1460
g69
(g70
g71
NtRp1461
(dp1462
g74
(dp1463
g82
I4
ssg83
g1457
sg76
(lp1464
S'HTTP/1.1'
p1465
asbasbasbag69
(g85
g71
NtRp1466
(dp1467
g74
(dp1468
sg83
g872
sg76
(lp1469
g69
(g90
g71
NtRp1470
(dp1471
g74
(dp1472
g94
g95
ssg83
g1466
sg76
(lp1473
S'server_software'
p1474
asbag69
(g90
g71
NtRp1475
(dp1476
g74
(dp1477
g101
g102
ssg83
g1466
sg76
(lp1478
S':'
asbag69
(g90
g71
NtRp1479
(dp1480
g74
(dp1481
sg83
g1466
sg76
(lp1482
g69
(g70
g71
NtRp1483
(dp1484
g74
(dp1485
g82
I4
ssg83
g1479
sg76
(lp1486
S'Rocket 1.2.4'
p1487
asbasbasbag69
(g85
g71
NtRp1488
(dp1489
g74
(dp1490
sg83
g872
sg76
(lp1491
g69
(g90
g71
NtRp1492
(dp1493
g74
(dp1494
g94
g95
ssg83
g1488
sg76
(lp1495
S'web2py_crontype'
p1496
asbag69
(g90
g71
NtRp1497
(dp1498
g74
(dp1499
g101
g102
ssg83
g1488
sg76
(lp1500
S':'
asbag69
(g90
g71
NtRp1501
(dp1502
g74
(dp1503
sg83
g1488
sg76
(lp1504
g69
(g70
g71
NtRp1505
(dp1506
g74
(dp1507
g82
I4
ssg83
g1501
sg76
(lp1508
S'hard'
p1509
asbasbasbag69
(g85
g71
NtRp1510
(dp1511
g74
(dp1512
sg83
g872
sg76
(lp1513
g69
(g90
g71
NtRp1514
(dp1515
g74
(dp1516
g94
g95
ssg83
g1510
sg76
(lp1517
S'web2py_path'
p1518
asbag69
(g90
g71
NtRp1519
(dp1520
g74
(dp1521
g101
g102
ssg83
g1510
sg76
(lp1522
S':'
asbag69
(g90
g71
NtRp1523
(dp1524
g74
(dp1525
sg83
g1510
sg76
(lp1526
g69
(g70
g71
NtRp1527
(dp1528
g74
(dp1529
g82
I4
ssg83
g1523
sg76
(lp1530
g919
asbasbasbag69
(g85
g71
NtRp1531
(dp1532
g74
(dp1533
sg83
g872
sg76
(lp1534
g69
(g90
g71
NtRp1535
(dp1536
g74
(dp1537
g94
g95
ssg83
g1531
sg76
(lp1538
S'web2py_version'
p1539
asbag69
(g90
g71
NtRp1540
(dp1541
g74
(dp1542
g101
g102
ssg83
g1531
sg76
(lp1543
S':'
asbag69
(g90
g71
NtRp1544
(dp1545
g74
(dp1546
sg83
g1531
sg76
(lp1547
g69
(g70
g71
NtRp1548
(dp1549
g74
(dp1550
g82
I4
ssg83
g1544
sg76
(lp1551
g69
(g78
g71
NtRp1552
(dp1553
g74
(dp1554
g82
I3
ssg83
Nsg76
(lp1555
g69
(g85
g71
NtRp1556
(dp1557
g74
(dp1558
sg83
g1552
sg76
(lp1559
g69
(g90
g71
NtRp1560
(dp1561
g74
(dp1562
sg83
g1556
sg76
(lp1563
g69
(g70
g71
NtRp1564
(dp1565
g74
(dp1566
g82
I3
ssg83
g1560
sg76
(lp1567
S'2'
asbasbasbag69
(g85
g71
NtRp1568
(dp1569
g74
(dp1570
sg83
g1552
sg76
(lp1571
g69
(g90
g71
NtRp1572
(dp1573
g74
(dp1574
sg83
g1568
sg76
(lp1575
g69
(g70
g71
NtRp1576
(dp1577
g74
(dp1578
g82
I3
ssg83
g1572
sg76
(lp1579
S'0'
asbasbasbag69
(g85
g71
NtRp1580
(dp1581
g74
(dp1582
sg83
g1552
sg76
(lp1583
g69
(g90
g71
NtRp1584
(dp1585
g74
(dp1586
sg83
g1580
sg76
(lp1587
g69
(g70
g71
NtRp1588
(dp1589
g74
(dp1590
g82
I3
ssg83
g1584
sg76
(lp1591
S'8'
asbasbasbag69
(g85
g71
NtRp1592
(dp1593
g74
(dp1594
sg83
g1552
sg76
(lp1595
g69
(g90
g71
NtRp1596
(dp1597
g74
(dp1598
sg83
g1592
sg76
(lp1599
g69
(g70
g71
NtRp1600
(dp1601
g74
(dp1602
g82
I3
ssg83
g1596
sg76
(lp1603
S'datetime.datetime(2012, 9, 7, 3, 47, 51)'
p1604
asbasbasbag69
(g85
g71
NtRp1605
(dp1606
g74
(dp1607
sg83
g1552
sg76
(lp1608
g69
(g90
g71
NtRp1609
(dp1610
g74
(dp1611
sg83
g1605
sg76
(lp1612
g69
(g70
g71
NtRp1613
(dp1614
g74
(dp1615
g82
I3
ssg83
g1609
sg76
(lp1616
S'stable'
p1617
asbasbasbasbasbasbasbag69
(g85
g71
NtRp1618
(dp1619
g74
(dp1620
sg83
g872
sg76
(lp1621
g69
(g90
g71
NtRp1622
(dp1623
g74
(dp1624
g94
g95
ssg83
g1618
sg76
(lp1625
S'wsgi_errors'
p1626
asbag69
(g90
g71
NtRp1627
(dp1628
g74
(dp1629
g101
g102
ssg83
g1618
sg76
(lp1630
S':'
asbag69
(g90
g71
NtRp1631
(dp1632
g74
(dp1633
sg83
g1618
sg76
(lp1634
g69
(g70
g71
NtRp1635
(dp1636
g74
(dp1637
g82
I4
ssg83
g1631
sg76
(lp1638
S"<open file '<stderr>', mode 'w' at 0x7f052cf381e0>"
p1639
asbasbasbag69
(g85
g71
NtRp1640
(dp1641
g74
(dp1642
sg83
g872
sg76
(lp1643
g69
(g90
g71
NtRp1644
(dp1645
g74
(dp1646
g94
g95
ssg83
g1640
sg76
(lp1647
S'wsgi_file_wrapper'
p1648
asbag69
(g90
g71
NtRp1649
(dp1650
g74
(dp1651
g101
g102
ssg83
g1640
sg76
(lp1652
S':'
asbag69
(g90
g71
NtRp1653
(dp1654
g74
(dp1655
sg83
g1640
sg76
(lp1656
g69
(g70
g71
NtRp1657
(dp1658
g74
(dp1659
g82
I4
ssg83
g1653
sg76
(lp1660
S'<class wsgiref.util.FileWrapper at 0x16bc808>'
p1661
asbasbasbag69
(g85
g71
NtRp1662
(dp1663
g74
(dp1664
sg83
g872
sg76
(lp1665
g69
(g90
g71
NtRp1666
(dp1667
g74
(dp1668
g94
g95
ssg83
g1662
sg76
(lp1669
S'wsgi_input'
p1670
asbag69
(g90
g71
NtRp1671
(dp1672
g74
(dp1673
g101
g102
ssg83
g1662
sg76
(lp1674
S':'
asbag69
(g90
g71
NtRp1675
(dp1676
g74
(dp1677
sg83
g1662
sg76
(lp1678
g69
(g70
g71
NtRp1679
(dp1680
g74
(dp1681
g82
I4
ssg83
g1675
sg76
(lp1682
S'<socket._fileobject object at 0x7f050c28dd50>'
p1683
asbasbasbag69
(g85
g71
NtRp1684
(dp1685
g74
(dp1686
sg83
g872
sg76
(lp1687
g69
(g90
g71
NtRp1688
(dp1689
g74
(dp1690
g94
g95
ssg83
g1684
sg76
(lp1691
S'wsgi_multiprocess'
p1692
asbag69
(g90
g71
NtRp1693
(dp1694
g74
(dp1695
g101
g102
ssg83
g1684
sg76
(lp1696
S':'
asbag69
(g90
g71
NtRp1697
(dp1698
g74
(dp1699
sg83
g1684
sg76
(lp1700
g69
(g70
g71
NtRp1701
(dp1702
g74
(dp1703
g82
I4
ssg83
g1697
sg76
(lp1704
g112
asbasbasbag69
(g85
g71
NtRp1705
(dp1706
g74
(dp1707
sg83
g872
sg76
(lp1708
g69
(g90
g71
NtRp1709
(dp1710
g74
(dp1711
g94
g95
ssg83
g1705
sg76
(lp1712
S'wsgi_multithread'
p1713
asbag69
(g90
g71
NtRp1714
(dp1715
g74
(dp1716
g101
g102
ssg83
g1705
sg76
(lp1717
S':'
asbag69
(g90
g71
NtRp1718
(dp1719
g74
(dp1720
sg83
g1705
sg76
(lp1721
g69
(g70
g71
NtRp1722
(dp1723
g74
(dp1724
g82
I4
ssg83
g1718
sg76
(lp1725
S'True'
p1726
asbasbasbag69
(g85
g71
NtRp1727
(dp1728
g74
(dp1729
sg83
g872
sg76
(lp1730
g69
(g90
g71
NtRp1731
(dp1732
g74
(dp1733
g94
g95
ssg83
g1727
sg76
(lp1734
S'wsgi_run_once'
p1735
asbag69
(g90
g71
NtRp1736
(dp1737
g74
(dp1738
g101
g102
ssg83
g1727
sg76
(lp1739
S':'
asbag69
(g90
g71
NtRp1740
(dp1741
g74
(dp1742
sg83
g1727
sg76
(lp1743
g69
(g70
g71
NtRp1744
(dp1745
g74
(dp1746
g82
I4
ssg83
g1740
sg76
(lp1747
g112
asbasbasbag69
(g85
g71
NtRp1748
(dp1749
g74
(dp1750
sg83
g872
sg76
(lp1751
g69
(g90
g71
NtRp1752
(dp1753
g74
(dp1754
g94
g95
ssg83
g1748
sg76
(lp1755
S'wsgi_url_scheme'
p1756
asbag69
(g90
g71
NtRp1757
(dp1758
g74
(dp1759
g101
g102
ssg83
g1748
sg76
(lp1760
S':'
asbag69
(g90
g71
NtRp1761
(dp1762
g74
(dp1763
sg83
g1748
sg76
(lp1764
g69
(g70
g71
NtRp1765
(dp1766
g74
(dp1767
g82
I4
ssg83
g1761
sg76
(lp1768
S'http'
p1769
asbasbasbag69
(g85
g71
NtRp1770
(dp1771
g74
(dp1772
sg83
g872
sg76
(lp1773
g69
(g90
g71
NtRp1774
(dp1775
g74
(dp1776
g94
g95
ssg83
g1770
sg76
(lp1777
S'wsgi_version'
p1778
asbag69
(g90
g71
NtRp1779
(dp1780
g74
(dp1781
g101
g102
ssg83
g1770
sg76
(lp1782
S':'
asbag69
(g90
g71
NtRp1783
(dp1784
g74
(dp1785
sg83
g1770
sg76
(lp1786
g69
(g70
g71
NtRp1787
(dp1788
g74
(dp1789
g82
I4
ssg83
g1783
sg76
(lp1790
g69
(g78
g71
NtRp1791
(dp1792
g74
(dp1793
g82
I3
ssg83
Nsg76
(lp1794
g69
(g85
g71
NtRp1795
(dp1796
g74
(dp1797
sg83
g1791
sg76
(lp1798
g69
(g90
g71
NtRp1799
(dp1800
g74
(dp1801
sg83
g1795
sg76
(lp1802
g69
(g70
g71
NtRp1803
(dp1804
g74
(dp1805
g82
I3
ssg83
g1799
sg76
(lp1806
S'1'
asbasbasbag69
(g85
g71
NtRp1807
(dp1808
g74
(dp1809
sg83
g1791
sg76
(lp1810
g69
(g90
g71
NtRp1811
(dp1812
g74
(dp1813
sg83
g1807
sg76
(lp1814
g69
(g70
g71
NtRp1815
(dp1816
g74
(dp1817
g82
I3
ssg83
g1811
sg76
(lp1818
S'0'
asbasbasbasbasbasbasbasbasbasbasbag69
(g85
g71
NtRp1819
(dp1820
g74
(dp1821
sg83
g79
sg76
(lp1822
g69
(g90
g71
NtRp1823
(dp1824
g74
(dp1825
g94
g95
ssg83
g1819
sg76
(lp1826
S'extension'
p1827
asbag69
(g90
g71
NtRp1828
(dp1829
g74
(dp1830
g101
g102
ssg83
g1819
sg76
(lp1831
S':'
asbag69
(g90
g71
NtRp1832
(dp1833
g74
(dp1834
sg83
g1819
sg76
(lp1835
g69
(g70
g71
NtRp1836
(dp1837
g74
(dp1838
g82
I5
ssg83
g1832
sg76
(lp1839
S'html'
p1840
asbasbasbag69
(g85
g71
NtRp1841
(dp1842
g74
(dp1843
sg83
g79
sg76
(lp1844
g69
(g90
g71
NtRp1845
(dp1846
g74
(dp1847
g94
g95
ssg83
g1841
sg76
(lp1848
S'folder'
p1849
asbag69
(g90
g71
NtRp1850
(dp1851
g74
(dp1852
g101
g102
ssg83
g1841
sg76
(lp1853
S':'
asbag69
(g90
g71
NtRp1854
(dp1855
g74
(dp1856
sg83
g1841
sg76
(lp1857
g69
(g70
g71
NtRp1858
(dp1859
g74
(dp1860
g82
I5
ssg83
g1854
sg76
(lp1861
S'/home/mayank/Production/Final-code/web2py/applications/FunkLoad/'
p1862
asbasbasbag69
(g85
g71
NtRp1863
(dp1864
g74
(dp1865
sg83
g79
sg76
(lp1866
g69
(g90
g71
NtRp1867
(dp1868
g74
(dp1869
g94
g95
ssg83
g1863
sg76
(lp1870
S'function'
p1871
asbag69
(g90
g71
NtRp1872
(dp1873
g74
(dp1874
g101
g102
ssg83
g1863
sg76
(lp1875
S':'
asbag69
(g90
g71
NtRp1876
(dp1877
g74
(dp1878
sg83
g1863
sg76
(lp1879
g69
(g70
g71
NtRp1880
(dp1881
g74
(dp1882
g82
I5
ssg83
g1876
sg76
(lp1883
S'test'
p1884
asbasbasbag69
(g85
g71
NtRp1885
(dp1886
g74
(dp1887
sg83
g79
sg76
(lp1888
g69
(g90
g71
NtRp1889
(dp1890
g74
(dp1891
g94
g95
ssg83
g1885
sg76
(lp1892
S'get_vars'
p1893
asbag69
(g90
g71
NtRp1894
(dp1895
g74
(dp1896
g101
g102
ssg83
g1885
sg76
(lp1897
S':'
asbag69
(g90
g71
NtRp1898
(dp1899
g74
(dp1900
sg83
g1885
sg76
(lp1901
g69
(g70
g71
NtRp1902
(dp1903
g74
(dp1904
g82
I5
ssg83
g1898
sg76
(lp1905
g69
(g78
g71
NtRp1906
(dp1907
g74
(dp1908
g82
I4
ssg83
Nsg76
(lp1909
sbasbasbasbag69
(g85
g71
NtRp1910
(dp1911
g74
(dp1912
sg83
g79
sg76
(lp1913
g69
(g90
g71
NtRp1914
(dp1915
g74
(dp1916
g94
g95
ssg83
g1910
sg76
(lp1917
S'global_settings'
p1918
asbag69
(g90
g71
NtRp1919
(dp1920
g74
(dp1921
g101
g102
ssg83
g1910
sg76
(lp1922
S':'
asbag69
(g90
g71
NtRp1923
(dp1924
g74
(dp1925
sg83
g1910
sg76
(lp1926
g69
(g70
g71
NtRp1927
(dp1928
g74
(dp1929
g82
I5
ssg83
g1923
sg76
(lp1930
g69
(g78
g71
NtRp1931
(dp1932
g74
(dp1933
g82
I4
ssg83
Nsg76
(lp1934
g69
(g85
g71
NtRp1935
(dp1936
g74
(dp1937
sg83
g1931
sg76
(lp1938
g69
(g90
g71
NtRp1939
(dp1940
g74
(dp1941
g94
g95
ssg83
g1935
sg76
(lp1942
g884
asbag69
(g90
g71
NtRp1943
(dp1944
g74
(dp1945
g101
g102
ssg83
g1935
sg76
(lp1946
S':'
asbag69
(g90
g71
NtRp1947
(dp1948
g74
(dp1949
sg83
g1935
sg76
(lp1950
g69
(g70
g71
NtRp1951
(dp1952
g74
(dp1953
g82
I4
ssg83
g1947
sg76
(lp1954
S"set(['/home/mayank/Production/Final-code/web2py/applications/welcome/', '/home/mayank/Production/Final-code/web2py/applications/FunkLoad/', '/home/mayank/Production/Final-code/web2py/applications/admin/'])"
p1955
asbasbasbag69
(g85
g71
NtRp1956
(dp1957
g74
(dp1958
sg83
g1931
sg76
(lp1959
g69
(g90
g71
NtRp1960
(dp1961
g74
(dp1962
g94
g95
ssg83
g1956
sg76
(lp1963
g906
asbag69
(g90
g71
NtRp1964
(dp1965
g74
(dp1966
g101
g102
ssg83
g1956
sg76
(lp1967
S':'
asbag69
(g90
g71
NtRp1968
(dp1969
g74
(dp1970
sg83
g1956
sg76
(lp1971
g69
(g70
g71
NtRp1972
(dp1973
g74
(dp1974
g82
I4
ssg83
g1968
sg76
(lp1975
g919
asbasbasbag69
(g85
g71
NtRp1976
(dp1977
g74
(dp1978
sg83
g1931
sg76
(lp1979
g69
(g90
g71
NtRp1980
(dp1981
g74
(dp1982
g94
g95
ssg83
g1976
sg76
(lp1983
g928
asbag69
(g90
g71
NtRp1984
(dp1985
g74
(dp1986
g101
g102
ssg83
g1976
sg76
(lp1987
S':'
asbag69
(g90
g71
NtRp1988
(dp1989
g74
(dp1990
sg83
g1976
sg76
(lp1991
g69
(g70
g71
NtRp1992
(dp1993
g74
(dp1994
g82
I4
ssg83
g1988
sg76
(lp1995
g69
(g78
g71
NtRp1996
(dp1997
g74
(dp1998
g82
I3
ssg83
Nsg76
(lp1999
sbasbasbasbag69
(g85
g71
NtRp2000
(dp2001
g74
(dp2002
sg83
g1931
sg76
(lp2003
g69
(g90
g71
NtRp2004
(dp2005
g74
(dp2006
g94
g95
ssg83
g2000
sg76
(lp2007
g953
asbag69
(g90
g71
NtRp2008
(dp2009
g74
(dp2010
g101
g102
ssg83
g2000
sg76
(lp2011
S':'
asbag69
(g90
g71
NtRp2012
(dp2013
g74
(dp2014
sg83
g2000
sg76
(lp2015
g69
(g70
g71
NtRp2016
(dp2017
g74
(dp2018
g82
I4
ssg83
g2012
sg76
(lp2019
S"<Values at 0x171e5f0: {'verbose': False, 'ip': '127.0.0.1', 'with_scheduler': False, 'ips': ['127.0.1.1', '10.1.33.121'], 'shutdown_timeout': 5, 'taskbar': False, 'port': 8000, 'maxthreads': None, 'softcron': False, 'server_name': 'mayank', 'bpython': False, 'nogui': False, 'nocron': False, 'extcron': False, 'run_system_tests': False, 'test': None, 'folder': '/home/mayank/Production/Final-code/web2py', 'config': '', 'import_models': False, 'winservice': '', 'shell': None, 'run': '', 'log_filename': 'httpserver.log', 'debuglevel': 30, 'args': [''], 'socket_timeout': 5, 'ssl_ca_certificate': None, 'scheduler': None, 'profiler_filename': None, 'ssl_private_key': '', 'scheduler_groups': None, 'password': '<ask>', 'request_queue_size': 5, 'ssl_certificate': '', 'cronjob': False, 'numthreads': None, 'quiet': False, 'interfaces': None, 'minthreads': None, 'timeout': 10, 'plain': False, 'nobanner': False, 'pid_filename': 'httpserver.pid'}>"
p2020
asbasbasbag69
(g85
g71
NtRp2021
(dp2022
g74
(dp2023
sg83
g1931
sg76
(lp2024
g69
(g90
g71
NtRp2025
(dp2026
g74
(dp2027
g94
g95
ssg83
g2021
sg76
(lp2028
g975
asbag69
(g90
g71
NtRp2029
(dp2030
g74
(dp2031
g101
g102
ssg83
g2021
sg76
(lp2032
S':'
asbag69
(g90
g71
NtRp2033
(dp2034
g74
(dp2035
sg83
g2021
sg76
(lp2036
g69
(g70
g71
NtRp2037
(dp2038
g74
(dp2039
g82
I4
ssg83
g2033
sg76
(lp2040
S'set([])'
p2041
asbasbasbag69
(g85
g71
NtRp2042
(dp2043
g74
(dp2044
sg83
g1931
sg76
(lp2045
g69
(g90
g71
NtRp2046
(dp2047
g74
(dp2048
g94
g95
ssg83
g2042
sg76
(lp2049
g997
asbag69
(g90
g71
NtRp2050
(dp2051
g74
(dp2052
g101
g102
ssg83
g2042
sg76
(lp2053
S':'
asbag69
(g90
g71
NtRp2054
(dp2055
g74
(dp2056
sg83
g2042
sg76
(lp2057
g69
(g70
g71
NtRp2058
(dp2059
g74
(dp2060
g82
I4
ssg83
g2054
sg76
(lp2061
g112
asbasbasbag69
(g85
g71
NtRp2062
(dp2063
g74
(dp2064
sg83
g1931
sg76
(lp2065
g69
(g90
g71
NtRp2066
(dp2067
g74
(dp2068
g94
g95
ssg83
g2062
sg76
(lp2069
g1018
asbag69
(g90
g71
NtRp2070
(dp2071
g74
(dp2072
g101
g102
ssg83
g2062
sg76
(lp2073
S':'
asbag69
(g90
g71
NtRp2074
(dp2075
g74
(dp2076
sg83
g2062
sg76
(lp2077
g69
(g70
g71
NtRp2078
(dp2079
g74
(dp2080
g82
I4
ssg83
g2074
sg76
(lp2081
g1031
asbasbasbag69
(g85
g71
NtRp2082
(dp2083
g74
(dp2084
sg83
g1931
sg76
(lp2085
g69
(g90
g71
NtRp2086
(dp2087
g74
(dp2088
g94
g95
ssg83
g2082
sg76
(lp2089
g1216
asbag69
(g90
g71
NtRp2090
(dp2091
g74
(dp2092
g101
g102
ssg83
g2082
sg76
(lp2093
S':'
asbag69
(g90
g71
NtRp2094
(dp2095
g74
(dp2096
sg83
g2082
sg76
(lp2097
g69
(g70
g71
NtRp2098
(dp2099
g74
(dp2100
g82
I4
ssg83
g2094
sg76
(lp2101
g112
asbasbasbag69
(g85
g71
NtRp2102
(dp2103
g74
(dp2104
sg83
g1931
sg76
(lp2105
g69
(g90
g71
NtRp2106
(dp2107
g74
(dp2108
g94
g95
ssg83
g2102
sg76
(lp2109
g1237
asbag69
(g90
g71
NtRp2110
(dp2111
g74
(dp2112
g101
g102
ssg83
g2102
sg76
(lp2113
S':'
asbag69
(g90
g71
NtRp2114
(dp2115
g74
(dp2116
sg83
g2102
sg76
(lp2117
g69
(g70
g71
NtRp2118
(dp2119
g74
(dp2120
g82
I4
ssg83
g2114
sg76
(lp2121
g112
asbasbasbag69
(g85
g71
NtRp2122
(dp2123
g74
(dp2124
sg83
g1931
sg76
(lp2125
g69
(g90
g71
NtRp2126
(dp2127
g74
(dp2128
g94
g95
ssg83
g2122
sg76
(lp2129
g1496
asbag69
(g90
g71
NtRp2130
(dp2131
g74
(dp2132
g101
g102
ssg83
g2122
sg76
(lp2133
S':'
asbag69
(g90
g71
NtRp2134
(dp2135
g74
(dp2136
sg83
g2122
sg76
(lp2137
g69
(g70
g71
NtRp2138
(dp2139
g74
(dp2140
g82
I4
ssg83
g2134
sg76
(lp2141
g1509
asbasbasbag69
(g85
g71
NtRp2142
(dp2143
g74
(dp2144
sg83
g1931
sg76
(lp2145
g69
(g90
g71
NtRp2146
(dp2147
g74
(dp2148
g94
g95
ssg83
g2142
sg76
(lp2149
g1539
asbag69
(g90
g71
NtRp2150
(dp2151
g74
(dp2152
g101
g102
ssg83
g2142
sg76
(lp2153
S':'
asbag69
(g90
g71
NtRp2154
(dp2155
g74
(dp2156
sg83
g2142
sg76
(lp2157
g69
(g70
g71
NtRp2158
(dp2159
g74
(dp2160
g82
I4
ssg83
g2154
sg76
(lp2161
g69
(g78
g71
NtRp2162
(dp2163
g74
(dp2164
g82
I3
ssg83
Nsg76
(lp2165
g69
(g85
g71
NtRp2166
(dp2167
g74
(dp2168
sg83
g2162
sg76
(lp2169
g69
(g90
g71
NtRp2170
(dp2171
g74
(dp2172
sg83
g2166
sg76
(lp2173
g69
(g70
g71
NtRp2174
(dp2175
g74
(dp2176
g82
I3
ssg83
g2170
sg76
(lp2177
S'2'
asbasbasbag69
(g85
g71
NtRp2178
(dp2179
g74
(dp2180
sg83
g2162
sg76
(lp2181
g69
(g90
g71
NtRp2182
(dp2183
g74
(dp2184
sg83
g2178
sg76
(lp2185
g69
(g70
g71
NtRp2186
(dp2187
g74
(dp2188
g82
I3
ssg83
g2182
sg76
(lp2189
S'0'
asbasbasbag69
(g85
g71
NtRp2190
(dp2191
g74
(dp2192
sg83
g2162
sg76
(lp2193
g69
(g90
g71
NtRp2194
(dp2195
g74
(dp2196
sg83
g2190
sg76
(lp2197
g69
(g70
g71
NtRp2198
(dp2199
g74
(dp2200
g82
I3
ssg83
g2194
sg76
(lp2201
S'8'
asbasbasbag69
(g85
g71
NtRp2202
(dp2203
g74
(dp2204
sg83
g2162
sg76
(lp2205
g69
(g90
g71
NtRp2206
(dp2207
g74
(dp2208
sg83
g2202
sg76
(lp2209
g69
(g70
g71
NtRp2210
(dp2211
g74
(dp2212
g82
I3
ssg83
g2206
sg76
(lp2213
S'datetime.datetime(2012, 9, 7, 3, 47, 51)'
p2214
asbasbasbag69
(g85
g71
NtRp2215
(dp2216
g74
(dp2217
sg83
g2162
sg76
(lp2218
g69
(g90
g71
NtRp2219
(dp2220
g74
(dp2221
sg83
g2215
sg76
(lp2222
g69
(g70
g71
NtRp2223
(dp2224
g74
(dp2225
g82
I3
ssg83
g2219
sg76
(lp2226
g1617
asbasbasbasbasbasbasbasbasbasbasbag69
(g85
g71
NtRp2227
(dp2228
g74
(dp2229
sg83
g79
sg76
(lp2230
g69
(g90
g71
NtRp2231
(dp2232
g74
(dp2233
g94
g95
ssg83
g2227
sg76
(lp2234
S'is_https'
p2235
asbag69
(g90
g71
NtRp2236
(dp2237
g74
(dp2238
g101
g102
ssg83
g2227
sg76
(lp2239
S':'
asbag69
(g90
g71
NtRp2240
(dp2241
g74
(dp2242
sg83
g2227
sg76
(lp2243
g69
(g70
g71
NtRp2244
(dp2245
g74
(dp2246
g82
I5
ssg83
g2240
sg76
(lp2247
g112
asbasbasbag69
(g85
g71
NtRp2248
(dp2249
g74
(dp2250
sg83
g79
sg76
(lp2251
g69
(g90
g71
NtRp2252
(dp2253
g74
(dp2254
g94
g95
ssg83
g2248
sg76
(lp2255
S'is_local'
p2256
asbag69
(g90
g71
NtRp2257
(dp2258
g74
(dp2259
g101
g102
ssg83
g2248
sg76
(lp2260
S':'
asbag69
(g90
g71
NtRp2261
(dp2262
g74
(dp2263
sg83
g2248
sg76
(lp2264
g69
(g70
g71
NtRp2265
(dp2266
g74
(dp2267
g82
I5
ssg83
g2261
sg76
(lp2268
g1726
asbasbasbag69
(g85
g71
NtRp2269
(dp2270
g74
(dp2271
sg83
g79
sg76
(lp2272
g69
(g90
g71
NtRp2273
(dp2274
g74
(dp2275
g94
g95
ssg83
g2269
sg76
(lp2276
S'is_restful'
p2277
asbag69
(g90
g71
NtRp2278
(dp2279
g74
(dp2280
g101
g102
ssg83
g2269
sg76
(lp2281
S':'
asbag69
(g90
g71
NtRp2282
(dp2283
g74
(dp2284
sg83
g2269
sg76
(lp2285
g69
(g70
g71
NtRp2286
(dp2287
g74
(dp2288
g82
I5
ssg83
g2282
sg76
(lp2289
g112
asbasbasbag69
(g85
g71
NtRp2290
(dp2291
g74
(dp2292
sg83
g79
sg76
(lp2293
g69
(g90
g71
NtRp2294
(dp2295
g74
(dp2296
g94
g95
ssg83
g2290
sg76
(lp2297
S'now'
p2298
asbag69
(g90
g71
NtRp2299
(dp2300
g74
(dp2301
g101
g102
ssg83
g2290
sg76
(lp2302
S':'
asbag69
(g90
g71
NtRp2303
(dp2304
g74
(dp2305
sg83
g2290
sg76
(lp2306
g69
(g70
g71
NtRp2307
(dp2308
g74
(dp2309
g82
I5
ssg83
g2303
sg76
(lp2310
S'datetime.datetime(2013, 11, 21, 12, 28, 48, 380823)'
p2311
asbasbasbag69
(g85
g71
NtRp2312
(dp2313
g74
(dp2314
sg83
g79
sg76
(lp2315
g69
(g90
g71
NtRp2316
(dp2317
g74
(dp2318
g94
g95
ssg83
g2312
sg76
(lp2319
S'post_vars'
p2320
asbag69
(g90
g71
NtRp2321
(dp2322
g74
(dp2323
g101
g102
ssg83
g2312
sg76
(lp2324
S':'
asbag69
(g90
g71
NtRp2325
(dp2326
g74
(dp2327
sg83
g2312
sg76
(lp2328
g69
(g70
g71
NtRp2329
(dp2330
g74
(dp2331
g82
I5
ssg83
g2325
sg76
(lp2332
g69
(g78
g71
NtRp2333
(dp2334
g74
(dp2335
g82
I4
ssg83
Nsg76
(lp2336
sbasbasbasbag69
(g85
g71
NtRp2337
(dp2338
g74
(dp2339
sg83
g79
sg76
(lp2340
g69
(g90
g71
NtRp2341
(dp2342
g74
(dp2343
g94
g95
ssg83
g2337
sg76
(lp2344
S'raw_args'
p2345
asbag69
(g90
g71
NtRp2346
(dp2347
g74
(dp2348
g101
g102
ssg83
g2337
sg76
(lp2349
S':'
asbag69
(g90
g71
NtRp2350
(dp2351
g74
(dp2352
sg83
g2337
sg76
(lp2353
g69
(g70
g71
NtRp2354
(dp2355
g74
(dp2356
g82
I5
ssg83
g2350
sg76
(lp2357
g171
asbasbasbag69
(g85
g71
NtRp2358
(dp2359
g74
(dp2360
sg83
g79
sg76
(lp2361
g69
(g90
g71
NtRp2362
(dp2363
g74
(dp2364
g94
g95
ssg83
g2358
sg76
(lp2365
S'raw_extension'
p2366
asbag69
(g90
g71
NtRp2367
(dp2368
g74
(dp2369
g101
g102
ssg83
g2358
sg76
(lp2370
S':'
asbag69
(g90
g71
NtRp2371
(dp2372
g74
(dp2373
sg83
g2358
sg76
(lp2374
g69
(g70
g71
NtRp2375
(dp2376
g74
(dp2377
g82
I5
ssg83
g2371
sg76
(lp2378
S'None'
p2379
asbasbasbag69
(g85
g71
NtRp2380
(dp2381
g74
(dp2382
sg83
g79
sg76
(lp2383
g69
(g90
g71
NtRp2384
(dp2385
g74
(dp2386
g94
g95
ssg83
g2380
sg76
(lp2387
S'url'
p2388
asbag69
(g90
g71
NtRp2389
(dp2390
g74
(dp2391
g101
g102
ssg83
g2380
sg76
(lp2392
S':'
asbag69
(g90
g71
NtRp2393
(dp2394
g74
(dp2395
sg83
g2380
sg76
(lp2396
g69
(g70
g71
NtRp2397
(dp2398
g74
(dp2399
g82
I5
ssg83
g2393
sg76
(lp2400
g1271
asbasbasbag69
(g85
g71
NtRp2401
(dp2402
g74
(dp2403
sg83
g79
sg76
(lp2404
g69
(g90
g71
NtRp2405
(dp2406
g74
(dp2407
g94
g95
ssg83
g2401
sg76
(lp2408
S'utcnow'
p2409
asbag69
(g90
g71
NtRp2410
(dp2411
g74
(dp2412
g101
g102
ssg83
g2401
sg76
(lp2413
S':'
asbag69
(g90
g71
NtRp2414
(dp2415
g74
(dp2416
sg83
g2401
sg76
(lp2417
g69
(g70
g71
NtRp2418
(dp2419
g74
(dp2420
g82
I5
ssg83
g2414
sg76
(lp2421
S'datetime.datetime(2013, 11, 21, 6, 58, 48, 380844)'
p2422
asbasbasbag69
(g85
g71
NtRp2423
(dp2424
g74
(dp2425
sg83
g79
sg76
(lp2426
g69
(g90
g71
NtRp2427
(dp2428
g74
(dp2429
g94
g95
ssg83
g2423
sg76
(lp2430
S'uuid'
p2431
asbag69
(g90
g71
NtRp2432
(dp2433
g74
(dp2434
g101
g102
ssg83
g2423
sg76
(lp2435
S':'
asbag69
(g90
g71
NtRp2436
(dp2437
g74
(dp2438
sg83
g2423
sg76
(lp2439
g69
(g70
g71
NtRp2440
(dp2441
g74
(dp2442
g82
I5
ssg83
g2436
sg76
(lp2443
S'FunkLoad/127.0.0.1.2013-11-21.12-28-48.d0a61c0d-6e6a-40db-8edd-016cd97bb983'
p2444
asbasbasbag69
(g85
g71
NtRp2445
(dp2446
g74
(dp2447
sg83
g79
sg76
(lp2448
g69
(g90
g71
NtRp2449
(dp2450
g74
(dp2451
g94
g95
ssg83
g2445
sg76
(lp2452
S'vars'
p2453
asbag69
(g90
g71
NtRp2454
(dp2455
g74
(dp2456
g101
g102
ssg83
g2445
sg76
(lp2457
S':'
asbag69
(g90
g71
NtRp2458
(dp2459
g74
(dp2460
sg83
g2445
sg76
(lp2461
g69
(g70
g71
NtRp2462
(dp2463
g74
(dp2464
g82
I5
ssg83
g2458
sg76
(lp2465
g69
(g78
g71
NtRp2466
(dp2467
g74
(dp2468
g82
I4
ssg83
Nsg76
(lp2469
sbasbasbasbag69
(g85
g71
NtRp2470
(dp2471
g74
(dp2472
sg83
g79
sg76
(lp2473
g69
(g90
g71
NtRp2474
(dp2475
g74
(dp2476
g94
g95
ssg83
g2470
sg76
(lp2477
S'wsgi'
p2478
asbag69
(g90
g71
NtRp2479
(dp2480
g74
(dp2481
g101
g102
ssg83
g2470
sg76
(lp2482
S':'
asbag69
(g90
g71
NtRp2483
(dp2484
g74
(dp2485
sg83
g2470
sg76
(lp2486
g69
(g70
g71
NtRp2487
(dp2488
g74
(dp2489
g82
I5
ssg83
g2483
sg76
(lp2490
g69
(g78
g71
NtRp2491
(dp2492
g74
(dp2493
g82
I4
ssg83
Nsg76
(lp2494
g69
(g85
g71
NtRp2495
(dp2496
g74
(dp2497
sg83
g2491
sg76
(lp2498
g69
(g90
g71
NtRp2499
(dp2500
g74
(dp2501
g94
g95
ssg83
g2495
sg76
(lp2502
S'environ'
p2503
asbag69
(g90
g71
NtRp2504
(dp2505
g74
(dp2506
g101
g102
ssg83
g2495
sg76
(lp2507
S':'
asbag69
(g90
g71
NtRp2508
(dp2509
g74
(dp2510
sg83
g2495
sg76
(lp2511
g69
(g70
g71
NtRp2512
(dp2513
g74
(dp2514
g82
I4
ssg83
g2508
sg76
(lp2515
g69
(g78
g71
NtRp2516
(dp2517
g74
(dp2518
g82
I3
ssg83
Nsg76
(lp2519
g69
(g85
g71
NtRp2520
(dp2521
g74
(dp2522
sg83
g2516
sg76
(lp2523
g69
(g90
g71
NtRp2524
(dp2525
g74
(dp2526
g94
g95
ssg83
g2520
sg76
(lp2527
S'HTTP_ACCEPT'
p2528
asbag69
(g90
g71
NtRp2529
(dp2530
g74
(dp2531
g101
g102
ssg83
g2520
sg76
(lp2532
S':'
asbag69
(g90
g71
NtRp2533
(dp2534
g74
(dp2535
sg83
g2520
sg76
(lp2536
g69
(g70
g71
NtRp2537
(dp2538
g74
(dp2539
g82
I3
ssg83
g2533
sg76
(lp2540
g1053
asbasbasbag69
(g85
g71
NtRp2541
(dp2542
g74
(dp2543
sg83
g2516
sg76
(lp2544
g69
(g90
g71
NtRp2545
(dp2546
g74
(dp2547
g94
g95
ssg83
g2541
sg76
(lp2548
S'HTTP_ACCEPT_ENCODING'
p2549
asbag69
(g90
g71
NtRp2550
(dp2551
g74
(dp2552
g101
g102
ssg83
g2541
sg76
(lp2553
S':'
asbag69
(g90
g71
NtRp2554
(dp2555
g74
(dp2556
sg83
g2541
sg76
(lp2557
g69
(g70
g71
NtRp2558
(dp2559
g74
(dp2560
g82
I3
ssg83
g2554
sg76
(lp2561
g1075
asbasbasbag69
(g85
g71
NtRp2562
(dp2563
g74
(dp2564
sg83
g2516
sg76
(lp2565
g69
(g90
g71
NtRp2566
(dp2567
g74
(dp2568
g94
g95
ssg83
g2562
sg76
(lp2569
S'HTTP_ACCEPT_LANGUAGE'
p2570
asbag69
(g90
g71
NtRp2571
(dp2572
g74
(dp2573
g101
g102
ssg83
g2562
sg76
(lp2574
S':'
asbag69
(g90
g71
NtRp2575
(dp2576
g74
(dp2577
sg83
g2562
sg76
(lp2578
g69
(g70
g71
NtRp2579
(dp2580
g74
(dp2581
g82
I3
ssg83
g2575
sg76
(lp2582
g1097
asbasbasbag69
(g85
g71
NtRp2583
(dp2584
g74
(dp2585
sg83
g2516
sg76
(lp2586
g69
(g90
g71
NtRp2587
(dp2588
g74
(dp2589
g94
g95
ssg83
g2583
sg76
(lp2590
S'HTTP_CONNECTION'
p2591
asbag69
(g90
g71
NtRp2592
(dp2593
g74
(dp2594
g101
g102
ssg83
g2583
sg76
(lp2595
S':'
asbag69
(g90
g71
NtRp2596
(dp2597
g74
(dp2598
sg83
g2583
sg76
(lp2599
g69
(g70
g71
NtRp2600
(dp2601
g74
(dp2602
g82
I3
ssg83
g2596
sg76
(lp2603
g1119
asbasbasbag69
(g85
g71
NtRp2604
(dp2605
g74
(dp2606
sg83
g2516
sg76
(lp2607
g69
(g90
g71
NtRp2608
(dp2609
g74
(dp2610
g94
g95
ssg83
g2604
sg76
(lp2611
S'HTTP_COOKIE'
p2612
asbag69
(g90
g71
NtRp2613
(dp2614
g74
(dp2615
g101
g102
ssg83
g2604
sg76
(lp2616
S':'
asbag69
(g90
g71
NtRp2617
(dp2618
g74
(dp2619
sg83
g2604
sg76
(lp2620
g69
(g70
g71
NtRp2621
(dp2622
g74
(dp2623
g82
I3
ssg83
g2617
sg76
(lp2624
g1141
asbasbasbag69
(g85
g71
NtRp2625
(dp2626
g74
(dp2627
sg83
g2516
sg76
(lp2628
g69
(g90
g71
NtRp2629
(dp2630
g74
(dp2631
g94
g95
ssg83
g2625
sg76
(lp2632
S'HTTP_HOST'
p2633
asbag69
(g90
g71
NtRp2634
(dp2635
g74
(dp2636
g101
g102
ssg83
g2625
sg76
(lp2637
S':'
asbag69
(g90
g71
NtRp2638
(dp2639
g74
(dp2640
sg83
g2625
sg76
(lp2641
g69
(g70
g71
NtRp2642
(dp2643
g74
(dp2644
g82
I3
ssg83
g2638
sg76
(lp2645
g1163
asbasbasbag69
(g85
g71
NtRp2646
(dp2647
g74
(dp2648
sg83
g2516
sg76
(lp2649
g69
(g90
g71
NtRp2650
(dp2651
g74
(dp2652
g94
g95
ssg83
g2646
sg76
(lp2653
S'HTTP_REFERER'
p2654
asbag69
(g90
g71
NtRp2655
(dp2656
g74
(dp2657
g101
g102
ssg83
g2646
sg76
(lp2658
S':'
asbag69
(g90
g71
NtRp2659
(dp2660
g74
(dp2661
sg83
g2646
sg76
(lp2662
g69
(g70
g71
NtRp2663
(dp2664
g74
(dp2665
g82
I3
ssg83
g2659
sg76
(lp2666
g1185
asbasbasbag69
(g85
g71
NtRp2667
(dp2668
g74
(dp2669
sg83
g2516
sg76
(lp2670
g69
(g90
g71
NtRp2671
(dp2672
g74
(dp2673
g94
g95
ssg83
g2667
sg76
(lp2674
S'HTTP_USER_AGENT'
p2675
asbag69
(g90
g71
NtRp2676
(dp2677
g74
(dp2678
g101
g102
ssg83
g2667
sg76
(lp2679
S':'
asbag69
(g90
g71
NtRp2680
(dp2681
g74
(dp2682
sg83
g2667
sg76
(lp2683
g69
(g70
g71
NtRp2684
(dp2685
g74
(dp2686
g82
I3
ssg83
g2680
sg76
(lp2687
g1207
asbasbasbag69
(g85
g71
NtRp2688
(dp2689
g74
(dp2690
sg83
g2516
sg76
(lp2691
g69
(g90
g71
NtRp2692
(dp2693
g74
(dp2694
g94
g95
ssg83
g2688
sg76
(lp2695
S'PATH_INFO'
p2696
asbag69
(g90
g71
NtRp2697
(dp2698
g74
(dp2699
g101
g102
ssg83
g2688
sg76
(lp2700
S':'
asbag69
(g90
g71
NtRp2701
(dp2702
g74
(dp2703
sg83
g2688
sg76
(lp2704
g69
(g70
g71
NtRp2705
(dp2706
g74
(dp2707
g82
I3
ssg83
g2701
sg76
(lp2708
g1271
asbasbasbag69
(g85
g71
NtRp2709
(dp2710
g74
(dp2711
sg83
g2516
sg76
(lp2712
g69
(g90
g71
NtRp2713
(dp2714
g74
(dp2715
g94
g95
ssg83
g2709
sg76
(lp2716
S'QUERY_STRING'
p2717
asbag69
(g90
g71
NtRp2718
(dp2719
g74
(dp2720
g101
g102
ssg83
g2709
sg76
(lp2721
S':'
asbag69
(g90
g71
NtRp2722
(dp2723
g74
(dp2724
sg83
g2709
sg76
(lp2725
g69
(g70
g71
NtRp2726
(dp2727
g74
(dp2728
g82
I3
ssg83
g2722
sg76
(lp2729
S''
asbasbasbag69
(g85
g71
NtRp2730
(dp2731
g74
(dp2732
sg83
g2516
sg76
(lp2733
g69
(g90
g71
NtRp2734
(dp2735
g74
(dp2736
g94
g95
ssg83
g2730
sg76
(lp2737
S'REMOTE_ADDR'
p2738
asbag69
(g90
g71
NtRp2739
(dp2740
g74
(dp2741
g101
g102
ssg83
g2730
sg76
(lp2742
S':'
asbag69
(g90
g71
NtRp2743
(dp2744
g74
(dp2745
sg83
g2730
sg76
(lp2746
g69
(g70
g71
NtRp2747
(dp2748
g74
(dp2749
g82
I3
ssg83
g2743
sg76
(lp2750
g237
asbasbasbag69
(g85
g71
NtRp2751
(dp2752
g74
(dp2753
sg83
g2516
sg76
(lp2754
g69
(g90
g71
NtRp2755
(dp2756
g74
(dp2757
g94
g95
ssg83
g2751
sg76
(lp2758
S'REMOTE_PORT'
p2759
asbag69
(g90
g71
NtRp2760
(dp2761
g74
(dp2762
g101
g102
ssg83
g2751
sg76
(lp2763
S':'
asbag69
(g90
g71
NtRp2764
(dp2765
g74
(dp2766
sg83
g2751
sg76
(lp2767
g69
(g70
g71
NtRp2768
(dp2769
g74
(dp2770
g82
I3
ssg83
g2764
sg76
(lp2771
g1335
asbasbasbag69
(g85
g71
NtRp2772
(dp2773
g74
(dp2774
sg83
g2516
sg76
(lp2775
g69
(g90
g71
NtRp2776
(dp2777
g74
(dp2778
g94
g95
ssg83
g2772
sg76
(lp2779
S'REQUEST_METHOD'
p2780
asbag69
(g90
g71
NtRp2781
(dp2782
g74
(dp2783
g101
g102
ssg83
g2772
sg76
(lp2784
S':'
asbag69
(g90
g71
NtRp2785
(dp2786
g74
(dp2787
sg83
g2772
sg76
(lp2788
g69
(g70
g71
NtRp2789
(dp2790
g74
(dp2791
g82
I3
ssg83
g2785
sg76
(lp2792
g1357
asbasbasbag69
(g85
g71
NtRp2793
(dp2794
g74
(dp2795
sg83
g2516
sg76
(lp2796
g69
(g90
g71
NtRp2797
(dp2798
g74
(dp2799
g94
g95
ssg83
g2793
sg76
(lp2800
S'REQUEST_URI'
p2801
asbag69
(g90
g71
NtRp2802
(dp2803
g74
(dp2804
g101
g102
ssg83
g2793
sg76
(lp2805
S':'
asbag69
(g90
g71
NtRp2806
(dp2807
g74
(dp2808
sg83
g2793
sg76
(lp2809
g69
(g70
g71
NtRp2810
(dp2811
g74
(dp2812
g82
I3
ssg83
g2806
sg76
(lp2813
g1271
asbasbasbag69
(g85
g71
NtRp2814
(dp2815
g74
(dp2816
sg83
g2516
sg76
(lp2817
g69
(g90
g71
NtRp2818
(dp2819
g74
(dp2820
g94
g95
ssg83
g2814
sg76
(lp2821
S'SCRIPT_NAME'
p2822
asbag69
(g90
g71
NtRp2823
(dp2824
g74
(dp2825
g101
g102
ssg83
g2814
sg76
(lp2826
S':'
asbag69
(g90
g71
NtRp2827
(dp2828
g74
(dp2829
sg83
g2814
sg76
(lp2830
g69
(g70
g71
NtRp2831
(dp2832
g74
(dp2833
g82
I3
ssg83
g2827
sg76
(lp2834
S''
asbasbasbag69
(g85
g71
NtRp2835
(dp2836
g74
(dp2837
sg83
g2516
sg76
(lp2838
g69
(g90
g71
NtRp2839
(dp2840
g74
(dp2841
g94
g95
ssg83
g2835
sg76
(lp2842
S'SERVER_NAME'
p2843
asbag69
(g90
g71
NtRp2844
(dp2845
g74
(dp2846
g101
g102
ssg83
g2835
sg76
(lp2847
S':'
asbag69
(g90
g71
NtRp2848
(dp2849
g74
(dp2850
sg83
g2835
sg76
(lp2851
g69
(g70
g71
NtRp2852
(dp2853
g74
(dp2854
g82
I3
ssg83
g2848
sg76
(lp2855
g1421
asbasbasbag69
(g85
g71
NtRp2856
(dp2857
g74
(dp2858
sg83
g2516
sg76
(lp2859
g69
(g90
g71
NtRp2860
(dp2861
g74
(dp2862
g94
g95
ssg83
g2856
sg76
(lp2863
S'SERVER_PORT'
p2864
asbag69
(g90
g71
NtRp2865
(dp2866
g74
(dp2867
g101
g102
ssg83
g2856
sg76
(lp2868
S':'
asbag69
(g90
g71
NtRp2869
(dp2870
g74
(dp2871
sg83
g2856
sg76
(lp2872
g69
(g70
g71
NtRp2873
(dp2874
g74
(dp2875
g82
I3
ssg83
g2869
sg76
(lp2876
g1443
asbasbasbag69
(g85
g71
NtRp2877
(dp2878
g74
(dp2879
sg83
g2516
sg76
(lp2880
g69
(g90
g71
NtRp2881
(dp2882
g74
(dp2883
g94
g95
ssg83
g2877
sg76
(lp2884
S'SERVER_PROTOCOL'
p2885
asbag69
(g90
g71
NtRp2886
(dp2887
g74
(dp2888
g101
g102
ssg83
g2877
sg76
(lp2889
S':'
asbag69
(g90
g71
NtRp2890
(dp2891
g74
(dp2892
sg83
g2877
sg76
(lp2893
g69
(g70
g71
NtRp2894
(dp2895
g74
(dp2896
g82
I3
ssg83
g2890
sg76
(lp2897
g1465
asbasbasbag69
(g85
g71
NtRp2898
(dp2899
g74
(dp2900
sg83
g2516
sg76
(lp2901
g69
(g90
g71
NtRp2902
(dp2903
g74
(dp2904
g94
g95
ssg83
g2898
sg76
(lp2905
S'SERVER_SOFTWARE'
p2906
asbag69
(g90
g71
NtRp2907
(dp2908
g74
(dp2909
g101
g102
ssg83
g2898
sg76
(lp2910
S':'
asbag69
(g90
g71
NtRp2911
(dp2912
g74
(dp2913
sg83
g2898
sg76
(lp2914
g69
(g70
g71
NtRp2915
(dp2916
g74
(dp2917
g82
I3
ssg83
g2911
sg76
(lp2918
g1487
asbasbasbag69
(g85
g71
NtRp2919
(dp2920
g74
(dp2921
sg83
g2516
sg76
(lp2922
g69
(g90
g71
NtRp2923
(dp2924
g74
(dp2925
g94
g95
ssg83
g2919
sg76
(lp2926
S'wsgi.errors'
p2927
asbag69
(g90
g71
NtRp2928
(dp2929
g74
(dp2930
g101
g102
ssg83
g2919
sg76
(lp2931
S':'
asbag69
(g90
g71
NtRp2932
(dp2933
g74
(dp2934
sg83
g2919
sg76
(lp2935
g69
(g70
g71
NtRp2936
(dp2937
g74
(dp2938
g82
I3
ssg83
g2932
sg76
(lp2939
S"<open file '<stderr>', mode 'w' at 0x7f052cf381e0>"
p2940
asbasbasbag69
(g85
g71
NtRp2941
(dp2942
g74
(dp2943
sg83
g2516
sg76
(lp2944
g69
(g90
g71
NtRp2945
(dp2946
g74
(dp2947
g94
g95
ssg83
g2941
sg76
(lp2948
S'wsgi.file_wrapper'
p2949
asbag69
(g90
g71
NtRp2950
(dp2951
g74
(dp2952
g101
g102
ssg83
g2941
sg76
(lp2953
S':'
asbag69
(g90
g71
NtRp2954
(dp2955
g74
(dp2956
sg83
g2941
sg76
(lp2957
g69
(g70
g71
NtRp2958
(dp2959
g74
(dp2960
g82
I3
ssg83
g2954
sg76
(lp2961
S'<class wsgiref.util.FileWrapper at 0x16bc808>'
p2962
asbasbasbag69
(g85
g71
NtRp2963
(dp2964
g74
(dp2965
sg83
g2516
sg76
(lp2966
g69
(g90
g71
NtRp2967
(dp2968
g74
(dp2969
g94
g95
ssg83
g2963
sg76
(lp2970
S'wsgi.input'
p2971
asbag69
(g90
g71
NtRp2972
(dp2973
g74
(dp2974
g101
g102
ssg83
g2963
sg76
(lp2975
S':'
asbag69
(g90
g71
NtRp2976
(dp2977
g74
(dp2978
sg83
g2963
sg76
(lp2979
g69
(g70
g71
NtRp2980
(dp2981
g74
(dp2982
g82
I3
ssg83
g2976
sg76
(lp2983
S'<cStringIO.StringO object at 0x7f050c706030>'
p2984
asbasbasbag69
(g85
g71
NtRp2985
(dp2986
g74
(dp2987
sg83
g2516
sg76
(lp2988
g69
(g90
g71
NtRp2989
(dp2990
g74
(dp2991
g94
g95
ssg83
g2985
sg76
(lp2992
S'wsgi.multiprocess'
p2993
asbag69
(g90
g71
NtRp2994
(dp2995
g74
(dp2996
g101
g102
ssg83
g2985
sg76
(lp2997
S':'
asbag69
(g90
g71
NtRp2998
(dp2999
g74
(dp3000
sg83
g2985
sg76
(lp3001
g69
(g70
g71
NtRp3002
(dp3003
g74
(dp3004
g82
I3
ssg83
g2998
sg76
(lp3005
g112
asbasbasbag69
(g85
g71
NtRp3006
(dp3007
g74
(dp3008
sg83
g2516
sg76
(lp3009
g69
(g90
g71
NtRp3010
(dp3011
g74
(dp3012
g94
g95
ssg83
g3006
sg76
(lp3013
S'wsgi.multithread'
p3014
asbag69
(g90
g71
NtRp3015
(dp3016
g74
(dp3017
g101
g102
ssg83
g3006
sg76
(lp3018
S':'
asbag69
(g90
g71
NtRp3019
(dp3020
g74
(dp3021
sg83
g3006
sg76
(lp3022
g69
(g70
g71
NtRp3023
(dp3024
g74
(dp3025
g82
I3
ssg83
g3019
sg76
(lp3026
g1726
asbasbasbag69
(g85
g71
NtRp3027
(dp3028
g74
(dp3029
sg83
g2516
sg76
(lp3030
g69
(g90
g71
NtRp3031
(dp3032
g74
(dp3033
g94
g95
ssg83
g3027
sg76
(lp3034
S'wsgi.run_once'
p3035
asbag69
(g90
g71
NtRp3036
(dp3037
g74
(dp3038
g101
g102
ssg83
g3027
sg76
(lp3039
S':'
asbag69
(g90
g71
NtRp3040
(dp3041
g74
(dp3042
sg83
g3027
sg76
(lp3043
g69
(g70
g71
NtRp3044
(dp3045
g74
(dp3046
g82
I3
ssg83
g3040
sg76
(lp3047
g112
asbasbasbag69
(g85
g71
NtRp3048
(dp3049
g74
(dp3050
sg83
g2516
sg76
(lp3051
g69
(g90
g71
NtRp3052
(dp3053
g74
(dp3054
g94
g95
ssg83
g3048
sg76
(lp3055
S'wsgi.url_scheme'
p3056
asbag69
(g90
g71
NtRp3057
(dp3058
g74
(dp3059
g101
g102
ssg83
g3048
sg76
(lp3060
S':'
asbag69
(g90
g71
NtRp3061
(dp3062
g74
(dp3063
sg83
g3048
sg76
(lp3064
g69
(g70
g71
NtRp3065
(dp3066
g74
(dp3067
g82
I3
ssg83
g3061
sg76
(lp3068
g1769
asbasbasbag69
(g85
g71
NtRp3069
(dp3070
g74
(dp3071
sg83
g2516
sg76
(lp3072
g69
(g90
g71
NtRp3073
(dp3074
g74
(dp3075
g94
g95
ssg83
g3069
sg76
(lp3076
S'wsgi.version'
p3077
asbag69
(g90
g71
NtRp3078
(dp3079
g74
(dp3080
g101
g102
ssg83
g3069
sg76
(lp3081
S':'
asbag69
(g90
g71
NtRp3082
(dp3083
g74
(dp3084
sg83
g3069
sg76
(lp3085
g69
(g70
g71
NtRp3086
(dp3087
g74
(dp3088
g82
I3
ssg83
g3082
sg76
(lp3089
S'1'
asbasbasbasbasbasbasbasbasbasbasbasbasbsS'frames'
p3090
(lp3091
(dp3092
S'file'
p3093
S'/home/mayank/Production/Final-code/web2py/gluon/restricted.py'
p3094
sS'dump'
p3095
(dp3096
S'code'
p3097
S'r"response.write(\'<!DOCTYPE html>\\r\\n<!-- pauliris...ript>  \\r\\n</body>\\r\\n</html>\\r\\n\', escape=False)"'
p3098
sS'layer'
p3099
S"'/home/mayank/Production/Final-code/web2py/applications/FunkLoad/views/default/test.html'"
p3100
sS'global compile2'
p3101
S'<function compile2>'
p3102
sS'ccode'
p3103
S'undefined'
p3104
ssS'lnum'
p3105
I208
sS'lines'
p3106
(dp3107
I203
S"    environment['__name__'] = '__restricted__'"
p3108
sI204
S'    try:'
p3109
sI205
S'        if type(code) == types.CodeType:'
p3110
sI206
S'            ccode = code'
p3111
sI207
S'        else:'
p3112
sI208
S'            ccode = compile2(code,layer)'
p3113
sI209
S'        exec ccode in environment'
p3114
sI210
S'    except HTTP:'
p3115
sI211
S'        raise'
p3116
sI212
S'    except RestrictedError:'
p3117
ssS'call'
p3118
S'(code=r"response.write(\'<!DOCTYPE html>\\r\\n<!-- pauliris...ript>  \\r\\n</body>\\r\\n</html>\\r\\n\', escape=False)", environment={\'A\': <class \'gluon.html.A\'>, \'Auth\': <class \'gluon.tools.Auth\'>, \'B\': <class \'gluon.html.B\'>, \'BEAUTIFY\': <class \'gluon.html.BEAUTIFY\'>, \'BODY\': <class \'gluon.html.BODY\'>, \'BR\': <class \'gluon.html.BR\'>, \'BUTTON\': <class \'gluon.html.BUTTON\'>, \'CAT\': <class \'gluon.html.CAT\'>, \'CENTER\': <class \'gluon.html.CENTER\'>, \'CLEANUP\': <class \'gluon.validators.CLEANUP\'>, ...}, layer=\'/home/mayank/Production/Final-code/web2py/applications/FunkLoad/views/default/test.html\')'
p3119
sS'func'
p3120
S'restricted'
p3121
sa(dp3122
g3093
S'/home/mayank/Production/Final-code/web2py/gluon/restricted.py'
p3123
sg3095
(dp3124
S'builtincompile'
p3125
S'<built-in function compile>'
p3126
sS'code'
p3127
S'r"response.write(\'<!DOCTYPE html>\\r\\n<!-- pauliris...ript>  \\r\\n</body>\\r\\n</html>\\r\\n\', escape=False)"'
p3128
sS'code.rstrip'
p3129
S'<built-in method rstrip of str object>'
p3130
sS').replace'
p3131
g3104
sS'layer'
p3132
S"'/home/mayank/Production/Final-code/web2py/applications/FunkLoad/views/default/test.html'"
p3133
ssg3105
I193
sg3106
(dp3134
I192
S'    """'
p3135
sI193
S"    return compile(code.rstrip().replace('\\r\\n','\\n')+'\\n', layer, 'exec')"
p3136
sI194
S''
sI195
S"def restricted(code, environment=None, layer='Unknown'):"
p3137
sI196
S'    """'
p3138
sI197
S'    runs code in environment and returns the output. if an exception occurs'
p3139
sI188
S''
sI189
S'def compile2(code,layer):'
p3140
sI190
S'    """'
p3141
sI191
S"    The +'\\n' is necessary else compile fails when code ends in a comment."
p3142
ssg3118
S'(code=r"response.write(\'<!DOCTYPE html>\\r\\n<!-- pauliris...ript>  \\r\\n</body>\\r\\n</html>\\r\\n\', escape=False)", layer=\'/home/mayank/Production/Final-code/web2py/applications/FunkLoad/views/default/test.html\')'
p3143
sg3120
S'compile2'
p3144
sasS'pyver'
p3145
S'Python 2.7.4: /usr/bin/python'
p3146
sS'session'
p3147
g69
(g70
g71
NtRp3148
(dp3149
g74
(dp3150
sg76
(lp3151
g69
(g78
g71
NtRp3152
(dp3153
g74
(dp3154
g82
I5
ssg83
Nsg76
(lp3155
g69
(g85
g71
NtRp3156
(dp3157
g74
(dp3158
sg83
g3152
sg76
(lp3159
g69
(g90
g71
NtRp3160
(dp3161
g74
(dp3162
g94
g95
ssg83
g3156
sg76
(lp3163
S'auth'
p3164
asbag69
(g90
g71
NtRp3165
(dp3166
g74
(dp3167
g101
g102
ssg83
g3156
sg76
(lp3168
S':'
asbag69
(g90
g71
NtRp3169
(dp3170
g74
(dp3171
sg83
g3156
sg76
(lp3172
g69
(g70
g71
NtRp3173
(dp3174
g74
(dp3175
g82
I5
ssg83
g3169
sg76
(lp3176
g69
(g78
g71
NtRp3177
(dp3178
g74
(dp3179
g82
I4
ssg83
Nsg76
(lp3180
g69
(g85
g71
NtRp3181
(dp3182
g74
(dp3183
sg83
g3177
sg76
(lp3184
g69
(g90
g71
NtRp3185
(dp3186
g74
(dp3187
g94
g95
ssg83
g3181
sg76
(lp3188
S'expiration'
p3189
asbag69
(g90
g71
NtRp3190
(dp3191
g74
(dp3192
g101
g102
ssg83
g3181
sg76
(lp3193
S':'
asbag69
(g90
g71
NtRp3194
(dp3195
g74
(dp3196
sg83
g3181
sg76
(lp3197
g69
(g70
g71
NtRp3198
(dp3199
g74
(dp3200
g82
I4
ssg83
g3194
sg76
(lp3201
S'3600'
p3202
asbasbasbag69
(g85
g71
NtRp3203
(dp3204
g74
(dp3205
sg83
g3177
sg76
(lp3206
g69
(g90
g71
NtRp3207
(dp3208
g74
(dp3209
g94
g95
ssg83
g3203
sg76
(lp3210
S'hmac_key'
p3211
asbag69
(g90
g71
NtRp3212
(dp3213
g74
(dp3214
g101
g102
ssg83
g3203
sg76
(lp3215
S':'
asbag69
(g90
g71
NtRp3216
(dp3217
g74
(dp3218
sg83
g3203
sg76
(lp3219
g69
(g70
g71
NtRp3220
(dp3221
g74
(dp3222
g82
I4
ssg83
g3216
sg76
(lp3223
S'2eec4f18-1da7-439a-8448-39c6e63dc350'
p3224
asbasbasbag69
(g85
g71
NtRp3225
(dp3226
g74
(dp3227
sg83
g3177
sg76
(lp3228
g69
(g90
g71
NtRp3229
(dp3230
g74
(dp3231
g94
g95
ssg83
g3225
sg76
(lp3232
S'last_visit'
p3233
asbag69
(g90
g71
NtRp3234
(dp3235
g74
(dp3236
g101
g102
ssg83
g3225
sg76
(lp3237
S':'
asbag69
(g90
g71
NtRp3238
(dp3239
g74
(dp3240
sg83
g3225
sg76
(lp3241
g69
(g70
g71
NtRp3242
(dp3243
g74
(dp3244
g82
I4
ssg83
g3238
sg76
(lp3245
S'datetime.datetime(2013, 11, 21, 12, 28, 4, 882106)'
p3246
asbasbasbag69
(g85
g71
NtRp3247
(dp3248
g74
(dp3249
sg83
g3177
sg76
(lp3250
g69
(g90
g71
NtRp3251
(dp3252
g74
(dp3253
g94
g95
ssg83
g3247
sg76
(lp3254
S'remember'
p3255
asbag69
(g90
g71
NtRp3256
(dp3257
g74
(dp3258
g101
g102
ssg83
g3247
sg76
(lp3259
S':'
asbag69
(g90
g71
NtRp3260
(dp3261
g74
(dp3262
sg83
g3247
sg76
(lp3263
g69
(g70
g71
NtRp3264
(dp3265
g74
(dp3266
g82
I4
ssg83
g3260
sg76
(lp3267
g112
asbasbasbag69
(g85
g71
NtRp3268
(dp3269
g74
(dp3270
sg83
g3177
sg76
(lp3271
g69
(g90
g71
NtRp3272
(dp3273
g74
(dp3274
g94
g95
ssg83
g3268
sg76
(lp3275
S'user'
p3276
asbag69
(g90
g71
NtRp3277
(dp3278
g74
(dp3279
g101
g102
ssg83
g3268
sg76
(lp3280
S':'
asbag69
(g90
g71
NtRp3281
(dp3282
g74
(dp3283
sg83
g3268
sg76
(lp3284
g69
(g70
g71
NtRp3285
(dp3286
g74
(dp3287
g82
I4
ssg83
g3281
sg76
(lp3288
g69
(g78
g71
NtRp3289
(dp3290
g74
(dp3291
g82
I3
ssg83
Nsg76
(lp3292
g69
(g85
g71
NtRp3293
(dp3294
g74
(dp3295
sg83
g3289
sg76
(lp3296
g69
(g90
g71
NtRp3297
(dp3298
g74
(dp3299
g94
g95
ssg83
g3293
sg76
(lp3300
S'email'
p3301
asbag69
(g90
g71
NtRp3302
(dp3303
g74
(dp3304
g101
g102
ssg83
g3293
sg76
(lp3305
S':'
asbag69
(g90
g71
NtRp3306
(dp3307
g74
(dp3308
sg83
g3293
sg76
(lp3309
g69
(g70
g71
NtRp3310
(dp3311
g74
(dp3312
g82
I3
ssg83
g3306
sg76
(lp3313
S'mayank.g@students.iiit.ac.in'
p3314
asbasbasbag69
(g85
g71
NtRp3315
(dp3316
g74
(dp3317
sg83
g3289
sg76
(lp3318
g69
(g90
g71
NtRp3319
(dp3320
g74
(dp3321
g94
g95
ssg83
g3315
sg76
(lp3322
S'first_name'
p3323
asbag69
(g90
g71
NtRp3324
(dp3325
g74
(dp3326
g101
g102
ssg83
g3315
sg76
(lp3327
S':'
asbag69
(g90
g71
NtRp3328
(dp3329
g74
(dp3330
sg83
g3315
sg76
(lp3331
g69
(g70
g71
NtRp3332
(dp3333
g74
(dp3334
g82
I3
ssg83
g3328
sg76
(lp3335
S'Mayank'
p3336
asbasbasbag69
(g85
g71
NtRp3337
(dp3338
g74
(dp3339
sg83
g3289
sg76
(lp3340
g69
(g90
g71
NtRp3341
(dp3342
g74
(dp3343
g94
g95
ssg83
g3337
sg76
(lp3344
S'id'
p3345
asbag69
(g90
g71
NtRp3346
(dp3347
g74
(dp3348
g101
g102
ssg83
g3337
sg76
(lp3349
S':'
asbag69
(g90
g71
NtRp3350
(dp3351
g74
(dp3352
sg83
g3337
sg76
(lp3353
g69
(g70
g71
NtRp3354
(dp3355
g74
(dp3356
g82
I3
ssg83
g3350
sg76
(lp3357
S'1'
asbasbasbag69
(g85
g71
NtRp3358
(dp3359
g74
(dp3360
sg83
g3289
sg76
(lp3361
g69
(g90
g71
NtRp3362
(dp3363
g74
(dp3364
g94
g95
ssg83
g3358
sg76
(lp3365
S'last_name'
p3366
asbag69
(g90
g71
NtRp3367
(dp3368
g74
(dp3369
g101
g102
ssg83
g3358
sg76
(lp3370
S':'
asbag69
(g90
g71
NtRp3371
(dp3372
g74
(dp3373
sg83
g3358
sg76
(lp3374
g69
(g70
g71
NtRp3375
(dp3376
g74
(dp3377
g82
I3
ssg83
g3371
sg76
(lp3378
S'Gupta'
p3379
asbasbasbag69
(g85
g71
NtRp3380
(dp3381
g74
(dp3382
sg83
g3289
sg76
(lp3383
g69
(g90
g71
NtRp3384
(dp3385
g74
(dp3386
g94
g95
ssg83
g3380
sg76
(lp3387
S'password'
p3388
asbag69
(g90
g71
NtRp3389
(dp3390
g74
(dp3391
g101
g102
ssg83
g3380
sg76
(lp3392
S':'
asbag69
(g90
g71
NtRp3393
(dp3394
g74
(dp3395
sg83
g3380
sg76
(lp3396
g69
(g70
g71
NtRp3397
(dp3398
g74
(dp3399
g82
I3
ssg83
g3393
sg76
(lp3400
S'pbkdf2(1000,20,sha512)$b461da77927ccbcb$e1175f123722b7f96f7b9069239be9b4fe0844f5'
p3401
asbasbasbag69
(g85
g71
NtRp3402
(dp3403
g74
(dp3404
sg83
g3289
sg76
(lp3405
g69
(g90
g71
NtRp3406
(dp3407
g74
(dp3408
g94
g95
ssg83
g3402
sg76
(lp3409
S'registration_id'
p3410
asbag69
(g90
g71
NtRp3411
(dp3412
g74
(dp3413
g101
g102
ssg83
g3402
sg76
(lp3414
S':'
asbag69
(g90
g71
NtRp3415
(dp3416
g74
(dp3417
sg83
g3402
sg76
(lp3418
g69
(g70
g71
NtRp3419
(dp3420
g74
(dp3421
g82
I3
ssg83
g3415
sg76
(lp3422
S''
asbasbasbag69
(g85
g71
NtRp3423
(dp3424
g74
(dp3425
sg83
g3289
sg76
(lp3426
g69
(g90
g71
NtRp3427
(dp3428
g74
(dp3429
g94
g95
ssg83
g3423
sg76
(lp3430
S'registration_key'
p3431
asbag69
(g90
g71
NtRp3432
(dp3433
g74
(dp3434
g101
g102
ssg83
g3423
sg76
(lp3435
S':'
asbag69
(g90
g71
NtRp3436
(dp3437
g74
(dp3438
sg83
g3423
sg76
(lp3439
g69
(g70
g71
NtRp3440
(dp3441
g74
(dp3442
g82
I3
ssg83
g3436
sg76
(lp3443
S''
asbasbasbag69
(g85
g71
NtRp3444
(dp3445
g74
(dp3446
sg83
g3289
sg76
(lp3447
g69
(g90
g71
NtRp3448
(dp3449
g74
(dp3450
g94
g95
ssg83
g3444
sg76
(lp3451
S'reset_password_key'
p3452
asbag69
(g90
g71
NtRp3453
(dp3454
g74
(dp3455
g101
g102
ssg83
g3444
sg76
(lp3456
S':'
asbag69
(g90
g71
NtRp3457
(dp3458
g74
(dp3459
sg83
g3444
sg76
(lp3460
g69
(g70
g71
NtRp3461
(dp3462
g74
(dp3463
g82
I3
ssg83
g3457
sg76
(lp3464
S''
asbasbasbasbasbasbasbag69
(g85
g71
NtRp3465
(dp3466
g74
(dp3467
sg83
g3177
sg76
(lp3468
g69
(g90
g71
NtRp3469
(dp3470
g74
(dp3471
g94
g95
ssg83
g3465
sg76
(lp3472
S'user_groups'
p3473
asbag69
(g90
g71
NtRp3474
(dp3475
g74
(dp3476
g101
g102
ssg83
g3465
sg76
(lp3477
S':'
asbag69
(g90
g71
NtRp3478
(dp3479
g74
(dp3480
sg83
g3465
sg76
(lp3481
g69
(g70
g71
NtRp3482
(dp3483
g74
(dp3484
g82
I4
ssg83
g3478
sg76
(lp3485
g69
(g78
g71
NtRp3486
(dp3487
g74
(dp3488
g82
I3
ssg83
Nsg76
(lp3489
g69
(g85
g71
NtRp3490
(dp3491
g74
(dp3492
sg83
g3486
sg76
(lp3493
g69
(g90
g71
NtRp3494
(dp3495
g74
(dp3496
g94
g95
ssg83
g3490
sg76
(lp3497
S'1'
asbag69
(g90
g71
NtRp3498
(dp3499
g74
(dp3500
g101
g102
ssg83
g3490
sg76
(lp3501
S':'
asbag69
(g90
g71
NtRp3502
(dp3503
g74
(dp3504
sg83
g3490
sg76
(lp3505
g69
(g70
g71
NtRp3506
(dp3507
g74
(dp3508
g82
I3
ssg83
g3502
sg76
(lp3509
S'user_1'
p3510
asbasbasbasbasbasbasbasbasbasbasbag69
(g85
g71
NtRp3511
(dp3512
g74
(dp3513
sg83
g3152
sg76
(lp3514
g69
(g90
g71
NtRp3515
(dp3516
g74
(dp3517
g94
g95
ssg83
g3511
sg76
(lp3518
S'email'
p3519
asbag69
(g90
g71
NtRp3520
(dp3521
g74
(dp3522
g101
g102
ssg83
g3511
sg76
(lp3523
S':'
asbag69
(g90
g71
NtRp3524
(dp3525
g74
(dp3526
sg83
g3511
sg76
(lp3527
g69
(g70
g71
NtRp3528
(dp3529
g74
(dp3530
g82
I5
ssg83
g3524
sg76
(lp3531
g3314
asbasbasbag69
(g85
g71
NtRp3532
(dp3533
g74
(dp3534
sg83
g3152
sg76
(lp3535
g69
(g90
g71
NtRp3536
(dp3537
g74
(dp3538
g94
g95
ssg83
g3532
sg76
(lp3539
S'flash'
p3540
asbag69
(g90
g71
NtRp3541
(dp3542
g74
(dp3543
g101
g102
ssg83
g3532
sg76
(lp3544
S':'
asbag69
(g90
g71
NtRp3545
(dp3546
g74
(dp3547
sg83
g3532
sg76
(lp3548
g69
(g70
g71
NtRp3549
(dp3550
g74
(dp3551
g82
I5
ssg83
g3545
sg76
(lp3552
S'None'
p3553
asbasbasbasbasbsS'etype'
p3554
S"<type 'exceptions.SyntaxError'>"
p3555
sS'date'
p3556
S'Thu Nov 21 12:28:48 2013'
p3557
sS'response'
p3558
g69
(g70
g71
NtRp3559
(dp3560
g74
(dp3561
sg76
(lp3562
g69
(g78
g71
NtRp3563
(dp3564
g74
(dp3565
g82
I5
ssg83
Nsg76
(lp3566
g69
(g85
g71
NtRp3567
(dp3568
g74
(dp3569
sg83
g3563
sg76
(lp3570
g69
(g90
g71
NtRp3571
(dp3572
g74
(dp3573
g94
g95
ssg83
g3567
sg76
(lp3574
g180
asbag69
(g90
g71
NtRp3575
(dp3576
g74
(dp3577
g101
g102
ssg83
g3567
sg76
(lp3578
S':'
asbag69
(g90
g71
NtRp3579
(dp3580
g74
(dp3581
sg83
g3567
sg76
(lp3582
g69
(g70
g71
NtRp3583
(dp3584
g74
(dp3585
g82
I5
ssg83
g3579
sg76
(lp3586
S'<cStringIO.StringO object at 0x7f05083192d0>'
p3587
asbasbasbag69
(g85
g71
NtRp3588
(dp3589
g74
(dp3590
sg83
g3563
sg76
(lp3591
g69
(g90
g71
NtRp3592
(dp3593
g74
(dp3594
g94
g95
ssg83
g3588
sg76
(lp3595
g268
asbag69
(g90
g71
NtRp3596
(dp3597
g74
(dp3598
g101
g102
ssg83
g3588
sg76
(lp3599
S':'
asbag69
(g90
g71
NtRp3600
(dp3601
g74
(dp3602
sg83
g3588
sg76
(lp3603
g69
(g70
g71
NtRp3604
(dp3605
g74
(dp3606
g82
I5
ssg83
g3600
sg76
(lp3607
g69
(g78
g71
NtRp3608
(dp3609
g74
(dp3610
g82
I4
ssg83
Nsg76
(lp3611
g69
(g85
g71
NtRp3612
(dp3613
g74
(dp3614
sg83
g3608
sg76
(lp3615
g69
(g90
g71
NtRp3616
(dp3617
g74
(dp3618
g94
g95
ssg83
g3612
sg76
(lp3619
S'session_id_funkload'
p3620
asbag69
(g90
g71
NtRp3621
(dp3622
g74
(dp3623
g101
g102
ssg83
g3612
sg76
(lp3624
S':'
asbag69
(g90
g71
NtRp3625
(dp3626
g74
(dp3627
sg83
g3612
sg76
(lp3628
g69
(g70
g71
NtRp3629
(dp3630
g74
(dp3631
g82
I4
ssg83
g3625
sg76
(lp3632
g500
ag69
(g78
g71
NtRp3633
(dp3634
g74
(dp3635
g82
I3
ssg83
Nsg76
(lp3636
g69
(g85
g71
NtRp3637
(dp3638
g74
(dp3639
sg83
g3633
sg76
(lp3640
g69
(g90
g71
NtRp3641
(dp3642
g74
(dp3643
g94
g95
ssg83
g3637
sg76
(lp3644
g319
asbag69
(g90
g71
NtRp3645
(dp3646
g74
(dp3647
g101
g102
ssg83
g3637
sg76
(lp3648
S':'
asbag69
(g90
g71
NtRp3649
(dp3650
g74
(dp3651
sg83
g3637
sg76
(lp3652
g69
(g70
g71
NtRp3653
(dp3654
g74
(dp3655
g82
I3
ssg83
g3649
sg76
(lp3656
S''
asbasbasbag69
(g85
g71
NtRp3657
(dp3658
g74
(dp3659
sg83
g3633
sg76
(lp3660
g69
(g90
g71
NtRp3661
(dp3662
g74
(dp3663
g94
g95
ssg83
g3657
sg76
(lp3664
g340
asbag69
(g90
g71
NtRp3665
(dp3666
g74
(dp3667
g101
g102
ssg83
g3657
sg76
(lp3668
S':'
asbag69
(g90
g71
NtRp3669
(dp3670
g74
(dp3671
sg83
g3657
sg76
(lp3672
g69
(g70
g71
NtRp3673
(dp3674
g74
(dp3675
g82
I3
ssg83
g3669
sg76
(lp3676
S''
asbasbasbag69
(g85
g71
NtRp3677
(dp3678
g74
(dp3679
sg83
g3633
sg76
(lp3680
g69
(g90
g71
NtRp3681
(dp3682
g74
(dp3683
g94
g95
ssg83
g3677
sg76
(lp3684
g361
asbag69
(g90
g71
NtRp3685
(dp3686
g74
(dp3687
g101
g102
ssg83
g3677
sg76
(lp3688
S':'
asbag69
(g90
g71
NtRp3689
(dp3690
g74
(dp3691
sg83
g3677
sg76
(lp3692
g69
(g70
g71
NtRp3693
(dp3694
g74
(dp3695
g82
I3
ssg83
g3689
sg76
(lp3696
S''
asbasbasbag69
(g85
g71
NtRp3697
(dp3698
g74
(dp3699
sg83
g3633
sg76
(lp3700
g69
(g90
g71
NtRp3701
(dp3702
g74
(dp3703
g94
g95
ssg83
g3697
sg76
(lp3704
g382
asbag69
(g90
g71
NtRp3705
(dp3706
g74
(dp3707
g101
g102
ssg83
g3697
sg76
(lp3708
S':'
asbag69
(g90
g71
NtRp3709
(dp3710
g74
(dp3711
sg83
g3697
sg76
(lp3712
g69
(g70
g71
NtRp3713
(dp3714
g74
(dp3715
g82
I3
ssg83
g3709
sg76
(lp3716
S''
asbasbasbag69
(g85
g71
NtRp3717
(dp3718
g74
(dp3719
sg83
g3633
sg76
(lp3720
g69
(g90
g71
NtRp3721
(dp3722
g74
(dp3723
g94
g95
ssg83
g3717
sg76
(lp3724
g403
asbag69
(g90
g71
NtRp3725
(dp3726
g74
(dp3727
g101
g102
ssg83
g3717
sg76
(lp3728
S':'
asbag69
(g90
g71
NtRp3729
(dp3730
g74
(dp3731
sg83
g3717
sg76
(lp3732
g69
(g70
g71
NtRp3733
(dp3734
g74
(dp3735
g82
I3
ssg83
g3729
sg76
(lp3736
S''
asbasbasbag69
(g85
g71
NtRp3737
(dp3738
g74
(dp3739
sg83
g3633
sg76
(lp3740
g69
(g90
g71
NtRp3741
(dp3742
g74
(dp3743
g94
g95
ssg83
g3737
sg76
(lp3744
g424
asbag69
(g90
g71
NtRp3745
(dp3746
g74
(dp3747
g101
g102
ssg83
g3737
sg76
(lp3748
S':'
asbag69
(g90
g71
NtRp3749
(dp3750
g74
(dp3751
sg83
g3737
sg76
(lp3752
g69
(g70
g71
NtRp3753
(dp3754
g74
(dp3755
g82
I3
ssg83
g3749
sg76
(lp3756
S'/'
asbasbasbag69
(g85
g71
NtRp3757
(dp3758
g74
(dp3759
sg83
g3633
sg76
(lp3760
g69
(g90
g71
NtRp3761
(dp3762
g74
(dp3763
g94
g95
ssg83
g3757
sg76
(lp3764
g445
asbag69
(g90
g71
NtRp3765
(dp3766
g74
(dp3767
g101
g102
ssg83
g3757
sg76
(lp3768
S':'
asbag69
(g90
g71
NtRp3769
(dp3770
g74
(dp3771
sg83
g3757
sg76
(lp3772
g69
(g70
g71
NtRp3773
(dp3774
g74
(dp3775
g82
I3
ssg83
g3769
sg76
(lp3776
S''
asbasbasbag69
(g85
g71
NtRp3777
(dp3778
g74
(dp3779
sg83
g3633
sg76
(lp3780
g69
(g90
g71
NtRp3781
(dp3782
g74
(dp3783
g94
g95
ssg83
g3777
sg76
(lp3784
g466
asbag69
(g90
g71
NtRp3785
(dp3786
g74
(dp3787
g101
g102
ssg83
g3777
sg76
(lp3788
S':'
asbag69
(g90
g71
NtRp3789
(dp3790
g74
(dp3791
sg83
g3777
sg76
(lp3792
g69
(g70
g71
NtRp3793
(dp3794
g74
(dp3795
g82
I3
ssg83
g3789
sg76
(lp3796
S''
asbasbasbasbasbasbasbasbasbasbasbag69
(g85
g71
NtRp3797
(dp3798
g74
(dp3799
sg83
g3563
sg76
(lp3800
g69
(g90
g71
NtRp3801
(dp3802
g74
(dp3803
g94
g95
ssg83
g3797
sg76
(lp3804
S'delimiters'
p3805
asbag69
(g90
g71
NtRp3806
(dp3807
g74
(dp3808
g101
g102
ssg83
g3797
sg76
(lp3809
S':'
asbag69
(g90
g71
NtRp3810
(dp3811
g74
(dp3812
sg83
g3797
sg76
(lp3813
g69
(g70
g71
NtRp3814
(dp3815
g74
(dp3816
g82
I5
ssg83
g3810
sg76
(lp3817
g69
(g78
g71
NtRp3818
(dp3819
g74
(dp3820
g82
I4
ssg83
Nsg76
(lp3821
g69
(g85
g71
NtRp3822
(dp3823
g74
(dp3824
sg83
g3818
sg76
(lp3825
g69
(g90
g71
NtRp3826
(dp3827
g74
(dp3828
sg83
g3822
sg76
(lp3829
g69
(g70
g71
NtRp3830
(dp3831
g74
(dp3832
g82
I4
ssg83
g3826
sg76
(lp3833
S'{{'
p3834
asbasbasbag69
(g85
g71
NtRp3835
(dp3836
g74
(dp3837
sg83
g3818
sg76
(lp3838
g69
(g90
g71
NtRp3839
(dp3840
g74
(dp3841
sg83
g3835
sg76
(lp3842
g69
(g70
g71
NtRp3843
(dp3844
g74
(dp3845
g82
I4
ssg83
g3839
sg76
(lp3846
S'}}'
p3847
asbasbasbasbasbasbasbag69
(g85
g71
NtRp3848
(dp3849
g74
(dp3850
sg83
g3563
sg76
(lp3851
g69
(g90
g71
NtRp3852
(dp3853
g74
(dp3854
g94
g95
ssg83
g3848
sg76
(lp3855
S'files'
p3856
asbag69
(g90
g71
NtRp3857
(dp3858
g74
(dp3859
g101
g102
ssg83
g3848
sg76
(lp3860
S':'
asbag69
(g90
g71
NtRp3861
(dp3862
g74
(dp3863
sg83
g3848
sg76
(lp3864
g69
(g70
g71
NtRp3865
(dp3866
g74
(dp3867
g82
I5
ssg83
g3861
sg76
(lp3868
g69
(g78
g71
NtRp3869
(dp3870
g74
(dp3871
g82
I4
ssg83
Nsg76
(lp3872
sbasbasbasbag69
(g85
g71
NtRp3873
(dp3874
g74
(dp3875
sg83
g3563
sg76
(lp3876
g69
(g90
g71
NtRp3877
(dp3878
g74
(dp3879
g94
g95
ssg83
g3873
sg76
(lp3880
S'flash'
p3881
asbag69
(g90
g71
NtRp3882
(dp3883
g74
(dp3884
g101
g102
ssg83
g3873
sg76
(lp3885
S':'
asbag69
(g90
g71
NtRp3886
(dp3887
g74
(dp3888
sg83
g3873
sg76
(lp3889
g69
(g70
g71
NtRp3890
(dp3891
g74
(dp3892
g82
I5
ssg83
g3886
sg76
(lp3893
S''
asbasbasbag69
(g85
g71
NtRp3894
(dp3895
g74
(dp3896
sg83
g3563
sg76
(lp3897
g69
(g90
g71
NtRp3898
(dp3899
g74
(dp3900
g94
g95
ssg83
g3894
sg76
(lp3901
S'generic_patterns'
p3902
asbag69
(g90
g71
NtRp3903
(dp3904
g74
(dp3905
g101
g102
ssg83
g3894
sg76
(lp3906
S':'
asbag69
(g90
g71
NtRp3907
(dp3908
g74
(dp3909
sg83
g3894
sg76
(lp3910
g69
(g70
g71
NtRp3911
(dp3912
g74
(dp3913
g82
I5
ssg83
g3907
sg76
(lp3914
g69
(g78
g71
NtRp3915
(dp3916
g74
(dp3917
g82
I4
ssg83
Nsg76
(lp3918
g69
(g85
g71
NtRp3919
(dp3920
g74
(dp3921
sg83
g3915
sg76
(lp3922
g69
(g90
g71
NtRp3923
(dp3924
g74
(dp3925
sg83
g3919
sg76
(lp3926
g69
(g70
g71
NtRp3927
(dp3928
g74
(dp3929
g82
I4
ssg83
g3923
sg76
(lp3930
S'*'
asbasbasbasbasbasbasbag69
(g85
g71
NtRp3931
(dp3932
g74
(dp3933
sg83
g3563
sg76
(lp3934
g69
(g90
g71
NtRp3935
(dp3936
g74
(dp3937
g94
g95
ssg83
g3931
sg76
(lp3938
S'google_analytics_id'
p3939
asbag69
(g90
g71
NtRp3940
(dp3941
g74
(dp3942
g101
g102
ssg83
g3931
sg76
(lp3943
S':'
asbag69
(g90
g71
NtRp3944
(dp3945
g74
(dp3946
sg83
g3931
sg76
(lp3947
g69
(g70
g71
NtRp3948
(dp3949
g74
(dp3950
g82
I5
ssg83
g3944
sg76
(lp3951
S'None'
p3952
asbasbasbag69
(g85
g71
NtRp3953
(dp3954
g74
(dp3955
sg83
g3563
sg76
(lp3956
g69
(g90
g71
NtRp3957
(dp3958
g74
(dp3959
g94
g95
ssg83
g3953
sg76
(lp3960
S'headers'
p3961
asbag69
(g90
g71
NtRp3962
(dp3963
g74
(dp3964
g101
g102
ssg83
g3953
sg76
(lp3965
S':'
asbag69
(g90
g71
NtRp3966
(dp3967
g74
(dp3968
sg83
g3953
sg76
(lp3969
g69
(g70
g71
NtRp3970
(dp3971
g74
(dp3972
g82
I5
ssg83
g3966
sg76
(lp3973
g69
(g78
g71
NtRp3974
(dp3975
g74
(dp3976
g82
I4
ssg83
Nsg76
(lp3977
g69
(g85
g71
NtRp3978
(dp3979
g74
(dp3980
sg83
g3974
sg76
(lp3981
g69
(g90
g71
NtRp3982
(dp3983
g74
(dp3984
g94
g95
ssg83
g3978
sg76
(lp3985
S'Cache-Control'
p3986
asbag69
(g90
g71
NtRp3987
(dp3988
g74
(dp3989
g101
g102
ssg83
g3978
sg76
(lp3990
S':'
asbag69
(g90
g71
NtRp3991
(dp3992
g74
(dp3993
sg83
g3978
sg76
(lp3994
g69
(g70
g71
NtRp3995
(dp3996
g74
(dp3997
g82
I4
ssg83
g3991
sg76
(lp3998
S'no-store, no-cache, must-revalidate, post-check=0, pre-check=0'
p3999
asbasbasbag69
(g85
g71
NtRp4000
(dp4001
g74
(dp4002
sg83
g3974
sg76
(lp4003
g69
(g90
g71
NtRp4004
(dp4005
g74
(dp4006
g94
g95
ssg83
g4000
sg76
(lp4007
S'Content-Type'
p4008
asbag69
(g90
g71
NtRp4009
(dp4010
g74
(dp4011
g101
g102
ssg83
g4000
sg76
(lp4012
S':'
asbag69
(g90
g71
NtRp4013
(dp4014
g74
(dp4015
sg83
g4000
sg76
(lp4016
g69
(g70
g71
NtRp4017
(dp4018
g74
(dp4019
g82
I4
ssg83
g4013
sg76
(lp4020
S'text/html; charset=utf-8'
p4021
asbasbasbag69
(g85
g71
NtRp4022
(dp4023
g74
(dp4024
sg83
g3974
sg76
(lp4025
g69
(g90
g71
NtRp4026
(dp4027
g74
(dp4028
g94
g95
ssg83
g4022
sg76
(lp4029
S'Expires'
p4030
asbag69
(g90
g71
NtRp4031
(dp4032
g74
(dp4033
g101
g102
ssg83
g4022
sg76
(lp4034
S':'
asbag69
(g90
g71
NtRp4035
(dp4036
g74
(dp4037
sg83
g4022
sg76
(lp4038
g69
(g70
g71
NtRp4039
(dp4040
g74
(dp4041
g82
I4
ssg83
g4035
sg76
(lp4042
S'Thu, 21 Nov 2013 06:58:48 GMT'
p4043
asbasbasbag69
(g85
g71
NtRp4044
(dp4045
g74
(dp4046
sg83
g3974
sg76
(lp4047
g69
(g90
g71
NtRp4048
(dp4049
g74
(dp4050
g94
g95
ssg83
g4044
sg76
(lp4051
S'Pragma'
p4052
asbag69
(g90
g71
NtRp4053
(dp4054
g74
(dp4055
g101
g102
ssg83
g4044
sg76
(lp4056
S':'
asbag69
(g90
g71
NtRp4057
(dp4058
g74
(dp4059
sg83
g4044
sg76
(lp4060
g69
(g70
g71
NtRp4061
(dp4062
g74
(dp4063
g82
I4
ssg83
g4057
sg76
(lp4064
S'no-cache'
p4065
asbasbasbag69
(g85
g71
NtRp4066
(dp4067
g74
(dp4068
sg83
g3974
sg76
(lp4069
g69
(g90
g71
NtRp4070
(dp4071
g74
(dp4072
g94
g95
ssg83
g4066
sg76
(lp4073
S'X-Powered-By'
p4074
asbag69
(g90
g71
NtRp4075
(dp4076
g74
(dp4077
g101
g102
ssg83
g4066
sg76
(lp4078
S':'
asbag69
(g90
g71
NtRp4079
(dp4080
g74
(dp4081
sg83
g4066
sg76
(lp4082
g69
(g70
g71
NtRp4083
(dp4084
g74
(dp4085
g82
I4
ssg83
g4079
sg76
(lp4086
S'web2py'
p4087
asbasbasbasbasbasbasbag69
(g85
g71
NtRp4088
(dp4089
g74
(dp4090
sg83
g3563
sg76
(lp4091
g69
(g90
g71
NtRp4092
(dp4093
g74
(dp4094
g94
g95
ssg83
g4088
sg76
(lp4095
S'menu'
p4096
asbag69
(g90
g71
NtRp4097
(dp4098
g74
(dp4099
g101
g102
ssg83
g4088
sg76
(lp4100
S':'
asbag69
(g90
g71
NtRp4101
(dp4102
g74
(dp4103
sg83
g4088
sg76
(lp4104
g69
(g70
g71
NtRp4105
(dp4106
g74
(dp4107
g82
I5
ssg83
g4101
sg76
(lp4108
g69
(g78
g71
NtRp4109
(dp4110
g74
(dp4111
g82
I4
ssg83
Nsg76
(lp4112
g69
(g85
g71
NtRp4113
(dp4114
g74
(dp4115
sg83
g4109
sg76
(lp4116
g69
(g90
g71
NtRp4117
(dp4118
g74
(dp4119
sg83
g4113
sg76
(lp4120
g69
(g70
g71
NtRp4121
(dp4122
g74
(dp4123
g82
I4
ssg83
g4117
sg76
(lp4124
g69
(g78
g71
NtRp4125
(dp4126
g74
(dp4127
g82
I3
ssg83
Nsg76
(lp4128
g69
(g85
g71
NtRp4129
(dp4130
g74
(dp4131
sg83
g4125
sg76
(lp4132
g69
(g90
g71
NtRp4133
(dp4134
g74
(dp4135
sg83
g4129
sg76
(lp4136
g69
(g70
g71
NtRp4137
(dp4138
g74
(dp4139
g82
I3
ssg83
g4133
sg76
(lp4140
cgluon.languages
lazyT_unpickle
p4141
(S's\x04\x00\x00\x00Home'
tRp4142
asbasbasbag69
(g85
g71
NtRp4143
(dp4144
g74
(dp4145
sg83
g4125
sg76
(lp4146
g69
(g90
g71
NtRp4147
(dp4148
g74
(dp4149
sg83
g4143
sg76
(lp4150
g69
(g70
g71
NtRp4151
(dp4152
g74
(dp4153
g82
I3
ssg83
g4147
sg76
(lp4154
g112
asbasbasbag69
(g85
g71
NtRp4155
(dp4156
g74
(dp4157
sg83
g4125
sg76
(lp4158
g69
(g90
g71
NtRp4159
(dp4160
g74
(dp4161
sg83
g4155
sg76
(lp4162
g69
(g70
g71
NtRp4163
(dp4164
g74
(dp4165
g82
I3
ssg83
g4159
sg76
(lp4166
S'/FunkLoad/default/index'
p4167
asbasbasbag69
(g85
g71
NtRp4168
(dp4169
g74
(dp4170
sg83
g4125
sg76
(lp4171
g69
(g90
g71
NtRp4172
(dp4173
g74
(dp4174
sg83
g4168
sg76
(lp4175
g69
(g70
g71
NtRp4176
(dp4177
g74
(dp4178
g82
I3
ssg83
g4172
sg76
(lp4179
g69
(g78
g71
NtRp4180
(dp4181
g74
(dp4182
g82
I2
ssg83
Nsg76
(lp4183
sbasbasbasbasbasbasbasbag69
(g85
g71
NtRp4184
(dp4185
g74
(dp4186
sg83
g4109
sg76
(lp4187
g69
(g90
g71
NtRp4188
(dp4189
g74
(dp4190
sg83
g4184
sg76
(lp4191
g69
(g70
g71
NtRp4192
(dp4193
g74
(dp4194
g82
I4
ssg83
g4188
sg76
(lp4195
g69
(g78
g71
NtRp4196
(dp4197
g74
(dp4198
g82
I3
ssg83
Nsg76
(lp4199
g69
(g85
g71
NtRp4200
(dp4201
g74
(dp4202
sg83
g4196
sg76
(lp4203
g69
(g90
g71
NtRp4204
(dp4205
g74
(dp4206
sg83
g4200
sg76
(lp4207
g69
(g70
g71
NtRp4208
(dp4209
g74
(dp4210
g82
I3
ssg83
g4204
sg76
(lp4211
g69
(cgluon.html
SPAN
p4212
g71
NtRp4213
(dp4214
g74
(dp4215
g94
S'color:yellow'
p4216
ssg83
Nsg76
(lp4217
g4087
asbasbasbasbag69
(g85
g71
NtRp4218
(dp4219
g74
(dp4220
sg83
g4196
sg76
(lp4221
g69
(g90
g71
NtRp4222
(dp4223
g74
(dp4224
sg83
g4218
sg76
(lp4225
g69
(g70
g71
NtRp4226
(dp4227
g74
(dp4228
g82
I3
ssg83
g4222
sg76
(lp4229
g112
asbasbasbag69
(g85
g71
NtRp4230
(dp4231
g74
(dp4232
sg83
g4196
sg76
(lp4233
g69
(g90
g71
NtRp4234
(dp4235
g74
(dp4236
sg83
g4230
sg76
(lp4237
g69
(g70
g71
NtRp4238
(dp4239
g74
(dp4240
g82
I3
ssg83
g4234
sg76
(lp4241
S'http://web2py.com'
p4242
asbasbasbag69
(g85
g71
NtRp4243
(dp4244
g74
(dp4245
sg83
g4196
sg76
(lp4246
g69
(g90
g71
NtRp4247
(dp4248
g74
(dp4249
sg83
g4243
sg76
(lp4250
g69
(g70
g71
NtRp4251
(dp4252
g74
(dp4253
g82
I3
ssg83
g4247
sg76
(lp4254
g69
(g78
g71
NtRp4255
(dp4256
g74
(dp4257
g82
I2
ssg83
Nsg76
(lp4258
g69
(g85
g71
NtRp4259
(dp4260
g74
(dp4261
sg83
g4255
sg76
(lp4262
g69
(g90
g71
NtRp4263
(dp4264
g74
(dp4265
sg83
g4259
sg76
(lp4266
g69
(g70
g71
NtRp4267
(dp4268
g74
(dp4269
g82
I2
ssg83
g4263
sg76
(lp4270
g69
(g78
g71
NtRp4271
(dp4272
g74
(dp4273
g82
I1
ssg83
Nsg76
(lp4274
g69
(g85
g71
NtRp4275
(dp4276
g74
(dp4277
sg83
g4271
sg76
(lp4278
g69
(g90
g71
NtRp4279
(dp4280
g74
(dp4281
sg83
g4275
sg76
(lp4282
g69
(g70
g71
NtRp4283
(dp4284
g74
(dp4285
g82
I1
ssg83
g4279
sg76
(lp4286
g4141
(S's\x08\x00\x00\x00My Sites'
tRp4287
asbasbasbag69
(g85
g71
NtRp4288
(dp4289
g74
(dp4290
sg83
g4271
sg76
(lp4291
g69
(g90
g71
NtRp4292
(dp4293
g74
(dp4294
sg83
g4288
sg76
(lp4295
g69
(g70
g71
NtRp4296
(dp4297
g74
(dp4298
g82
I1
ssg83
g4292
sg76
(lp4299
I00
asbasbasbag69
(g85
g71
NtRp4300
(dp4301
g74
(dp4302
sg83
g4271
sg76
(lp4303
g69
(g90
g71
NtRp4304
(dp4305
g74
(dp4306
sg83
g4300
sg76
(lp4307
g69
(g70
g71
NtRp4308
(dp4309
g74
(dp4310
g82
I1
ssg83
g4304
sg76
(lp4311
S'/admin/default/site'
p4312
asbasbasbasbasbasbasbag69
(g85
g71
NtRp4313
(dp4314
g74
(dp4315
sg83
g4255
sg76
(lp4316
g69
(g90
g71
NtRp4317
(dp4318
g74
(dp4319
sg83
g4313
sg76
(lp4320
g69
(g70
g71
NtRp4321
(dp4322
g74
(dp4323
g82
I2
ssg83
g4317
sg76
(lp4324
g69
(g78
g71
NtRp4325
(dp4326
g74
(dp4327
g82
I1
ssg83
Nsg76
(lp4328
g69
(g85
g71
NtRp4329
(dp4330
g74
(dp4331
sg83
g4325
sg76
(lp4332
g69
(g90
g71
NtRp4333
(dp4334
g74
(dp4335
sg83
g4329
sg76
(lp4336
g69
(g70
g71
NtRp4337
(dp4338
g74
(dp4339
g82
I1
ssg83
g4333
sg76
(lp4340
g4141
(S's\x08\x00\x00\x00This App'
tRp4341
asbasbasbag69
(g85
g71
NtRp4342
(dp4343
g74
(dp4344
sg83
g4325
sg76
(lp4345
g69
(g90
g71
NtRp4346
(dp4347
g74
(dp4348
sg83
g4342
sg76
(lp4349
g69
(g70
g71
NtRp4350
(dp4351
g74
(dp4352
g82
I1
ssg83
g4346
sg76
(lp4353
I00
asbasbasbag69
(g85
g71
NtRp4354
(dp4355
g74
(dp4356
sg83
g4325
sg76
(lp4357
g69
(g90
g71
NtRp4358
(dp4359
g74
(dp4360
sg83
g4354
sg76
(lp4361
g69
(g70
g71
NtRp4362
(dp4363
g74
(dp4364
g82
I1
ssg83
g4358
sg76
(lp4365
S'/admin/default/design/FunkLoad'
p4366
asbasbasbag69
(g85
g71
NtRp4367
(dp4368
g74
(dp4369
sg83
g4325
sg76
(lp4370
g69
(g90
g71
NtRp4371
(dp4372
g74
(dp4373
sg83
g4367
sg76
(lp4374
g69
(g70
g71
NtRp4375
(dp4376
g74
(dp4377
g82
I1
ssg83
g4371
sg76
(lp4378
(lp4379
(g4141
(S's\n\x00\x00\x00Controller'
tRp4380
I00
S'/admin/default/edit/FunkLoad/controllers/default.py'
tp4381
a(g4141
(S's\x04\x00\x00\x00View'
tRp4382
I00
S'/admin/default/edit/FunkLoad/views/default/test.html'
tp4383
a(g4141
(S's\x06\x00\x00\x00Layout'
tRp4384
I00
S'/admin/default/edit/FunkLoad/views/layout.html'
tp4385
a(g4141
(S's\n\x00\x00\x00Stylesheet'
tRp4386
I00
S'/admin/default/edit/FunkLoad/static/css/web2py.css'
tp4387
a(g4141
(S's\x08\x00\x00\x00DB Model'
tRp4388
I00
S'/admin/default/edit/FunkLoad/models/db.py'
tp4389
a(g4141
(S's\n\x00\x00\x00Menu Model'
tRp4390
I00
S'/admin/default/edit/FunkLoad/models/menu.py'
tp4391
a(g4141
(S's\x08\x00\x00\x00Database'
tRp4392
I00
S'/FunkLoad/appadmin/index'
tp4393
a(g4141
(S's\x06\x00\x00\x00Errors'
tRp4394
I00
S'/admin/default/errors/FunkLoad'
tp4395
a(g4141
(S's\x05\x00\x00\x00About'
tRp4396
I00
S'/admin/default/about/FunkLoad'
tp4397
aasbasbasbasbasbasbasbag69
(g85
g71
NtRp4398
(dp4399
g74
(dp4400
sg83
g4255
sg76
(lp4401
g69
(g90
g71
NtRp4402
(dp4403
g74
(dp4404
sg83
g4398
sg76
(lp4405
g69
(g70
g71
NtRp4406
(dp4407
g74
(dp4408
g82
I2
ssg83
g4402
sg76
(lp4409
g69
(g78
g71
NtRp4410
(dp4411
g74
(dp4412
g82
I1
ssg83
Nsg76
(lp4413
g69
(g85
g71
NtRp4414
(dp4415
g74
(dp4416
sg83
g4410
sg76
(lp4417
g69
(g90
g71
NtRp4418
(dp4419
g74
(dp4420
sg83
g4414
sg76
(lp4421
g69
(g70
g71
NtRp4422
(dp4423
g74
(dp4424
g82
I1
ssg83
g4418
sg76
(lp4425
S'web2py.com'
p4426
asbasbasbag69
(g85
g71
NtRp4427
(dp4428
g74
(dp4429
sg83
g4410
sg76
(lp4430
g69
(g90
g71
NtRp4431
(dp4432
g74
(dp4433
sg83
g4427
sg76
(lp4434
g69
(g70
g71
NtRp4435
(dp4436
g74
(dp4437
g82
I1
ssg83
g4431
sg76
(lp4438
I00
asbasbasbag69
(g85
g71
NtRp4439
(dp4440
g74
(dp4441
sg83
g4410
sg76
(lp4442
g69
(g90
g71
NtRp4443
(dp4444
g74
(dp4445
sg83
g4439
sg76
(lp4446
g69
(g70
g71
NtRp4447
(dp4448
g74
(dp4449
g82
I1
ssg83
g4443
sg76
(lp4450
S'http://www.web2py.com'
p4451
asbasbasbag69
(g85
g71
NtRp4452
(dp4453
g74
(dp4454
sg83
g4410
sg76
(lp4455
g69
(g90
g71
NtRp4456
(dp4457
g74
(dp4458
sg83
g4452
sg76
(lp4459
g69
(g70
g71
NtRp4460
(dp4461
g74
(dp4462
g82
I1
ssg83
g4456
sg76
(lp4463
(lp4464
(g4141
(S's\x08\x00\x00\x00Download'
tRp4465
I00
S'http://www.web2py.com/examples/default/download'
p4466
tp4467
a(g4141
(S's\x07\x00\x00\x00Support'
tRp4468
I00
S'http://www.web2py.com/examples/default/support'
p4469
tp4470
a(g4141
(S's\x04\x00\x00\x00Demo'
tRp4471
I00
S'http://web2py.com/demo_admin'
p4472
tp4473
a(g4141
(S's\x0e\x00\x00\x00Quick Examples'
tRp4474
I00
S'http://web2py.com/examples/default/examples'
p4475
tp4476
a(g4141
(S's\x03\x00\x00\x00FAQ'
tRp4477
I00
S'http://web2py.com/AlterEgo'
p4478
tp4479
a(g4141
(S's\x06\x00\x00\x00Videos'
tRp4480
I00
S'http://www.web2py.com/examples/default/videos/'
p4481
tp4482
a(g4141
(S's\x11\x00\x00\x00Free Applications'
tRp4483
I00
S'http://web2py.com/appliances'
p4484
tp4485
a(g4141
(S's\x07\x00\x00\x00Plugins'
tRp4486
I00
S'http://web2py.com/plugins'
p4487
tp4488
a(g4141
(S's\x07\x00\x00\x00Layouts'
tRp4489
I00
S'http://web2py.com/layouts'
p4490
tp4491
a(g4141
(S's\x07\x00\x00\x00Recipes'
tRp4492
I00
S'http://web2pyslices.com/'
p4493
tp4494
a(g4141
(S's\x08\x00\x00\x00Semantic'
tRp4495
I00
S'http://web2py.com/semantic'
p4496
tp4497
aasbasbasbasbasbasbasbag69
(g85
g71
NtRp4498
(dp4499
g74
(dp4500
sg83
g4255
sg76
(lp4501
g69
(g90
g71
NtRp4502
(dp4503
g74
(dp4504
sg83
g4498
sg76
(lp4505
g69
(g70
g71
NtRp4506
(dp4507
g74
(dp4508
g82
I2
ssg83
g4502
sg76
(lp4509
g69
(g78
g71
NtRp4510
(dp4511
g74
(dp4512
g82
I1
ssg83
Nsg76
(lp4513
g69
(g85
g71
NtRp4514
(dp4515
g74
(dp4516
sg83
g4510
sg76
(lp4517
g69
(g90
g71
NtRp4518
(dp4519
g74
(dp4520
sg83
g4514
sg76
(lp4521
g69
(g70
g71
NtRp4522
(dp4523
g74
(dp4524
g82
I1
ssg83
g4518
sg76
(lp4525
g4141
(S's\r\x00\x00\x00Documentation'
tRp4526
asbasbasbag69
(g85
g71
NtRp4527
(dp4528
g74
(dp4529
sg83
g4510
sg76
(lp4530
g69
(g90
g71
NtRp4531
(dp4532
g74
(dp4533
sg83
g4527
sg76
(lp4534
g69
(g70
g71
NtRp4535
(dp4536
g74
(dp4537
g82
I1
ssg83
g4531
sg76
(lp4538
I00
asbasbasbag69
(g85
g71
NtRp4539
(dp4540
g74
(dp4541
sg83
g4510
sg76
(lp4542
g69
(g90
g71
NtRp4543
(dp4544
g74
(dp4545
sg83
g4539
sg76
(lp4546
g69
(g70
g71
NtRp4547
(dp4548
g74
(dp4549
g82
I1
ssg83
g4543
sg76
(lp4550
S'http://www.web2py.com/book'
p4551
asbasbasbag69
(g85
g71
NtRp4552
(dp4553
g74
(dp4554
sg83
g4510
sg76
(lp4555
g69
(g90
g71
NtRp4556
(dp4557
g74
(dp4558
sg83
g4552
sg76
(lp4559
g69
(g70
g71
NtRp4560
(dp4561
g74
(dp4562
g82
I1
ssg83
g4556
sg76
(lp4563
(lp4564
(g4141
(S's\x07\x00\x00\x00Preface'
tRp4565
I00
S'http://www.web2py.com/book/default/chapter/00'
p4566
tp4567
a(g4141
(S's\x0c\x00\x00\x00Introduction'
tRp4568
I00
S'http://www.web2py.com/book/default/chapter/01'
p4569
tp4570
a(g4141
(S's\x06\x00\x00\x00Python'
tRp4571
I00
S'http://www.web2py.com/book/default/chapter/02'
p4572
tp4573
a(g4141
(S's\x08\x00\x00\x00Overview'
tRp4574
I00
S'http://www.web2py.com/book/default/chapter/03'
p4575
tp4576
a(g4141
(S's\x08\x00\x00\x00The Core'
tRp4577
I00
S'http://www.web2py.com/book/default/chapter/04'
p4578
tp4579
a(g4141
(S's\t\x00\x00\x00The Views'
tRp4580
I00
S'http://www.web2py.com/book/default/chapter/05'
p4581
tp4582
a(g4141
(S's\x08\x00\x00\x00Database'
tRp4583
I00
S'http://www.web2py.com/book/default/chapter/06'
p4584
tp4585
a(g4141
(S's\x14\x00\x00\x00Forms and Validators'
tRp4586
I00
S'http://www.web2py.com/book/default/chapter/07'
p4587
tp4588
a(g4141
(S's\r\x00\x00\x00Email and SMS'
tRp4589
I00
S'http://www.web2py.com/book/default/chapter/08'
p4590
tp4591
a(g4141
(S's\x0e\x00\x00\x00Access Control'
tRp4592
I00
S'http://www.web2py.com/book/default/chapter/09'
p4593
tp4594
a(g4141
(S's\x08\x00\x00\x00Services'
tRp4595
I00
S'http://www.web2py.com/book/default/chapter/10'
p4596
tp4597
a(g4141
(S's\x0c\x00\x00\x00Ajax Recipes'
tRp4598
I00
S'http://www.web2py.com/book/default/chapter/11'
p4599
tp4600
a(g4141
(S's\x16\x00\x00\x00Components and Plugins'
tRp4601
I00
S'http://www.web2py.com/book/default/chapter/12'
p4602
tp4603
a(g4141
(S's\x12\x00\x00\x00Deployment Recipes'
tRp4604
I00
S'http://www.web2py.com/book/default/chapter/13'
p4605
tp4606
a(g4141
(S's\r\x00\x00\x00Other Recipes'
tRp4607
I00
S'http://www.web2py.com/book/default/chapter/14'
p4608
tp4609
a(g4141
(S's\r\x00\x00\x00Buy this book'
tRp4610
I00
S'http://stores.lulu.com/web2py'
p4611
tp4612
aasbasbasbasbasbasbasbag69
(g85
g71
NtRp4613
(dp4614
g74
(dp4615
sg83
g4255
sg76
(lp4616
g69
(g90
g71
NtRp4617
(dp4618
g74
(dp4619
sg83
g4613
sg76
(lp4620
g69
(g70
g71
NtRp4621
(dp4622
g74
(dp4623
g82
I2
ssg83
g4617
sg76
(lp4624
g69
(g78
g71
NtRp4625
(dp4626
g74
(dp4627
g82
I1
ssg83
Nsg76
(lp4628
g69
(g85
g71
NtRp4629
(dp4630
g74
(dp4631
sg83
g4625
sg76
(lp4632
g69
(g90
g71
NtRp4633
(dp4634
g74
(dp4635
sg83
g4629
sg76
(lp4636
g69
(g70
g71
NtRp4637
(dp4638
g74
(dp4639
g82
I1
ssg83
g4633
sg76
(lp4640
g4141
(S's\t\x00\x00\x00Community'
tRp4641
asbasbasbag69
(g85
g71
NtRp4642
(dp4643
g74
(dp4644
sg83
g4625
sg76
(lp4645
g69
(g90
g71
NtRp4646
(dp4647
g74
(dp4648
sg83
g4642
sg76
(lp4649
g69
(g70
g71
NtRp4650
(dp4651
g74
(dp4652
g82
I1
ssg83
g4646
sg76
(lp4653
I00
asbasbasbag69
(g85
g71
NtRp4654
(dp4655
g74
(dp4656
sg83
g4625
sg76
(lp4657
g69
(g90
g71
NtRp4658
(dp4659
g74
(dp4660
sg83
g4654
sg76
(lp4661
g69
(g70
g71
NtRp4662
(dp4663
g74
(dp4664
g82
I1
ssg83
g4658
sg76
(lp4665
Nasbasbasbag69
(g85
g71
NtRp4666
(dp4667
g74
(dp4668
sg83
g4625
sg76
(lp4669
g69
(g90
g71
NtRp4670
(dp4671
g74
(dp4672
sg83
g4666
sg76
(lp4673
g69
(g70
g71
NtRp4674
(dp4675
g74
(dp4676
g82
I1
ssg83
g4670
sg76
(lp4677
(lp4678
(g4141
(S's\x06\x00\x00\x00Groups'
tRp4679
I00
S'http://www.web2py.com/examples/default/usergroups'
p4680
tp4681
a(g4141
(S's\x07\x00\x00\x00Twitter'
tRp4682
I00
S'http://twitter.com/web2py'
p4683
tp4684
a(g4141
(S's\t\x00\x00\x00Live Chat'
tRp4685
I00
S'http://webchat.freenode.net/?channels=web2py'
p4686
tp4687
aasbasbasbasbasbasbasbag69
(g85
g71
NtRp4688
(dp4689
g74
(dp4690
sg83
g4255
sg76
(lp4691
g69
(g90
g71
NtRp4692
(dp4693
g74
(dp4694
sg83
g4688
sg76
(lp4695
g69
(g70
g71
NtRp4696
(dp4697
g74
(dp4698
g82
I2
ssg83
g4692
sg76
(lp4699
g69
(g78
g71
NtRp4700
(dp4701
g74
(dp4702
g82
I1
ssg83
Nsg76
(lp4703
g69
(g85
g71
NtRp4704
(dp4705
g74
(dp4706
sg83
g4700
sg76
(lp4707
g69
(g90
g71
NtRp4708
(dp4709
g74
(dp4710
sg83
g4704
sg76
(lp4711
g69
(g70
g71
NtRp4712
(dp4713
g74
(dp4714
g82
I1
ssg83
g4708
sg76
(lp4715
g4141
(S's\x07\x00\x00\x00Plugins'
tRp4716
asbasbasbag69
(g85
g71
NtRp4717
(dp4718
g74
(dp4719
sg83
g4700
sg76
(lp4720
g69
(g90
g71
NtRp4721
(dp4722
g74
(dp4723
sg83
g4717
sg76
(lp4724
g69
(g70
g71
NtRp4725
(dp4726
g74
(dp4727
g82
I1
ssg83
g4721
sg76
(lp4728
I00
asbasbasbag69
(g85
g71
NtRp4729
(dp4730
g74
(dp4731
sg83
g4700
sg76
(lp4732
g69
(g90
g71
NtRp4733
(dp4734
g74
(dp4735
sg83
g4729
sg76
(lp4736
g69
(g70
g71
NtRp4737
(dp4738
g74
(dp4739
g82
I1
ssg83
g4733
sg76
(lp4740
Nasbasbasbag69
(g85
g71
NtRp4741
(dp4742
g74
(dp4743
sg83
g4700
sg76
(lp4744
g69
(g90
g71
NtRp4745
(dp4746
g74
(dp4747
sg83
g4741
sg76
(lp4748
g69
(g70
g71
NtRp4749
(dp4750
g74
(dp4751
g82
I1
ssg83
g4745
sg76
(lp4752
(lp4753
(S'plugin_wiki'
p4754
I00
S'http://web2py.com/examples/default/download'
p4755
tp4756
a(g4141
(S's\r\x00\x00\x00Other Plugins'
tRp4757
I00
g4487
tp4758
a(g4141
(S's\x0e\x00\x00\x00Layout Plugins'
tRp4759
I00
g4490
tp4760
aasbasbasbasbasbasbasbasbasbasbasbasbasbasbasbasbasbasbasbag69
(g85
g71
NtRp4761
(dp4762
g74
(dp4763
sg83
g3563
sg76
(lp4764
g69
(g90
g71
NtRp4765
(dp4766
g74
(dp4767
g94
g95
ssg83
g4761
sg76
(lp4768
S'meta'
p4769
asbag69
(g90
g71
NtRp4770
(dp4771
g74
(dp4772
g101
g102
ssg83
g4761
sg76
(lp4773
S':'
asbag69
(g90
g71
NtRp4774
(dp4775
g74
(dp4776
sg83
g4761
sg76
(lp4777
g69
(g70
g71
NtRp4778
(dp4779
g74
(dp4780
g82
I5
ssg83
g4774
sg76
(lp4781
g69
(g78
g71
NtRp4782
(dp4783
g74
(dp4784
g82
I4
ssg83
Nsg76
(lp4785
g69
(g85
g71
NtRp4786
(dp4787
g74
(dp4788
sg83
g4782
sg76
(lp4789
g69
(g90
g71
NtRp4790
(dp4791
g74
(dp4792
g94
g95
ssg83
g4786
sg76
(lp4793
S'author'
p4794
asbag69
(g90
g71
NtRp4795
(dp4796
g74
(dp4797
g101
g102
ssg83
g4786
sg76
(lp4798
S':'
asbag69
(g90
g71
NtRp4799
(dp4800
g74
(dp4801
sg83
g4786
sg76
(lp4802
g69
(g70
g71
NtRp4803
(dp4804
g74
(dp4805
g82
I4
ssg83
g4799
sg76
(lp4806
S'Your Name <you@example.com>'
p4807
asbasbasbag69
(g85
g71
NtRp4808
(dp4809
g74
(dp4810
sg83
g4782
sg76
(lp4811
g69
(g90
g71
NtRp4812
(dp4813
g74
(dp4814
g94
g95
ssg83
g4808
sg76
(lp4815
S'description'
p4816
asbag69
(g90
g71
NtRp4817
(dp4818
g74
(dp4819
g101
g102
ssg83
g4808
sg76
(lp4820
S':'
asbag69
(g90
g71
NtRp4821
(dp4822
g74
(dp4823
sg83
g4808
sg76
(lp4824
g69
(g70
g71
NtRp4825
(dp4826
g74
(dp4827
g82
I4
ssg83
g4821
sg76
(lp4828
S'a cool new app'
p4829
asbasbasbag69
(g85
g71
NtRp4830
(dp4831
g74
(dp4832
sg83
g4782
sg76
(lp4833
g69
(g90
g71
NtRp4834
(dp4835
g74
(dp4836
g94
g95
ssg83
g4830
sg76
(lp4837
S'generator'
p4838
asbag69
(g90
g71
NtRp4839
(dp4840
g74
(dp4841
g101
g102
ssg83
g4830
sg76
(lp4842
S':'
asbag69
(g90
g71
NtRp4843
(dp4844
g74
(dp4845
sg83
g4830
sg76
(lp4846
g69
(g70
g71
NtRp4847
(dp4848
g74
(dp4849
g82
I4
ssg83
g4843
sg76
(lp4850
S'Web2py Web Framework'
p4851
asbasbasbag69
(g85
g71
NtRp4852
(dp4853
g74
(dp4854
sg83
g4782
sg76
(lp4855
g69
(g90
g71
NtRp4856
(dp4857
g74
(dp4858
g94
g95
ssg83
g4852
sg76
(lp4859
S'keywords'
p4860
asbag69
(g90
g71
NtRp4861
(dp4862
g74
(dp4863
g101
g102
ssg83
g4852
sg76
(lp4864
S':'
asbag69
(g90
g71
NtRp4865
(dp4866
g74
(dp4867
sg83
g4852
sg76
(lp4868
g69
(g70
g71
NtRp4869
(dp4870
g74
(dp4871
g82
I4
ssg83
g4865
sg76
(lp4872
S'web2py, python, framework'
p4873
asbasbasbasbasbasbasbag69
(g85
g71
NtRp4874
(dp4875
g74
(dp4876
sg83
g3563
sg76
(lp4877
g69
(g90
g71
NtRp4878
(dp4879
g74
(dp4880
g94
g95
ssg83
g4874
sg76
(lp4881
S'models_to_run'
p4882
asbag69
(g90
g71
NtRp4883
(dp4884
g74
(dp4885
g101
g102
ssg83
g4874
sg76
(lp4886
S':'
asbag69
(g90
g71
NtRp4887
(dp4888
g74
(dp4889
sg83
g4874
sg76
(lp4890
g69
(g70
g71
NtRp4891
(dp4892
g74
(dp4893
g82
I5
ssg83
g4887
sg76
(lp4894
g69
(g78
g71
NtRp4895
(dp4896
g74
(dp4897
g82
I4
ssg83
Nsg76
(lp4898
g69
(g85
g71
NtRp4899
(dp4900
g74
(dp4901
sg83
g4895
sg76
(lp4902
g69
(g90
g71
NtRp4903
(dp4904
g74
(dp4905
sg83
g4899
sg76
(lp4906
g69
(g70
g71
NtRp4907
(dp4908
g74
(dp4909
g82
I4
ssg83
g4903
sg76
(lp4910
S'^\\w+\\.py$'
p4911
asbasbasbag69
(g85
g71
NtRp4912
(dp4913
g74
(dp4914
sg83
g4895
sg76
(lp4915
g69
(g90
g71
NtRp4916
(dp4917
g74
(dp4918
sg83
g4912
sg76
(lp4919
g69
(g70
g71
NtRp4920
(dp4921
g74
(dp4922
g82
I4
ssg83
g4916
sg76
(lp4923
S'^default/\\w+\\.py$'
p4924
asbasbasbag69
(g85
g71
NtRp4925
(dp4926
g74
(dp4927
sg83
g4895
sg76
(lp4928
g69
(g90
g71
NtRp4929
(dp4930
g74
(dp4931
sg83
g4925
sg76
(lp4932
g69
(g70
g71
NtRp4933
(dp4934
g74
(dp4935
g82
I4
ssg83
g4929
sg76
(lp4936
S'^default/test/\\w+\\.py$'
p4937
asbasbasbasbasbasbasbag69
(g85
g71
NtRp4938
(dp4939
g74
(dp4940
sg83
g3563
sg76
(lp4941
g69
(g90
g71
NtRp4942
(dp4943
g74
(dp4944
g94
g95
ssg83
g4938
sg76
(lp4945
S'postprocessing'
p4946
asbag69
(g90
g71
NtRp4947
(dp4948
g74
(dp4949
g101
g102
ssg83
g4938
sg76
(lp4950
S':'
asbag69
(g90
g71
NtRp4951
(dp4952
g74
(dp4953
sg83
g4938
sg76
(lp4954
g69
(g70
g71
NtRp4955
(dp4956
g74
(dp4957
g82
I5
ssg83
g4951
sg76
(lp4958
g69
(g78
g71
NtRp4959
(dp4960
g74
(dp4961
g82
I4
ssg83
Nsg76
(lp4962
sbasbasbasbag69
(g85
g71
NtRp4963
(dp4964
g74
(dp4965
sg83
g3563
sg76
(lp4966
g69
(g90
g71
NtRp4967
(dp4968
g74
(dp4969
g94
g95
ssg83
g4963
sg76
(lp4970
S'session_file'
p4971
asbag69
(g90
g71
NtRp4972
(dp4973
g74
(dp4974
g101
g102
ssg83
g4963
sg76
(lp4975
S':'
asbag69
(g90
g71
NtRp4976
(dp4977
g74
(dp4978
sg83
g4963
sg76
(lp4979
g69
(g70
g71
NtRp4980
(dp4981
g74
(dp4982
g82
I5
ssg83
g4976
sg76
(lp4983
S"<open file '/home/mayank/Production/Final-code/web2py/applications/FunkLoad/sessions/127.0.0.1-d75bbcb9-beea-435d-912c-788bccec637c', mode 'rb+' at 0x7f04e4139f60>"
p4984
asbasbasbag69
(g85
g71
NtRp4985
(dp4986
g74
(dp4987
sg83
g3563
sg76
(lp4988
g69
(g90
g71
NtRp4989
(dp4990
g74
(dp4991
g94
g95
ssg83
g4985
sg76
(lp4992
S'session_filename'
p4993
asbag69
(g90
g71
NtRp4994
(dp4995
g74
(dp4996
g101
g102
ssg83
g4985
sg76
(lp4997
S':'
asbag69
(g90
g71
NtRp4998
(dp4999
g74
(dp5000
sg83
g4985
sg76
(lp5001
g69
(g70
g71
NtRp5002
(dp5003
g74
(dp5004
g82
I5
ssg83
g4998
sg76
(lp5005
S'/home/mayank/Production/Final-code/web2py/applications/FunkLoad/sessions/127.0.0.1-d75bbcb9-beea-435d-912c-788bccec637c'
p5006
asbasbasbag69
(g85
g71
NtRp5007
(dp5008
g74
(dp5009
sg83
g3563
sg76
(lp5010
g69
(g90
g71
NtRp5011
(dp5012
g74
(dp5013
g94
g95
ssg83
g5007
sg76
(lp5014
S'session_id'
p5015
asbag69
(g90
g71
NtRp5016
(dp5017
g74
(dp5018
g101
g102
ssg83
g5007
sg76
(lp5019
S':'
asbag69
(g90
g71
NtRp5020
(dp5021
g74
(dp5022
sg83
g5007
sg76
(lp5023
g69
(g70
g71
NtRp5024
(dp5025
g74
(dp5026
g82
I5
ssg83
g5020
sg76
(lp5027
g500
asbasbasbag69
(g85
g71
NtRp5028
(dp5029
g74
(dp5030
sg83
g3563
sg76
(lp5031
g69
(g90
g71
NtRp5032
(dp5033
g74
(dp5034
g94
g95
ssg83
g5028
sg76
(lp5035
S'session_id_name'
p5036
asbag69
(g90
g71
NtRp5037
(dp5038
g74
(dp5039
g101
g102
ssg83
g5028
sg76
(lp5040
S':'
asbag69
(g90
g71
NtRp5041
(dp5042
g74
(dp5043
sg83
g5028
sg76
(lp5044
g69
(g70
g71
NtRp5045
(dp5046
g74
(dp5047
g82
I5
ssg83
g5041
sg76
(lp5048
g3620
asbasbasbag69
(g85
g71
NtRp5049
(dp5050
g74
(dp5051
sg83
g3563
sg76
(lp5052
g69
(g90
g71
NtRp5053
(dp5054
g74
(dp5055
g94
g95
ssg83
g5049
sg76
(lp5056
S'session_locked'
p5057
asbag69
(g90
g71
NtRp5058
(dp5059
g74
(dp5060
g101
g102
ssg83
g5049
sg76
(lp5061
S':'
asbag69
(g90
g71
NtRp5062
(dp5063
g74
(dp5064
sg83
g5049
sg76
(lp5065
g69
(g70
g71
NtRp5066
(dp5067
g74
(dp5068
g82
I5
ssg83
g5062
sg76
(lp5069
g1726
asbasbasbag69
(g85
g71
NtRp5070
(dp5071
g74
(dp5072
sg83
g3563
sg76
(lp5073
g69
(g90
g71
NtRp5074
(dp5075
g74
(dp5076
g94
g95
ssg83
g5070
sg76
(lp5077
S'session_new'
p5078
asbag69
(g90
g71
NtRp5079
(dp5080
g74
(dp5081
g101
g102
ssg83
g5070
sg76
(lp5082
S':'
asbag69
(g90
g71
NtRp5083
(dp5084
g74
(dp5085
sg83
g5070
sg76
(lp5086
g69
(g70
g71
NtRp5087
(dp5088
g74
(dp5089
g82
I5
ssg83
g5083
sg76
(lp5090
g112
asbasbasbag69
(g85
g71
NtRp5091
(dp5092
g74
(dp5093
sg83
g3563
sg76
(lp5094
g69
(g90
g71
NtRp5095
(dp5096
g74
(dp5097
g94
g95
ssg83
g5091
sg76
(lp5098
S'status'
p5099
asbag69
(g90
g71
NtRp5100
(dp5101
g74
(dp5102
g101
g102
ssg83
g5091
sg76
(lp5103
S':'
asbag69
(g90
g71
NtRp5104
(dp5105
g74
(dp5106
sg83
g5091
sg76
(lp5107
g69
(g70
g71
NtRp5108
(dp5109
g74
(dp5110
g82
I5
ssg83
g5104
sg76
(lp5111
S'200'
p5112
asbasbasbag69
(g85
g71
NtRp5113
(dp5114
g74
(dp5115
sg83
g3563
sg76
(lp5116
g69
(g90
g71
NtRp5117
(dp5118
g74
(dp5119
g94
g95
ssg83
g5113
sg76
(lp5120
S'subtitle'
p5121
asbag69
(g90
g71
NtRp5122
(dp5123
g74
(dp5124
g101
g102
ssg83
g5113
sg76
(lp5125
S':'
asbag69
(g90
g71
NtRp5126
(dp5127
g74
(dp5128
sg83
g5113
sg76
(lp5129
g69
(g70
g71
NtRp5130
(dp5131
g74
(dp5132
g82
I5
ssg83
g5126
sg76
(lp5133
g4141
(S's\r\x00\x00\x00customize me!'
tRp5134
asbasbasbag69
(g85
g71
NtRp5135
(dp5136
g74
(dp5137
sg83
g3563
sg76
(lp5138
g69
(g90
g71
NtRp5139
(dp5140
g74
(dp5141
g94
g95
ssg83
g5135
sg76
(lp5142
S'title'
p5143
asbag69
(g90
g71
NtRp5144
(dp5145
g74
(dp5146
g101
g102
ssg83
g5135
sg76
(lp5147
S':'
asbag69
(g90
g71
NtRp5148
(dp5149
g74
(dp5150
sg83
g5135
sg76
(lp5151
g69
(g70
g71
NtRp5152
(dp5153
g74
(dp5154
g82
I5
ssg83
g5148
sg76
(lp5155
S'Funkload'
p5156
asbasbasbag69
(g85
g71
NtRp5157
(dp5158
g74
(dp5159
sg83
g3563
sg76
(lp5160
g69
(g90
g71
NtRp5161
(dp5162
g74
(dp5163
g94
g95
ssg83
g5157
sg76
(lp5164
S'view'
p5165
asbag69
(g90
g71
NtRp5166
(dp5167
g74
(dp5168
g101
g102
ssg83
g5157
sg76
(lp5169
S':'
asbag69
(g90
g71
NtRp5170
(dp5171
g74
(dp5172
sg83
g5157
sg76
(lp5173
g69
(g70
g71
NtRp5174
(dp5175
g74
(dp5176
g82
I5
ssg83
g5170
sg76
(lp5177
S'default/test.html'
p5178
asbasbasbasbasbsS'locals'
p5179
(dp5180
g4
S"'/home/mayank/Production/Final-code/web2py/applications/FunkLoad/views/default/test.html'"
p5181
sg6
S'r"response.write(\'<!DOCTYPE html>\\r\\n<!-- pauliris...ript>  \\r\\n</body>\\r\\n</html>\\r\\n\', escape=False)"'
p5182
sssS'traceback'
p5183
S'Traceback (most recent call last):\n  File "/home/mayank/Production/Final-code/web2py/gluon/restricted.py", line 208, in restricted\n    ccode = compile2(code,layer)\n  File "/home/mayank/Production/Final-code/web2py/gluon/restricted.py", line 193, in compile2\n    return compile(code.rstrip().replace(\'\\r\\n\',\'\\n\')+\'\\n\', layer, \'exec\')\n  File "/home/mayank/Production/Final-code/web2py/applications/FunkLoad/views/default/test.html", line 105\n    if details.SanityFlag==\'true\'\n                                ^\nSyntaxError: invalid syntax\n'
p5184
s.