(dp1
S'output'
p2
S"<type 'exceptions.SyntaxError'> EOL while scanning string literal (index.html, line 32)"
p3
sS'layer'
p4
S'/home/mayank/Desktop/web2pyAdmin/web2py/web2py/applications/FunkLoad/views/default/index.html'
p5
sS'code'
p6
S'response.write(\'<!DOCTYPE html>\\r\\n<!-- paulirish.com/2008/conditional-stylesheets-vs-css-hacks-answer-neither/ -->\\r\\n<!--[if lt IE 7]><html class="ie ie6 ie-lte9 ie-lte8 ie-lte7 no-js" lang="\', escape=False)\nresponse.write(T.accepted_language or \'en\')\nresponse.write(\'"> <![endif]-->\\r\\n<!--[if IE 7]><html class="ie ie7 ie-lte9 ie-lte8 ie-lte7 no-js" lang="\', escape=False)\nresponse.write(T.accepted_language or \'en\')\nresponse.write(\'"> <![endif]-->\\r\\n<!--[if IE 8]><html class="ie ie8 ie-lte9 ie-lte8 no-js" lang="\', escape=False)\nresponse.write(T.accepted_language or \'en\')\nresponse.write(\'"> <![endif]-->\\r\\n<!--[if IE 9]><html class="ie9 ie-lte9 no-js" lang="\', escape=False)\nresponse.write(T.accepted_language or \'en\')\nresponse.write(\'"> <![endif]-->\\r\\n<!--[if (gt IE 9)|!(IE)]><!--> <html class="no-js" lang="\', escape=False)\nresponse.write(T.accepted_language or \'en\')\nresponse.write(\'"> <!--<![endif]-->\\r\\n<html>\\r\\n<head>\\r\\n    <meta http-equiv="Content-Type" content="text/html; charset=utf-8">\\r\\n\\t<meta name="viewport" content="width=device-width, initial-scale=1.0">\\r\\n  \\r\\n  <!-- http://dev.w3.org/html5/markup/meta.name.html -->\\r\\n  <meta name="application-name" content="\', escape=False)\nresponse.write(request.application)\nresponse.write(\'" />\\r\\n  \\r\\n  <!-- Speaking of Google, don\\\'t forget to set your site up:\\r\\n       http://google.com/webmasters -->\\r\\n  <meta name="google-site-verification" content="" />\\r\\n  \\r\\n  <!--  Mobile Viewport Fix\\r\\n\\tj.mp/mobileviewport & davidbcalhoun.com/2010/viewport-metatag\\r\\n\\tdevice-width: Occupy full width of the screen in its current orientation\\r\\n\\tinitial-scale = 1.0 retains dimensions instead of zooming out if page height > device height\\r\\n\\tuser-scalable = yes allows the user to zoom in -->\\r\\n  <meta name="viewport" content="width=device-width, initial-scale=1.0">\\r\\n  <title>\', escape=False)\nresponse.write(response.title or request.application)\nresponse.write(\'</title>\\r\\n  <link rel="shortcut icon" href="\', escape=False)\nresponse.write(URL(\'static\',\'images/favicon.ico\'))\nresponse.write(\'" type="image/x-icon">\\r\\n  <link rel="apple-touch-icon" href="\', escape=False)\nresponse.write(URL(\'static\',\'images/favicon.png\'))\nresponse.write(\'">\\r\\n  \\r\\n  <!-- All JavaScript at the bottom, except for Modernizr which enables \\r\\n\\r\\n       HTML5 elements & feature detects -->\\r\\n  <script src="\', escape=False)\nresponse.write(URL(\'static\',\'js/modernizr.custom.js\'))\nresponse.write(\'"></script>   \\r\\n  \\r\\n  <!-- include stylesheets -->\\r\\n  \', escape=False)\nresponse.files.append(URL(\'static\',"css/bootstrap/bootstrap.css"))\nresponse.files.append(URL(\'static\',"css/bootstrap/bootstrap-responsive.css"))\nresponse.files.append(URL(\'static\',\'css/web2py.css\'))\nresponse.files.append(URL(\'static\',\'css/web2py_bootstrap.css\'))\nresponse.files.append(URL(\'static\',"css/bootstrap/bootstrap-overrides.css"))\nresponse.files.append(URL(\'static\',"css/lib/jquery-ui-1.10.2.custom.css"))\nresponse.files.append(URL(\'static\',"css/lib/font-awesome.css"))\nresponse.files.append(URL(\'static\',"css/layout.css"))\nresponse.files.append(URL(\'static\',"css/elements.css"))\nresponse.files.append(URL(\'static\',"css/icons.css"))\nresponse.files.append(URL(\'static\',css/compiled/index.css"))\nresponse.files.append(URL(\'static\',"css/css5c84.css?family=Open+Sans:300italic,400italic,600italic,700italic,800italic,400,300,600,700,800"))\nresponse.files.append(URL(\'static\',"css/cssef21.css?family=Lato:300,400,700,900,300italic,400italic,700italic,900italic"))\nresponse.write(\'\\r\\n\\r\\n  \', escape=False)\nresponse.write(\'<script type="text/javascript"><!--\\n    // These variables are used by the web2py_ajax_init function in web2py_ajax.js (which is loaded below).\\n    var w2p_ajax_confirm_message = "\', escape=False)\nresponse.write(T(\'Are you sure you want to delete this object?\'))\nresponse.write(\'";\\n    var w2p_ajax_date_format = "\', escape=False)\nresponse.write(T(\'%Y-%m-%d\'))\nresponse.write(\'";\\n    var w2p_ajax_datetime_format = "\', escape=False)\nresponse.write(T(\'%Y-%m-%d %H:%M:%S\'))\nresponse.write(\'";\\n    //--></script>\\n\', escape=False)\nresponse.files.insert(0,URL(\'static\',\'js/jquery.js\'))\nresponse.files.insert(1,URL(\'static\',\'css/calendar.css\'))\nresponse.files.insert(2,URL(\'static\',\'js/calendar.js\'))\nresponse.files.insert(3,URL(\'static\',\'js/web2py.js\'))\nresponse.include_meta()\nresponse.include_files()\nresponse.write(\'\\n\', escape=False)\nresponse.write(\'\\r\\n  \\r\\n  \', escape=False)\n# using sidebars need to know what sidebar you want to use\nleft_sidebar_enabled = globals().get(\'left_sidebar_enabled\',False)\nright_sidebar_enabled = globals().get(\'right_sidebar_enabled\',False)\nmiddle_columns = {0:\'span12\',1:\'span9\',2:\'span6\'}[\n(left_sidebar_enabled and 1 or 0)+(right_sidebar_enabled and 1 or 0)]\nresponse.write(\'\\r\\n\\r\\n  <noscript><link href="\', escape=False)\nresponse.write(URL(\'static\', \'css/web2py_bootstrap_nojs.css\'))\nresponse.write(\'" rel="stylesheet" type="text/css" /></noscript>\\r\\n  \', escape=False)\nresponse.write(\'\\r\\n  \\r\\n  <!--[if lt IE 9]>\\r\\n      <script src="http://html5shim.googlecode.com/svn/trunk/html5.js"></script>\\r\\n    <![endif]-->\\r\\n</head>\\r\\n<body>\\r\\n  <!-- navbar -->\\r\\n    <div class="navbar navbar-inverse">\\r\\n        <div class="navbar-inner">\\r\\n            <button type="button" class="btn btn-navbar visible-phone" id="menu-toggler">\\r\\n                <span class="icon-bar"></span>\\r\\n                <span class="icon-bar"></span>\\r\\n                <span class="icon-bar"></span>\\r\\n            </button>\\r\\n            \\r\\n            <a class="brand" href="index.html"><img src="img/logo.png"></a>\\r\\n\\r\\n            <ul class="nav pull-right">                \\r\\n                <li class="hidden-phone">\\r\\n                    <input class="search" type="text" />\\r\\n                </li>\\r\\n                <li class="notification-dropdown hidden-phone">\\r\\n                    <a href="#" class="trigger">\\r\\n                        <i class="icon-warning-sign"></i>\\r\\n                        <span class="count">8</span>\\r\\n                    </a>\\r\\n                    <div class="pop-dialog">\\r\\n                        <div class="pointer right">\\r\\n                            <div class="arrow"></div>\\r\\n                            <div class="arrow_border"></div>\\r\\n                        </div>\\r\\n                        <div class="body">\\r\\n                            <a href="#" class="close-icon"><i class="icon-remove-sign"></i></a>\\r\\n                            <div class="notifications">\\r\\n                                <h3>You have 6 new notifications</h3>\\r\\n                                <a href="#" class="item">\\r\\n                                    <i class="icon-signin"></i> New user registration\\r\\n                                    <span class="time"><i class="icon-time"></i> 13 min.</span>\\r\\n                                </a>\\r\\n                                <a href="#" class="item">\\r\\n                                    <i class="icon-signin"></i> New user registration\\r\\n                                    <span class="time"><i class="icon-time"></i> 18 min.</span>\\r\\n                                </a>\\r\\n                                <a href="#" class="item">\\r\\n                                    <i class="icon-envelope-alt"></i> New message from Alejandra\\r\\n                                    <span class="time"><i class="icon-time"></i> 28 min.</span>\\r\\n                                </a>\\r\\n                                <a href="#" class="item">\\r\\n                                    <i class="icon-signin"></i> New user registration\\r\\n                                    <span class="time"><i class="icon-time"></i> 49 min.</span>\\r\\n                                </a>\\r\\n                                <a href="#" class="item">\\r\\n                                    <i class="icon-download-alt"></i> New order placed\\r\\n                                    <span class="time"><i class="icon-time"></i> 1 day.</span>\\r\\n                                </a>\\r\\n                                <div class="footer">\\r\\n                                    <a href="#" class="logout">View all notifications</a>\\r\\n                                </div>\\r\\n                            </div>\\r\\n                        </div>\\r\\n                    </div>\\r\\n                </li>\\r\\n                <li class="notification-dropdown hidden-phone">\\r\\n                    <a href="#" class="trigger">\\r\\n                        <i class="icon-envelope-alt"></i>\\r\\n                    </a>\\r\\n                    <div class="pop-dialog">\\r\\n                        <div class="pointer right">\\r\\n                            <div class="arrow"></div>\\r\\n                            <div class="arrow_border"></div>\\r\\n                        </div>\\r\\n                        <div class="body">\\r\\n                            <a href="#" class="close-icon"><i class="icon-remove-sign"></i></a>\\r\\n                            <div class="messages">\\r\\n                                <a href="#" class="item">\\r\\n                                    <img src="img/contact-img.png" class="display" />\\r\\n                                    <div class="name">Alejandra Galv\\xc3\\xa1n</div>\\r\\n                                    <div class="msg">\\r\\n                                        There are many variations of available, but the majority have suffered alterations.\\r\\n                                    </div>\\r\\n                                    <span class="time"><i class="icon-time"></i> 13 min.</span>\\r\\n                                </a>\\r\\n                                <a href="#" class="item">\\r\\n                                    <img src="img/contact-img2.png" class="display" />\\r\\n                                    <div class="name">Alejandra Galv\\xc3\\xa1n</div>\\r\\n                                    <div class="msg">\\r\\n                                        There are many variations of available, have suffered alterations.\\r\\n                                    </div>\\r\\n                                    <span class="time"><i class="icon-time"></i> 26 min.</span>\\r\\n                                </a>\\r\\n                                <a href="#" class="item last">\\r\\n                                    <img src="img/contact-img.png" class="display" />\\r\\n                                    <div class="name">Alejandra Galv\\xc3\\xa1n</div>\\r\\n                                    <div class="msg">\\r\\n                                        There are many variations of available, but the majority have suffered alterations.\\r\\n                                    </div>\\r\\n                                    <span class="time"><i class="icon-time"></i> 48 min.</span>\\r\\n                                </a>\\r\\n                                <div class="footer">\\r\\n                                    <a href="#" class="logout">View all messages</a>\\r\\n                                </div>\\r\\n                            </div>\\r\\n                        </div>\\r\\n                    </div>\\r\\n                </li>\\r\\n                <li class="dropdown">\\r\\n                    <a href="#" class="dropdown-toggle hidden-phone" data-toggle="dropdown">\\r\\n                        Your account\\r\\n                        <b class="caret"></b>\\r\\n                    </a>\\r\\n                    <ul class="dropdown-menu">\\r\\n                        <li><a href="personal-info.html">Personal info</a></li>\\r\\n                        <li><a href="#">Account settings</a></li>\\r\\n                        <li><a href="#">Billing</a></li>\\r\\n                        <li><a href="#">Export your data</a></li>\\r\\n                        <li><a href="#">Send feedback</a></li>\\r\\n                    </ul>\\r\\n                </li>\\r\\n                <li class="settings hidden-phone">\\r\\n                    <a href="personal-info.html" role="button">\\r\\n                        <i class="icon-cog"></i>\\r\\n                    </a>\\r\\n                </li>\\r\\n                <li class="settings hidden-phone">\\r\\n                    <a href="signin.html" role="button">\\r\\n                        <i class="icon-share-alt"></i>\\r\\n                    </a>\\r\\n                </li>\\r\\n            </ul>            \\r\\n        </div>\\r\\n    </div>\\r\\n    <!-- end navbar -->\\r\\n\\r\\n    <!-- sidebar -->\\r\\n    <div id="sidebar-nav">\\r\\n        <ul id="dashboard-menu">\\r\\n            <li class="active">\\r\\n                <div class="pointer">\\r\\n                    <div class="arrow"></div>\\r\\n                    <div class="arrow_border"></div>\\r\\n                </div>\\r\\n                <a href="index.html">\\r\\n                    <i class="icon-home"></i>\\r\\n                    <span>Home</span>\\r\\n                </a>\\r\\n            </li>            \\r\\n            <li>\\r\\n                <a href="chart-showcase.html">\\r\\n                    <i class="icon-signal"></i>\\r\\n                    <span>Charts</span>\\r\\n                </a>\\r\\n            </li>\\r\\n            <li>\\r\\n                <a class="dropdown-toggle" href="#">\\r\\n                    <i class="icon-group"></i>\\r\\n                    <span>Users</span>\\r\\n                    <i class="icon-chevron-down"></i>\\r\\n                </a>\\r\\n                <ul class="submenu">\\r\\n                    <li><a href="user-list.html">User list</a></li>\\r\\n                    <li><a href="new-user.html">New user form</a></li>\\r\\n                    <li><a href="user-profile.html">User profile</a></li>\\r\\n                </ul>\\r\\n            </li>\\r\\n            <li>\\r\\n                <a class="dropdown-toggle" href="#">\\r\\n                    <i class="icon-edit"></i>\\r\\n                    <span>Forms</span>\\r\\n                    <i class="icon-chevron-down"></i>\\r\\n                </a>\\r\\n                <ul class="submenu">\\r\\n                    <li><a href="form-showcase.html">Form showcase</a></li>\\r\\n                    <li><a href="form-wizard.html">Form wizard</a></li>\\r\\n                </ul>\\r\\n            </li>\\r\\n            <li>\\r\\n                <a href="gallery.html">\\r\\n                    <i class="icon-picture"></i>\\r\\n                    <span>Gallery</span>\\r\\n                </a>\\r\\n            </li>\\r\\n            <li>\\r\\n                <a href="calendar.html">\\r\\n                    <i class="icon-calendar-empty"></i>\\r\\n                    <span>Calendar</span>\\r\\n                </a>\\r\\n            </li>\\r\\n            <li>\\r\\n                <a href="tables.html">\\r\\n                    <i class="icon-th-large"></i>\\r\\n                    <span>Tables</span>\\r\\n                </a>\\r\\n            </li>\\r\\n            <li>\\r\\n                <a class="dropdown-toggle ui-elements" href="#">\\r\\n                    <i class="icon-code-fork"></i>\\r\\n                    <span>UI Elements</span>\\r\\n                    <i class="icon-chevron-down"></i>\\r\\n                </a>\\r\\n                <ul class="submenu">\\r\\n                    <li><a href="ui-elements.html">UI Elements</a></li>\\r\\n                    <li><a href="icons.html">Icons</a></li>\\r\\n                </ul>\\r\\n            </li>\\r\\n            <li>\\r\\n                <a href="personal-info.html">\\r\\n                    <i class="icon-cog"></i>\\r\\n                    <span>My Info</span>\\r\\n                </a>\\r\\n            </li>\\r\\n            <li>\\r\\n                <a class="dropdown-toggle" href="#">\\r\\n                    <i class="icon-share-alt"></i>\\r\\n                    <span>Extras</span>\\r\\n                    <i class="icon-chevron-down"></i>\\r\\n                </a>\\r\\n                <ul class="submenu">\\r\\n                    <li><a href="code-editor.html">Code editor</a></li>\\r\\n                    <li><a href="grids.html">Grids</a></li>\\r\\n                    <li><a href="signin.html">Sign in</a></li>\\r\\n                    <li><a href="signup.html">Sign up</a></li>\\r\\n                </ul>\\r\\n            </li>\\r\\n        </ul>\\r\\n    </div>\\r\\n    <!-- end sidebar -->\\r\\n  \\r\\n  <div class="container">\\r\\n    <div class="flash">\', escape=False)\nresponse.write(response.flash or \'\')\nresponse.write(\'</div>\\r\\n\\r\\n    <!-- Masthead ================================================== -->\\r\\n    <header class="mastheader" id="header">\\r\\n      <div class="page-header">\\r\\n\\t<h1>\\r\\n\\t  \', escape=False)\nresponse.write(response.title or request.application)\nresponse.write(\'\\r\\n\\t  <small>\', escape=False)\nresponse.write(response.subtitle or \'\')\nresponse.write(\'</small>\\r\\n\\t</h1>\\r\\n      </div>\\r\\n    </header>\\r\\n    \\r\\n    <section id="main" class="main span12">\\r\\n      <div class="row">\\r\\n\\t\', escape=False)\nif left_sidebar_enabled:\n    response.write(\'\\r\\n\\t<div class="span3 left-sidebar">\\r\\n\\t  \', escape=False)\n    response.write(\'\\r\\n\\t  <h3>Left Sidebar</h3>\\r\\n\\t  <p></p>\\r\\n\\t  \', escape=False)\n    response.write(\'\\r\\n\\t</div>\\r\\n\\t\', escape=False)\n    pass\nresponse.write(\'\\r\\n\\t\\r\\n\\t<div class="\', escape=False)\nresponse.write(middle_columns)\nresponse.write(\'">\\r\\n\\t  \', escape=False)\nresponse.write(\'\\r\\n\\t  \', escape=False)\nresponse.write(\'\\n<body>\\n   \\n\\n\\n\\t<!-- main container -->\\n    <div class="content">\\n\\n        <div class="container-fluid">\\n\\n            <!-- upper main stats -->\\n            <div id="main-stats">\\n                <div class="row-fluid stats-row">\\n                    <div class="span3 stat">\\n                        <div class="data">\\n                            <span class="number">2457</span>\\n                            visits\\n                        </div>\\n                        <span class="date">Today</span>\\n                    </div>\\n                    <div class="span3 stat">\\n                        <div class="data">\\n                            <span class="number">3240</span>\\n                            users\\n                        </div>\\n                        <span class="date">February 2013</span>\\n                    </div>\\n                    <div class="span3 stat">\\n                        <div class="data">\\n                            <span class="number">322</span>\\n                            orders\\n                        </div>\\n                        <span class="date">This week</span>\\n                    </div>\\n                    <div class="span3 stat last">\\n                        <div class="data">\\n                            <span class="number">$2,340</span>\\n                            sales\\n                        </div>\\n                        <span class="date">last 30 days</span>\\n                    </div>\\n                </div>\\n            </div>\\n            <!-- end upper main stats -->\\n\\n            <div id="pad-wrapper">\\n\\n                <!-- statistics chart built with jQuery Flot -->\\n                <div class="row-fluid chart">\\n                    <h4>\\n                        Statistics\\n                         <div class="btn-group pull-right">\\n                            <button class="glow left">DAY</button>\\n                            <button class="glow middle active">MONTH</button>\\n                            <button class="glow right">YEAR</button>\\n                        </div>\\n                    </h4>\\n                    <div class="span12">\\n                        <div id="statsChart"></div>\\n                    </div>\\n                </div>\\n                <!-- end statistics chart -->\\n\\n                <!-- UI Elements section -->\\n                <div class="row-fluid section ui-elements">\\n                    <h4>UI Elements</h4>\\n                    <div class="span5 knobs">\\n                        <div class="knob-wrapper">\\n                            <input type="text" value="50" class="knob" data-thickness=".3" data-inputColor="#333" data-fgColor="#30a1ec" data-bgColor="#d4ecfd" data-width="150">\\n                            <div class="info">\\n                                <div class="param">\\n                                    <span class="line blue"></span>\\n                                    Active users\\n                                </div>\\n                            </div>\\n                        </div>\\n                        <div class="knob-wrapper">\\n                            <input type="text" value="75" class="knob second" data-thickness=".3" data-inputColor="#333" data-fgColor="#3d88ba" data-bgColor="#d4ecfd" data-width="150">\\n                            <div class="info">\\n                                <div class="param">\\n                                    <span class="line blue"></span>\\n                                    % disk space usage\\n                                </div>\\n                            </div>\\n                        </div>                        \\n                    </div>\\n                    <div class="span6 showcase">\\n                        <div class="ui-sliders">\\n                            <div class="slider slider-sample1 vertical-handler"></div>\\n                            <div class="slider slider-sample2"></div>\\n                            <div class="slider slider-sample3"></div>\\n                        </div>\\n                        <div class="ui-group">\\n                            <a class="btn-flat inverse">Large Button</a>\\n                            <a class="btn-flat gray">Large Button</a>\\n                            <a class="btn-flat default">Large Button</a>\\n                            <a class="btn-flat primary">Large Button</a>\\n                        </div>                        \\n\\n                        <div class="ui-group">\\n                            <a class="btn-flat icon">\\n                                <i class="tool"></i> Icon button\\n                            </a>\\n                            <a class="btn-glow small inverse">\\n                                <i class="shuffle"></i>\\n                            </a>\\n                            <a class="btn-glow small primary">\\n                                <i class="setting"></i>\\n                            </a>\\n                            <a class="btn-glow small default">\\n                                <i class="attach"></i>\\n                            </a>\\n                            <div class="ui-select">\\n                                <select>\\n                                    <option selected>Dropdown</option>\\n                                    <option>Custom selects</option>\\n                                    <option>Pure css styles</option>\\n                                </select>\\n                            </div>\\n\\n                            <div class="btn-group">\\n                                <button class="glow left">LEFT</button>\\n                                <button class="glow right">RIGHT</button>\\n                            </div>\\n                        </div>\\n                    </div>\\n                </div>\\n                <!-- end UI elements section -->\\n\\n                <!-- table sample -->\\n                <!-- the script for the toggle all checkboxes from header is located in js/theme.js -->\\n                <div class="table-products section">\\n                    <div class="row-fluid head">\\n                        <div class="span12">\\n                            <h4>Products <small>Table sample</small></h4>\\n                        </div>\\n                    </div>\\n\\n                    <div class="row-fluid filter-block">\\n                        <div class="pull-right">\\n                            <div class="ui-select">\\n                                <select>\\n                                  <option>Filter users</option>\\n                                  <option>Signed last 30 days</option>\\n                                  <option>Active users</option>\\n                                </select>\\n                            </div>\\n                            <input type="text" class="search">\\n                            <a class="btn-flat new-product">+ Add product</a>\\n                        </div>\\n                    </div>\\n\\n                    <div class="row-fluid">\\n                        <table class="table table-hover">\\n                            <thead>\\n                                <tr>\\n                                    <th class="span3">\\n                                        <input type="checkbox">\\n                                        Product\\n                                    </th>\\n                                    <th class="span3">\\n                                        <span class="line"></span>Description\\n                                    </th>\\n                                    <th class="span3">\\n                                        <span class="line"></span>Status\\n                                    </th>\\n                                </tr>\\n                            </thead>\\n                            <tbody>\\n                                <!-- row -->\\n                                <tr class="first">\\n                                    <td>\\n                                        <input type="checkbox">\\n                                        <div class="img">\\n                                            <img src="img/table-img.png">\\n                                        </div>\\n                                        <a href="#">There are many variations </a>\\n                                    </td>\\n                                    <td class="description">\\n                                        if you are going to use a passage of Lorem Ipsum.\\n                                    </td>\\n                                    <td>\\n                                        <span class="label label-success">Active</span>\\n                                        <ul class="actions">\\n                                            <li><i class="table-edit"></i></span></li>\\n                                            <li><i class="table-settings"></i></li>\\n                                            <li class="last"><i class="table-delete"></i></li>\\n                                        </ul>\\n                                    </td>\\n                                </tr>\\n                                <!-- row -->\\n                                <tr>\\n                                    <td>\\n                                        <input type="checkbox">\\n                                        <div class="img">\\n                                            <img src="img/table-img.png">\\n                                        </div>\\n                                        <a href="#">Internet tend</a>\\n                                    </td>\\n                                    <td class="description">\\n                                        There are many variations of passages.\\n                                    </td>\\n                                    <td>\\n                                        <ul class="actions">\\n                                            <li><i class="table-edit"></i></span></li>\\n                                            <li><i class="table-settings"></i></li>\\n                                            <li class="last"><i class="table-delete"></i></li>\\n                                        </ul>\\n                                    </td>\\n                                </tr>\\n                                <!-- row -->\\n                                <tr>\\n                                    <td>\\n                                        <input type="checkbox">\\n                                        <div class="img">\\n                                            <img src="img/table-img.png">\\n                                        </div>\\n                                        <a href="#">Many desktop publishing </a>\\n                                    </td>\\n                                    <td class="description">\\n                                        if you are going to use a passage of Lorem Ipsum.\\n                                    </td>\\n                                    <td>\\n                                        <ul class="actions">\\n                                            <li><i class="table-edit"></i></span></li>\\n                                            <li><i class="table-settings"></i></li>\\n                                            <li class="last"><i class="table-delete"></i></li>\\n                                        </ul>\\n                                    </td>\\n                                </tr>\\n                                <!-- row -->\\n                                <tr>\\n                                    <td>\\n                                        <input type="checkbox">\\n                                        <div class="img">\\n                                            <img src="img/table-img.png">\\n                                        </div>\\n                                        <a href="#">Generate Lorem </a>\\n                                    </td>\\n                                    <td class="description">\\n                                        There are many variations of passages.\\n                                    </td>\\n                                    <td>\\n                                        <span class="label label-info">Standby</span>\\n                                        <ul class="actions">\\n                                            <li><i class="table-edit"></i></span></li>\\n                                            <li><i class="table-settings"></i></li>\\n                                            <li class="last"><i class="table-delete"></i></li>\\n                                        </ul>\\n                                    </td>\\n                                </tr>\\n                                <!-- row -->\\n                                <tr>\\n                                    <td>\\n                                        <input type="checkbox">\\n                                        <div class="img">\\n                                            <img src="img/table-img.png">\\n                                        </div>\\n                                        <a href="#">Internet tend</a>\\n                                    </td>\\n                                    <td class="description">\\n                                        There are many variations of passages.\\n                                    </td>\\n                                    <td>                                        \\n                                        <ul class="actions">\\n                                            <li><i class="table-edit"></i></span></li>\\n                                            <li><i class="table-settings"></i></li>\\n                                            <li class="last"><i class="table-delete"></i></li>\\n                                        </ul>\\n                                    </td>\\n                                </tr>\\n                            </tbody>\\n                        </table>\\n                    </div>\\n                    <div class="pagination">\\n                      <ul>\\n                        <li><a href="#">&#8249;</a></li>\\n                        <li><a class="active" href="#">1</a></li>\\n                        <li><a href="#">2</a></li>\\n                        <li><a href="#">3</a></li>\\n                        <li><a href="#">4</a></li>\\n                        <li><a href="#">&#8250;</a></li>\\n                      </ul>\\n                    </div>\\n                </div>\\n                <!-- end table sample -->\\n            </div>\\n        </div>\\n    </div>\\n\\n\\n\\n</body>\\n\\n<!-- Mirrored from detail.herokuapp.com/index.html by HTTrack Website Copier/3.x [XR&CO\\\'2008], Wed, 10 Jul 2013 20:51:54 GMT -->\\n</html>\\n\', escape=False)\nresponse.write(\'\\r\\n\\t  \', escape=False)\nresponse.write(\'\\r\\n\\t</div>\\r\\n\\t\\r\\n\\t\', escape=False)\nif right_sidebar_enabled:\n    response.write(\'\\r\\n\\t<div class="span3">\\r\\n\\t  \', escape=False)\n    response.write(\'\\r\\n\\t  <h3>Right Sidebar</h3>\\r\\n\\t  <p></p>\\r\\n\\t  \', escape=False)\n    response.write(\'\\r\\n\\t</div>    \\r\\n\\t\', escape=False)\n    pass\nresponse.write(\'\\r\\n      </div><!--/row-->\\r\\n    </section><!--/main-->\\r\\n    \\r\\n    <!-- Footer ================================================== -->\\r\\n    <footer class="footer" id="footer">\\r\\n      \', escape=False)\nresponse.write(\' <!-- this is default footer -->\\r\\n      <div class="footer-content">\\r\\n\\t<div class="copyright pull-left">\', escape=False)\nresponse.write(T(\'Copyright\'))\nresponse.write(\' &#169; \', escape=False)\nresponse.write(request.now.year)\nresponse.write(\'</div>\\r\\n\\t<div id="poweredBy" class="pull-right">\\r\\n\\t  \', escape=False)\nresponse.write(T(\'Powered by\'))\nresponse.write(\'\\r\\n\\t  <a href="http://www.web2py.com/">web2py</a>\\r\\n\\t</div>\\r\\n      </div>\\r\\n      \', escape=False)\nresponse.write(\'\\r\\n    </footer>\\r\\n    \\r\\n  </div> <!-- /container -->\\r\\n\\r\\n\\r\\n\\r\\n    <script src="\', escape=False)\nresponse.write(URL(\'static\',\'js/jquery-latest.js\'))\nresponse.write(\'"></script>\\r\\n    <script src="\', escape=False)\nresponse.write(URL(\'static\',\'js/bootstrap.min.js\'))\nresponse.write(\'"></script>\\r\\n    <script src="\', escape=False)\nresponse.write(URL(\'static\',\'js/jquery-ui-1.10.2.custom.min.js\'))\nresponse.write(\'"></script>\\r\\n    <!-- knob -->\\r\\n    <script src="\', escape=False)\nresponse.write(URL(\'static\',\'js/jquery.knob.js\'))\nresponse.write(\'"></script>\\r\\n    <!-- flot charts -->\\r\\n    <script src="\', escape=False)\nresponse.write(URL(\'static\',\'js/jquery.flot.js\'))\nresponse.write(\'"></script>\\r\\n    <script src="\', escape=False)\nresponse.write(URL(\'static\',\'js/jquery.flot.stack.js\'))\nresponse.write(\'"></script>\\r\\n    <script src="\', escape=False)\nresponse.write(URL(\'static\',\'js/jquery.flot.resize.js\'))\nresponse.write(\'"></script>\\r\\n    <script src="\', escape=False)\nresponse.write(URL(\'static\',\'js/theme.js\'))\nresponse.write(\'"></script>\\r\\n\\r\\n    <script type="text/javascript">\\r\\n        $(function () {\\r\\n\\r\\n            // jQuery Knobs\\r\\n            $(".knob").knob();\\r\\n\\r\\n\\r\\n\\r\\n            // jQuery UI Sliders\\r\\n            $(".slider-sample1").slider({\\r\\n                value: 100,\\r\\n                min: 1,\\r\\n                max: 500\\r\\n            });\\r\\n            $(".slider-sample2").slider({\\r\\n                range: "min",\\r\\n                value: 130,\\r\\n                min: 1,\\r\\n                max: 500\\r\\n            });\\r\\n            $(".slider-sample3").slider({\\r\\n                range: true,\\r\\n                min: 0,\\r\\n                max: 500,\\r\\n                values: [ 40, 170 ],\\r\\n            });\\r\\n\\r\\n            \\r\\n\\r\\n            // jQuery Flot Chart\\r\\n            var visits = [[1, 50], [2, 40], [3, 45], [4, 23],[5, 55],[6, 65],[7, 61],[8, 70],[9, 65],[10, 75],[11, 57],[12, 59]];\\r\\n            var visitors = [[1, 25], [2, 50], [3, 23], [4, 48],[5, 38],[6, 40],[7, 47],[8, 55],[9, 43],[10,50],[11,47],[12, 39]];\\r\\n\\r\\n            var plot = $.plot($("#statsChart"),\\r\\n                [ { data: visits, label: "Signups"},\\r\\n                 { data: visitors, label: "Visits" }], {\\r\\n                    series: {\\r\\n                        lines: { show: true,\\r\\n                                lineWidth: 1,\\r\\n                                fill: true, \\r\\n                                fillColor: { colors: [ { opacity: 0.1 }, { opacity: 0.13 } ] }\\r\\n                             },\\r\\n                        points: { show: true, \\r\\n                                 lineWidth: 2,\\r\\n                                 radius: 3\\r\\n                             },\\r\\n                        shadowSize: 0,\\r\\n                        stack: true\\r\\n                    },\\r\\n                    grid: { hoverable: true, \\r\\n                           clickable: true, \\r\\n                           tickColor: "#f9f9f9",\\r\\n                           borderWidth: 0\\r\\n                        },\\r\\n                    legend: {\\r\\n                            // show: false\\r\\n                            labelBoxBorderColor: "#fff"\\r\\n                        },  \\r\\n                    colors: ["#a7b5c5", "#30a0eb"],\\r\\n                    xaxis: {\\r\\n                        ticks: [[1, "JAN"], [2, "FEB"], [3, "MAR"], [4,"APR"], [5,"MAY"], [6,"JUN"], \\r\\n                               [7,"JUL"], [8,"AUG"], [9,"SEP"], [10,"OCT"], [11,"NOV"], [12,"DEC"]],\\r\\n                        font: {\\r\\n                            size: 12,\\r\\n                            family: "Open Sans, Arial",\\r\\n                            variant: "small-caps",\\r\\n                            color: "#697695"\\r\\n                        }\\r\\n                    },\\r\\n                    yaxis: {\\r\\n                        ticks:3, \\r\\n                        tickDecimals: 0,\\r\\n                        font: {size:12, color: "#9da3a9"}\\r\\n                    }\\r\\n                 });\\r\\n\\r\\n            function showTooltip(x, y, contents) {\\r\\n                $(\\\'<div id="tooltip">\\\' + contents + \\\'</div>\\\').css( {\\r\\n                    position: \\\'absolute\\\',\\r\\n                    display: \\\'none\\\',\\r\\n                    top: y - 30,\\r\\n                    left: x - 50,\\r\\n                    color: "#fff",\\r\\n                    padding: \\\'2px 5px\\\',\\r\\n                    \\\'border-radius\\\': \\\'6px\\\',\\r\\n                    \\\'background-color\\\': \\\'#000\\\',\\r\\n                    opacity: 0.80\\r\\n                }).appendTo("body").fadeIn(200);\\r\\n            }\\r\\n\\r\\n            var previousPoint = null;\\r\\n            $("#statsChart").bind("plothover", function (event, pos, item) {\\r\\n                if (item) {\\r\\n                    if (previousPoint != item.dataIndex) {\\r\\n                        previousPoint = item.dataIndex;\\r\\n\\r\\n                        $("#tooltip").remove();\\r\\n                        var x = item.datapoint[0].toFixed(0),\\r\\n                            y = item.datapoint[1].toFixed(0);\\r\\n\\r\\n                        var month = item.series.xaxis.ticks[item.dataIndex].label;\\r\\n\\r\\n                        showTooltip(item.pageX, item.pageY,\\r\\n                                    item.series.label + " of " + month + ": " + y);\\r\\n                    }\\r\\n                }\\r\\n                else {\\r\\n                    $("#tooltip").remove();\\r\\n                    previousPoint = null;\\r\\n                }\\r\\n            });\\r\\n        });\\r\\n    </script>\\r\\n  <!--[if lt IE 7 ]>\\r\\n      <script src="\', escape=False)\nresponse.write(URL(\'static\',\'js/dd_belatedpng.js\'))\nresponse.write(\'"></script>\\r\\n      <script> DD_belatedPNG.fix(\\\'img, .png_bg\\\'); //fix any <img> or .png_bg background-images </script>\\r\\n      <![endif]-->\\r\\n  \', escape=False)\nif response.google_analytics_id:\n    response.write(\'<script type="text/javascript"> var _gaq = _gaq || []; _gaq.push([\\\'_setAccount\\\', \\\'\', escape=False)\n    response.write(response.google_analytics_id)\n    response.write("\']); _gaq.push([\'_trackPageview\']); (function() { var ga = document.createElement(\'script\'); ga.type = \'text/javascript\'; ga.async = true; ga.src = (\'https:\' == document.location.protocol ? \'https://ssl\' : \'http://www\') + \'.google-analytics.com/ga.js\'; var s = document.getElementsByTagName(\'script\')[0]; s.parentNode.insertBefore(ga, s); })(); </script> ", escape=False)\n    pass\nresponse.write(\'\\r\\n  <script src="\', escape=False)\nresponse.write(URL(\'static\',\'js/share.js\',vars=dict(static=URL(\'static\',\'images\'))))\nresponse.write(\'"></script>  \\r\\n</body>\\r\\n</html>\\r\\n\', escape=False)'
p7
sS'snapshot'
p8
(dp9
S'exception'
p10
(dp11
S'__getslice__'
p12
S"<method-wrapper '__getslice__' of exceptions.SyntaxError object>"
p13
sS'text'
p14
S'\'response.files.append(URL(\\\'static\\\',css/compiled/index.css"))\\n\''
p15
sS'__str__'
p16
S"<method-wrapper '__str__' of exceptions.SyntaxError object>"
p17
sS'__reduce__'
p18
S'<built-in method __reduce__ of exceptions.SyntaxError object>'
p19
sS'__dict__'
p20
S'{}'
p21
sS'__sizeof__'
p22
S'<built-in method __sizeof__ of exceptions.SyntaxError object>'
p23
sS'__init__'
p24
S"<method-wrapper '__init__' of exceptions.SyntaxError object>"
p25
sS'__setattr__'
p26
S"<method-wrapper '__setattr__' of exceptions.SyntaxError object>"
p27
sS'__reduce_ex__'
p28
S'<built-in method __reduce_ex__ of exceptions.SyntaxError object>'
p29
sS'__new__'
p30
S'<built-in method __new__ of type object>'
p31
sS'__format__'
p32
S'<built-in method __format__ of exceptions.SyntaxError object>'
p33
sS'__class__'
p34
S"<type 'exceptions.SyntaxError'>"
p35
sS'filename'
p36
S"'/home/mayank/Desktop/web2pyAdmin/web2py/web2py/applications/FunkLoad/views/default/index.html'"
p37
sS'lineno'
p38
S'32'
p39
sS'msg'
p40
S"'EOL while scanning string literal'"
p41
sS'__doc__'
p42
S"'Invalid syntax.'"
p43
sS'__getitem__'
p44
S"<method-wrapper '__getitem__' of exceptions.SyntaxError object>"
p45
sS'__setstate__'
p46
S'<built-in method __setstate__ of exceptions.SyntaxError object>'
p47
sS'__getattribute__'
p48
S"<method-wrapper '__getattribute__' of exceptions.SyntaxError object>"
p49
sS'print_file_and_line'
p50
S'None'
p51
sS'args'
p52
S'(\'EOL while scanning string literal\', (\'/home/mayank/Desktop/web2pyAdmin/web2py/web2py/applications/FunkLoad/views/default/index.html\', 32, 60, \'response.files.append(URL(\\\'static\\\',css/compiled/index.css"))\\n\'))'
p53
sS'__subclasshook__'
p54
S'<built-in method __subclasshook__ of type object>'
p55
sS'offset'
p56
S'60'
p57
sS'__unicode__'
p58
S'<built-in method __unicode__ of exceptions.SyntaxError object>'
p59
sS'__delattr__'
p60
S"<method-wrapper '__delattr__' of exceptions.SyntaxError object>"
p61
sS'__repr__'
p62
S"<method-wrapper '__repr__' of exceptions.SyntaxError object>"
p63
sS'__hash__'
p64
S"<method-wrapper '__hash__' of exceptions.SyntaxError object>"
p65
ssS'evalue'
p66
S'EOL while scanning string literal (index.html, line 32)'
p67
sS'request'
p68
ccopy_reg
_reconstructor
p69
(cgluon.html
BEAUTIFY
p70
c__builtin__
object
p71
NtRp72
(dp73
S'attributes'
p74
(dp75
sS'components'
p76
(lp77
g69
(cgluon.html
TABLE
p78
g71
NtRp79
(dp80
g74
(dp81
S'level'
p82
I5
ssS'parent'
p83
Nsg76
(lp84
g69
(cgluon.html
TR
p85
g71
NtRp86
(dp87
g74
(dp88
sg83
g79
sg76
(lp89
g69
(cgluon.html
TD
p90
g71
NtRp91
(dp92
g74
(dp93
S'_style'
p94
S'font-weight:bold;vertical-align:top'
p95
ssg83
g86
sg76
(lp96
S'ajax'
p97
asbag69
(g90
g71
NtRp98
(dp99
g74
(dp100
S'_valign'
p101
S'top'
p102
ssg83
g86
sg76
(lp103
S':'
asbag69
(g90
g71
NtRp104
(dp105
g74
(dp106
sg83
g86
sg76
(lp107
g69
(g70
g71
NtRp108
(dp109
g74
(dp110
g82
I5
ssg83
g104
sg76
(lp111
S'False'
p112
asbasbasbag69
(g85
g71
NtRp113
(dp114
g74
(dp115
sg83
g79
sg76
(lp116
g69
(g90
g71
NtRp117
(dp118
g74
(dp119
g94
g95
ssg83
g113
sg76
(lp120
S'application'
p121
asbag69
(g90
g71
NtRp122
(dp123
g74
(dp124
g101
g102
ssg83
g113
sg76
(lp125
S':'
asbag69
(g90
g71
NtRp126
(dp127
g74
(dp128
sg83
g113
sg76
(lp129
g69
(g70
g71
NtRp130
(dp131
g74
(dp132
g82
I5
ssg83
g126
sg76
(lp133
S'FunkLoad'
p134
asbasbasbag69
(g85
g71
NtRp135
(dp136
g74
(dp137
sg83
g79
sg76
(lp138
g69
(g90
g71
NtRp139
(dp140
g74
(dp141
g94
g95
ssg83
g135
sg76
(lp142
g52
asbag69
(g90
g71
NtRp143
(dp144
g74
(dp145
g101
g102
ssg83
g135
sg76
(lp146
S':'
asbag69
(g90
g71
NtRp147
(dp148
g74
(dp149
sg83
g135
sg76
(lp150
g69
(g70
g71
NtRp151
(dp152
g74
(dp153
g82
I5
ssg83
g147
sg76
(lp154
g69
(g78
g71
NtRp155
(dp156
g74
(dp157
g82
I4
ssg83
Nsg76
(lp158
sbasbasbasbag69
(g85
g71
NtRp159
(dp160
g74
(dp161
sg83
g79
sg76
(lp162
g69
(g90
g71
NtRp163
(dp164
g74
(dp165
g94
g95
ssg83
g159
sg76
(lp166
S'body'
p167
asbag69
(g90
g71
NtRp168
(dp169
g74
(dp170
g101
g102
ssg83
g159
sg76
(lp171
S':'
asbag69
(g90
g71
NtRp172
(dp173
g74
(dp174
sg83
g159
sg76
(lp175
g69
(g70
g71
NtRp176
(dp177
g74
(dp178
g82
I5
ssg83
g172
sg76
(lp179
S'<cStringIO.StringO object at 0x7f275855ab20>'
p180
asbasbasbag69
(g85
g71
NtRp181
(dp182
g74
(dp183
sg83
g79
sg76
(lp184
g69
(g90
g71
NtRp185
(dp186
g74
(dp187
g94
g95
ssg83
g181
sg76
(lp188
S'cid'
p189
asbag69
(g90
g71
NtRp190
(dp191
g74
(dp192
g101
g102
ssg83
g181
sg76
(lp193
S':'
asbag69
(g90
g71
NtRp194
(dp195
g74
(dp196
sg83
g181
sg76
(lp197
g69
(g70
g71
NtRp198
(dp199
g74
(dp200
g82
I5
ssg83
g194
sg76
(lp201
S'None'
p202
asbasbasbag69
(g85
g71
NtRp203
(dp204
g74
(dp205
sg83
g79
sg76
(lp206
g69
(g90
g71
NtRp207
(dp208
g74
(dp209
g94
g95
ssg83
g203
sg76
(lp210
S'client'
p211
asbag69
(g90
g71
NtRp212
(dp213
g74
(dp214
g101
g102
ssg83
g203
sg76
(lp215
S':'
asbag69
(g90
g71
NtRp216
(dp217
g74
(dp218
sg83
g203
sg76
(lp219
g69
(g70
g71
NtRp220
(dp221
g74
(dp222
g82
I5
ssg83
g216
sg76
(lp223
S'127.0.0.1'
p224
asbasbasbag69
(g85
g71
NtRp225
(dp226
g74
(dp227
sg83
g79
sg76
(lp228
g69
(g90
g71
NtRp229
(dp230
g74
(dp231
g94
g95
ssg83
g225
sg76
(lp232
S'controller'
p233
asbag69
(g90
g71
NtRp234
(dp235
g74
(dp236
g101
g102
ssg83
g225
sg76
(lp237
S':'
asbag69
(g90
g71
NtRp238
(dp239
g74
(dp240
sg83
g225
sg76
(lp241
g69
(g70
g71
NtRp242
(dp243
g74
(dp244
g82
I5
ssg83
g238
sg76
(lp245
S'default'
p246
asbasbasbag69
(g85
g71
NtRp247
(dp248
g74
(dp249
sg83
g79
sg76
(lp250
g69
(g90
g71
NtRp251
(dp252
g74
(dp253
g94
g95
ssg83
g247
sg76
(lp254
S'cookies'
p255
asbag69
(g90
g71
NtRp256
(dp257
g74
(dp258
g101
g102
ssg83
g247
sg76
(lp259
S':'
asbag69
(g90
g71
NtRp260
(dp261
g74
(dp262
sg83
g247
sg76
(lp263
g69
(g70
g71
NtRp264
(dp265
g74
(dp266
g82
I5
ssg83
g260
sg76
(lp267
g69
(g78
g71
NtRp268
(dp269
g74
(dp270
g82
I4
ssg83
Nsg76
(lp271
g69
(g85
g71
NtRp272
(dp273
g74
(dp274
sg83
g268
sg76
(lp275
g69
(g90
g71
NtRp276
(dp277
g74
(dp278
g94
g95
ssg83
g272
sg76
(lp279
S'session_id_201101004'
p280
asbag69
(g90
g71
NtRp281
(dp282
g74
(dp283
g101
g102
ssg83
g272
sg76
(lp284
S':'
asbag69
(g90
g71
NtRp285
(dp286
g74
(dp287
sg83
g272
sg76
(lp288
g69
(g70
g71
NtRp289
(dp290
g74
(dp291
g82
I4
ssg83
g285
sg76
(lp292
S'127.0.0.1-37104b76-a05f-4c4f-b3d3-8fec1b91826f'
p293
ag69
(g78
g71
NtRp294
(dp295
g74
(dp296
g82
I3
ssg83
Nsg76
(lp297
g69
(g85
g71
NtRp298
(dp299
g74
(dp300
sg83
g294
sg76
(lp301
g69
(g90
g71
NtRp302
(dp303
g74
(dp304
g94
g95
ssg83
g298
sg76
(lp305
S'comment'
p306
asbag69
(g90
g71
NtRp307
(dp308
g74
(dp309
g101
g102
ssg83
g298
sg76
(lp310
S':'
asbag69
(g90
g71
NtRp311
(dp312
g74
(dp313
sg83
g298
sg76
(lp314
g69
(g70
g71
NtRp315
(dp316
g74
(dp317
g82
I3
ssg83
g311
sg76
(lp318
S''
asbasbasbag69
(g85
g71
NtRp319
(dp320
g74
(dp321
sg83
g294
sg76
(lp322
g69
(g90
g71
NtRp323
(dp324
g74
(dp325
g94
g95
ssg83
g319
sg76
(lp326
S'domain'
p327
asbag69
(g90
g71
NtRp328
(dp329
g74
(dp330
g101
g102
ssg83
g319
sg76
(lp331
S':'
asbag69
(g90
g71
NtRp332
(dp333
g74
(dp334
sg83
g319
sg76
(lp335
g69
(g70
g71
NtRp336
(dp337
g74
(dp338
g82
I3
ssg83
g332
sg76
(lp339
S''
asbasbasbag69
(g85
g71
NtRp340
(dp341
g74
(dp342
sg83
g294
sg76
(lp343
g69
(g90
g71
NtRp344
(dp345
g74
(dp346
g94
g95
ssg83
g340
sg76
(lp347
S'expires'
p348
asbag69
(g90
g71
NtRp349
(dp350
g74
(dp351
g101
g102
ssg83
g340
sg76
(lp352
S':'
asbag69
(g90
g71
NtRp353
(dp354
g74
(dp355
sg83
g340
sg76
(lp356
g69
(g70
g71
NtRp357
(dp358
g74
(dp359
g82
I3
ssg83
g353
sg76
(lp360
S''
asbasbasbag69
(g85
g71
NtRp361
(dp362
g74
(dp363
sg83
g294
sg76
(lp364
g69
(g90
g71
NtRp365
(dp366
g74
(dp367
g94
g95
ssg83
g361
sg76
(lp368
S'httponly'
p369
asbag69
(g90
g71
NtRp370
(dp371
g74
(dp372
g101
g102
ssg83
g361
sg76
(lp373
S':'
asbag69
(g90
g71
NtRp374
(dp375
g74
(dp376
sg83
g361
sg76
(lp377
g69
(g70
g71
NtRp378
(dp379
g74
(dp380
g82
I3
ssg83
g374
sg76
(lp381
S''
asbasbasbag69
(g85
g71
NtRp382
(dp383
g74
(dp384
sg83
g294
sg76
(lp385
g69
(g90
g71
NtRp386
(dp387
g74
(dp388
g94
g95
ssg83
g382
sg76
(lp389
S'max-age'
p390
asbag69
(g90
g71
NtRp391
(dp392
g74
(dp393
g101
g102
ssg83
g382
sg76
(lp394
S':'
asbag69
(g90
g71
NtRp395
(dp396
g74
(dp397
sg83
g382
sg76
(lp398
g69
(g70
g71
NtRp399
(dp400
g74
(dp401
g82
I3
ssg83
g395
sg76
(lp402
S''
asbasbasbag69
(g85
g71
NtRp403
(dp404
g74
(dp405
sg83
g294
sg76
(lp406
g69
(g90
g71
NtRp407
(dp408
g74
(dp409
g94
g95
ssg83
g403
sg76
(lp410
S'path'
p411
asbag69
(g90
g71
NtRp412
(dp413
g74
(dp414
g101
g102
ssg83
g403
sg76
(lp415
S':'
asbag69
(g90
g71
NtRp416
(dp417
g74
(dp418
sg83
g403
sg76
(lp419
g69
(g70
g71
NtRp420
(dp421
g74
(dp422
g82
I3
ssg83
g416
sg76
(lp423
S''
asbasbasbag69
(g85
g71
NtRp424
(dp425
g74
(dp426
sg83
g294
sg76
(lp427
g69
(g90
g71
NtRp428
(dp429
g74
(dp430
g94
g95
ssg83
g424
sg76
(lp431
S'secure'
p432
asbag69
(g90
g71
NtRp433
(dp434
g74
(dp435
g101
g102
ssg83
g424
sg76
(lp436
S':'
asbag69
(g90
g71
NtRp437
(dp438
g74
(dp439
sg83
g424
sg76
(lp440
g69
(g70
g71
NtRp441
(dp442
g74
(dp443
g82
I3
ssg83
g437
sg76
(lp444
S''
asbasbasbag69
(g85
g71
NtRp445
(dp446
g74
(dp447
sg83
g294
sg76
(lp448
g69
(g90
g71
NtRp449
(dp450
g74
(dp451
g94
g95
ssg83
g445
sg76
(lp452
S'version'
p453
asbag69
(g90
g71
NtRp454
(dp455
g74
(dp456
g101
g102
ssg83
g445
sg76
(lp457
S':'
asbag69
(g90
g71
NtRp458
(dp459
g74
(dp460
sg83
g445
sg76
(lp461
g69
(g70
g71
NtRp462
(dp463
g74
(dp464
g82
I3
ssg83
g458
sg76
(lp465
S''
asbasbasbasbasbasbasbag69
(g85
g71
NtRp466
(dp467
g74
(dp468
sg83
g268
sg76
(lp469
g69
(g90
g71
NtRp470
(dp471
g74
(dp472
g94
g95
ssg83
g466
sg76
(lp473
S'session_id_201125035'
p474
asbag69
(g90
g71
NtRp475
(dp476
g74
(dp477
g101
g102
ssg83
g466
sg76
(lp478
S':'
asbag69
(g90
g71
NtRp479
(dp480
g74
(dp481
sg83
g466
sg76
(lp482
g69
(g70
g71
NtRp483
(dp484
g74
(dp485
g82
I4
ssg83
g479
sg76
(lp486
S'127.0.0.1-36c9dda9-18cd-4798-bb80-7958e8854f14'
p487
ag69
(g78
g71
NtRp488
(dp489
g74
(dp490
g82
I3
ssg83
Nsg76
(lp491
g69
(g85
g71
NtRp492
(dp493
g74
(dp494
sg83
g488
sg76
(lp495
g69
(g90
g71
NtRp496
(dp497
g74
(dp498
g94
g95
ssg83
g492
sg76
(lp499
g306
asbag69
(g90
g71
NtRp500
(dp501
g74
(dp502
g101
g102
ssg83
g492
sg76
(lp503
S':'
asbag69
(g90
g71
NtRp504
(dp505
g74
(dp506
sg83
g492
sg76
(lp507
g69
(g70
g71
NtRp508
(dp509
g74
(dp510
g82
I3
ssg83
g504
sg76
(lp511
S''
asbasbasbag69
(g85
g71
NtRp512
(dp513
g74
(dp514
sg83
g488
sg76
(lp515
g69
(g90
g71
NtRp516
(dp517
g74
(dp518
g94
g95
ssg83
g512
sg76
(lp519
g327
asbag69
(g90
g71
NtRp520
(dp521
g74
(dp522
g101
g102
ssg83
g512
sg76
(lp523
S':'
asbag69
(g90
g71
NtRp524
(dp525
g74
(dp526
sg83
g512
sg76
(lp527
g69
(g70
g71
NtRp528
(dp529
g74
(dp530
g82
I3
ssg83
g524
sg76
(lp531
S''
asbasbasbag69
(g85
g71
NtRp532
(dp533
g74
(dp534
sg83
g488
sg76
(lp535
g69
(g90
g71
NtRp536
(dp537
g74
(dp538
g94
g95
ssg83
g532
sg76
(lp539
g348
asbag69
(g90
g71
NtRp540
(dp541
g74
(dp542
g101
g102
ssg83
g532
sg76
(lp543
S':'
asbag69
(g90
g71
NtRp544
(dp545
g74
(dp546
sg83
g532
sg76
(lp547
g69
(g70
g71
NtRp548
(dp549
g74
(dp550
g82
I3
ssg83
g544
sg76
(lp551
S''
asbasbasbag69
(g85
g71
NtRp552
(dp553
g74
(dp554
sg83
g488
sg76
(lp555
g69
(g90
g71
NtRp556
(dp557
g74
(dp558
g94
g95
ssg83
g552
sg76
(lp559
g369
asbag69
(g90
g71
NtRp560
(dp561
g74
(dp562
g101
g102
ssg83
g552
sg76
(lp563
S':'
asbag69
(g90
g71
NtRp564
(dp565
g74
(dp566
sg83
g552
sg76
(lp567
g69
(g70
g71
NtRp568
(dp569
g74
(dp570
g82
I3
ssg83
g564
sg76
(lp571
S''
asbasbasbag69
(g85
g71
NtRp572
(dp573
g74
(dp574
sg83
g488
sg76
(lp575
g69
(g90
g71
NtRp576
(dp577
g74
(dp578
g94
g95
ssg83
g572
sg76
(lp579
g390
asbag69
(g90
g71
NtRp580
(dp581
g74
(dp582
g101
g102
ssg83
g572
sg76
(lp583
S':'
asbag69
(g90
g71
NtRp584
(dp585
g74
(dp586
sg83
g572
sg76
(lp587
g69
(g70
g71
NtRp588
(dp589
g74
(dp590
g82
I3
ssg83
g584
sg76
(lp591
S''
asbasbasbag69
(g85
g71
NtRp592
(dp593
g74
(dp594
sg83
g488
sg76
(lp595
g69
(g90
g71
NtRp596
(dp597
g74
(dp598
g94
g95
ssg83
g592
sg76
(lp599
g411
asbag69
(g90
g71
NtRp600
(dp601
g74
(dp602
g101
g102
ssg83
g592
sg76
(lp603
S':'
asbag69
(g90
g71
NtRp604
(dp605
g74
(dp606
sg83
g592
sg76
(lp607
g69
(g70
g71
NtRp608
(dp609
g74
(dp610
g82
I3
ssg83
g604
sg76
(lp611
S''
asbasbasbag69
(g85
g71
NtRp612
(dp613
g74
(dp614
sg83
g488
sg76
(lp615
g69
(g90
g71
NtRp616
(dp617
g74
(dp618
g94
g95
ssg83
g612
sg76
(lp619
g432
asbag69
(g90
g71
NtRp620
(dp621
g74
(dp622
g101
g102
ssg83
g612
sg76
(lp623
S':'
asbag69
(g90
g71
NtRp624
(dp625
g74
(dp626
sg83
g612
sg76
(lp627
g69
(g70
g71
NtRp628
(dp629
g74
(dp630
g82
I3
ssg83
g624
sg76
(lp631
S''
asbasbasbag69
(g85
g71
NtRp632
(dp633
g74
(dp634
sg83
g488
sg76
(lp635
g69
(g90
g71
NtRp636
(dp637
g74
(dp638
g94
g95
ssg83
g632
sg76
(lp639
g453
asbag69
(g90
g71
NtRp640
(dp641
g74
(dp642
g101
g102
ssg83
g632
sg76
(lp643
S':'
asbag69
(g90
g71
NtRp644
(dp645
g74
(dp646
sg83
g632
sg76
(lp647
g69
(g70
g71
NtRp648
(dp649
g74
(dp650
g82
I3
ssg83
g644
sg76
(lp651
S''
asbasbasbasbasbasbasbag69
(g85
g71
NtRp652
(dp653
g74
(dp654
sg83
g268
sg76
(lp655
g69
(g90
g71
NtRp656
(dp657
g74
(dp658
g94
g95
ssg83
g652
sg76
(lp659
S'session_id_admin'
p660
asbag69
(g90
g71
NtRp661
(dp662
g74
(dp663
g101
g102
ssg83
g652
sg76
(lp664
S':'
asbag69
(g90
g71
NtRp665
(dp666
g74
(dp667
sg83
g652
sg76
(lp668
g69
(g70
g71
NtRp669
(dp670
g74
(dp671
g82
I4
ssg83
g665
sg76
(lp672
S'127.0.0.1-b03da5bd-920e-41b1-8f3a-a02aae2edb6f'
p673
ag69
(g78
g71
NtRp674
(dp675
g74
(dp676
g82
I3
ssg83
Nsg76
(lp677
g69
(g85
g71
NtRp678
(dp679
g74
(dp680
sg83
g674
sg76
(lp681
g69
(g90
g71
NtRp682
(dp683
g74
(dp684
g94
g95
ssg83
g678
sg76
(lp685
g306
asbag69
(g90
g71
NtRp686
(dp687
g74
(dp688
g101
g102
ssg83
g678
sg76
(lp689
S':'
asbag69
(g90
g71
NtRp690
(dp691
g74
(dp692
sg83
g678
sg76
(lp693
g69
(g70
g71
NtRp694
(dp695
g74
(dp696
g82
I3
ssg83
g690
sg76
(lp697
S''
asbasbasbag69
(g85
g71
NtRp698
(dp699
g74
(dp700
sg83
g674
sg76
(lp701
g69
(g90
g71
NtRp702
(dp703
g74
(dp704
g94
g95
ssg83
g698
sg76
(lp705
g327
asbag69
(g90
g71
NtRp706
(dp707
g74
(dp708
g101
g102
ssg83
g698
sg76
(lp709
S':'
asbag69
(g90
g71
NtRp710
(dp711
g74
(dp712
sg83
g698
sg76
(lp713
g69
(g70
g71
NtRp714
(dp715
g74
(dp716
g82
I3
ssg83
g710
sg76
(lp717
S''
asbasbasbag69
(g85
g71
NtRp718
(dp719
g74
(dp720
sg83
g674
sg76
(lp721
g69
(g90
g71
NtRp722
(dp723
g74
(dp724
g94
g95
ssg83
g718
sg76
(lp725
g348
asbag69
(g90
g71
NtRp726
(dp727
g74
(dp728
g101
g102
ssg83
g718
sg76
(lp729
S':'
asbag69
(g90
g71
NtRp730
(dp731
g74
(dp732
sg83
g718
sg76
(lp733
g69
(g70
g71
NtRp734
(dp735
g74
(dp736
g82
I3
ssg83
g730
sg76
(lp737
S''
asbasbasbag69
(g85
g71
NtRp738
(dp739
g74
(dp740
sg83
g674
sg76
(lp741
g69
(g90
g71
NtRp742
(dp743
g74
(dp744
g94
g95
ssg83
g738
sg76
(lp745
g369
asbag69
(g90
g71
NtRp746
(dp747
g74
(dp748
g101
g102
ssg83
g738
sg76
(lp749
S':'
asbag69
(g90
g71
NtRp750
(dp751
g74
(dp752
sg83
g738
sg76
(lp753
g69
(g70
g71
NtRp754
(dp755
g74
(dp756
g82
I3
ssg83
g750
sg76
(lp757
S''
asbasbasbag69
(g85
g71
NtRp758
(dp759
g74
(dp760
sg83
g674
sg76
(lp761
g69
(g90
g71
NtRp762
(dp763
g74
(dp764
g94
g95
ssg83
g758
sg76
(lp765
g390
asbag69
(g90
g71
NtRp766
(dp767
g74
(dp768
g101
g102
ssg83
g758
sg76
(lp769
S':'
asbag69
(g90
g71
NtRp770
(dp771
g74
(dp772
sg83
g758
sg76
(lp773
g69
(g70
g71
NtRp774
(dp775
g74
(dp776
g82
I3
ssg83
g770
sg76
(lp777
S''
asbasbasbag69
(g85
g71
NtRp778
(dp779
g74
(dp780
sg83
g674
sg76
(lp781
g69
(g90
g71
NtRp782
(dp783
g74
(dp784
g94
g95
ssg83
g778
sg76
(lp785
g411
asbag69
(g90
g71
NtRp786
(dp787
g74
(dp788
g101
g102
ssg83
g778
sg76
(lp789
S':'
asbag69
(g90
g71
NtRp790
(dp791
g74
(dp792
sg83
g778
sg76
(lp793
g69
(g70
g71
NtRp794
(dp795
g74
(dp796
g82
I3
ssg83
g790
sg76
(lp797
S''
asbasbasbag69
(g85
g71
NtRp798
(dp799
g74
(dp800
sg83
g674
sg76
(lp801
g69
(g90
g71
NtRp802
(dp803
g74
(dp804
g94
g95
ssg83
g798
sg76
(lp805
g432
asbag69
(g90
g71
NtRp806
(dp807
g74
(dp808
g101
g102
ssg83
g798
sg76
(lp809
S':'
asbag69
(g90
g71
NtRp810
(dp811
g74
(dp812
sg83
g798
sg76
(lp813
g69
(g70
g71
NtRp814
(dp815
g74
(dp816
g82
I3
ssg83
g810
sg76
(lp817
S''
asbasbasbag69
(g85
g71
NtRp818
(dp819
g74
(dp820
sg83
g674
sg76
(lp821
g69
(g90
g71
NtRp822
(dp823
g74
(dp824
g94
g95
ssg83
g818
sg76
(lp825
g453
asbag69
(g90
g71
NtRp826
(dp827
g74
(dp828
g101
g102
ssg83
g818
sg76
(lp829
S':'
asbag69
(g90
g71
NtRp830
(dp831
g74
(dp832
sg83
g818
sg76
(lp833
g69
(g70
g71
NtRp834
(dp835
g74
(dp836
g82
I3
ssg83
g830
sg76
(lp837
S''
asbasbasbasbasbasbasbag69
(g85
g71
NtRp838
(dp839
g74
(dp840
sg83
g268
sg76
(lp841
g69
(g90
g71
NtRp842
(dp843
g74
(dp844
g94
g95
ssg83
g838
sg76
(lp845
S'session_id_attempt'
p846
asbag69
(g90
g71
NtRp847
(dp848
g74
(dp849
g101
g102
ssg83
g838
sg76
(lp850
S':'
asbag69
(g90
g71
NtRp851
(dp852
g74
(dp853
sg83
g838
sg76
(lp854
g69
(g70
g71
NtRp855
(dp856
g74
(dp857
g82
I4
ssg83
g851
sg76
(lp858
S'127.0.0.1-71461326-318d-43aa-b478-e80f172f301b'
p859
ag69
(g78
g71
NtRp860
(dp861
g74
(dp862
g82
I3
ssg83
Nsg76
(lp863
g69
(g85
g71
NtRp864
(dp865
g74
(dp866
sg83
g860
sg76
(lp867
g69
(g90
g71
NtRp868
(dp869
g74
(dp870
g94
g95
ssg83
g864
sg76
(lp871
g306
asbag69
(g90
g71
NtRp872
(dp873
g74
(dp874
g101
g102
ssg83
g864
sg76
(lp875
S':'
asbag69
(g90
g71
NtRp876
(dp877
g74
(dp878
sg83
g864
sg76
(lp879
g69
(g70
g71
NtRp880
(dp881
g74
(dp882
g82
I3
ssg83
g876
sg76
(lp883
S''
asbasbasbag69
(g85
g71
NtRp884
(dp885
g74
(dp886
sg83
g860
sg76
(lp887
g69
(g90
g71
NtRp888
(dp889
g74
(dp890
g94
g95
ssg83
g884
sg76
(lp891
g327
asbag69
(g90
g71
NtRp892
(dp893
g74
(dp894
g101
g102
ssg83
g884
sg76
(lp895
S':'
asbag69
(g90
g71
NtRp896
(dp897
g74
(dp898
sg83
g884
sg76
(lp899
g69
(g70
g71
NtRp900
(dp901
g74
(dp902
g82
I3
ssg83
g896
sg76
(lp903
S''
asbasbasbag69
(g85
g71
NtRp904
(dp905
g74
(dp906
sg83
g860
sg76
(lp907
g69
(g90
g71
NtRp908
(dp909
g74
(dp910
g94
g95
ssg83
g904
sg76
(lp911
g348
asbag69
(g90
g71
NtRp912
(dp913
g74
(dp914
g101
g102
ssg83
g904
sg76
(lp915
S':'
asbag69
(g90
g71
NtRp916
(dp917
g74
(dp918
sg83
g904
sg76
(lp919
g69
(g70
g71
NtRp920
(dp921
g74
(dp922
g82
I3
ssg83
g916
sg76
(lp923
S''
asbasbasbag69
(g85
g71
NtRp924
(dp925
g74
(dp926
sg83
g860
sg76
(lp927
g69
(g90
g71
NtRp928
(dp929
g74
(dp930
g94
g95
ssg83
g924
sg76
(lp931
g369
asbag69
(g90
g71
NtRp932
(dp933
g74
(dp934
g101
g102
ssg83
g924
sg76
(lp935
S':'
asbag69
(g90
g71
NtRp936
(dp937
g74
(dp938
sg83
g924
sg76
(lp939
g69
(g70
g71
NtRp940
(dp941
g74
(dp942
g82
I3
ssg83
g936
sg76
(lp943
S''
asbasbasbag69
(g85
g71
NtRp944
(dp945
g74
(dp946
sg83
g860
sg76
(lp947
g69
(g90
g71
NtRp948
(dp949
g74
(dp950
g94
g95
ssg83
g944
sg76
(lp951
g390
asbag69
(g90
g71
NtRp952
(dp953
g74
(dp954
g101
g102
ssg83
g944
sg76
(lp955
S':'
asbag69
(g90
g71
NtRp956
(dp957
g74
(dp958
sg83
g944
sg76
(lp959
g69
(g70
g71
NtRp960
(dp961
g74
(dp962
g82
I3
ssg83
g956
sg76
(lp963
S''
asbasbasbag69
(g85
g71
NtRp964
(dp965
g74
(dp966
sg83
g860
sg76
(lp967
g69
(g90
g71
NtRp968
(dp969
g74
(dp970
g94
g95
ssg83
g964
sg76
(lp971
g411
asbag69
(g90
g71
NtRp972
(dp973
g74
(dp974
g101
g102
ssg83
g964
sg76
(lp975
S':'
asbag69
(g90
g71
NtRp976
(dp977
g74
(dp978
sg83
g964
sg76
(lp979
g69
(g70
g71
NtRp980
(dp981
g74
(dp982
g82
I3
ssg83
g976
sg76
(lp983
S''
asbasbasbag69
(g85
g71
NtRp984
(dp985
g74
(dp986
sg83
g860
sg76
(lp987
g69
(g90
g71
NtRp988
(dp989
g74
(dp990
g94
g95
ssg83
g984
sg76
(lp991
g432
asbag69
(g90
g71
NtRp992
(dp993
g74
(dp994
g101
g102
ssg83
g984
sg76
(lp995
S':'
asbag69
(g90
g71
NtRp996
(dp997
g74
(dp998
sg83
g984
sg76
(lp999
g69
(g70
g71
NtRp1000
(dp1001
g74
(dp1002
g82
I3
ssg83
g996
sg76
(lp1003
S''
asbasbasbag69
(g85
g71
NtRp1004
(dp1005
g74
(dp1006
sg83
g860
sg76
(lp1007
g69
(g90
g71
NtRp1008
(dp1009
g74
(dp1010
g94
g95
ssg83
g1004
sg76
(lp1011
g453
asbag69
(g90
g71
NtRp1012
(dp1013
g74
(dp1014
g101
g102
ssg83
g1004
sg76
(lp1015
S':'
asbag69
(g90
g71
NtRp1016
(dp1017
g74
(dp1018
sg83
g1004
sg76
(lp1019
g69
(g70
g71
NtRp1020
(dp1021
g74
(dp1022
g82
I3
ssg83
g1016
sg76
(lp1023
S''
asbasbasbasbasbasbasbag69
(g85
g71
NtRp1024
(dp1025
g74
(dp1026
sg83
g268
sg76
(lp1027
g69
(g90
g71
NtRp1028
(dp1029
g74
(dp1030
g94
g95
ssg83
g1024
sg76
(lp1031
S'session_id_attempt4'
p1032
asbag69
(g90
g71
NtRp1033
(dp1034
g74
(dp1035
g101
g102
ssg83
g1024
sg76
(lp1036
S':'
asbag69
(g90
g71
NtRp1037
(dp1038
g74
(dp1039
sg83
g1024
sg76
(lp1040
g69
(g70
g71
NtRp1041
(dp1042
g74
(dp1043
g82
I4
ssg83
g1037
sg76
(lp1044
S'127.0.0.1-efc7b12d-c437-44c8-998b-7ce7c59157bf'
p1045
ag69
(g78
g71
NtRp1046
(dp1047
g74
(dp1048
g82
I3
ssg83
Nsg76
(lp1049
g69
(g85
g71
NtRp1050
(dp1051
g74
(dp1052
sg83
g1046
sg76
(lp1053
g69
(g90
g71
NtRp1054
(dp1055
g74
(dp1056
g94
g95
ssg83
g1050
sg76
(lp1057
g306
asbag69
(g90
g71
NtRp1058
(dp1059
g74
(dp1060
g101
g102
ssg83
g1050
sg76
(lp1061
S':'
asbag69
(g90
g71
NtRp1062
(dp1063
g74
(dp1064
sg83
g1050
sg76
(lp1065
g69
(g70
g71
NtRp1066
(dp1067
g74
(dp1068
g82
I3
ssg83
g1062
sg76
(lp1069
S''
asbasbasbag69
(g85
g71
NtRp1070
(dp1071
g74
(dp1072
sg83
g1046
sg76
(lp1073
g69
(g90
g71
NtRp1074
(dp1075
g74
(dp1076
g94
g95
ssg83
g1070
sg76
(lp1077
g327
asbag69
(g90
g71
NtRp1078
(dp1079
g74
(dp1080
g101
g102
ssg83
g1070
sg76
(lp1081
S':'
asbag69
(g90
g71
NtRp1082
(dp1083
g74
(dp1084
sg83
g1070
sg76
(lp1085
g69
(g70
g71
NtRp1086
(dp1087
g74
(dp1088
g82
I3
ssg83
g1082
sg76
(lp1089
S''
asbasbasbag69
(g85
g71
NtRp1090
(dp1091
g74
(dp1092
sg83
g1046
sg76
(lp1093
g69
(g90
g71
NtRp1094
(dp1095
g74
(dp1096
g94
g95
ssg83
g1090
sg76
(lp1097
g348
asbag69
(g90
g71
NtRp1098
(dp1099
g74
(dp1100
g101
g102
ssg83
g1090
sg76
(lp1101
S':'
asbag69
(g90
g71
NtRp1102
(dp1103
g74
(dp1104
sg83
g1090
sg76
(lp1105
g69
(g70
g71
NtRp1106
(dp1107
g74
(dp1108
g82
I3
ssg83
g1102
sg76
(lp1109
S''
asbasbasbag69
(g85
g71
NtRp1110
(dp1111
g74
(dp1112
sg83
g1046
sg76
(lp1113
g69
(g90
g71
NtRp1114
(dp1115
g74
(dp1116
g94
g95
ssg83
g1110
sg76
(lp1117
g369
asbag69
(g90
g71
NtRp1118
(dp1119
g74
(dp1120
g101
g102
ssg83
g1110
sg76
(lp1121
S':'
asbag69
(g90
g71
NtRp1122
(dp1123
g74
(dp1124
sg83
g1110
sg76
(lp1125
g69
(g70
g71
NtRp1126
(dp1127
g74
(dp1128
g82
I3
ssg83
g1122
sg76
(lp1129
S''
asbasbasbag69
(g85
g71
NtRp1130
(dp1131
g74
(dp1132
sg83
g1046
sg76
(lp1133
g69
(g90
g71
NtRp1134
(dp1135
g74
(dp1136
g94
g95
ssg83
g1130
sg76
(lp1137
g390
asbag69
(g90
g71
NtRp1138
(dp1139
g74
(dp1140
g101
g102
ssg83
g1130
sg76
(lp1141
S':'
asbag69
(g90
g71
NtRp1142
(dp1143
g74
(dp1144
sg83
g1130
sg76
(lp1145
g69
(g70
g71
NtRp1146
(dp1147
g74
(dp1148
g82
I3
ssg83
g1142
sg76
(lp1149
S''
asbasbasbag69
(g85
g71
NtRp1150
(dp1151
g74
(dp1152
sg83
g1046
sg76
(lp1153
g69
(g90
g71
NtRp1154
(dp1155
g74
(dp1156
g94
g95
ssg83
g1150
sg76
(lp1157
g411
asbag69
(g90
g71
NtRp1158
(dp1159
g74
(dp1160
g101
g102
ssg83
g1150
sg76
(lp1161
S':'
asbag69
(g90
g71
NtRp1162
(dp1163
g74
(dp1164
sg83
g1150
sg76
(lp1165
g69
(g70
g71
NtRp1166
(dp1167
g74
(dp1168
g82
I3
ssg83
g1162
sg76
(lp1169
S''
asbasbasbag69
(g85
g71
NtRp1170
(dp1171
g74
(dp1172
sg83
g1046
sg76
(lp1173
g69
(g90
g71
NtRp1174
(dp1175
g74
(dp1176
g94
g95
ssg83
g1170
sg76
(lp1177
g432
asbag69
(g90
g71
NtRp1178
(dp1179
g74
(dp1180
g101
g102
ssg83
g1170
sg76
(lp1181
S':'
asbag69
(g90
g71
NtRp1182
(dp1183
g74
(dp1184
sg83
g1170
sg76
(lp1185
g69
(g70
g71
NtRp1186
(dp1187
g74
(dp1188
g82
I3
ssg83
g1182
sg76
(lp1189
S''
asbasbasbag69
(g85
g71
NtRp1190
(dp1191
g74
(dp1192
sg83
g1046
sg76
(lp1193
g69
(g90
g71
NtRp1194
(dp1195
g74
(dp1196
g94
g95
ssg83
g1190
sg76
(lp1197
g453
asbag69
(g90
g71
NtRp1198
(dp1199
g74
(dp1200
g101
g102
ssg83
g1190
sg76
(lp1201
S':'
asbag69
(g90
g71
NtRp1202
(dp1203
g74
(dp1204
sg83
g1190
sg76
(lp1205
g69
(g70
g71
NtRp1206
(dp1207
g74
(dp1208
g82
I3
ssg83
g1202
sg76
(lp1209
S''
asbasbasbasbasbasbasbag69
(g85
g71
NtRp1210
(dp1211
g74
(dp1212
sg83
g268
sg76
(lp1213
g69
(g90
g71
NtRp1214
(dp1215
g74
(dp1216
g94
g95
ssg83
g1210
sg76
(lp1217
S'session_id_ecesurvey'
p1218
asbag69
(g90
g71
NtRp1219
(dp1220
g74
(dp1221
g101
g102
ssg83
g1210
sg76
(lp1222
S':'
asbag69
(g90
g71
NtRp1223
(dp1224
g74
(dp1225
sg83
g1210
sg76
(lp1226
g69
(g70
g71
NtRp1227
(dp1228
g74
(dp1229
g82
I4
ssg83
g1223
sg76
(lp1230
S'127.0.0.1-bc3583dd-f150-4d62-b588-7c1291bc84a1'
p1231
ag69
(g78
g71
NtRp1232
(dp1233
g74
(dp1234
g82
I3
ssg83
Nsg76
(lp1235
g69
(g85
g71
NtRp1236
(dp1237
g74
(dp1238
sg83
g1232
sg76
(lp1239
g69
(g90
g71
NtRp1240
(dp1241
g74
(dp1242
g94
g95
ssg83
g1236
sg76
(lp1243
g306
asbag69
(g90
g71
NtRp1244
(dp1245
g74
(dp1246
g101
g102
ssg83
g1236
sg76
(lp1247
S':'
asbag69
(g90
g71
NtRp1248
(dp1249
g74
(dp1250
sg83
g1236
sg76
(lp1251
g69
(g70
g71
NtRp1252
(dp1253
g74
(dp1254
g82
I3
ssg83
g1248
sg76
(lp1255
S''
asbasbasbag69
(g85
g71
NtRp1256
(dp1257
g74
(dp1258
sg83
g1232
sg76
(lp1259
g69
(g90
g71
NtRp1260
(dp1261
g74
(dp1262
g94
g95
ssg83
g1256
sg76
(lp1263
g327
asbag69
(g90
g71
NtRp1264
(dp1265
g74
(dp1266
g101
g102
ssg83
g1256
sg76
(lp1267
S':'
asbag69
(g90
g71
NtRp1268
(dp1269
g74
(dp1270
sg83
g1256
sg76
(lp1271
g69
(g70
g71
NtRp1272
(dp1273
g74
(dp1274
g82
I3
ssg83
g1268
sg76
(lp1275
S''
asbasbasbag69
(g85
g71
NtRp1276
(dp1277
g74
(dp1278
sg83
g1232
sg76
(lp1279
g69
(g90
g71
NtRp1280
(dp1281
g74
(dp1282
g94
g95
ssg83
g1276
sg76
(lp1283
g348
asbag69
(g90
g71
NtRp1284
(dp1285
g74
(dp1286
g101
g102
ssg83
g1276
sg76
(lp1287
S':'
asbag69
(g90
g71
NtRp1288
(dp1289
g74
(dp1290
sg83
g1276
sg76
(lp1291
g69
(g70
g71
NtRp1292
(dp1293
g74
(dp1294
g82
I3
ssg83
g1288
sg76
(lp1295
S''
asbasbasbag69
(g85
g71
NtRp1296
(dp1297
g74
(dp1298
sg83
g1232
sg76
(lp1299
g69
(g90
g71
NtRp1300
(dp1301
g74
(dp1302
g94
g95
ssg83
g1296
sg76
(lp1303
g369
asbag69
(g90
g71
NtRp1304
(dp1305
g74
(dp1306
g101
g102
ssg83
g1296
sg76
(lp1307
S':'
asbag69
(g90
g71
NtRp1308
(dp1309
g74
(dp1310
sg83
g1296
sg76
(lp1311
g69
(g70
g71
NtRp1312
(dp1313
g74
(dp1314
g82
I3
ssg83
g1308
sg76
(lp1315
S''
asbasbasbag69
(g85
g71
NtRp1316
(dp1317
g74
(dp1318
sg83
g1232
sg76
(lp1319
g69
(g90
g71
NtRp1320
(dp1321
g74
(dp1322
g94
g95
ssg83
g1316
sg76
(lp1323
g390
asbag69
(g90
g71
NtRp1324
(dp1325
g74
(dp1326
g101
g102
ssg83
g1316
sg76
(lp1327
S':'
asbag69
(g90
g71
NtRp1328
(dp1329
g74
(dp1330
sg83
g1316
sg76
(lp1331
g69
(g70
g71
NtRp1332
(dp1333
g74
(dp1334
g82
I3
ssg83
g1328
sg76
(lp1335
S''
asbasbasbag69
(g85
g71
NtRp1336
(dp1337
g74
(dp1338
sg83
g1232
sg76
(lp1339
g69
(g90
g71
NtRp1340
(dp1341
g74
(dp1342
g94
g95
ssg83
g1336
sg76
(lp1343
g411
asbag69
(g90
g71
NtRp1344
(dp1345
g74
(dp1346
g101
g102
ssg83
g1336
sg76
(lp1347
S':'
asbag69
(g90
g71
NtRp1348
(dp1349
g74
(dp1350
sg83
g1336
sg76
(lp1351
g69
(g70
g71
NtRp1352
(dp1353
g74
(dp1354
g82
I3
ssg83
g1348
sg76
(lp1355
S''
asbasbasbag69
(g85
g71
NtRp1356
(dp1357
g74
(dp1358
sg83
g1232
sg76
(lp1359
g69
(g90
g71
NtRp1360
(dp1361
g74
(dp1362
g94
g95
ssg83
g1356
sg76
(lp1363
g432
asbag69
(g90
g71
NtRp1364
(dp1365
g74
(dp1366
g101
g102
ssg83
g1356
sg76
(lp1367
S':'
asbag69
(g90
g71
NtRp1368
(dp1369
g74
(dp1370
sg83
g1356
sg76
(lp1371
g69
(g70
g71
NtRp1372
(dp1373
g74
(dp1374
g82
I3
ssg83
g1368
sg76
(lp1375
S''
asbasbasbag69
(g85
g71
NtRp1376
(dp1377
g74
(dp1378
sg83
g1232
sg76
(lp1379
g69
(g90
g71
NtRp1380
(dp1381
g74
(dp1382
g94
g95
ssg83
g1376
sg76
(lp1383
g453
asbag69
(g90
g71
NtRp1384
(dp1385
g74
(dp1386
g101
g102
ssg83
g1376
sg76
(lp1387
S':'
asbag69
(g90
g71
NtRp1388
(dp1389
g74
(dp1390
sg83
g1376
sg76
(lp1391
g69
(g70
g71
NtRp1392
(dp1393
g74
(dp1394
g82
I3
ssg83
g1388
sg76
(lp1395
S''
asbasbasbasbasbasbasbag69
(g85
g71
NtRp1396
(dp1397
g74
(dp1398
sg83
g268
sg76
(lp1399
g69
(g90
g71
NtRp1400
(dp1401
g74
(dp1402
g94
g95
ssg83
g1396
sg76
(lp1403
S'session_id_funkload'
p1404
asbag69
(g90
g71
NtRp1405
(dp1406
g74
(dp1407
g101
g102
ssg83
g1396
sg76
(lp1408
S':'
asbag69
(g90
g71
NtRp1409
(dp1410
g74
(dp1411
sg83
g1396
sg76
(lp1412
g69
(g70
g71
NtRp1413
(dp1414
g74
(dp1415
g82
I4
ssg83
g1409
sg76
(lp1416
S'127.0.0.1-cf22ecd2-40c5-41ec-a943-aeddb5bba043'
p1417
ag69
(g78
g71
NtRp1418
(dp1419
g74
(dp1420
g82
I3
ssg83
Nsg76
(lp1421
g69
(g85
g71
NtRp1422
(dp1423
g74
(dp1424
sg83
g1418
sg76
(lp1425
g69
(g90
g71
NtRp1426
(dp1427
g74
(dp1428
g94
g95
ssg83
g1422
sg76
(lp1429
g306
asbag69
(g90
g71
NtRp1430
(dp1431
g74
(dp1432
g101
g102
ssg83
g1422
sg76
(lp1433
S':'
asbag69
(g90
g71
NtRp1434
(dp1435
g74
(dp1436
sg83
g1422
sg76
(lp1437
g69
(g70
g71
NtRp1438
(dp1439
g74
(dp1440
g82
I3
ssg83
g1434
sg76
(lp1441
S''
asbasbasbag69
(g85
g71
NtRp1442
(dp1443
g74
(dp1444
sg83
g1418
sg76
(lp1445
g69
(g90
g71
NtRp1446
(dp1447
g74
(dp1448
g94
g95
ssg83
g1442
sg76
(lp1449
g327
asbag69
(g90
g71
NtRp1450
(dp1451
g74
(dp1452
g101
g102
ssg83
g1442
sg76
(lp1453
S':'
asbag69
(g90
g71
NtRp1454
(dp1455
g74
(dp1456
sg83
g1442
sg76
(lp1457
g69
(g70
g71
NtRp1458
(dp1459
g74
(dp1460
g82
I3
ssg83
g1454
sg76
(lp1461
S''
asbasbasbag69
(g85
g71
NtRp1462
(dp1463
g74
(dp1464
sg83
g1418
sg76
(lp1465
g69
(g90
g71
NtRp1466
(dp1467
g74
(dp1468
g94
g95
ssg83
g1462
sg76
(lp1469
g348
asbag69
(g90
g71
NtRp1470
(dp1471
g74
(dp1472
g101
g102
ssg83
g1462
sg76
(lp1473
S':'
asbag69
(g90
g71
NtRp1474
(dp1475
g74
(dp1476
sg83
g1462
sg76
(lp1477
g69
(g70
g71
NtRp1478
(dp1479
g74
(dp1480
g82
I3
ssg83
g1474
sg76
(lp1481
S''
asbasbasbag69
(g85
g71
NtRp1482
(dp1483
g74
(dp1484
sg83
g1418
sg76
(lp1485
g69
(g90
g71
NtRp1486
(dp1487
g74
(dp1488
g94
g95
ssg83
g1482
sg76
(lp1489
g369
asbag69
(g90
g71
NtRp1490
(dp1491
g74
(dp1492
g101
g102
ssg83
g1482
sg76
(lp1493
S':'
asbag69
(g90
g71
NtRp1494
(dp1495
g74
(dp1496
sg83
g1482
sg76
(lp1497
g69
(g70
g71
NtRp1498
(dp1499
g74
(dp1500
g82
I3
ssg83
g1494
sg76
(lp1501
S''
asbasbasbag69
(g85
g71
NtRp1502
(dp1503
g74
(dp1504
sg83
g1418
sg76
(lp1505
g69
(g90
g71
NtRp1506
(dp1507
g74
(dp1508
g94
g95
ssg83
g1502
sg76
(lp1509
g390
asbag69
(g90
g71
NtRp1510
(dp1511
g74
(dp1512
g101
g102
ssg83
g1502
sg76
(lp1513
S':'
asbag69
(g90
g71
NtRp1514
(dp1515
g74
(dp1516
sg83
g1502
sg76
(lp1517
g69
(g70
g71
NtRp1518
(dp1519
g74
(dp1520
g82
I3
ssg83
g1514
sg76
(lp1521
S''
asbasbasbag69
(g85
g71
NtRp1522
(dp1523
g74
(dp1524
sg83
g1418
sg76
(lp1525
g69
(g90
g71
NtRp1526
(dp1527
g74
(dp1528
g94
g95
ssg83
g1522
sg76
(lp1529
g411
asbag69
(g90
g71
NtRp1530
(dp1531
g74
(dp1532
g101
g102
ssg83
g1522
sg76
(lp1533
S':'
asbag69
(g90
g71
NtRp1534
(dp1535
g74
(dp1536
sg83
g1522
sg76
(lp1537
g69
(g70
g71
NtRp1538
(dp1539
g74
(dp1540
g82
I3
ssg83
g1534
sg76
(lp1541
S''
asbasbasbag69
(g85
g71
NtRp1542
(dp1543
g74
(dp1544
sg83
g1418
sg76
(lp1545
g69
(g90
g71
NtRp1546
(dp1547
g74
(dp1548
g94
g95
ssg83
g1542
sg76
(lp1549
g432
asbag69
(g90
g71
NtRp1550
(dp1551
g74
(dp1552
g101
g102
ssg83
g1542
sg76
(lp1553
S':'
asbag69
(g90
g71
NtRp1554
(dp1555
g74
(dp1556
sg83
g1542
sg76
(lp1557
g69
(g70
g71
NtRp1558
(dp1559
g74
(dp1560
g82
I3
ssg83
g1554
sg76
(lp1561
S''
asbasbasbag69
(g85
g71
NtRp1562
(dp1563
g74
(dp1564
sg83
g1418
sg76
(lp1565
g69
(g90
g71
NtRp1566
(dp1567
g74
(dp1568
g94
g95
ssg83
g1562
sg76
(lp1569
g453
asbag69
(g90
g71
NtRp1570
(dp1571
g74
(dp1572
g101
g102
ssg83
g1562
sg76
(lp1573
S':'
asbag69
(g90
g71
NtRp1574
(dp1575
g74
(dp1576
sg83
g1562
sg76
(lp1577
g69
(g70
g71
NtRp1578
(dp1579
g74
(dp1580
g82
I3
ssg83
g1574
sg76
(lp1581
S''
asbasbasbasbasbasbasbag69
(g85
g71
NtRp1582
(dp1583
g74
(dp1584
sg83
g268
sg76
(lp1585
g69
(g90
g71
NtRp1586
(dp1587
g74
(dp1588
g94
g95
ssg83
g1582
sg76
(lp1589
S'session_id_kkk'
p1590
asbag69
(g90
g71
NtRp1591
(dp1592
g74
(dp1593
g101
g102
ssg83
g1582
sg76
(lp1594
S':'
asbag69
(g90
g71
NtRp1595
(dp1596
g74
(dp1597
sg83
g1582
sg76
(lp1598
g69
(g70
g71
NtRp1599
(dp1600
g74
(dp1601
g82
I4
ssg83
g1595
sg76
(lp1602
S'127.0.0.1-d744a8ac-5c3d-4346-8de5-2240765037bf'
p1603
ag69
(g78
g71
NtRp1604
(dp1605
g74
(dp1606
g82
I3
ssg83
Nsg76
(lp1607
g69
(g85
g71
NtRp1608
(dp1609
g74
(dp1610
sg83
g1604
sg76
(lp1611
g69
(g90
g71
NtRp1612
(dp1613
g74
(dp1614
g94
g95
ssg83
g1608
sg76
(lp1615
g306
asbag69
(g90
g71
NtRp1616
(dp1617
g74
(dp1618
g101
g102
ssg83
g1608
sg76
(lp1619
S':'
asbag69
(g90
g71
NtRp1620
(dp1621
g74
(dp1622
sg83
g1608
sg76
(lp1623
g69
(g70
g71
NtRp1624
(dp1625
g74
(dp1626
g82
I3
ssg83
g1620
sg76
(lp1627
S''
asbasbasbag69
(g85
g71
NtRp1628
(dp1629
g74
(dp1630
sg83
g1604
sg76
(lp1631
g69
(g90
g71
NtRp1632
(dp1633
g74
(dp1634
g94
g95
ssg83
g1628
sg76
(lp1635
g327
asbag69
(g90
g71
NtRp1636
(dp1637
g74
(dp1638
g101
g102
ssg83
g1628
sg76
(lp1639
S':'
asbag69
(g90
g71
NtRp1640
(dp1641
g74
(dp1642
sg83
g1628
sg76
(lp1643
g69
(g70
g71
NtRp1644
(dp1645
g74
(dp1646
g82
I3
ssg83
g1640
sg76
(lp1647
S''
asbasbasbag69
(g85
g71
NtRp1648
(dp1649
g74
(dp1650
sg83
g1604
sg76
(lp1651
g69
(g90
g71
NtRp1652
(dp1653
g74
(dp1654
g94
g95
ssg83
g1648
sg76
(lp1655
g348
asbag69
(g90
g71
NtRp1656
(dp1657
g74
(dp1658
g101
g102
ssg83
g1648
sg76
(lp1659
S':'
asbag69
(g90
g71
NtRp1660
(dp1661
g74
(dp1662
sg83
g1648
sg76
(lp1663
g69
(g70
g71
NtRp1664
(dp1665
g74
(dp1666
g82
I3
ssg83
g1660
sg76
(lp1667
S''
asbasbasbag69
(g85
g71
NtRp1668
(dp1669
g74
(dp1670
sg83
g1604
sg76
(lp1671
g69
(g90
g71
NtRp1672
(dp1673
g74
(dp1674
g94
g95
ssg83
g1668
sg76
(lp1675
g369
asbag69
(g90
g71
NtRp1676
(dp1677
g74
(dp1678
g101
g102
ssg83
g1668
sg76
(lp1679
S':'
asbag69
(g90
g71
NtRp1680
(dp1681
g74
(dp1682
sg83
g1668
sg76
(lp1683
g69
(g70
g71
NtRp1684
(dp1685
g74
(dp1686
g82
I3
ssg83
g1680
sg76
(lp1687
S''
asbasbasbag69
(g85
g71
NtRp1688
(dp1689
g74
(dp1690
sg83
g1604
sg76
(lp1691
g69
(g90
g71
NtRp1692
(dp1693
g74
(dp1694
g94
g95
ssg83
g1688
sg76
(lp1695
g390
asbag69
(g90
g71
NtRp1696
(dp1697
g74
(dp1698
g101
g102
ssg83
g1688
sg76
(lp1699
S':'
asbag69
(g90
g71
NtRp1700
(dp1701
g74
(dp1702
sg83
g1688
sg76
(lp1703
g69
(g70
g71
NtRp1704
(dp1705
g74
(dp1706
g82
I3
ssg83
g1700
sg76
(lp1707
S''
asbasbasbag69
(g85
g71
NtRp1708
(dp1709
g74
(dp1710
sg83
g1604
sg76
(lp1711
g69
(g90
g71
NtRp1712
(dp1713
g74
(dp1714
g94
g95
ssg83
g1708
sg76
(lp1715
g411
asbag69
(g90
g71
NtRp1716
(dp1717
g74
(dp1718
g101
g102
ssg83
g1708
sg76
(lp1719
S':'
asbag69
(g90
g71
NtRp1720
(dp1721
g74
(dp1722
sg83
g1708
sg76
(lp1723
g69
(g70
g71
NtRp1724
(dp1725
g74
(dp1726
g82
I3
ssg83
g1720
sg76
(lp1727
S''
asbasbasbag69
(g85
g71
NtRp1728
(dp1729
g74
(dp1730
sg83
g1604
sg76
(lp1731
g69
(g90
g71
NtRp1732
(dp1733
g74
(dp1734
g94
g95
ssg83
g1728
sg76
(lp1735
g432
asbag69
(g90
g71
NtRp1736
(dp1737
g74
(dp1738
g101
g102
ssg83
g1728
sg76
(lp1739
S':'
asbag69
(g90
g71
NtRp1740
(dp1741
g74
(dp1742
sg83
g1728
sg76
(lp1743
g69
(g70
g71
NtRp1744
(dp1745
g74
(dp1746
g82
I3
ssg83
g1740
sg76
(lp1747
S''
asbasbasbag69
(g85
g71
NtRp1748
(dp1749
g74
(dp1750
sg83
g1604
sg76
(lp1751
g69
(g90
g71
NtRp1752
(dp1753
g74
(dp1754
g94
g95
ssg83
g1748
sg76
(lp1755
g453
asbag69
(g90
g71
NtRp1756
(dp1757
g74
(dp1758
g101
g102
ssg83
g1748
sg76
(lp1759
S':'
asbag69
(g90
g71
NtRp1760
(dp1761
g74
(dp1762
sg83
g1748
sg76
(lp1763
g69
(g70
g71
NtRp1764
(dp1765
g74
(dp1766
g82
I3
ssg83
g1760
sg76
(lp1767
S''
asbasbasbasbasbasbasbag69
(g85
g71
NtRp1768
(dp1769
g74
(dp1770
sg83
g268
sg76
(lp1771
g69
(g90
g71
NtRp1772
(dp1773
g74
(dp1774
g94
g95
ssg83
g1768
sg76
(lp1775
S'session_id_orentation'
p1776
asbag69
(g90
g71
NtRp1777
(dp1778
g74
(dp1779
g101
g102
ssg83
g1768
sg76
(lp1780
S':'
asbag69
(g90
g71
NtRp1781
(dp1782
g74
(dp1783
sg83
g1768
sg76
(lp1784
g69
(g70
g71
NtRp1785
(dp1786
g74
(dp1787
g82
I4
ssg83
g1781
sg76
(lp1788
S'127.0.0.1-0ac45cd4-167b-443f-88dd-dc1703dec226'
p1789
ag69
(g78
g71
NtRp1790
(dp1791
g74
(dp1792
g82
I3
ssg83
Nsg76
(lp1793
g69
(g85
g71
NtRp1794
(dp1795
g74
(dp1796
sg83
g1790
sg76
(lp1797
g69
(g90
g71
NtRp1798
(dp1799
g74
(dp1800
g94
g95
ssg83
g1794
sg76
(lp1801
g306
asbag69
(g90
g71
NtRp1802
(dp1803
g74
(dp1804
g101
g102
ssg83
g1794
sg76
(lp1805
S':'
asbag69
(g90
g71
NtRp1806
(dp1807
g74
(dp1808
sg83
g1794
sg76
(lp1809
g69
(g70
g71
NtRp1810
(dp1811
g74
(dp1812
g82
I3
ssg83
g1806
sg76
(lp1813
S''
asbasbasbag69
(g85
g71
NtRp1814
(dp1815
g74
(dp1816
sg83
g1790
sg76
(lp1817
g69
(g90
g71
NtRp1818
(dp1819
g74
(dp1820
g94
g95
ssg83
g1814
sg76
(lp1821
g327
asbag69
(g90
g71
NtRp1822
(dp1823
g74
(dp1824
g101
g102
ssg83
g1814
sg76
(lp1825
S':'
asbag69
(g90
g71
NtRp1826
(dp1827
g74
(dp1828
sg83
g1814
sg76
(lp1829
g69
(g70
g71
NtRp1830
(dp1831
g74
(dp1832
g82
I3
ssg83
g1826
sg76
(lp1833
S''
asbasbasbag69
(g85
g71
NtRp1834
(dp1835
g74
(dp1836
sg83
g1790
sg76
(lp1837
g69
(g90
g71
NtRp1838
(dp1839
g74
(dp1840
g94
g95
ssg83
g1834
sg76
(lp1841
g348
asbag69
(g90
g71
NtRp1842
(dp1843
g74
(dp1844
g101
g102
ssg83
g1834
sg76
(lp1845
S':'
asbag69
(g90
g71
NtRp1846
(dp1847
g74
(dp1848
sg83
g1834
sg76
(lp1849
g69
(g70
g71
NtRp1850
(dp1851
g74
(dp1852
g82
I3
ssg83
g1846
sg76
(lp1853
S''
asbasbasbag69
(g85
g71
NtRp1854
(dp1855
g74
(dp1856
sg83
g1790
sg76
(lp1857
g69
(g90
g71
NtRp1858
(dp1859
g74
(dp1860
g94
g95
ssg83
g1854
sg76
(lp1861
g369
asbag69
(g90
g71
NtRp1862
(dp1863
g74
(dp1864
g101
g102
ssg83
g1854
sg76
(lp1865
S':'
asbag69
(g90
g71
NtRp1866
(dp1867
g74
(dp1868
sg83
g1854
sg76
(lp1869
g69
(g70
g71
NtRp1870
(dp1871
g74
(dp1872
g82
I3
ssg83
g1866
sg76
(lp1873
S''
asbasbasbag69
(g85
g71
NtRp1874
(dp1875
g74
(dp1876
sg83
g1790
sg76
(lp1877
g69
(g90
g71
NtRp1878
(dp1879
g74
(dp1880
g94
g95
ssg83
g1874
sg76
(lp1881
g390
asbag69
(g90
g71
NtRp1882
(dp1883
g74
(dp1884
g101
g102
ssg83
g1874
sg76
(lp1885
S':'
asbag69
(g90
g71
NtRp1886
(dp1887
g74
(dp1888
sg83
g1874
sg76
(lp1889
g69
(g70
g71
NtRp1890
(dp1891
g74
(dp1892
g82
I3
ssg83
g1886
sg76
(lp1893
S''
asbasbasbag69
(g85
g71
NtRp1894
(dp1895
g74
(dp1896
sg83
g1790
sg76
(lp1897
g69
(g90
g71
NtRp1898
(dp1899
g74
(dp1900
g94
g95
ssg83
g1894
sg76
(lp1901
g411
asbag69
(g90
g71
NtRp1902
(dp1903
g74
(dp1904
g101
g102
ssg83
g1894
sg76
(lp1905
S':'
asbag69
(g90
g71
NtRp1906
(dp1907
g74
(dp1908
sg83
g1894
sg76
(lp1909
g69
(g70
g71
NtRp1910
(dp1911
g74
(dp1912
g82
I3
ssg83
g1906
sg76
(lp1913
S''
asbasbasbag69
(g85
g71
NtRp1914
(dp1915
g74
(dp1916
sg83
g1790
sg76
(lp1917
g69
(g90
g71
NtRp1918
(dp1919
g74
(dp1920
g94
g95
ssg83
g1914
sg76
(lp1921
g432
asbag69
(g90
g71
NtRp1922
(dp1923
g74
(dp1924
g101
g102
ssg83
g1914
sg76
(lp1925
S':'
asbag69
(g90
g71
NtRp1926
(dp1927
g74
(dp1928
sg83
g1914
sg76
(lp1929
g69
(g70
g71
NtRp1930
(dp1931
g74
(dp1932
g82
I3
ssg83
g1926
sg76
(lp1933
S''
asbasbasbag69
(g85
g71
NtRp1934
(dp1935
g74
(dp1936
sg83
g1790
sg76
(lp1937
g69
(g90
g71
NtRp1938
(dp1939
g74
(dp1940
g94
g95
ssg83
g1934
sg76
(lp1941
g453
asbag69
(g90
g71
NtRp1942
(dp1943
g74
(dp1944
g101
g102
ssg83
g1934
sg76
(lp1945
S':'
asbag69
(g90
g71
NtRp1946
(dp1947
g74
(dp1948
sg83
g1934
sg76
(lp1949
g69
(g70
g71
NtRp1950
(dp1951
g74
(dp1952
g82
I3
ssg83
g1946
sg76
(lp1953
S''
asbasbasbasbasbasbasbag69
(g85
g71
NtRp1954
(dp1955
g74
(dp1956
sg83
g268
sg76
(lp1957
g69
(g90
g71
NtRp1958
(dp1959
g74
(dp1960
g94
g95
ssg83
g1954
sg76
(lp1961
S'session_id_placement_portal'
p1962
asbag69
(g90
g71
NtRp1963
(dp1964
g74
(dp1965
g101
g102
ssg83
g1954
sg76
(lp1966
S':'
asbag69
(g90
g71
NtRp1967
(dp1968
g74
(dp1969
sg83
g1954
sg76
(lp1970
g69
(g70
g71
NtRp1971
(dp1972
g74
(dp1973
g82
I4
ssg83
g1967
sg76
(lp1974
S'127.0.0.1-3bec308b-1561-4ac1-ab22-997211fef898'
p1975
ag69
(g78
g71
NtRp1976
(dp1977
g74
(dp1978
g82
I3
ssg83
Nsg76
(lp1979
g69
(g85
g71
NtRp1980
(dp1981
g74
(dp1982
sg83
g1976
sg76
(lp1983
g69
(g90
g71
NtRp1984
(dp1985
g74
(dp1986
g94
g95
ssg83
g1980
sg76
(lp1987
g306
asbag69
(g90
g71
NtRp1988
(dp1989
g74
(dp1990
g101
g102
ssg83
g1980
sg76
(lp1991
S':'
asbag69
(g90
g71
NtRp1992
(dp1993
g74
(dp1994
sg83
g1980
sg76
(lp1995
g69
(g70
g71
NtRp1996
(dp1997
g74
(dp1998
g82
I3
ssg83
g1992
sg76
(lp1999
S''
asbasbasbag69
(g85
g71
NtRp2000
(dp2001
g74
(dp2002
sg83
g1976
sg76
(lp2003
g69
(g90
g71
NtRp2004
(dp2005
g74
(dp2006
g94
g95
ssg83
g2000
sg76
(lp2007
g327
asbag69
(g90
g71
NtRp2008
(dp2009
g74
(dp2010
g101
g102
ssg83
g2000
sg76
(lp2011
S':'
asbag69
(g90
g71
NtRp2012
(dp2013
g74
(dp2014
sg83
g2000
sg76
(lp2015
g69
(g70
g71
NtRp2016
(dp2017
g74
(dp2018
g82
I3
ssg83
g2012
sg76
(lp2019
S''
asbasbasbag69
(g85
g71
NtRp2020
(dp2021
g74
(dp2022
sg83
g1976
sg76
(lp2023
g69
(g90
g71
NtRp2024
(dp2025
g74
(dp2026
g94
g95
ssg83
g2020
sg76
(lp2027
g348
asbag69
(g90
g71
NtRp2028
(dp2029
g74
(dp2030
g101
g102
ssg83
g2020
sg76
(lp2031
S':'
asbag69
(g90
g71
NtRp2032
(dp2033
g74
(dp2034
sg83
g2020
sg76
(lp2035
g69
(g70
g71
NtRp2036
(dp2037
g74
(dp2038
g82
I3
ssg83
g2032
sg76
(lp2039
S''
asbasbasbag69
(g85
g71
NtRp2040
(dp2041
g74
(dp2042
sg83
g1976
sg76
(lp2043
g69
(g90
g71
NtRp2044
(dp2045
g74
(dp2046
g94
g95
ssg83
g2040
sg76
(lp2047
g369
asbag69
(g90
g71
NtRp2048
(dp2049
g74
(dp2050
g101
g102
ssg83
g2040
sg76
(lp2051
S':'
asbag69
(g90
g71
NtRp2052
(dp2053
g74
(dp2054
sg83
g2040
sg76
(lp2055
g69
(g70
g71
NtRp2056
(dp2057
g74
(dp2058
g82
I3
ssg83
g2052
sg76
(lp2059
S''
asbasbasbag69
(g85
g71
NtRp2060
(dp2061
g74
(dp2062
sg83
g1976
sg76
(lp2063
g69
(g90
g71
NtRp2064
(dp2065
g74
(dp2066
g94
g95
ssg83
g2060
sg76
(lp2067
g390
asbag69
(g90
g71
NtRp2068
(dp2069
g74
(dp2070
g101
g102
ssg83
g2060
sg76
(lp2071
S':'
asbag69
(g90
g71
NtRp2072
(dp2073
g74
(dp2074
sg83
g2060
sg76
(lp2075
g69
(g70
g71
NtRp2076
(dp2077
g74
(dp2078
g82
I3
ssg83
g2072
sg76
(lp2079
S''
asbasbasbag69
(g85
g71
NtRp2080
(dp2081
g74
(dp2082
sg83
g1976
sg76
(lp2083
g69
(g90
g71
NtRp2084
(dp2085
g74
(dp2086
g94
g95
ssg83
g2080
sg76
(lp2087
g411
asbag69
(g90
g71
NtRp2088
(dp2089
g74
(dp2090
g101
g102
ssg83
g2080
sg76
(lp2091
S':'
asbag69
(g90
g71
NtRp2092
(dp2093
g74
(dp2094
sg83
g2080
sg76
(lp2095
g69
(g70
g71
NtRp2096
(dp2097
g74
(dp2098
g82
I3
ssg83
g2092
sg76
(lp2099
S''
asbasbasbag69
(g85
g71
NtRp2100
(dp2101
g74
(dp2102
sg83
g1976
sg76
(lp2103
g69
(g90
g71
NtRp2104
(dp2105
g74
(dp2106
g94
g95
ssg83
g2100
sg76
(lp2107
g432
asbag69
(g90
g71
NtRp2108
(dp2109
g74
(dp2110
g101
g102
ssg83
g2100
sg76
(lp2111
S':'
asbag69
(g90
g71
NtRp2112
(dp2113
g74
(dp2114
sg83
g2100
sg76
(lp2115
g69
(g70
g71
NtRp2116
(dp2117
g74
(dp2118
g82
I3
ssg83
g2112
sg76
(lp2119
S''
asbasbasbag69
(g85
g71
NtRp2120
(dp2121
g74
(dp2122
sg83
g1976
sg76
(lp2123
g69
(g90
g71
NtRp2124
(dp2125
g74
(dp2126
g94
g95
ssg83
g2120
sg76
(lp2127
g453
asbag69
(g90
g71
NtRp2128
(dp2129
g74
(dp2130
g101
g102
ssg83
g2120
sg76
(lp2131
S':'
asbag69
(g90
g71
NtRp2132
(dp2133
g74
(dp2134
sg83
g2120
sg76
(lp2135
g69
(g70
g71
NtRp2136
(dp2137
g74
(dp2138
g82
I3
ssg83
g2132
sg76
(lp2139
S''
asbasbasbasbasbasbasbag69
(g85
g71
NtRp2140
(dp2141
g74
(dp2142
sg83
g268
sg76
(lp2143
g69
(g90
g71
NtRp2144
(dp2145
g74
(dp2146
g94
g95
ssg83
g2140
sg76
(lp2147
S'session_id_serc'
p2148
asbag69
(g90
g71
NtRp2149
(dp2150
g74
(dp2151
g101
g102
ssg83
g2140
sg76
(lp2152
S':'
asbag69
(g90
g71
NtRp2153
(dp2154
g74
(dp2155
sg83
g2140
sg76
(lp2156
g69
(g70
g71
NtRp2157
(dp2158
g74
(dp2159
g82
I4
ssg83
g2153
sg76
(lp2160
S'127.0.0.1-4ba64b28-9f26-46de-9d97-2038a1a727dd'
p2161
ag69
(g78
g71
NtRp2162
(dp2163
g74
(dp2164
g82
I3
ssg83
Nsg76
(lp2165
g69
(g85
g71
NtRp2166
(dp2167
g74
(dp2168
sg83
g2162
sg76
(lp2169
g69
(g90
g71
NtRp2170
(dp2171
g74
(dp2172
g94
g95
ssg83
g2166
sg76
(lp2173
g306
asbag69
(g90
g71
NtRp2174
(dp2175
g74
(dp2176
g101
g102
ssg83
g2166
sg76
(lp2177
S':'
asbag69
(g90
g71
NtRp2178
(dp2179
g74
(dp2180
sg83
g2166
sg76
(lp2181
g69
(g70
g71
NtRp2182
(dp2183
g74
(dp2184
g82
I3
ssg83
g2178
sg76
(lp2185
S''
asbasbasbag69
(g85
g71
NtRp2186
(dp2187
g74
(dp2188
sg83
g2162
sg76
(lp2189
g69
(g90
g71
NtRp2190
(dp2191
g74
(dp2192
g94
g95
ssg83
g2186
sg76
(lp2193
g327
asbag69
(g90
g71
NtRp2194
(dp2195
g74
(dp2196
g101
g102
ssg83
g2186
sg76
(lp2197
S':'
asbag69
(g90
g71
NtRp2198
(dp2199
g74
(dp2200
sg83
g2186
sg76
(lp2201
g69
(g70
g71
NtRp2202
(dp2203
g74
(dp2204
g82
I3
ssg83
g2198
sg76
(lp2205
S''
asbasbasbag69
(g85
g71
NtRp2206
(dp2207
g74
(dp2208
sg83
g2162
sg76
(lp2209
g69
(g90
g71
NtRp2210
(dp2211
g74
(dp2212
g94
g95
ssg83
g2206
sg76
(lp2213
g348
asbag69
(g90
g71
NtRp2214
(dp2215
g74
(dp2216
g101
g102
ssg83
g2206
sg76
(lp2217
S':'
asbag69
(g90
g71
NtRp2218
(dp2219
g74
(dp2220
sg83
g2206
sg76
(lp2221
g69
(g70
g71
NtRp2222
(dp2223
g74
(dp2224
g82
I3
ssg83
g2218
sg76
(lp2225
S''
asbasbasbag69
(g85
g71
NtRp2226
(dp2227
g74
(dp2228
sg83
g2162
sg76
(lp2229
g69
(g90
g71
NtRp2230
(dp2231
g74
(dp2232
g94
g95
ssg83
g2226
sg76
(lp2233
g369
asbag69
(g90
g71
NtRp2234
(dp2235
g74
(dp2236
g101
g102
ssg83
g2226
sg76
(lp2237
S':'
asbag69
(g90
g71
NtRp2238
(dp2239
g74
(dp2240
sg83
g2226
sg76
(lp2241
g69
(g70
g71
NtRp2242
(dp2243
g74
(dp2244
g82
I3
ssg83
g2238
sg76
(lp2245
S''
asbasbasbag69
(g85
g71
NtRp2246
(dp2247
g74
(dp2248
sg83
g2162
sg76
(lp2249
g69
(g90
g71
NtRp2250
(dp2251
g74
(dp2252
g94
g95
ssg83
g2246
sg76
(lp2253
g390
asbag69
(g90
g71
NtRp2254
(dp2255
g74
(dp2256
g101
g102
ssg83
g2246
sg76
(lp2257
S':'
asbag69
(g90
g71
NtRp2258
(dp2259
g74
(dp2260
sg83
g2246
sg76
(lp2261
g69
(g70
g71
NtRp2262
(dp2263
g74
(dp2264
g82
I3
ssg83
g2258
sg76
(lp2265
S''
asbasbasbag69
(g85
g71
NtRp2266
(dp2267
g74
(dp2268
sg83
g2162
sg76
(lp2269
g69
(g90
g71
NtRp2270
(dp2271
g74
(dp2272
g94
g95
ssg83
g2266
sg76
(lp2273
g411
asbag69
(g90
g71
NtRp2274
(dp2275
g74
(dp2276
g101
g102
ssg83
g2266
sg76
(lp2277
S':'
asbag69
(g90
g71
NtRp2278
(dp2279
g74
(dp2280
sg83
g2266
sg76
(lp2281
g69
(g70
g71
NtRp2282
(dp2283
g74
(dp2284
g82
I3
ssg83
g2278
sg76
(lp2285
S''
asbasbasbag69
(g85
g71
NtRp2286
(dp2287
g74
(dp2288
sg83
g2162
sg76
(lp2289
g69
(g90
g71
NtRp2290
(dp2291
g74
(dp2292
g94
g95
ssg83
g2286
sg76
(lp2293
g432
asbag69
(g90
g71
NtRp2294
(dp2295
g74
(dp2296
g101
g102
ssg83
g2286
sg76
(lp2297
S':'
asbag69
(g90
g71
NtRp2298
(dp2299
g74
(dp2300
sg83
g2286
sg76
(lp2301
g69
(g70
g71
NtRp2302
(dp2303
g74
(dp2304
g82
I3
ssg83
g2298
sg76
(lp2305
S''
asbasbasbag69
(g85
g71
NtRp2306
(dp2307
g74
(dp2308
sg83
g2162
sg76
(lp2309
g69
(g90
g71
NtRp2310
(dp2311
g74
(dp2312
g94
g95
ssg83
g2306
sg76
(lp2313
g453
asbag69
(g90
g71
NtRp2314
(dp2315
g74
(dp2316
g101
g102
ssg83
g2306
sg76
(lp2317
S':'
asbag69
(g90
g71
NtRp2318
(dp2319
g74
(dp2320
sg83
g2306
sg76
(lp2321
g69
(g70
g71
NtRp2322
(dp2323
g74
(dp2324
g82
I3
ssg83
g2318
sg76
(lp2325
S''
asbasbasbasbasbasbasbag69
(g85
g71
NtRp2326
(dp2327
g74
(dp2328
sg83
g268
sg76
(lp2329
g69
(g90
g71
NtRp2330
(dp2331
g74
(dp2332
g94
g95
ssg83
g2326
sg76
(lp2333
S'session_id_survey'
p2334
asbag69
(g90
g71
NtRp2335
(dp2336
g74
(dp2337
g101
g102
ssg83
g2326
sg76
(lp2338
S':'
asbag69
(g90
g71
NtRp2339
(dp2340
g74
(dp2341
sg83
g2326
sg76
(lp2342
g69
(g70
g71
NtRp2343
(dp2344
g74
(dp2345
g82
I4
ssg83
g2339
sg76
(lp2346
S'127.0.0.1-11471859-ac59-4dbb-b26b-d05d1ed5f9fd'
p2347
ag69
(g78
g71
NtRp2348
(dp2349
g74
(dp2350
g82
I3
ssg83
Nsg76
(lp2351
g69
(g85
g71
NtRp2352
(dp2353
g74
(dp2354
sg83
g2348
sg76
(lp2355
g69
(g90
g71
NtRp2356
(dp2357
g74
(dp2358
g94
g95
ssg83
g2352
sg76
(lp2359
g306
asbag69
(g90
g71
NtRp2360
(dp2361
g74
(dp2362
g101
g102
ssg83
g2352
sg76
(lp2363
S':'
asbag69
(g90
g71
NtRp2364
(dp2365
g74
(dp2366
sg83
g2352
sg76
(lp2367
g69
(g70
g71
NtRp2368
(dp2369
g74
(dp2370
g82
I3
ssg83
g2364
sg76
(lp2371
S''
asbasbasbag69
(g85
g71
NtRp2372
(dp2373
g74
(dp2374
sg83
g2348
sg76
(lp2375
g69
(g90
g71
NtRp2376
(dp2377
g74
(dp2378
g94
g95
ssg83
g2372
sg76
(lp2379
g327
asbag69
(g90
g71
NtRp2380
(dp2381
g74
(dp2382
g101
g102
ssg83
g2372
sg76
(lp2383
S':'
asbag69
(g90
g71
NtRp2384
(dp2385
g74
(dp2386
sg83
g2372
sg76
(lp2387
g69
(g70
g71
NtRp2388
(dp2389
g74
(dp2390
g82
I3
ssg83
g2384
sg76
(lp2391
S''
asbasbasbag69
(g85
g71
NtRp2392
(dp2393
g74
(dp2394
sg83
g2348
sg76
(lp2395
g69
(g90
g71
NtRp2396
(dp2397
g74
(dp2398
g94
g95
ssg83
g2392
sg76
(lp2399
g348
asbag69
(g90
g71
NtRp2400
(dp2401
g74
(dp2402
g101
g102
ssg83
g2392
sg76
(lp2403
S':'
asbag69
(g90
g71
NtRp2404
(dp2405
g74
(dp2406
sg83
g2392
sg76
(lp2407
g69
(g70
g71
NtRp2408
(dp2409
g74
(dp2410
g82
I3
ssg83
g2404
sg76
(lp2411
S''
asbasbasbag69
(g85
g71
NtRp2412
(dp2413
g74
(dp2414
sg83
g2348
sg76
(lp2415
g69
(g90
g71
NtRp2416
(dp2417
g74
(dp2418
g94
g95
ssg83
g2412
sg76
(lp2419
g369
asbag69
(g90
g71
NtRp2420
(dp2421
g74
(dp2422
g101
g102
ssg83
g2412
sg76
(lp2423
S':'
asbag69
(g90
g71
NtRp2424
(dp2425
g74
(dp2426
sg83
g2412
sg76
(lp2427
g69
(g70
g71
NtRp2428
(dp2429
g74
(dp2430
g82
I3
ssg83
g2424
sg76
(lp2431
S''
asbasbasbag69
(g85
g71
NtRp2432
(dp2433
g74
(dp2434
sg83
g2348
sg76
(lp2435
g69
(g90
g71
NtRp2436
(dp2437
g74
(dp2438
g94
g95
ssg83
g2432
sg76
(lp2439
g390
asbag69
(g90
g71
NtRp2440
(dp2441
g74
(dp2442
g101
g102
ssg83
g2432
sg76
(lp2443
S':'
asbag69
(g90
g71
NtRp2444
(dp2445
g74
(dp2446
sg83
g2432
sg76
(lp2447
g69
(g70
g71
NtRp2448
(dp2449
g74
(dp2450
g82
I3
ssg83
g2444
sg76
(lp2451
S''
asbasbasbag69
(g85
g71
NtRp2452
(dp2453
g74
(dp2454
sg83
g2348
sg76
(lp2455
g69
(g90
g71
NtRp2456
(dp2457
g74
(dp2458
g94
g95
ssg83
g2452
sg76
(lp2459
g411
asbag69
(g90
g71
NtRp2460
(dp2461
g74
(dp2462
g101
g102
ssg83
g2452
sg76
(lp2463
S':'
asbag69
(g90
g71
NtRp2464
(dp2465
g74
(dp2466
sg83
g2452
sg76
(lp2467
g69
(g70
g71
NtRp2468
(dp2469
g74
(dp2470
g82
I3
ssg83
g2464
sg76
(lp2471
S''
asbasbasbag69
(g85
g71
NtRp2472
(dp2473
g74
(dp2474
sg83
g2348
sg76
(lp2475
g69
(g90
g71
NtRp2476
(dp2477
g74
(dp2478
g94
g95
ssg83
g2472
sg76
(lp2479
g432
asbag69
(g90
g71
NtRp2480
(dp2481
g74
(dp2482
g101
g102
ssg83
g2472
sg76
(lp2483
S':'
asbag69
(g90
g71
NtRp2484
(dp2485
g74
(dp2486
sg83
g2472
sg76
(lp2487
g69
(g70
g71
NtRp2488
(dp2489
g74
(dp2490
g82
I3
ssg83
g2484
sg76
(lp2491
S''
asbasbasbag69
(g85
g71
NtRp2492
(dp2493
g74
(dp2494
sg83
g2348
sg76
(lp2495
g69
(g90
g71
NtRp2496
(dp2497
g74
(dp2498
g94
g95
ssg83
g2492
sg76
(lp2499
g453
asbag69
(g90
g71
NtRp2500
(dp2501
g74
(dp2502
g101
g102
ssg83
g2492
sg76
(lp2503
S':'
asbag69
(g90
g71
NtRp2504
(dp2505
g74
(dp2506
sg83
g2492
sg76
(lp2507
g69
(g70
g71
NtRp2508
(dp2509
g74
(dp2510
g82
I3
ssg83
g2504
sg76
(lp2511
S''
asbasbasbasbasbasbasbag69
(g85
g71
NtRp2512
(dp2513
g74
(dp2514
sg83
g268
sg76
(lp2515
g69
(g90
g71
NtRp2516
(dp2517
g74
(dp2518
g94
g95
ssg83
g2512
sg76
(lp2519
S'session_id_taship'
p2520
asbag69
(g90
g71
NtRp2521
(dp2522
g74
(dp2523
g101
g102
ssg83
g2512
sg76
(lp2524
S':'
asbag69
(g90
g71
NtRp2525
(dp2526
g74
(dp2527
sg83
g2512
sg76
(lp2528
g69
(g70
g71
NtRp2529
(dp2530
g74
(dp2531
g82
I4
ssg83
g2525
sg76
(lp2532
S'127.0.0.1-546c086b-cc9a-49ea-8a01-88e3b411c0b7'
p2533
ag69
(g78
g71
NtRp2534
(dp2535
g74
(dp2536
g82
I3
ssg83
Nsg76
(lp2537
g69
(g85
g71
NtRp2538
(dp2539
g74
(dp2540
sg83
g2534
sg76
(lp2541
g69
(g90
g71
NtRp2542
(dp2543
g74
(dp2544
g94
g95
ssg83
g2538
sg76
(lp2545
g306
asbag69
(g90
g71
NtRp2546
(dp2547
g74
(dp2548
g101
g102
ssg83
g2538
sg76
(lp2549
S':'
asbag69
(g90
g71
NtRp2550
(dp2551
g74
(dp2552
sg83
g2538
sg76
(lp2553
g69
(g70
g71
NtRp2554
(dp2555
g74
(dp2556
g82
I3
ssg83
g2550
sg76
(lp2557
S''
asbasbasbag69
(g85
g71
NtRp2558
(dp2559
g74
(dp2560
sg83
g2534
sg76
(lp2561
g69
(g90
g71
NtRp2562
(dp2563
g74
(dp2564
g94
g95
ssg83
g2558
sg76
(lp2565
g327
asbag69
(g90
g71
NtRp2566
(dp2567
g74
(dp2568
g101
g102
ssg83
g2558
sg76
(lp2569
S':'
asbag69
(g90
g71
NtRp2570
(dp2571
g74
(dp2572
sg83
g2558
sg76
(lp2573
g69
(g70
g71
NtRp2574
(dp2575
g74
(dp2576
g82
I3
ssg83
g2570
sg76
(lp2577
S''
asbasbasbag69
(g85
g71
NtRp2578
(dp2579
g74
(dp2580
sg83
g2534
sg76
(lp2581
g69
(g90
g71
NtRp2582
(dp2583
g74
(dp2584
g94
g95
ssg83
g2578
sg76
(lp2585
g348
asbag69
(g90
g71
NtRp2586
(dp2587
g74
(dp2588
g101
g102
ssg83
g2578
sg76
(lp2589
S':'
asbag69
(g90
g71
NtRp2590
(dp2591
g74
(dp2592
sg83
g2578
sg76
(lp2593
g69
(g70
g71
NtRp2594
(dp2595
g74
(dp2596
g82
I3
ssg83
g2590
sg76
(lp2597
S''
asbasbasbag69
(g85
g71
NtRp2598
(dp2599
g74
(dp2600
sg83
g2534
sg76
(lp2601
g69
(g90
g71
NtRp2602
(dp2603
g74
(dp2604
g94
g95
ssg83
g2598
sg76
(lp2605
g369
asbag69
(g90
g71
NtRp2606
(dp2607
g74
(dp2608
g101
g102
ssg83
g2598
sg76
(lp2609
S':'
asbag69
(g90
g71
NtRp2610
(dp2611
g74
(dp2612
sg83
g2598
sg76
(lp2613
g69
(g70
g71
NtRp2614
(dp2615
g74
(dp2616
g82
I3
ssg83
g2610
sg76
(lp2617
S''
asbasbasbag69
(g85
g71
NtRp2618
(dp2619
g74
(dp2620
sg83
g2534
sg76
(lp2621
g69
(g90
g71
NtRp2622
(dp2623
g74
(dp2624
g94
g95
ssg83
g2618
sg76
(lp2625
g390
asbag69
(g90
g71
NtRp2626
(dp2627
g74
(dp2628
g101
g102
ssg83
g2618
sg76
(lp2629
S':'
asbag69
(g90
g71
NtRp2630
(dp2631
g74
(dp2632
sg83
g2618
sg76
(lp2633
g69
(g70
g71
NtRp2634
(dp2635
g74
(dp2636
g82
I3
ssg83
g2630
sg76
(lp2637
S''
asbasbasbag69
(g85
g71
NtRp2638
(dp2639
g74
(dp2640
sg83
g2534
sg76
(lp2641
g69
(g90
g71
NtRp2642
(dp2643
g74
(dp2644
g94
g95
ssg83
g2638
sg76
(lp2645
g411
asbag69
(g90
g71
NtRp2646
(dp2647
g74
(dp2648
g101
g102
ssg83
g2638
sg76
(lp2649
S':'
asbag69
(g90
g71
NtRp2650
(dp2651
g74
(dp2652
sg83
g2638
sg76
(lp2653
g69
(g70
g71
NtRp2654
(dp2655
g74
(dp2656
g82
I3
ssg83
g2650
sg76
(lp2657
S''
asbasbasbag69
(g85
g71
NtRp2658
(dp2659
g74
(dp2660
sg83
g2534
sg76
(lp2661
g69
(g90
g71
NtRp2662
(dp2663
g74
(dp2664
g94
g95
ssg83
g2658
sg76
(lp2665
g432
asbag69
(g90
g71
NtRp2666
(dp2667
g74
(dp2668
g101
g102
ssg83
g2658
sg76
(lp2669
S':'
asbag69
(g90
g71
NtRp2670
(dp2671
g74
(dp2672
sg83
g2658
sg76
(lp2673
g69
(g70
g71
NtRp2674
(dp2675
g74
(dp2676
g82
I3
ssg83
g2670
sg76
(lp2677
S''
asbasbasbag69
(g85
g71
NtRp2678
(dp2679
g74
(dp2680
sg83
g2534
sg76
(lp2681
g69
(g90
g71
NtRp2682
(dp2683
g74
(dp2684
g94
g95
ssg83
g2678
sg76
(lp2685
g453
asbag69
(g90
g71
NtRp2686
(dp2687
g74
(dp2688
g101
g102
ssg83
g2678
sg76
(lp2689
S':'
asbag69
(g90
g71
NtRp2690
(dp2691
g74
(dp2692
sg83
g2678
sg76
(lp2693
g69
(g70
g71
NtRp2694
(dp2695
g74
(dp2696
g82
I3
ssg83
g2690
sg76
(lp2697
S''
asbasbasbasbasbasbasbag69
(g85
g71
NtRp2698
(dp2699
g74
(dp2700
sg83
g268
sg76
(lp2701
g69
(g90
g71
NtRp2702
(dp2703
g74
(dp2704
g94
g95
ssg83
g2698
sg76
(lp2705
S'session_id_test'
p2706
asbag69
(g90
g71
NtRp2707
(dp2708
g74
(dp2709
g101
g102
ssg83
g2698
sg76
(lp2710
S':'
asbag69
(g90
g71
NtRp2711
(dp2712
g74
(dp2713
sg83
g2698
sg76
(lp2714
g69
(g70
g71
NtRp2715
(dp2716
g74
(dp2717
g82
I4
ssg83
g2711
sg76
(lp2718
S'127.0.0.1-fd7c879f-51db-4919-b1ed-ba91e8b59325'
p2719
ag69
(g78
g71
NtRp2720
(dp2721
g74
(dp2722
g82
I3
ssg83
Nsg76
(lp2723
g69
(g85
g71
NtRp2724
(dp2725
g74
(dp2726
sg83
g2720
sg76
(lp2727
g69
(g90
g71
NtRp2728
(dp2729
g74
(dp2730
g94
g95
ssg83
g2724
sg76
(lp2731
g306
asbag69
(g90
g71
NtRp2732
(dp2733
g74
(dp2734
g101
g102
ssg83
g2724
sg76
(lp2735
S':'
asbag69
(g90
g71
NtRp2736
(dp2737
g74
(dp2738
sg83
g2724
sg76
(lp2739
g69
(g70
g71
NtRp2740
(dp2741
g74
(dp2742
g82
I3
ssg83
g2736
sg76
(lp2743
S''
asbasbasbag69
(g85
g71
NtRp2744
(dp2745
g74
(dp2746
sg83
g2720
sg76
(lp2747
g69
(g90
g71
NtRp2748
(dp2749
g74
(dp2750
g94
g95
ssg83
g2744
sg76
(lp2751
g327
asbag69
(g90
g71
NtRp2752
(dp2753
g74
(dp2754
g101
g102
ssg83
g2744
sg76
(lp2755
S':'
asbag69
(g90
g71
NtRp2756
(dp2757
g74
(dp2758
sg83
g2744
sg76
(lp2759
g69
(g70
g71
NtRp2760
(dp2761
g74
(dp2762
g82
I3
ssg83
g2756
sg76
(lp2763
S''
asbasbasbag69
(g85
g71
NtRp2764
(dp2765
g74
(dp2766
sg83
g2720
sg76
(lp2767
g69
(g90
g71
NtRp2768
(dp2769
g74
(dp2770
g94
g95
ssg83
g2764
sg76
(lp2771
g348
asbag69
(g90
g71
NtRp2772
(dp2773
g74
(dp2774
g101
g102
ssg83
g2764
sg76
(lp2775
S':'
asbag69
(g90
g71
NtRp2776
(dp2777
g74
(dp2778
sg83
g2764
sg76
(lp2779
g69
(g70
g71
NtRp2780
(dp2781
g74
(dp2782
g82
I3
ssg83
g2776
sg76
(lp2783
S''
asbasbasbag69
(g85
g71
NtRp2784
(dp2785
g74
(dp2786
sg83
g2720
sg76
(lp2787
g69
(g90
g71
NtRp2788
(dp2789
g74
(dp2790
g94
g95
ssg83
g2784
sg76
(lp2791
g369
asbag69
(g90
g71
NtRp2792
(dp2793
g74
(dp2794
g101
g102
ssg83
g2784
sg76
(lp2795
S':'
asbag69
(g90
g71
NtRp2796
(dp2797
g74
(dp2798
sg83
g2784
sg76
(lp2799
g69
(g70
g71
NtRp2800
(dp2801
g74
(dp2802
g82
I3
ssg83
g2796
sg76
(lp2803
S''
asbasbasbag69
(g85
g71
NtRp2804
(dp2805
g74
(dp2806
sg83
g2720
sg76
(lp2807
g69
(g90
g71
NtRp2808
(dp2809
g74
(dp2810
g94
g95
ssg83
g2804
sg76
(lp2811
g390
asbag69
(g90
g71
NtRp2812
(dp2813
g74
(dp2814
g101
g102
ssg83
g2804
sg76
(lp2815
S':'
asbag69
(g90
g71
NtRp2816
(dp2817
g74
(dp2818
sg83
g2804
sg76
(lp2819
g69
(g70
g71
NtRp2820
(dp2821
g74
(dp2822
g82
I3
ssg83
g2816
sg76
(lp2823
S''
asbasbasbag69
(g85
g71
NtRp2824
(dp2825
g74
(dp2826
sg83
g2720
sg76
(lp2827
g69
(g90
g71
NtRp2828
(dp2829
g74
(dp2830
g94
g95
ssg83
g2824
sg76
(lp2831
g411
asbag69
(g90
g71
NtRp2832
(dp2833
g74
(dp2834
g101
g102
ssg83
g2824
sg76
(lp2835
S':'
asbag69
(g90
g71
NtRp2836
(dp2837
g74
(dp2838
sg83
g2824
sg76
(lp2839
g69
(g70
g71
NtRp2840
(dp2841
g74
(dp2842
g82
I3
ssg83
g2836
sg76
(lp2843
S''
asbasbasbag69
(g85
g71
NtRp2844
(dp2845
g74
(dp2846
sg83
g2720
sg76
(lp2847
g69
(g90
g71
NtRp2848
(dp2849
g74
(dp2850
g94
g95
ssg83
g2844
sg76
(lp2851
g432
asbag69
(g90
g71
NtRp2852
(dp2853
g74
(dp2854
g101
g102
ssg83
g2844
sg76
(lp2855
S':'
asbag69
(g90
g71
NtRp2856
(dp2857
g74
(dp2858
sg83
g2844
sg76
(lp2859
g69
(g70
g71
NtRp2860
(dp2861
g74
(dp2862
g82
I3
ssg83
g2856
sg76
(lp2863
S''
asbasbasbag69
(g85
g71
NtRp2864
(dp2865
g74
(dp2866
sg83
g2720
sg76
(lp2867
g69
(g90
g71
NtRp2868
(dp2869
g74
(dp2870
g94
g95
ssg83
g2864
sg76
(lp2871
g453
asbag69
(g90
g71
NtRp2872
(dp2873
g74
(dp2874
g101
g102
ssg83
g2864
sg76
(lp2875
S':'
asbag69
(g90
g71
NtRp2876
(dp2877
g74
(dp2878
sg83
g2864
sg76
(lp2879
g69
(g70
g71
NtRp2880
(dp2881
g74
(dp2882
g82
I3
ssg83
g2876
sg76
(lp2883
S''
asbasbasbasbasbasbasbag69
(g85
g71
NtRp2884
(dp2885
g74
(dp2886
sg83
g268
sg76
(lp2887
g69
(g90
g71
NtRp2888
(dp2889
g74
(dp2890
g94
g95
ssg83
g2884
sg76
(lp2891
S'session_id_welcome'
p2892
asbag69
(g90
g71
NtRp2893
(dp2894
g74
(dp2895
g101
g102
ssg83
g2884
sg76
(lp2896
S':'
asbag69
(g90
g71
NtRp2897
(dp2898
g74
(dp2899
sg83
g2884
sg76
(lp2900
g69
(g70
g71
NtRp2901
(dp2902
g74
(dp2903
g82
I4
ssg83
g2897
sg76
(lp2904
S'127.0.0.1-40e56d65-60f2-4b2b-8123-c6cd4e4e3f3d'
p2905
ag69
(g78
g71
NtRp2906
(dp2907
g74
(dp2908
g82
I3
ssg83
Nsg76
(lp2909
g69
(g85
g71
NtRp2910
(dp2911
g74
(dp2912
sg83
g2906
sg76
(lp2913
g69
(g90
g71
NtRp2914
(dp2915
g74
(dp2916
g94
g95
ssg83
g2910
sg76
(lp2917
g306
asbag69
(g90
g71
NtRp2918
(dp2919
g74
(dp2920
g101
g102
ssg83
g2910
sg76
(lp2921
S':'
asbag69
(g90
g71
NtRp2922
(dp2923
g74
(dp2924
sg83
g2910
sg76
(lp2925
g69
(g70
g71
NtRp2926
(dp2927
g74
(dp2928
g82
I3
ssg83
g2922
sg76
(lp2929
S''
asbasbasbag69
(g85
g71
NtRp2930
(dp2931
g74
(dp2932
sg83
g2906
sg76
(lp2933
g69
(g90
g71
NtRp2934
(dp2935
g74
(dp2936
g94
g95
ssg83
g2930
sg76
(lp2937
g327
asbag69
(g90
g71
NtRp2938
(dp2939
g74
(dp2940
g101
g102
ssg83
g2930
sg76
(lp2941
S':'
asbag69
(g90
g71
NtRp2942
(dp2943
g74
(dp2944
sg83
g2930
sg76
(lp2945
g69
(g70
g71
NtRp2946
(dp2947
g74
(dp2948
g82
I3
ssg83
g2942
sg76
(lp2949
S''
asbasbasbag69
(g85
g71
NtRp2950
(dp2951
g74
(dp2952
sg83
g2906
sg76
(lp2953
g69
(g90
g71
NtRp2954
(dp2955
g74
(dp2956
g94
g95
ssg83
g2950
sg76
(lp2957
g348
asbag69
(g90
g71
NtRp2958
(dp2959
g74
(dp2960
g101
g102
ssg83
g2950
sg76
(lp2961
S':'
asbag69
(g90
g71
NtRp2962
(dp2963
g74
(dp2964
sg83
g2950
sg76
(lp2965
g69
(g70
g71
NtRp2966
(dp2967
g74
(dp2968
g82
I3
ssg83
g2962
sg76
(lp2969
S''
asbasbasbag69
(g85
g71
NtRp2970
(dp2971
g74
(dp2972
sg83
g2906
sg76
(lp2973
g69
(g90
g71
NtRp2974
(dp2975
g74
(dp2976
g94
g95
ssg83
g2970
sg76
(lp2977
g369
asbag69
(g90
g71
NtRp2978
(dp2979
g74
(dp2980
g101
g102
ssg83
g2970
sg76
(lp2981
S':'
asbag69
(g90
g71
NtRp2982
(dp2983
g74
(dp2984
sg83
g2970
sg76
(lp2985
g69
(g70
g71
NtRp2986
(dp2987
g74
(dp2988
g82
I3
ssg83
g2982
sg76
(lp2989
S''
asbasbasbag69
(g85
g71
NtRp2990
(dp2991
g74
(dp2992
sg83
g2906
sg76
(lp2993
g69
(g90
g71
NtRp2994
(dp2995
g74
(dp2996
g94
g95
ssg83
g2990
sg76
(lp2997
g390
asbag69
(g90
g71
NtRp2998
(dp2999
g74
(dp3000
g101
g102
ssg83
g2990
sg76
(lp3001
S':'
asbag69
(g90
g71
NtRp3002
(dp3003
g74
(dp3004
sg83
g2990
sg76
(lp3005
g69
(g70
g71
NtRp3006
(dp3007
g74
(dp3008
g82
I3
ssg83
g3002
sg76
(lp3009
S''
asbasbasbag69
(g85
g71
NtRp3010
(dp3011
g74
(dp3012
sg83
g2906
sg76
(lp3013
g69
(g90
g71
NtRp3014
(dp3015
g74
(dp3016
g94
g95
ssg83
g3010
sg76
(lp3017
g411
asbag69
(g90
g71
NtRp3018
(dp3019
g74
(dp3020
g101
g102
ssg83
g3010
sg76
(lp3021
S':'
asbag69
(g90
g71
NtRp3022
(dp3023
g74
(dp3024
sg83
g3010
sg76
(lp3025
g69
(g70
g71
NtRp3026
(dp3027
g74
(dp3028
g82
I3
ssg83
g3022
sg76
(lp3029
S''
asbasbasbag69
(g85
g71
NtRp3030
(dp3031
g74
(dp3032
sg83
g2906
sg76
(lp3033
g69
(g90
g71
NtRp3034
(dp3035
g74
(dp3036
g94
g95
ssg83
g3030
sg76
(lp3037
g432
asbag69
(g90
g71
NtRp3038
(dp3039
g74
(dp3040
g101
g102
ssg83
g3030
sg76
(lp3041
S':'
asbag69
(g90
g71
NtRp3042
(dp3043
g74
(dp3044
sg83
g3030
sg76
(lp3045
g69
(g70
g71
NtRp3046
(dp3047
g74
(dp3048
g82
I3
ssg83
g3042
sg76
(lp3049
S''
asbasbasbag69
(g85
g71
NtRp3050
(dp3051
g74
(dp3052
sg83
g2906
sg76
(lp3053
g69
(g90
g71
NtRp3054
(dp3055
g74
(dp3056
g94
g95
ssg83
g3050
sg76
(lp3057
g453
asbag69
(g90
g71
NtRp3058
(dp3059
g74
(dp3060
g101
g102
ssg83
g3050
sg76
(lp3061
S':'
asbag69
(g90
g71
NtRp3062
(dp3063
g74
(dp3064
sg83
g3050
sg76
(lp3065
g69
(g70
g71
NtRp3066
(dp3067
g74
(dp3068
g82
I3
ssg83
g3062
sg76
(lp3069
S''
asbasbasbasbasbasbasbasbasbasbasbag69
(g85
g71
NtRp3070
(dp3071
g74
(dp3072
sg83
g79
sg76
(lp3073
g69
(g90
g71
NtRp3074
(dp3075
g74
(dp3076
g94
g95
ssg83
g3070
sg76
(lp3077
S'env'
p3078
asbag69
(g90
g71
NtRp3079
(dp3080
g74
(dp3081
g101
g102
ssg83
g3070
sg76
(lp3082
S':'
asbag69
(g90
g71
NtRp3083
(dp3084
g74
(dp3085
sg83
g3070
sg76
(lp3086
g69
(g70
g71
NtRp3087
(dp3088
g74
(dp3089
g82
I5
ssg83
g3083
sg76
(lp3090
g69
(g78
g71
NtRp3091
(dp3092
g74
(dp3093
g82
I4
ssg83
Nsg76
(lp3094
g69
(g85
g71
NtRp3095
(dp3096
g74
(dp3097
sg83
g3091
sg76
(lp3098
g69
(g90
g71
NtRp3099
(dp3100
g74
(dp3101
g94
g95
ssg83
g3095
sg76
(lp3102
S'app_folders'
p3103
asbag69
(g90
g71
NtRp3104
(dp3105
g74
(dp3106
g101
g102
ssg83
g3095
sg76
(lp3107
S':'
asbag69
(g90
g71
NtRp3108
(dp3109
g74
(dp3110
sg83
g3095
sg76
(lp3111
g69
(g70
g71
NtRp3112
(dp3113
g74
(dp3114
g82
I4
ssg83
g3108
sg76
(lp3115
S"set(['/home/mayank/Desktop/web2pyAdmin/web2py/web2py/applications/welcome/', '/home/mayank/Desktop/web2pyAdmin/web2py/web2py/applications/admin/', '/home/mayank/Desktop/web2pyAdmin/web2py/web2py/applications/FunkLoad/'])"
p3116
asbasbasbag69
(g85
g71
NtRp3117
(dp3118
g74
(dp3119
sg83
g3091
sg76
(lp3120
g69
(g90
g71
NtRp3121
(dp3122
g74
(dp3123
g94
g95
ssg83
g3117
sg76
(lp3124
S'applications_parent'
p3125
asbag69
(g90
g71
NtRp3126
(dp3127
g74
(dp3128
g101
g102
ssg83
g3117
sg76
(lp3129
S':'
asbag69
(g90
g71
NtRp3130
(dp3131
g74
(dp3132
sg83
g3117
sg76
(lp3133
g69
(g70
g71
NtRp3134
(dp3135
g74
(dp3136
g82
I4
ssg83
g3130
sg76
(lp3137
S'/home/mayank/Desktop/web2pyAdmin/web2py/web2py'
p3138
asbasbasbag69
(g85
g71
NtRp3139
(dp3140
g74
(dp3141
sg83
g3091
sg76
(lp3142
g69
(g90
g71
NtRp3143
(dp3144
g74
(dp3145
g94
g95
ssg83
g3139
sg76
(lp3146
S'cmd_args'
p3147
asbag69
(g90
g71
NtRp3148
(dp3149
g74
(dp3150
g101
g102
ssg83
g3139
sg76
(lp3151
S':'
asbag69
(g90
g71
NtRp3152
(dp3153
g74
(dp3154
sg83
g3139
sg76
(lp3155
g69
(g70
g71
NtRp3156
(dp3157
g74
(dp3158
g82
I4
ssg83
g3152
sg76
(lp3159
g69
(g78
g71
NtRp3160
(dp3161
g74
(dp3162
g82
I3
ssg83
Nsg76
(lp3163
sbasbasbasbag69
(g85
g71
NtRp3164
(dp3165
g74
(dp3166
sg83
g3091
sg76
(lp3167
g69
(g90
g71
NtRp3168
(dp3169
g74
(dp3170
g94
g95
ssg83
g3164
sg76
(lp3171
S'cmd_options'
p3172
asbag69
(g90
g71
NtRp3173
(dp3174
g74
(dp3175
g101
g102
ssg83
g3164
sg76
(lp3176
S':'
asbag69
(g90
g71
NtRp3177
(dp3178
g74
(dp3179
sg83
g3164
sg76
(lp3180
g69
(g70
g71
NtRp3181
(dp3182
g74
(dp3183
g82
I4
ssg83
g3177
sg76
(lp3184
S"<Values at 0x181b290: {'verbose': False, 'ip': '127.0.0.1', 'with_scheduler': False, 'ips': ['127.0.1.1', '10.1.33.121'], 'shutdown_timeout': 5, 'taskbar': False, 'port': 8000, 'maxthreads': None, 'softcron': False, 'server_name': 'mayank', 'bpython': False, 'nogui': False, 'nocron': False, 'extcron': False, 'run_system_tests': False, 'test': None, 'folder': '/home/mayank/Desktop/web2pyAdmin/web2py/web2py', 'config': '', 'import_models': False, 'winservice': '', 'shell': None, 'run': '', 'log_filename': 'httpserver.log', 'debuglevel': 30, 'args': [''], 'socket_timeout': 5, 'ssl_ca_certificate': None, 'scheduler': None, 'profiler_filename': None, 'ssl_private_key': '', 'scheduler_groups': None, 'password': 'mayank', 'request_queue_size': 5, 'ssl_certificate': '', 'cronjob': False, 'numthreads': None, 'quiet': False, 'interfaces': None, 'minthreads': None, 'timeout': 10, 'plain': False, 'nobanner': False, 'pid_filename': 'httpserver.pid'}>"
p3185
asbasbasbag69
(g85
g71
NtRp3186
(dp3187
g74
(dp3188
sg83
g3091
sg76
(lp3189
g69
(g90
g71
NtRp3190
(dp3191
g74
(dp3192
g94
g95
ssg83
g3186
sg76
(lp3193
S'db_sessions'
p3194
asbag69
(g90
g71
NtRp3195
(dp3196
g74
(dp3197
g101
g102
ssg83
g3186
sg76
(lp3198
S':'
asbag69
(g90
g71
NtRp3199
(dp3200
g74
(dp3201
sg83
g3186
sg76
(lp3202
g69
(g70
g71
NtRp3203
(dp3204
g74
(dp3205
g82
I4
ssg83
g3199
sg76
(lp3206
S'set([])'
p3207
asbasbasbag69
(g85
g71
NtRp3208
(dp3209
g74
(dp3210
sg83
g3091
sg76
(lp3211
g69
(g90
g71
NtRp3212
(dp3213
g74
(dp3214
g94
g95
ssg83
g3208
sg76
(lp3215
S'debugging'
p3216
asbag69
(g90
g71
NtRp3217
(dp3218
g74
(dp3219
g101
g102
ssg83
g3208
sg76
(lp3220
S':'
asbag69
(g90
g71
NtRp3221
(dp3222
g74
(dp3223
sg83
g3208
sg76
(lp3224
g69
(g70
g71
NtRp3225
(dp3226
g74
(dp3227
g82
I4
ssg83
g3221
sg76
(lp3228
g112
asbasbasbag69
(g85
g71
NtRp3229
(dp3230
g74
(dp3231
sg83
g3091
sg76
(lp3232
g69
(g90
g71
NtRp3233
(dp3234
g74
(dp3235
g94
g95
ssg83
g3229
sg76
(lp3236
S'gluon_parent'
p3237
asbag69
(g90
g71
NtRp3238
(dp3239
g74
(dp3240
g101
g102
ssg83
g3229
sg76
(lp3241
S':'
asbag69
(g90
g71
NtRp3242
(dp3243
g74
(dp3244
sg83
g3229
sg76
(lp3245
g69
(g70
g71
NtRp3246
(dp3247
g74
(dp3248
g82
I4
ssg83
g3242
sg76
(lp3249
S'/home/mayank/Desktop/web2pyAdmin/web2py/web2py'
p3250
asbasbasbag69
(g85
g71
NtRp3251
(dp3252
g74
(dp3253
sg83
g3091
sg76
(lp3254
g69
(g90
g71
NtRp3255
(dp3256
g74
(dp3257
g94
g95
ssg83
g3251
sg76
(lp3258
S'http_accept'
p3259
asbag69
(g90
g71
NtRp3260
(dp3261
g74
(dp3262
g101
g102
ssg83
g3251
sg76
(lp3263
S':'
asbag69
(g90
g71
NtRp3264
(dp3265
g74
(dp3266
sg83
g3251
sg76
(lp3267
g69
(g70
g71
NtRp3268
(dp3269
g74
(dp3270
g82
I4
ssg83
g3264
sg76
(lp3271
S'text/html,application/xhtml+xml,application/xml;q=0.9,image/webp,*/*;q=0.8'
p3272
asbasbasbag69
(g85
g71
NtRp3273
(dp3274
g74
(dp3275
sg83
g3091
sg76
(lp3276
g69
(g90
g71
NtRp3277
(dp3278
g74
(dp3279
g94
g95
ssg83
g3273
sg76
(lp3280
S'http_accept_encoding'
p3281
asbag69
(g90
g71
NtRp3282
(dp3283
g74
(dp3284
g101
g102
ssg83
g3273
sg76
(lp3285
S':'
asbag69
(g90
g71
NtRp3286
(dp3287
g74
(dp3288
sg83
g3273
sg76
(lp3289
g69
(g70
g71
NtRp3290
(dp3291
g74
(dp3292
g82
I4
ssg83
g3286
sg76
(lp3293
S'gzip,deflate,sdch'
p3294
asbasbasbag69
(g85
g71
NtRp3295
(dp3296
g74
(dp3297
sg83
g3091
sg76
(lp3298
g69
(g90
g71
NtRp3299
(dp3300
g74
(dp3301
g94
g95
ssg83
g3295
sg76
(lp3302
S'http_accept_language'
p3303
asbag69
(g90
g71
NtRp3304
(dp3305
g74
(dp3306
g101
g102
ssg83
g3295
sg76
(lp3307
S':'
asbag69
(g90
g71
NtRp3308
(dp3309
g74
(dp3310
sg83
g3295
sg76
(lp3311
g69
(g70
g71
NtRp3312
(dp3313
g74
(dp3314
g82
I4
ssg83
g3308
sg76
(lp3315
S'en-US,en;q=0.8'
p3316
asbasbasbag69
(g85
g71
NtRp3317
(dp3318
g74
(dp3319
sg83
g3091
sg76
(lp3320
g69
(g90
g71
NtRp3321
(dp3322
g74
(dp3323
g94
g95
ssg83
g3317
sg76
(lp3324
S'http_cache_control'
p3325
asbag69
(g90
g71
NtRp3326
(dp3327
g74
(dp3328
g101
g102
ssg83
g3317
sg76
(lp3329
S':'
asbag69
(g90
g71
NtRp3330
(dp3331
g74
(dp3332
sg83
g3317
sg76
(lp3333
g69
(g70
g71
NtRp3334
(dp3335
g74
(dp3336
g82
I4
ssg83
g3330
sg76
(lp3337
S'no-cache'
p3338
asbasbasbag69
(g85
g71
NtRp3339
(dp3340
g74
(dp3341
sg83
g3091
sg76
(lp3342
g69
(g90
g71
NtRp3343
(dp3344
g74
(dp3345
g94
g95
ssg83
g3339
sg76
(lp3346
S'http_connection'
p3347
asbag69
(g90
g71
NtRp3348
(dp3349
g74
(dp3350
g101
g102
ssg83
g3339
sg76
(lp3351
S':'
asbag69
(g90
g71
NtRp3352
(dp3353
g74
(dp3354
sg83
g3339
sg76
(lp3355
g69
(g70
g71
NtRp3356
(dp3357
g74
(dp3358
g82
I4
ssg83
g3352
sg76
(lp3359
S'keep-alive'
p3360
asbasbasbag69
(g85
g71
NtRp3361
(dp3362
g74
(dp3363
sg83
g3091
sg76
(lp3364
g69
(g90
g71
NtRp3365
(dp3366
g74
(dp3367
g94
g95
ssg83
g3361
sg76
(lp3368
S'http_cookie'
p3369
asbag69
(g90
g71
NtRp3370
(dp3371
g74
(dp3372
g101
g102
ssg83
g3361
sg76
(lp3373
S':'
asbag69
(g90
g71
NtRp3374
(dp3375
g74
(dp3376
sg83
g3361
sg76
(lp3377
g69
(g70
g71
NtRp3378
(dp3379
g74
(dp3380
g82
I4
ssg83
g3374
sg76
(lp3381
S'session_id_survey=127.0.0.1-11471859-ac59-4dbb-b26b-d05d1ed5f9fd; session_id_orentation=127.0.0.1-0ac45cd4-167b-443f-88dd-dc1703dec226; session_id_test=127.0.0.1-fd7c879f-51db-4919-b1ed-ba91e8b59325; session_id_kkk=127.0.0.1-d744a8ac-5c3d-4346-8de5-2240765037bf; session_id_attempt4=127.0.0.1-efc7b12d-c437-44c8-998b-7ce7c59157bf; session_id_attempt=127.0.0.1-71461326-318d-43aa-b478-e80f172f301b; session_id_201101004=127.0.0.1-37104b76-a05f-4c4f-b3d3-8fec1b91826f; session_id_201125035=127.0.0.1-36c9dda9-18cd-4798-bb80-7958e8854f14; session_id_serc=127.0.0.1-4ba64b28-9f26-46de-9d97-2038a1a727dd; session_id_ecesurvey=127.0.0.1-bc3583dd-f150-4d62-b588-7c1291bc84a1; session_id_placement_portal=127.0.0.1-3bec308b-1561-4ac1-ab22-997211fef898; session_id_taship=127.0.0.1-546c086b-cc9a-49ea-8a01-88e3b411c0b7; session_id_welcome=127.0.0.1-40e56d65-60f2-4b2b-8123-c6cd4e4e3f3d; session_id_funkload=127.0.0.1-cf22ecd2-40c5-41ec-a943-aeddb5bba043; session_id_admin=127.0.0.1-b03da5bd-920e-41b1-8f3a-a02aae2edb6f'
p3382
asbasbasbag69
(g85
g71
NtRp3383
(dp3384
g74
(dp3385
sg83
g3091
sg76
(lp3386
g69
(g90
g71
NtRp3387
(dp3388
g74
(dp3389
g94
g95
ssg83
g3383
sg76
(lp3390
S'http_host'
p3391
asbag69
(g90
g71
NtRp3392
(dp3393
g74
(dp3394
g101
g102
ssg83
g3383
sg76
(lp3395
S':'
asbag69
(g90
g71
NtRp3396
(dp3397
g74
(dp3398
sg83
g3383
sg76
(lp3399
g69
(g70
g71
NtRp3400
(dp3401
g74
(dp3402
g82
I4
ssg83
g3396
sg76
(lp3403
S'127.0.0.1:8000'
p3404
asbasbasbag69
(g85
g71
NtRp3405
(dp3406
g74
(dp3407
sg83
g3091
sg76
(lp3408
g69
(g90
g71
NtRp3409
(dp3410
g74
(dp3411
g94
g95
ssg83
g3405
sg76
(lp3412
S'http_pragma'
p3413
asbag69
(g90
g71
NtRp3414
(dp3415
g74
(dp3416
g101
g102
ssg83
g3405
sg76
(lp3417
S':'
asbag69
(g90
g71
NtRp3418
(dp3419
g74
(dp3420
sg83
g3405
sg76
(lp3421
g69
(g70
g71
NtRp3422
(dp3423
g74
(dp3424
g82
I4
ssg83
g3418
sg76
(lp3425
S'no-cache'
p3426
asbasbasbag69
(g85
g71
NtRp3427
(dp3428
g74
(dp3429
sg83
g3091
sg76
(lp3430
g69
(g90
g71
NtRp3431
(dp3432
g74
(dp3433
g94
g95
ssg83
g3427
sg76
(lp3434
S'http_referer'
p3435
asbag69
(g90
g71
NtRp3436
(dp3437
g74
(dp3438
g101
g102
ssg83
g3427
sg76
(lp3439
S':'
asbag69
(g90
g71
NtRp3440
(dp3441
g74
(dp3442
sg83
g3427
sg76
(lp3443
g69
(g70
g71
NtRp3444
(dp3445
g74
(dp3446
g82
I4
ssg83
g3440
sg76
(lp3447
S'http://127.0.0.1:8000/FunkLoad/default/user/login?_next=%2FFunkLoad%2Fdefault%2Findex'
p3448
asbasbasbag69
(g85
g71
NtRp3449
(dp3450
g74
(dp3451
sg83
g3091
sg76
(lp3452
g69
(g90
g71
NtRp3453
(dp3454
g74
(dp3455
g94
g95
ssg83
g3449
sg76
(lp3456
S'http_user_agent'
p3457
asbag69
(g90
g71
NtRp3458
(dp3459
g74
(dp3460
g101
g102
ssg83
g3449
sg76
(lp3461
S':'
asbag69
(g90
g71
NtRp3462
(dp3463
g74
(dp3464
sg83
g3449
sg76
(lp3465
g69
(g70
g71
NtRp3466
(dp3467
g74
(dp3468
g82
I4
ssg83
g3462
sg76
(lp3469
S'Mozilla/5.0 (X11; Linux x86_64) AppleWebKit/537.36 (KHTML, like Gecko) Chrome/30.0.1599.114 Safari/537.36'
p3470
asbasbasbag69
(g85
g71
NtRp3471
(dp3472
g74
(dp3473
sg83
g3091
sg76
(lp3474
g69
(g90
g71
NtRp3475
(dp3476
g74
(dp3477
g94
g95
ssg83
g3471
sg76
(lp3478
S'is_jython'
p3479
asbag69
(g90
g71
NtRp3480
(dp3481
g74
(dp3482
g101
g102
ssg83
g3471
sg76
(lp3483
S':'
asbag69
(g90
g71
NtRp3484
(dp3485
g74
(dp3486
sg83
g3471
sg76
(lp3487
g69
(g70
g71
NtRp3488
(dp3489
g74
(dp3490
g82
I4
ssg83
g3484
sg76
(lp3491
g112
asbasbasbag69
(g85
g71
NtRp3492
(dp3493
g74
(dp3494
sg83
g3091
sg76
(lp3495
g69
(g90
g71
NtRp3496
(dp3497
g74
(dp3498
g94
g95
ssg83
g3492
sg76
(lp3499
S'is_pypy'
p3500
asbag69
(g90
g71
NtRp3501
(dp3502
g74
(dp3503
g101
g102
ssg83
g3492
sg76
(lp3504
S':'
asbag69
(g90
g71
NtRp3505
(dp3506
g74
(dp3507
sg83
g3492
sg76
(lp3508
g69
(g70
g71
NtRp3509
(dp3510
g74
(dp3511
g82
I4
ssg83
g3505
sg76
(lp3512
g112
asbasbasbag69
(g85
g71
NtRp3513
(dp3514
g74
(dp3515
sg83
g3091
sg76
(lp3516
g69
(g90
g71
NtRp3517
(dp3518
g74
(dp3519
g94
g95
ssg83
g3513
sg76
(lp3520
S'path_info'
p3521
asbag69
(g90
g71
NtRp3522
(dp3523
g74
(dp3524
g101
g102
ssg83
g3513
sg76
(lp3525
S':'
asbag69
(g90
g71
NtRp3526
(dp3527
g74
(dp3528
sg83
g3513
sg76
(lp3529
g69
(g70
g71
NtRp3530
(dp3531
g74
(dp3532
g82
I4
ssg83
g3526
sg76
(lp3533
S'/FunkLoad/default/index'
p3534
asbasbasbag69
(g85
g71
NtRp3535
(dp3536
g74
(dp3537
sg83
g3091
sg76
(lp3538
g69
(g90
g71
NtRp3539
(dp3540
g74
(dp3541
g94
g95
ssg83
g3535
sg76
(lp3542
S'query_string'
p3543
asbag69
(g90
g71
NtRp3544
(dp3545
g74
(dp3546
g101
g102
ssg83
g3535
sg76
(lp3547
S':'
asbag69
(g90
g71
NtRp3548
(dp3549
g74
(dp3550
sg83
g3535
sg76
(lp3551
g69
(g70
g71
NtRp3552
(dp3553
g74
(dp3554
g82
I4
ssg83
g3548
sg76
(lp3555
S''
asbasbasbag69
(g85
g71
NtRp3556
(dp3557
g74
(dp3558
sg83
g3091
sg76
(lp3559
g69
(g90
g71
NtRp3560
(dp3561
g74
(dp3562
g94
g95
ssg83
g3556
sg76
(lp3563
S'remote_addr'
p3564
asbag69
(g90
g71
NtRp3565
(dp3566
g74
(dp3567
g101
g102
ssg83
g3556
sg76
(lp3568
S':'
asbag69
(g90
g71
NtRp3569
(dp3570
g74
(dp3571
sg83
g3556
sg76
(lp3572
g69
(g70
g71
NtRp3573
(dp3574
g74
(dp3575
g82
I4
ssg83
g3569
sg76
(lp3576
g224
asbasbasbag69
(g85
g71
NtRp3577
(dp3578
g74
(dp3579
sg83
g3091
sg76
(lp3580
g69
(g90
g71
NtRp3581
(dp3582
g74
(dp3583
g94
g95
ssg83
g3577
sg76
(lp3584
S'remote_port'
p3585
asbag69
(g90
g71
NtRp3586
(dp3587
g74
(dp3588
g101
g102
ssg83
g3577
sg76
(lp3589
S':'
asbag69
(g90
g71
NtRp3590
(dp3591
g74
(dp3592
sg83
g3577
sg76
(lp3593
g69
(g70
g71
NtRp3594
(dp3595
g74
(dp3596
g82
I4
ssg83
g3590
sg76
(lp3597
S'35306'
p3598
asbasbasbag69
(g85
g71
NtRp3599
(dp3600
g74
(dp3601
sg83
g3091
sg76
(lp3602
g69
(g90
g71
NtRp3603
(dp3604
g74
(dp3605
g94
g95
ssg83
g3599
sg76
(lp3606
S'request_method'
p3607
asbag69
(g90
g71
NtRp3608
(dp3609
g74
(dp3610
g101
g102
ssg83
g3599
sg76
(lp3611
S':'
asbag69
(g90
g71
NtRp3612
(dp3613
g74
(dp3614
sg83
g3599
sg76
(lp3615
g69
(g70
g71
NtRp3616
(dp3617
g74
(dp3618
g82
I4
ssg83
g3612
sg76
(lp3619
S'GET'
p3620
asbasbasbag69
(g85
g71
NtRp3621
(dp3622
g74
(dp3623
sg83
g3091
sg76
(lp3624
g69
(g90
g71
NtRp3625
(dp3626
g74
(dp3627
g94
g95
ssg83
g3621
sg76
(lp3628
S'request_uri'
p3629
asbag69
(g90
g71
NtRp3630
(dp3631
g74
(dp3632
g101
g102
ssg83
g3621
sg76
(lp3633
S':'
asbag69
(g90
g71
NtRp3634
(dp3635
g74
(dp3636
sg83
g3621
sg76
(lp3637
g69
(g70
g71
NtRp3638
(dp3639
g74
(dp3640
g82
I4
ssg83
g3634
sg76
(lp3641
g3534
asbasbasbag69
(g85
g71
NtRp3642
(dp3643
g74
(dp3644
sg83
g3091
sg76
(lp3645
g69
(g90
g71
NtRp3646
(dp3647
g74
(dp3648
g94
g95
ssg83
g3642
sg76
(lp3649
S'script_name'
p3650
asbag69
(g90
g71
NtRp3651
(dp3652
g74
(dp3653
g101
g102
ssg83
g3642
sg76
(lp3654
S':'
asbag69
(g90
g71
NtRp3655
(dp3656
g74
(dp3657
sg83
g3642
sg76
(lp3658
g69
(g70
g71
NtRp3659
(dp3660
g74
(dp3661
g82
I4
ssg83
g3655
sg76
(lp3662
S''
asbasbasbag69
(g85
g71
NtRp3663
(dp3664
g74
(dp3665
sg83
g3091
sg76
(lp3666
g69
(g90
g71
NtRp3667
(dp3668
g74
(dp3669
g94
g95
ssg83
g3663
sg76
(lp3670
S'server_name'
p3671
asbag69
(g90
g71
NtRp3672
(dp3673
g74
(dp3674
g101
g102
ssg83
g3663
sg76
(lp3675
S':'
asbag69
(g90
g71
NtRp3676
(dp3677
g74
(dp3678
sg83
g3663
sg76
(lp3679
g69
(g70
g71
NtRp3680
(dp3681
g74
(dp3682
g82
I4
ssg83
g3676
sg76
(lp3683
S'mayank'
p3684
asbasbasbag69
(g85
g71
NtRp3685
(dp3686
g74
(dp3687
sg83
g3091
sg76
(lp3688
g69
(g90
g71
NtRp3689
(dp3690
g74
(dp3691
g94
g95
ssg83
g3685
sg76
(lp3692
S'server_port'
p3693
asbag69
(g90
g71
NtRp3694
(dp3695
g74
(dp3696
g101
g102
ssg83
g3685
sg76
(lp3697
S':'
asbag69
(g90
g71
NtRp3698
(dp3699
g74
(dp3700
sg83
g3685
sg76
(lp3701
g69
(g70
g71
NtRp3702
(dp3703
g74
(dp3704
g82
I4
ssg83
g3698
sg76
(lp3705
S'8000'
p3706
asbasbasbag69
(g85
g71
NtRp3707
(dp3708
g74
(dp3709
sg83
g3091
sg76
(lp3710
g69
(g90
g71
NtRp3711
(dp3712
g74
(dp3713
g94
g95
ssg83
g3707
sg76
(lp3714
S'server_protocol'
p3715
asbag69
(g90
g71
NtRp3716
(dp3717
g74
(dp3718
g101
g102
ssg83
g3707
sg76
(lp3719
S':'
asbag69
(g90
g71
NtRp3720
(dp3721
g74
(dp3722
sg83
g3707
sg76
(lp3723
g69
(g70
g71
NtRp3724
(dp3725
g74
(dp3726
g82
I4
ssg83
g3720
sg76
(lp3727
S'HTTP/1.1'
p3728
asbasbasbag69
(g85
g71
NtRp3729
(dp3730
g74
(dp3731
sg83
g3091
sg76
(lp3732
g69
(g90
g71
NtRp3733
(dp3734
g74
(dp3735
g94
g95
ssg83
g3729
sg76
(lp3736
S'server_software'
p3737
asbag69
(g90
g71
NtRp3738
(dp3739
g74
(dp3740
g101
g102
ssg83
g3729
sg76
(lp3741
S':'
asbag69
(g90
g71
NtRp3742
(dp3743
g74
(dp3744
sg83
g3729
sg76
(lp3745
g69
(g70
g71
NtRp3746
(dp3747
g74
(dp3748
g82
I4
ssg83
g3742
sg76
(lp3749
S'Rocket 1.2.4'
p3750
asbasbasbag69
(g85
g71
NtRp3751
(dp3752
g74
(dp3753
sg83
g3091
sg76
(lp3754
g69
(g90
g71
NtRp3755
(dp3756
g74
(dp3757
g94
g95
ssg83
g3751
sg76
(lp3758
S'web2py_crontype'
p3759
asbag69
(g90
g71
NtRp3760
(dp3761
g74
(dp3762
g101
g102
ssg83
g3751
sg76
(lp3763
S':'
asbag69
(g90
g71
NtRp3764
(dp3765
g74
(dp3766
sg83
g3751
sg76
(lp3767
g69
(g70
g71
NtRp3768
(dp3769
g74
(dp3770
g82
I4
ssg83
g3764
sg76
(lp3771
S'hard'
p3772
asbasbasbag69
(g85
g71
NtRp3773
(dp3774
g74
(dp3775
sg83
g3091
sg76
(lp3776
g69
(g90
g71
NtRp3777
(dp3778
g74
(dp3779
g94
g95
ssg83
g3773
sg76
(lp3780
S'web2py_path'
p3781
asbag69
(g90
g71
NtRp3782
(dp3783
g74
(dp3784
g101
g102
ssg83
g3773
sg76
(lp3785
S':'
asbag69
(g90
g71
NtRp3786
(dp3787
g74
(dp3788
sg83
g3773
sg76
(lp3789
g69
(g70
g71
NtRp3790
(dp3791
g74
(dp3792
g82
I4
ssg83
g3786
sg76
(lp3793
g3138
asbasbasbag69
(g85
g71
NtRp3794
(dp3795
g74
(dp3796
sg83
g3091
sg76
(lp3797
g69
(g90
g71
NtRp3798
(dp3799
g74
(dp3800
g94
g95
ssg83
g3794
sg76
(lp3801
S'web2py_version'
p3802
asbag69
(g90
g71
NtRp3803
(dp3804
g74
(dp3805
g101
g102
ssg83
g3794
sg76
(lp3806
S':'
asbag69
(g90
g71
NtRp3807
(dp3808
g74
(dp3809
sg83
g3794
sg76
(lp3810
g69
(g70
g71
NtRp3811
(dp3812
g74
(dp3813
g82
I4
ssg83
g3807
sg76
(lp3814
g69
(g78
g71
NtRp3815
(dp3816
g74
(dp3817
g82
I3
ssg83
Nsg76
(lp3818
g69
(g85
g71
NtRp3819
(dp3820
g74
(dp3821
sg83
g3815
sg76
(lp3822
g69
(g90
g71
NtRp3823
(dp3824
g74
(dp3825
sg83
g3819
sg76
(lp3826
g69
(g70
g71
NtRp3827
(dp3828
g74
(dp3829
g82
I3
ssg83
g3823
sg76
(lp3830
S'2'
asbasbasbag69
(g85
g71
NtRp3831
(dp3832
g74
(dp3833
sg83
g3815
sg76
(lp3834
g69
(g90
g71
NtRp3835
(dp3836
g74
(dp3837
sg83
g3831
sg76
(lp3838
g69
(g70
g71
NtRp3839
(dp3840
g74
(dp3841
g82
I3
ssg83
g3835
sg76
(lp3842
S'0'
asbasbasbag69
(g85
g71
NtRp3843
(dp3844
g74
(dp3845
sg83
g3815
sg76
(lp3846
g69
(g90
g71
NtRp3847
(dp3848
g74
(dp3849
sg83
g3843
sg76
(lp3850
g69
(g70
g71
NtRp3851
(dp3852
g74
(dp3853
g82
I3
ssg83
g3847
sg76
(lp3854
S'8'
asbasbasbag69
(g85
g71
NtRp3855
(dp3856
g74
(dp3857
sg83
g3815
sg76
(lp3858
g69
(g90
g71
NtRp3859
(dp3860
g74
(dp3861
sg83
g3855
sg76
(lp3862
g69
(g70
g71
NtRp3863
(dp3864
g74
(dp3865
g82
I3
ssg83
g3859
sg76
(lp3866
S'datetime.datetime(2012, 9, 7, 3, 47, 51)'
p3867
asbasbasbag69
(g85
g71
NtRp3868
(dp3869
g74
(dp3870
sg83
g3815
sg76
(lp3871
g69
(g90
g71
NtRp3872
(dp3873
g74
(dp3874
sg83
g3868
sg76
(lp3875
g69
(g70
g71
NtRp3876
(dp3877
g74
(dp3878
g82
I3
ssg83
g3872
sg76
(lp3879
S'stable'
p3880
asbasbasbasbasbasbasbag69
(g85
g71
NtRp3881
(dp3882
g74
(dp3883
sg83
g3091
sg76
(lp3884
g69
(g90
g71
NtRp3885
(dp3886
g74
(dp3887
g94
g95
ssg83
g3881
sg76
(lp3888
S'wsgi_errors'
p3889
asbag69
(g90
g71
NtRp3890
(dp3891
g74
(dp3892
g101
g102
ssg83
g3881
sg76
(lp3893
S':'
asbag69
(g90
g71
NtRp3894
(dp3895
g74
(dp3896
sg83
g3881
sg76
(lp3897
g69
(g70
g71
NtRp3898
(dp3899
g74
(dp3900
g82
I4
ssg83
g3894
sg76
(lp3901
S"<open file '<stderr>', mode 'w' at 0x7f279010d1e0>"
p3902
asbasbasbag69
(g85
g71
NtRp3903
(dp3904
g74
(dp3905
sg83
g3091
sg76
(lp3906
g69
(g90
g71
NtRp3907
(dp3908
g74
(dp3909
g94
g95
ssg83
g3903
sg76
(lp3910
S'wsgi_file_wrapper'
p3911
asbag69
(g90
g71
NtRp3912
(dp3913
g74
(dp3914
g101
g102
ssg83
g3903
sg76
(lp3915
S':'
asbag69
(g90
g71
NtRp3916
(dp3917
g74
(dp3918
sg83
g3903
sg76
(lp3919
g69
(g70
g71
NtRp3920
(dp3921
g74
(dp3922
g82
I4
ssg83
g3916
sg76
(lp3923
S'<class wsgiref.util.FileWrapper at 0x13d6530>'
p3924
asbasbasbag69
(g85
g71
NtRp3925
(dp3926
g74
(dp3927
sg83
g3091
sg76
(lp3928
g69
(g90
g71
NtRp3929
(dp3930
g74
(dp3931
g94
g95
ssg83
g3925
sg76
(lp3932
S'wsgi_input'
p3933
asbag69
(g90
g71
NtRp3934
(dp3935
g74
(dp3936
g101
g102
ssg83
g3925
sg76
(lp3937
S':'
asbag69
(g90
g71
NtRp3938
(dp3939
g74
(dp3940
sg83
g3925
sg76
(lp3941
g69
(g70
g71
NtRp3942
(dp3943
g74
(dp3944
g82
I4
ssg83
g3938
sg76
(lp3945
S'<socket._fileobject object at 0x7f275854ecd0>'
p3946
asbasbasbag69
(g85
g71
NtRp3947
(dp3948
g74
(dp3949
sg83
g3091
sg76
(lp3950
g69
(g90
g71
NtRp3951
(dp3952
g74
(dp3953
g94
g95
ssg83
g3947
sg76
(lp3954
S'wsgi_multiprocess'
p3955
asbag69
(g90
g71
NtRp3956
(dp3957
g74
(dp3958
g101
g102
ssg83
g3947
sg76
(lp3959
S':'
asbag69
(g90
g71
NtRp3960
(dp3961
g74
(dp3962
sg83
g3947
sg76
(lp3963
g69
(g70
g71
NtRp3964
(dp3965
g74
(dp3966
g82
I4
ssg83
g3960
sg76
(lp3967
g112
asbasbasbag69
(g85
g71
NtRp3968
(dp3969
g74
(dp3970
sg83
g3091
sg76
(lp3971
g69
(g90
g71
NtRp3972
(dp3973
g74
(dp3974
g94
g95
ssg83
g3968
sg76
(lp3975
S'wsgi_multithread'
p3976
asbag69
(g90
g71
NtRp3977
(dp3978
g74
(dp3979
g101
g102
ssg83
g3968
sg76
(lp3980
S':'
asbag69
(g90
g71
NtRp3981
(dp3982
g74
(dp3983
sg83
g3968
sg76
(lp3984
g69
(g70
g71
NtRp3985
(dp3986
g74
(dp3987
g82
I4
ssg83
g3981
sg76
(lp3988
S'True'
p3989
asbasbasbag69
(g85
g71
NtRp3990
(dp3991
g74
(dp3992
sg83
g3091
sg76
(lp3993
g69
(g90
g71
NtRp3994
(dp3995
g74
(dp3996
g94
g95
ssg83
g3990
sg76
(lp3997
S'wsgi_run_once'
p3998
asbag69
(g90
g71
NtRp3999
(dp4000
g74
(dp4001
g101
g102
ssg83
g3990
sg76
(lp4002
S':'
asbag69
(g90
g71
NtRp4003
(dp4004
g74
(dp4005
sg83
g3990
sg76
(lp4006
g69
(g70
g71
NtRp4007
(dp4008
g74
(dp4009
g82
I4
ssg83
g4003
sg76
(lp4010
g112
asbasbasbag69
(g85
g71
NtRp4011
(dp4012
g74
(dp4013
sg83
g3091
sg76
(lp4014
g69
(g90
g71
NtRp4015
(dp4016
g74
(dp4017
g94
g95
ssg83
g4011
sg76
(lp4018
S'wsgi_url_scheme'
p4019
asbag69
(g90
g71
NtRp4020
(dp4021
g74
(dp4022
g101
g102
ssg83
g4011
sg76
(lp4023
S':'
asbag69
(g90
g71
NtRp4024
(dp4025
g74
(dp4026
sg83
g4011
sg76
(lp4027
g69
(g70
g71
NtRp4028
(dp4029
g74
(dp4030
g82
I4
ssg83
g4024
sg76
(lp4031
S'http'
p4032
asbasbasbag69
(g85
g71
NtRp4033
(dp4034
g74
(dp4035
sg83
g3091
sg76
(lp4036
g69
(g90
g71
NtRp4037
(dp4038
g74
(dp4039
g94
g95
ssg83
g4033
sg76
(lp4040
S'wsgi_version'
p4041
asbag69
(g90
g71
NtRp4042
(dp4043
g74
(dp4044
g101
g102
ssg83
g4033
sg76
(lp4045
S':'
asbag69
(g90
g71
NtRp4046
(dp4047
g74
(dp4048
sg83
g4033
sg76
(lp4049
g69
(g70
g71
NtRp4050
(dp4051
g74
(dp4052
g82
I4
ssg83
g4046
sg76
(lp4053
g69
(g78
g71
NtRp4054
(dp4055
g74
(dp4056
g82
I3
ssg83
Nsg76
(lp4057
g69
(g85
g71
NtRp4058
(dp4059
g74
(dp4060
sg83
g4054
sg76
(lp4061
g69
(g90
g71
NtRp4062
(dp4063
g74
(dp4064
sg83
g4058
sg76
(lp4065
g69
(g70
g71
NtRp4066
(dp4067
g74
(dp4068
g82
I3
ssg83
g4062
sg76
(lp4069
S'1'
asbasbasbag69
(g85
g71
NtRp4070
(dp4071
g74
(dp4072
sg83
g4054
sg76
(lp4073
g69
(g90
g71
NtRp4074
(dp4075
g74
(dp4076
sg83
g4070
sg76
(lp4077
g69
(g70
g71
NtRp4078
(dp4079
g74
(dp4080
g82
I3
ssg83
g4074
sg76
(lp4081
S'0'
asbasbasbasbasbasbasbasbasbasbasbag69
(g85
g71
NtRp4082
(dp4083
g74
(dp4084
sg83
g79
sg76
(lp4085
g69
(g90
g71
NtRp4086
(dp4087
g74
(dp4088
g94
g95
ssg83
g4082
sg76
(lp4089
S'extension'
p4090
asbag69
(g90
g71
NtRp4091
(dp4092
g74
(dp4093
g101
g102
ssg83
g4082
sg76
(lp4094
S':'
asbag69
(g90
g71
NtRp4095
(dp4096
g74
(dp4097
sg83
g4082
sg76
(lp4098
g69
(g70
g71
NtRp4099
(dp4100
g74
(dp4101
g82
I5
ssg83
g4095
sg76
(lp4102
S'html'
p4103
asbasbasbag69
(g85
g71
NtRp4104
(dp4105
g74
(dp4106
sg83
g79
sg76
(lp4107
g69
(g90
g71
NtRp4108
(dp4109
g74
(dp4110
g94
g95
ssg83
g4104
sg76
(lp4111
S'folder'
p4112
asbag69
(g90
g71
NtRp4113
(dp4114
g74
(dp4115
g101
g102
ssg83
g4104
sg76
(lp4116
S':'
asbag69
(g90
g71
NtRp4117
(dp4118
g74
(dp4119
sg83
g4104
sg76
(lp4120
g69
(g70
g71
NtRp4121
(dp4122
g74
(dp4123
g82
I5
ssg83
g4117
sg76
(lp4124
S'/home/mayank/Desktop/web2pyAdmin/web2py/web2py/applications/FunkLoad/'
p4125
asbasbasbag69
(g85
g71
NtRp4126
(dp4127
g74
(dp4128
sg83
g79
sg76
(lp4129
g69
(g90
g71
NtRp4130
(dp4131
g74
(dp4132
g94
g95
ssg83
g4126
sg76
(lp4133
S'function'
p4134
asbag69
(g90
g71
NtRp4135
(dp4136
g74
(dp4137
g101
g102
ssg83
g4126
sg76
(lp4138
S':'
asbag69
(g90
g71
NtRp4139
(dp4140
g74
(dp4141
sg83
g4126
sg76
(lp4142
g69
(g70
g71
NtRp4143
(dp4144
g74
(dp4145
g82
I5
ssg83
g4139
sg76
(lp4146
S'index'
p4147
asbasbasbag69
(g85
g71
NtRp4148
(dp4149
g74
(dp4150
sg83
g79
sg76
(lp4151
g69
(g90
g71
NtRp4152
(dp4153
g74
(dp4154
g94
g95
ssg83
g4148
sg76
(lp4155
S'get_vars'
p4156
asbag69
(g90
g71
NtRp4157
(dp4158
g74
(dp4159
g101
g102
ssg83
g4148
sg76
(lp4160
S':'
asbag69
(g90
g71
NtRp4161
(dp4162
g74
(dp4163
sg83
g4148
sg76
(lp4164
g69
(g70
g71
NtRp4165
(dp4166
g74
(dp4167
g82
I5
ssg83
g4161
sg76
(lp4168
g69
(g78
g71
NtRp4169
(dp4170
g74
(dp4171
g82
I4
ssg83
Nsg76
(lp4172
sbasbasbasbag69
(g85
g71
NtRp4173
(dp4174
g74
(dp4175
sg83
g79
sg76
(lp4176
g69
(g90
g71
NtRp4177
(dp4178
g74
(dp4179
g94
g95
ssg83
g4173
sg76
(lp4180
S'global_settings'
p4181
asbag69
(g90
g71
NtRp4182
(dp4183
g74
(dp4184
g101
g102
ssg83
g4173
sg76
(lp4185
S':'
asbag69
(g90
g71
NtRp4186
(dp4187
g74
(dp4188
sg83
g4173
sg76
(lp4189
g69
(g70
g71
NtRp4190
(dp4191
g74
(dp4192
g82
I5
ssg83
g4186
sg76
(lp4193
g69
(g78
g71
NtRp4194
(dp4195
g74
(dp4196
g82
I4
ssg83
Nsg76
(lp4197
g69
(g85
g71
NtRp4198
(dp4199
g74
(dp4200
sg83
g4194
sg76
(lp4201
g69
(g90
g71
NtRp4202
(dp4203
g74
(dp4204
g94
g95
ssg83
g4198
sg76
(lp4205
g3103
asbag69
(g90
g71
NtRp4206
(dp4207
g74
(dp4208
g101
g102
ssg83
g4198
sg76
(lp4209
S':'
asbag69
(g90
g71
NtRp4210
(dp4211
g74
(dp4212
sg83
g4198
sg76
(lp4213
g69
(g70
g71
NtRp4214
(dp4215
g74
(dp4216
g82
I4
ssg83
g4210
sg76
(lp4217
S"set(['/home/mayank/Desktop/web2pyAdmin/web2py/web2py/applications/welcome/', '/home/mayank/Desktop/web2pyAdmin/web2py/web2py/applications/admin/', '/home/mayank/Desktop/web2pyAdmin/web2py/web2py/applications/FunkLoad/'])"
p4218
asbasbasbag69
(g85
g71
NtRp4219
(dp4220
g74
(dp4221
sg83
g4194
sg76
(lp4222
g69
(g90
g71
NtRp4223
(dp4224
g74
(dp4225
g94
g95
ssg83
g4219
sg76
(lp4226
g3125
asbag69
(g90
g71
NtRp4227
(dp4228
g74
(dp4229
g101
g102
ssg83
g4219
sg76
(lp4230
S':'
asbag69
(g90
g71
NtRp4231
(dp4232
g74
(dp4233
sg83
g4219
sg76
(lp4234
g69
(g70
g71
NtRp4235
(dp4236
g74
(dp4237
g82
I4
ssg83
g4231
sg76
(lp4238
g3138
asbasbasbag69
(g85
g71
NtRp4239
(dp4240
g74
(dp4241
sg83
g4194
sg76
(lp4242
g69
(g90
g71
NtRp4243
(dp4244
g74
(dp4245
g94
g95
ssg83
g4239
sg76
(lp4246
g3147
asbag69
(g90
g71
NtRp4247
(dp4248
g74
(dp4249
g101
g102
ssg83
g4239
sg76
(lp4250
S':'
asbag69
(g90
g71
NtRp4251
(dp4252
g74
(dp4253
sg83
g4239
sg76
(lp4254
g69
(g70
g71
NtRp4255
(dp4256
g74
(dp4257
g82
I4
ssg83
g4251
sg76
(lp4258
g69
(g78
g71
NtRp4259
(dp4260
g74
(dp4261
g82
I3
ssg83
Nsg76
(lp4262
sbasbasbasbag69
(g85
g71
NtRp4263
(dp4264
g74
(dp4265
sg83
g4194
sg76
(lp4266
g69
(g90
g71
NtRp4267
(dp4268
g74
(dp4269
g94
g95
ssg83
g4263
sg76
(lp4270
g3172
asbag69
(g90
g71
NtRp4271
(dp4272
g74
(dp4273
g101
g102
ssg83
g4263
sg76
(lp4274
S':'
asbag69
(g90
g71
NtRp4275
(dp4276
g74
(dp4277
sg83
g4263
sg76
(lp4278
g69
(g70
g71
NtRp4279
(dp4280
g74
(dp4281
g82
I4
ssg83
g4275
sg76
(lp4282
S"<Values at 0x181b290: {'verbose': False, 'ip': '127.0.0.1', 'with_scheduler': False, 'ips': ['127.0.1.1', '10.1.33.121'], 'shutdown_timeout': 5, 'taskbar': False, 'port': 8000, 'maxthreads': None, 'softcron': False, 'server_name': 'mayank', 'bpython': False, 'nogui': False, 'nocron': False, 'extcron': False, 'run_system_tests': False, 'test': None, 'folder': '/home/mayank/Desktop/web2pyAdmin/web2py/web2py', 'config': '', 'import_models': False, 'winservice': '', 'shell': None, 'run': '', 'log_filename': 'httpserver.log', 'debuglevel': 30, 'args': [''], 'socket_timeout': 5, 'ssl_ca_certificate': None, 'scheduler': None, 'profiler_filename': None, 'ssl_private_key': '', 'scheduler_groups': None, 'password': 'mayank', 'request_queue_size': 5, 'ssl_certificate': '', 'cronjob': False, 'numthreads': None, 'quiet': False, 'interfaces': None, 'minthreads': None, 'timeout': 10, 'plain': False, 'nobanner': False, 'pid_filename': 'httpserver.pid'}>"
p4283
asbasbasbag69
(g85
g71
NtRp4284
(dp4285
g74
(dp4286
sg83
g4194
sg76
(lp4287
g69
(g90
g71
NtRp4288
(dp4289
g74
(dp4290
g94
g95
ssg83
g4284
sg76
(lp4291
g3194
asbag69
(g90
g71
NtRp4292
(dp4293
g74
(dp4294
g101
g102
ssg83
g4284
sg76
(lp4295
S':'
asbag69
(g90
g71
NtRp4296
(dp4297
g74
(dp4298
sg83
g4284
sg76
(lp4299
g69
(g70
g71
NtRp4300
(dp4301
g74
(dp4302
g82
I4
ssg83
g4296
sg76
(lp4303
S'set([])'
p4304
asbasbasbag69
(g85
g71
NtRp4305
(dp4306
g74
(dp4307
sg83
g4194
sg76
(lp4308
g69
(g90
g71
NtRp4309
(dp4310
g74
(dp4311
g94
g95
ssg83
g4305
sg76
(lp4312
g3216
asbag69
(g90
g71
NtRp4313
(dp4314
g74
(dp4315
g101
g102
ssg83
g4305
sg76
(lp4316
S':'
asbag69
(g90
g71
NtRp4317
(dp4318
g74
(dp4319
sg83
g4305
sg76
(lp4320
g69
(g70
g71
NtRp4321
(dp4322
g74
(dp4323
g82
I4
ssg83
g4317
sg76
(lp4324
g112
asbasbasbag69
(g85
g71
NtRp4325
(dp4326
g74
(dp4327
sg83
g4194
sg76
(lp4328
g69
(g90
g71
NtRp4329
(dp4330
g74
(dp4331
g94
g95
ssg83
g4325
sg76
(lp4332
g3237
asbag69
(g90
g71
NtRp4333
(dp4334
g74
(dp4335
g101
g102
ssg83
g4325
sg76
(lp4336
S':'
asbag69
(g90
g71
NtRp4337
(dp4338
g74
(dp4339
sg83
g4325
sg76
(lp4340
g69
(g70
g71
NtRp4341
(dp4342
g74
(dp4343
g82
I4
ssg83
g4337
sg76
(lp4344
g3250
asbasbasbag69
(g85
g71
NtRp4345
(dp4346
g74
(dp4347
sg83
g4194
sg76
(lp4348
g69
(g90
g71
NtRp4349
(dp4350
g74
(dp4351
g94
g95
ssg83
g4345
sg76
(lp4352
g3479
asbag69
(g90
g71
NtRp4353
(dp4354
g74
(dp4355
g101
g102
ssg83
g4345
sg76
(lp4356
S':'
asbag69
(g90
g71
NtRp4357
(dp4358
g74
(dp4359
sg83
g4345
sg76
(lp4360
g69
(g70
g71
NtRp4361
(dp4362
g74
(dp4363
g82
I4
ssg83
g4357
sg76
(lp4364
g112
asbasbasbag69
(g85
g71
NtRp4365
(dp4366
g74
(dp4367
sg83
g4194
sg76
(lp4368
g69
(g90
g71
NtRp4369
(dp4370
g74
(dp4371
g94
g95
ssg83
g4365
sg76
(lp4372
g3500
asbag69
(g90
g71
NtRp4373
(dp4374
g74
(dp4375
g101
g102
ssg83
g4365
sg76
(lp4376
S':'
asbag69
(g90
g71
NtRp4377
(dp4378
g74
(dp4379
sg83
g4365
sg76
(lp4380
g69
(g70
g71
NtRp4381
(dp4382
g74
(dp4383
g82
I4
ssg83
g4377
sg76
(lp4384
g112
asbasbasbag69
(g85
g71
NtRp4385
(dp4386
g74
(dp4387
sg83
g4194
sg76
(lp4388
g69
(g90
g71
NtRp4389
(dp4390
g74
(dp4391
g94
g95
ssg83
g4385
sg76
(lp4392
g3759
asbag69
(g90
g71
NtRp4393
(dp4394
g74
(dp4395
g101
g102
ssg83
g4385
sg76
(lp4396
S':'
asbag69
(g90
g71
NtRp4397
(dp4398
g74
(dp4399
sg83
g4385
sg76
(lp4400
g69
(g70
g71
NtRp4401
(dp4402
g74
(dp4403
g82
I4
ssg83
g4397
sg76
(lp4404
g3772
asbasbasbag69
(g85
g71
NtRp4405
(dp4406
g74
(dp4407
sg83
g4194
sg76
(lp4408
g69
(g90
g71
NtRp4409
(dp4410
g74
(dp4411
g94
g95
ssg83
g4405
sg76
(lp4412
g3802
asbag69
(g90
g71
NtRp4413
(dp4414
g74
(dp4415
g101
g102
ssg83
g4405
sg76
(lp4416
S':'
asbag69
(g90
g71
NtRp4417
(dp4418
g74
(dp4419
sg83
g4405
sg76
(lp4420
g69
(g70
g71
NtRp4421
(dp4422
g74
(dp4423
g82
I4
ssg83
g4417
sg76
(lp4424
g69
(g78
g71
NtRp4425
(dp4426
g74
(dp4427
g82
I3
ssg83
Nsg76
(lp4428
g69
(g85
g71
NtRp4429
(dp4430
g74
(dp4431
sg83
g4425
sg76
(lp4432
g69
(g90
g71
NtRp4433
(dp4434
g74
(dp4435
sg83
g4429
sg76
(lp4436
g69
(g70
g71
NtRp4437
(dp4438
g74
(dp4439
g82
I3
ssg83
g4433
sg76
(lp4440
S'2'
asbasbasbag69
(g85
g71
NtRp4441
(dp4442
g74
(dp4443
sg83
g4425
sg76
(lp4444
g69
(g90
g71
NtRp4445
(dp4446
g74
(dp4447
sg83
g4441
sg76
(lp4448
g69
(g70
g71
NtRp4449
(dp4450
g74
(dp4451
g82
I3
ssg83
g4445
sg76
(lp4452
S'0'
asbasbasbag69
(g85
g71
NtRp4453
(dp4454
g74
(dp4455
sg83
g4425
sg76
(lp4456
g69
(g90
g71
NtRp4457
(dp4458
g74
(dp4459
sg83
g4453
sg76
(lp4460
g69
(g70
g71
NtRp4461
(dp4462
g74
(dp4463
g82
I3
ssg83
g4457
sg76
(lp4464
S'8'
asbasbasbag69
(g85
g71
NtRp4465
(dp4466
g74
(dp4467
sg83
g4425
sg76
(lp4468
g69
(g90
g71
NtRp4469
(dp4470
g74
(dp4471
sg83
g4465
sg76
(lp4472
g69
(g70
g71
NtRp4473
(dp4474
g74
(dp4475
g82
I3
ssg83
g4469
sg76
(lp4476
S'datetime.datetime(2012, 9, 7, 3, 47, 51)'
p4477
asbasbasbag69
(g85
g71
NtRp4478
(dp4479
g74
(dp4480
sg83
g4425
sg76
(lp4481
g69
(g90
g71
NtRp4482
(dp4483
g74
(dp4484
sg83
g4478
sg76
(lp4485
g69
(g70
g71
NtRp4486
(dp4487
g74
(dp4488
g82
I3
ssg83
g4482
sg76
(lp4489
g3880
asbasbasbasbasbasbasbasbasbasbasbag69
(g85
g71
NtRp4490
(dp4491
g74
(dp4492
sg83
g79
sg76
(lp4493
g69
(g90
g71
NtRp4494
(dp4495
g74
(dp4496
g94
g95
ssg83
g4490
sg76
(lp4497
S'is_https'
p4498
asbag69
(g90
g71
NtRp4499
(dp4500
g74
(dp4501
g101
g102
ssg83
g4490
sg76
(lp4502
S':'
asbag69
(g90
g71
NtRp4503
(dp4504
g74
(dp4505
sg83
g4490
sg76
(lp4506
g69
(g70
g71
NtRp4507
(dp4508
g74
(dp4509
g82
I5
ssg83
g4503
sg76
(lp4510
g112
asbasbasbag69
(g85
g71
NtRp4511
(dp4512
g74
(dp4513
sg83
g79
sg76
(lp4514
g69
(g90
g71
NtRp4515
(dp4516
g74
(dp4517
g94
g95
ssg83
g4511
sg76
(lp4518
S'is_local'
p4519
asbag69
(g90
g71
NtRp4520
(dp4521
g74
(dp4522
g101
g102
ssg83
g4511
sg76
(lp4523
S':'
asbag69
(g90
g71
NtRp4524
(dp4525
g74
(dp4526
sg83
g4511
sg76
(lp4527
g69
(g70
g71
NtRp4528
(dp4529
g74
(dp4530
g82
I5
ssg83
g4524
sg76
(lp4531
g3989
asbasbasbag69
(g85
g71
NtRp4532
(dp4533
g74
(dp4534
sg83
g79
sg76
(lp4535
g69
(g90
g71
NtRp4536
(dp4537
g74
(dp4538
g94
g95
ssg83
g4532
sg76
(lp4539
S'is_restful'
p4540
asbag69
(g90
g71
NtRp4541
(dp4542
g74
(dp4543
g101
g102
ssg83
g4532
sg76
(lp4544
S':'
asbag69
(g90
g71
NtRp4545
(dp4546
g74
(dp4547
sg83
g4532
sg76
(lp4548
g69
(g70
g71
NtRp4549
(dp4550
g74
(dp4551
g82
I5
ssg83
g4545
sg76
(lp4552
g112
asbasbasbag69
(g85
g71
NtRp4553
(dp4554
g74
(dp4555
sg83
g79
sg76
(lp4556
g69
(g90
g71
NtRp4557
(dp4558
g74
(dp4559
g94
g95
ssg83
g4553
sg76
(lp4560
S'now'
p4561
asbag69
(g90
g71
NtRp4562
(dp4563
g74
(dp4564
g101
g102
ssg83
g4553
sg76
(lp4565
S':'
asbag69
(g90
g71
NtRp4566
(dp4567
g74
(dp4568
sg83
g4553
sg76
(lp4569
g69
(g70
g71
NtRp4570
(dp4571
g74
(dp4572
g82
I5
ssg83
g4566
sg76
(lp4573
S'datetime.datetime(2013, 11, 7, 17, 42, 34, 463014)'
p4574
asbasbasbag69
(g85
g71
NtRp4575
(dp4576
g74
(dp4577
sg83
g79
sg76
(lp4578
g69
(g90
g71
NtRp4579
(dp4580
g74
(dp4581
g94
g95
ssg83
g4575
sg76
(lp4582
S'post_vars'
p4583
asbag69
(g90
g71
NtRp4584
(dp4585
g74
(dp4586
g101
g102
ssg83
g4575
sg76
(lp4587
S':'
asbag69
(g90
g71
NtRp4588
(dp4589
g74
(dp4590
sg83
g4575
sg76
(lp4591
g69
(g70
g71
NtRp4592
(dp4593
g74
(dp4594
g82
I5
ssg83
g4588
sg76
(lp4595
g69
(g78
g71
NtRp4596
(dp4597
g74
(dp4598
g82
I4
ssg83
Nsg76
(lp4599
sbasbasbasbag69
(g85
g71
NtRp4600
(dp4601
g74
(dp4602
sg83
g79
sg76
(lp4603
g69
(g90
g71
NtRp4604
(dp4605
g74
(dp4606
g94
g95
ssg83
g4600
sg76
(lp4607
S'raw_args'
p4608
asbag69
(g90
g71
NtRp4609
(dp4610
g74
(dp4611
g101
g102
ssg83
g4600
sg76
(lp4612
S':'
asbag69
(g90
g71
NtRp4613
(dp4614
g74
(dp4615
sg83
g4600
sg76
(lp4616
g69
(g70
g71
NtRp4617
(dp4618
g74
(dp4619
g82
I5
ssg83
g4613
sg76
(lp4620
S'None'
p4621
asbasbasbag69
(g85
g71
NtRp4622
(dp4623
g74
(dp4624
sg83
g79
sg76
(lp4625
g69
(g90
g71
NtRp4626
(dp4627
g74
(dp4628
g94
g95
ssg83
g4622
sg76
(lp4629
S'raw_extension'
p4630
asbag69
(g90
g71
NtRp4631
(dp4632
g74
(dp4633
g101
g102
ssg83
g4622
sg76
(lp4634
S':'
asbag69
(g90
g71
NtRp4635
(dp4636
g74
(dp4637
sg83
g4622
sg76
(lp4638
g69
(g70
g71
NtRp4639
(dp4640
g74
(dp4641
g82
I5
ssg83
g4635
sg76
(lp4642
S'None'
p4643
asbasbasbag69
(g85
g71
NtRp4644
(dp4645
g74
(dp4646
sg83
g79
sg76
(lp4647
g69
(g90
g71
NtRp4648
(dp4649
g74
(dp4650
g94
g95
ssg83
g4644
sg76
(lp4651
S'url'
p4652
asbag69
(g90
g71
NtRp4653
(dp4654
g74
(dp4655
g101
g102
ssg83
g4644
sg76
(lp4656
S':'
asbag69
(g90
g71
NtRp4657
(dp4658
g74
(dp4659
sg83
g4644
sg76
(lp4660
g69
(g70
g71
NtRp4661
(dp4662
g74
(dp4663
g82
I5
ssg83
g4657
sg76
(lp4664
g3534
asbasbasbag69
(g85
g71
NtRp4665
(dp4666
g74
(dp4667
sg83
g79
sg76
(lp4668
g69
(g90
g71
NtRp4669
(dp4670
g74
(dp4671
g94
g95
ssg83
g4665
sg76
(lp4672
S'utcnow'
p4673
asbag69
(g90
g71
NtRp4674
(dp4675
g74
(dp4676
g101
g102
ssg83
g4665
sg76
(lp4677
S':'
asbag69
(g90
g71
NtRp4678
(dp4679
g74
(dp4680
sg83
g4665
sg76
(lp4681
g69
(g70
g71
NtRp4682
(dp4683
g74
(dp4684
g82
I5
ssg83
g4678
sg76
(lp4685
S'datetime.datetime(2013, 11, 7, 12, 12, 34, 463047)'
p4686
asbasbasbag69
(g85
g71
NtRp4687
(dp4688
g74
(dp4689
sg83
g79
sg76
(lp4690
g69
(g90
g71
NtRp4691
(dp4692
g74
(dp4693
g94
g95
ssg83
g4687
sg76
(lp4694
S'uuid'
p4695
asbag69
(g90
g71
NtRp4696
(dp4697
g74
(dp4698
g101
g102
ssg83
g4687
sg76
(lp4699
S':'
asbag69
(g90
g71
NtRp4700
(dp4701
g74
(dp4702
sg83
g4687
sg76
(lp4703
g69
(g70
g71
NtRp4704
(dp4705
g74
(dp4706
g82
I5
ssg83
g4700
sg76
(lp4707
S'FunkLoad/127.0.0.1.2013-11-07.17-42-34.3130bc8c-30cf-477b-973c-3a56547cec58'
p4708
asbasbasbag69
(g85
g71
NtRp4709
(dp4710
g74
(dp4711
sg83
g79
sg76
(lp4712
g69
(g90
g71
NtRp4713
(dp4714
g74
(dp4715
g94
g95
ssg83
g4709
sg76
(lp4716
S'vars'
p4717
asbag69
(g90
g71
NtRp4718
(dp4719
g74
(dp4720
g101
g102
ssg83
g4709
sg76
(lp4721
S':'
asbag69
(g90
g71
NtRp4722
(dp4723
g74
(dp4724
sg83
g4709
sg76
(lp4725
g69
(g70
g71
NtRp4726
(dp4727
g74
(dp4728
g82
I5
ssg83
g4722
sg76
(lp4729
g69
(g78
g71
NtRp4730
(dp4731
g74
(dp4732
g82
I4
ssg83
Nsg76
(lp4733
sbasbasbasbag69
(g85
g71
NtRp4734
(dp4735
g74
(dp4736
sg83
g79
sg76
(lp4737
g69
(g90
g71
NtRp4738
(dp4739
g74
(dp4740
g94
g95
ssg83
g4734
sg76
(lp4741
S'wsgi'
p4742
asbag69
(g90
g71
NtRp4743
(dp4744
g74
(dp4745
g101
g102
ssg83
g4734
sg76
(lp4746
S':'
asbag69
(g90
g71
NtRp4747
(dp4748
g74
(dp4749
sg83
g4734
sg76
(lp4750
g69
(g70
g71
NtRp4751
(dp4752
g74
(dp4753
g82
I5
ssg83
g4747
sg76
(lp4754
g69
(g78
g71
NtRp4755
(dp4756
g74
(dp4757
g82
I4
ssg83
Nsg76
(lp4758
g69
(g85
g71
NtRp4759
(dp4760
g74
(dp4761
sg83
g4755
sg76
(lp4762
g69
(g90
g71
NtRp4763
(dp4764
g74
(dp4765
g94
g95
ssg83
g4759
sg76
(lp4766
S'environ'
p4767
asbag69
(g90
g71
NtRp4768
(dp4769
g74
(dp4770
g101
g102
ssg83
g4759
sg76
(lp4771
S':'
asbag69
(g90
g71
NtRp4772
(dp4773
g74
(dp4774
sg83
g4759
sg76
(lp4775
g69
(g70
g71
NtRp4776
(dp4777
g74
(dp4778
g82
I4
ssg83
g4772
sg76
(lp4779
g69
(g78
g71
NtRp4780
(dp4781
g74
(dp4782
g82
I3
ssg83
Nsg76
(lp4783
g69
(g85
g71
NtRp4784
(dp4785
g74
(dp4786
sg83
g4780
sg76
(lp4787
g69
(g90
g71
NtRp4788
(dp4789
g74
(dp4790
g94
g95
ssg83
g4784
sg76
(lp4791
S'HTTP_ACCEPT'
p4792
asbag69
(g90
g71
NtRp4793
(dp4794
g74
(dp4795
g101
g102
ssg83
g4784
sg76
(lp4796
S':'
asbag69
(g90
g71
NtRp4797
(dp4798
g74
(dp4799
sg83
g4784
sg76
(lp4800
g69
(g70
g71
NtRp4801
(dp4802
g74
(dp4803
g82
I3
ssg83
g4797
sg76
(lp4804
g3272
asbasbasbag69
(g85
g71
NtRp4805
(dp4806
g74
(dp4807
sg83
g4780
sg76
(lp4808
g69
(g90
g71
NtRp4809
(dp4810
g74
(dp4811
g94
g95
ssg83
g4805
sg76
(lp4812
S'HTTP_ACCEPT_ENCODING'
p4813
asbag69
(g90
g71
NtRp4814
(dp4815
g74
(dp4816
g101
g102
ssg83
g4805
sg76
(lp4817
S':'
asbag69
(g90
g71
NtRp4818
(dp4819
g74
(dp4820
sg83
g4805
sg76
(lp4821
g69
(g70
g71
NtRp4822
(dp4823
g74
(dp4824
g82
I3
ssg83
g4818
sg76
(lp4825
g3294
asbasbasbag69
(g85
g71
NtRp4826
(dp4827
g74
(dp4828
sg83
g4780
sg76
(lp4829
g69
(g90
g71
NtRp4830
(dp4831
g74
(dp4832
g94
g95
ssg83
g4826
sg76
(lp4833
S'HTTP_ACCEPT_LANGUAGE'
p4834
asbag69
(g90
g71
NtRp4835
(dp4836
g74
(dp4837
g101
g102
ssg83
g4826
sg76
(lp4838
S':'
asbag69
(g90
g71
NtRp4839
(dp4840
g74
(dp4841
sg83
g4826
sg76
(lp4842
g69
(g70
g71
NtRp4843
(dp4844
g74
(dp4845
g82
I3
ssg83
g4839
sg76
(lp4846
g3316
asbasbasbag69
(g85
g71
NtRp4847
(dp4848
g74
(dp4849
sg83
g4780
sg76
(lp4850
g69
(g90
g71
NtRp4851
(dp4852
g74
(dp4853
g94
g95
ssg83
g4847
sg76
(lp4854
S'HTTP_CACHE_CONTROL'
p4855
asbag69
(g90
g71
NtRp4856
(dp4857
g74
(dp4858
g101
g102
ssg83
g4847
sg76
(lp4859
S':'
asbag69
(g90
g71
NtRp4860
(dp4861
g74
(dp4862
sg83
g4847
sg76
(lp4863
g69
(g70
g71
NtRp4864
(dp4865
g74
(dp4866
g82
I3
ssg83
g4860
sg76
(lp4867
g3338
asbasbasbag69
(g85
g71
NtRp4868
(dp4869
g74
(dp4870
sg83
g4780
sg76
(lp4871
g69
(g90
g71
NtRp4872
(dp4873
g74
(dp4874
g94
g95
ssg83
g4868
sg76
(lp4875
S'HTTP_CONNECTION'
p4876
asbag69
(g90
g71
NtRp4877
(dp4878
g74
(dp4879
g101
g102
ssg83
g4868
sg76
(lp4880
S':'
asbag69
(g90
g71
NtRp4881
(dp4882
g74
(dp4883
sg83
g4868
sg76
(lp4884
g69
(g70
g71
NtRp4885
(dp4886
g74
(dp4887
g82
I3
ssg83
g4881
sg76
(lp4888
g3360
asbasbasbag69
(g85
g71
NtRp4889
(dp4890
g74
(dp4891
sg83
g4780
sg76
(lp4892
g69
(g90
g71
NtRp4893
(dp4894
g74
(dp4895
g94
g95
ssg83
g4889
sg76
(lp4896
S'HTTP_COOKIE'
p4897
asbag69
(g90
g71
NtRp4898
(dp4899
g74
(dp4900
g101
g102
ssg83
g4889
sg76
(lp4901
S':'
asbag69
(g90
g71
NtRp4902
(dp4903
g74
(dp4904
sg83
g4889
sg76
(lp4905
g69
(g70
g71
NtRp4906
(dp4907
g74
(dp4908
g82
I3
ssg83
g4902
sg76
(lp4909
g3382
asbasbasbag69
(g85
g71
NtRp4910
(dp4911
g74
(dp4912
sg83
g4780
sg76
(lp4913
g69
(g90
g71
NtRp4914
(dp4915
g74
(dp4916
g94
g95
ssg83
g4910
sg76
(lp4917
S'HTTP_HOST'
p4918
asbag69
(g90
g71
NtRp4919
(dp4920
g74
(dp4921
g101
g102
ssg83
g4910
sg76
(lp4922
S':'
asbag69
(g90
g71
NtRp4923
(dp4924
g74
(dp4925
sg83
g4910
sg76
(lp4926
g69
(g70
g71
NtRp4927
(dp4928
g74
(dp4929
g82
I3
ssg83
g4923
sg76
(lp4930
g3404
asbasbasbag69
(g85
g71
NtRp4931
(dp4932
g74
(dp4933
sg83
g4780
sg76
(lp4934
g69
(g90
g71
NtRp4935
(dp4936
g74
(dp4937
g94
g95
ssg83
g4931
sg76
(lp4938
S'HTTP_PRAGMA'
p4939
asbag69
(g90
g71
NtRp4940
(dp4941
g74
(dp4942
g101
g102
ssg83
g4931
sg76
(lp4943
S':'
asbag69
(g90
g71
NtRp4944
(dp4945
g74
(dp4946
sg83
g4931
sg76
(lp4947
g69
(g70
g71
NtRp4948
(dp4949
g74
(dp4950
g82
I3
ssg83
g4944
sg76
(lp4951
g3426
asbasbasbag69
(g85
g71
NtRp4952
(dp4953
g74
(dp4954
sg83
g4780
sg76
(lp4955
g69
(g90
g71
NtRp4956
(dp4957
g74
(dp4958
g94
g95
ssg83
g4952
sg76
(lp4959
S'HTTP_REFERER'
p4960
asbag69
(g90
g71
NtRp4961
(dp4962
g74
(dp4963
g101
g102
ssg83
g4952
sg76
(lp4964
S':'
asbag69
(g90
g71
NtRp4965
(dp4966
g74
(dp4967
sg83
g4952
sg76
(lp4968
g69
(g70
g71
NtRp4969
(dp4970
g74
(dp4971
g82
I3
ssg83
g4965
sg76
(lp4972
g3448
asbasbasbag69
(g85
g71
NtRp4973
(dp4974
g74
(dp4975
sg83
g4780
sg76
(lp4976
g69
(g90
g71
NtRp4977
(dp4978
g74
(dp4979
g94
g95
ssg83
g4973
sg76
(lp4980
S'HTTP_USER_AGENT'
p4981
asbag69
(g90
g71
NtRp4982
(dp4983
g74
(dp4984
g101
g102
ssg83
g4973
sg76
(lp4985
S':'
asbag69
(g90
g71
NtRp4986
(dp4987
g74
(dp4988
sg83
g4973
sg76
(lp4989
g69
(g70
g71
NtRp4990
(dp4991
g74
(dp4992
g82
I3
ssg83
g4986
sg76
(lp4993
g3470
asbasbasbag69
(g85
g71
NtRp4994
(dp4995
g74
(dp4996
sg83
g4780
sg76
(lp4997
g69
(g90
g71
NtRp4998
(dp4999
g74
(dp5000
g94
g95
ssg83
g4994
sg76
(lp5001
S'PATH_INFO'
p5002
asbag69
(g90
g71
NtRp5003
(dp5004
g74
(dp5005
g101
g102
ssg83
g4994
sg76
(lp5006
S':'
asbag69
(g90
g71
NtRp5007
(dp5008
g74
(dp5009
sg83
g4994
sg76
(lp5010
g69
(g70
g71
NtRp5011
(dp5012
g74
(dp5013
g82
I3
ssg83
g5007
sg76
(lp5014
g3534
asbasbasbag69
(g85
g71
NtRp5015
(dp5016
g74
(dp5017
sg83
g4780
sg76
(lp5018
g69
(g90
g71
NtRp5019
(dp5020
g74
(dp5021
g94
g95
ssg83
g5015
sg76
(lp5022
S'QUERY_STRING'
p5023
asbag69
(g90
g71
NtRp5024
(dp5025
g74
(dp5026
g101
g102
ssg83
g5015
sg76
(lp5027
S':'
asbag69
(g90
g71
NtRp5028
(dp5029
g74
(dp5030
sg83
g5015
sg76
(lp5031
g69
(g70
g71
NtRp5032
(dp5033
g74
(dp5034
g82
I3
ssg83
g5028
sg76
(lp5035
S''
asbasbasbag69
(g85
g71
NtRp5036
(dp5037
g74
(dp5038
sg83
g4780
sg76
(lp5039
g69
(g90
g71
NtRp5040
(dp5041
g74
(dp5042
g94
g95
ssg83
g5036
sg76
(lp5043
S'REMOTE_ADDR'
p5044
asbag69
(g90
g71
NtRp5045
(dp5046
g74
(dp5047
g101
g102
ssg83
g5036
sg76
(lp5048
S':'
asbag69
(g90
g71
NtRp5049
(dp5050
g74
(dp5051
sg83
g5036
sg76
(lp5052
g69
(g70
g71
NtRp5053
(dp5054
g74
(dp5055
g82
I3
ssg83
g5049
sg76
(lp5056
g224
asbasbasbag69
(g85
g71
NtRp5057
(dp5058
g74
(dp5059
sg83
g4780
sg76
(lp5060
g69
(g90
g71
NtRp5061
(dp5062
g74
(dp5063
g94
g95
ssg83
g5057
sg76
(lp5064
S'REMOTE_PORT'
p5065
asbag69
(g90
g71
NtRp5066
(dp5067
g74
(dp5068
g101
g102
ssg83
g5057
sg76
(lp5069
S':'
asbag69
(g90
g71
NtRp5070
(dp5071
g74
(dp5072
sg83
g5057
sg76
(lp5073
g69
(g70
g71
NtRp5074
(dp5075
g74
(dp5076
g82
I3
ssg83
g5070
sg76
(lp5077
g3598
asbasbasbag69
(g85
g71
NtRp5078
(dp5079
g74
(dp5080
sg83
g4780
sg76
(lp5081
g69
(g90
g71
NtRp5082
(dp5083
g74
(dp5084
g94
g95
ssg83
g5078
sg76
(lp5085
S'REQUEST_METHOD'
p5086
asbag69
(g90
g71
NtRp5087
(dp5088
g74
(dp5089
g101
g102
ssg83
g5078
sg76
(lp5090
S':'
asbag69
(g90
g71
NtRp5091
(dp5092
g74
(dp5093
sg83
g5078
sg76
(lp5094
g69
(g70
g71
NtRp5095
(dp5096
g74
(dp5097
g82
I3
ssg83
g5091
sg76
(lp5098
g3620
asbasbasbag69
(g85
g71
NtRp5099
(dp5100
g74
(dp5101
sg83
g4780
sg76
(lp5102
g69
(g90
g71
NtRp5103
(dp5104
g74
(dp5105
g94
g95
ssg83
g5099
sg76
(lp5106
S'REQUEST_URI'
p5107
asbag69
(g90
g71
NtRp5108
(dp5109
g74
(dp5110
g101
g102
ssg83
g5099
sg76
(lp5111
S':'
asbag69
(g90
g71
NtRp5112
(dp5113
g74
(dp5114
sg83
g5099
sg76
(lp5115
g69
(g70
g71
NtRp5116
(dp5117
g74
(dp5118
g82
I3
ssg83
g5112
sg76
(lp5119
g3534
asbasbasbag69
(g85
g71
NtRp5120
(dp5121
g74
(dp5122
sg83
g4780
sg76
(lp5123
g69
(g90
g71
NtRp5124
(dp5125
g74
(dp5126
g94
g95
ssg83
g5120
sg76
(lp5127
S'SCRIPT_NAME'
p5128
asbag69
(g90
g71
NtRp5129
(dp5130
g74
(dp5131
g101
g102
ssg83
g5120
sg76
(lp5132
S':'
asbag69
(g90
g71
NtRp5133
(dp5134
g74
(dp5135
sg83
g5120
sg76
(lp5136
g69
(g70
g71
NtRp5137
(dp5138
g74
(dp5139
g82
I3
ssg83
g5133
sg76
(lp5140
S''
asbasbasbag69
(g85
g71
NtRp5141
(dp5142
g74
(dp5143
sg83
g4780
sg76
(lp5144
g69
(g90
g71
NtRp5145
(dp5146
g74
(dp5147
g94
g95
ssg83
g5141
sg76
(lp5148
S'SERVER_NAME'
p5149
asbag69
(g90
g71
NtRp5150
(dp5151
g74
(dp5152
g101
g102
ssg83
g5141
sg76
(lp5153
S':'
asbag69
(g90
g71
NtRp5154
(dp5155
g74
(dp5156
sg83
g5141
sg76
(lp5157
g69
(g70
g71
NtRp5158
(dp5159
g74
(dp5160
g82
I3
ssg83
g5154
sg76
(lp5161
g3684
asbasbasbag69
(g85
g71
NtRp5162
(dp5163
g74
(dp5164
sg83
g4780
sg76
(lp5165
g69
(g90
g71
NtRp5166
(dp5167
g74
(dp5168
g94
g95
ssg83
g5162
sg76
(lp5169
S'SERVER_PORT'
p5170
asbag69
(g90
g71
NtRp5171
(dp5172
g74
(dp5173
g101
g102
ssg83
g5162
sg76
(lp5174
S':'
asbag69
(g90
g71
NtRp5175
(dp5176
g74
(dp5177
sg83
g5162
sg76
(lp5178
g69
(g70
g71
NtRp5179
(dp5180
g74
(dp5181
g82
I3
ssg83
g5175
sg76
(lp5182
g3706
asbasbasbag69
(g85
g71
NtRp5183
(dp5184
g74
(dp5185
sg83
g4780
sg76
(lp5186
g69
(g90
g71
NtRp5187
(dp5188
g74
(dp5189
g94
g95
ssg83
g5183
sg76
(lp5190
S'SERVER_PROTOCOL'
p5191
asbag69
(g90
g71
NtRp5192
(dp5193
g74
(dp5194
g101
g102
ssg83
g5183
sg76
(lp5195
S':'
asbag69
(g90
g71
NtRp5196
(dp5197
g74
(dp5198
sg83
g5183
sg76
(lp5199
g69
(g70
g71
NtRp5200
(dp5201
g74
(dp5202
g82
I3
ssg83
g5196
sg76
(lp5203
g3728
asbasbasbag69
(g85
g71
NtRp5204
(dp5205
g74
(dp5206
sg83
g4780
sg76
(lp5207
g69
(g90
g71
NtRp5208
(dp5209
g74
(dp5210
g94
g95
ssg83
g5204
sg76
(lp5211
S'SERVER_SOFTWARE'
p5212
asbag69
(g90
g71
NtRp5213
(dp5214
g74
(dp5215
g101
g102
ssg83
g5204
sg76
(lp5216
S':'
asbag69
(g90
g71
NtRp5217
(dp5218
g74
(dp5219
sg83
g5204
sg76
(lp5220
g69
(g70
g71
NtRp5221
(dp5222
g74
(dp5223
g82
I3
ssg83
g5217
sg76
(lp5224
g3750
asbasbasbag69
(g85
g71
NtRp5225
(dp5226
g74
(dp5227
sg83
g4780
sg76
(lp5228
g69
(g90
g71
NtRp5229
(dp5230
g74
(dp5231
g94
g95
ssg83
g5225
sg76
(lp5232
S'wsgi.errors'
p5233
asbag69
(g90
g71
NtRp5234
(dp5235
g74
(dp5236
g101
g102
ssg83
g5225
sg76
(lp5237
S':'
asbag69
(g90
g71
NtRp5238
(dp5239
g74
(dp5240
sg83
g5225
sg76
(lp5241
g69
(g70
g71
NtRp5242
(dp5243
g74
(dp5244
g82
I3
ssg83
g5238
sg76
(lp5245
S"<open file '<stderr>', mode 'w' at 0x7f279010d1e0>"
p5246
asbasbasbag69
(g85
g71
NtRp5247
(dp5248
g74
(dp5249
sg83
g4780
sg76
(lp5250
g69
(g90
g71
NtRp5251
(dp5252
g74
(dp5253
g94
g95
ssg83
g5247
sg76
(lp5254
S'wsgi.file_wrapper'
p5255
asbag69
(g90
g71
NtRp5256
(dp5257
g74
(dp5258
g101
g102
ssg83
g5247
sg76
(lp5259
S':'
asbag69
(g90
g71
NtRp5260
(dp5261
g74
(dp5262
sg83
g5247
sg76
(lp5263
g69
(g70
g71
NtRp5264
(dp5265
g74
(dp5266
g82
I3
ssg83
g5260
sg76
(lp5267
S'<class wsgiref.util.FileWrapper at 0x13d6530>'
p5268
asbasbasbag69
(g85
g71
NtRp5269
(dp5270
g74
(dp5271
sg83
g4780
sg76
(lp5272
g69
(g90
g71
NtRp5273
(dp5274
g74
(dp5275
g94
g95
ssg83
g5269
sg76
(lp5276
S'wsgi.input'
p5277
asbag69
(g90
g71
NtRp5278
(dp5279
g74
(dp5280
g101
g102
ssg83
g5269
sg76
(lp5281
S':'
asbag69
(g90
g71
NtRp5282
(dp5283
g74
(dp5284
sg83
g5269
sg76
(lp5285
g69
(g70
g71
NtRp5286
(dp5287
g74
(dp5288
g82
I3
ssg83
g5282
sg76
(lp5289
S'<cStringIO.StringO object at 0x7f275855ab20>'
p5290
asbasbasbag69
(g85
g71
NtRp5291
(dp5292
g74
(dp5293
sg83
g4780
sg76
(lp5294
g69
(g90
g71
NtRp5295
(dp5296
g74
(dp5297
g94
g95
ssg83
g5291
sg76
(lp5298
S'wsgi.multiprocess'
p5299
asbag69
(g90
g71
NtRp5300
(dp5301
g74
(dp5302
g101
g102
ssg83
g5291
sg76
(lp5303
S':'
asbag69
(g90
g71
NtRp5304
(dp5305
g74
(dp5306
sg83
g5291
sg76
(lp5307
g69
(g70
g71
NtRp5308
(dp5309
g74
(dp5310
g82
I3
ssg83
g5304
sg76
(lp5311
g112
asbasbasbag69
(g85
g71
NtRp5312
(dp5313
g74
(dp5314
sg83
g4780
sg76
(lp5315
g69
(g90
g71
NtRp5316
(dp5317
g74
(dp5318
g94
g95
ssg83
g5312
sg76
(lp5319
S'wsgi.multithread'
p5320
asbag69
(g90
g71
NtRp5321
(dp5322
g74
(dp5323
g101
g102
ssg83
g5312
sg76
(lp5324
S':'
asbag69
(g90
g71
NtRp5325
(dp5326
g74
(dp5327
sg83
g5312
sg76
(lp5328
g69
(g70
g71
NtRp5329
(dp5330
g74
(dp5331
g82
I3
ssg83
g5325
sg76
(lp5332
g3989
asbasbasbag69
(g85
g71
NtRp5333
(dp5334
g74
(dp5335
sg83
g4780
sg76
(lp5336
g69
(g90
g71
NtRp5337
(dp5338
g74
(dp5339
g94
g95
ssg83
g5333
sg76
(lp5340
S'wsgi.run_once'
p5341
asbag69
(g90
g71
NtRp5342
(dp5343
g74
(dp5344
g101
g102
ssg83
g5333
sg76
(lp5345
S':'
asbag69
(g90
g71
NtRp5346
(dp5347
g74
(dp5348
sg83
g5333
sg76
(lp5349
g69
(g70
g71
NtRp5350
(dp5351
g74
(dp5352
g82
I3
ssg83
g5346
sg76
(lp5353
g112
asbasbasbag69
(g85
g71
NtRp5354
(dp5355
g74
(dp5356
sg83
g4780
sg76
(lp5357
g69
(g90
g71
NtRp5358
(dp5359
g74
(dp5360
g94
g95
ssg83
g5354
sg76
(lp5361
S'wsgi.url_scheme'
p5362
asbag69
(g90
g71
NtRp5363
(dp5364
g74
(dp5365
g101
g102
ssg83
g5354
sg76
(lp5366
S':'
asbag69
(g90
g71
NtRp5367
(dp5368
g74
(dp5369
sg83
g5354
sg76
(lp5370
g69
(g70
g71
NtRp5371
(dp5372
g74
(dp5373
g82
I3
ssg83
g5367
sg76
(lp5374
g4032
asbasbasbag69
(g85
g71
NtRp5375
(dp5376
g74
(dp5377
sg83
g4780
sg76
(lp5378
g69
(g90
g71
NtRp5379
(dp5380
g74
(dp5381
g94
g95
ssg83
g5375
sg76
(lp5382
S'wsgi.version'
p5383
asbag69
(g90
g71
NtRp5384
(dp5385
g74
(dp5386
g101
g102
ssg83
g5375
sg76
(lp5387
S':'
asbag69
(g90
g71
NtRp5388
(dp5389
g74
(dp5390
sg83
g5375
sg76
(lp5391
g69
(g70
g71
NtRp5392
(dp5393
g74
(dp5394
g82
I3
ssg83
g5388
sg76
(lp5395
S'1'
asbasbasbasbasbasbasbasbasbasbasbasbasbsS'frames'
p5396
(lp5397
(dp5398
S'file'
p5399
S'/home/mayank/Desktop/web2pyAdmin/web2py/web2py/gluon/restricted.py'
p5400
sS'dump'
p5401
(dp5402
S'code'
p5403
S'r"response.write(\'<!DOCTYPE html>\\r\\n<!-- pauliris...ript>  \\r\\n</body>\\r\\n</html>\\r\\n\', escape=False)"'
p5404
sS'layer'
p5405
S"'/home/mayank/Desktop/web2pyAdmin/web2py/web2py/applications/FunkLoad/views/default/index.html'"
p5406
sS'global compile2'
p5407
S'<function compile2>'
p5408
sS'ccode'
p5409
S'undefined'
p5410
ssS'lnum'
p5411
I208
sS'lines'
p5412
(dp5413
I203
S"    environment['__name__'] = '__restricted__'"
p5414
sI204
S'    try:'
p5415
sI205
S'        if type(code) == types.CodeType:'
p5416
sI206
S'            ccode = code'
p5417
sI207
S'        else:'
p5418
sI208
S'            ccode = compile2(code,layer)'
p5419
sI209
S'        exec ccode in environment'
p5420
sI210
S'    except HTTP:'
p5421
sI211
S'        raise'
p5422
sI212
S'    except RestrictedError:'
p5423
ssS'call'
p5424
S'(code=r"response.write(\'<!DOCTYPE html>\\r\\n<!-- pauliris...ript>  \\r\\n</body>\\r\\n</html>\\r\\n\', escape=False)", environment={\'A\': <class \'gluon.html.A\'>, \'Auth\': <class \'gluon.tools.Auth\'>, \'B\': <class \'gluon.html.B\'>, \'BEAUTIFY\': <class \'gluon.html.BEAUTIFY\'>, \'BODY\': <class \'gluon.html.BODY\'>, \'BR\': <class \'gluon.html.BR\'>, \'BUTTON\': <class \'gluon.html.BUTTON\'>, \'CAT\': <class \'gluon.html.CAT\'>, \'CENTER\': <class \'gluon.html.CENTER\'>, \'CLEANUP\': <class \'gluon.validators.CLEANUP\'>, ...}, layer=\'/home/mayank/Desktop/web2pyAdmin/web2py/web2py/applications/FunkLoad/views/default/index.html\')'
p5425
sS'func'
p5426
S'restricted'
p5427
sa(dp5428
g5399
S'/home/mayank/Desktop/web2pyAdmin/web2py/web2py/gluon/restricted.py'
p5429
sg5401
(dp5430
S'builtincompile'
p5431
S'<built-in function compile>'
p5432
sS'code'
p5433
S'r"response.write(\'<!DOCTYPE html>\\r\\n<!-- pauliris...ript>  \\r\\n</body>\\r\\n</html>\\r\\n\', escape=False)"'
p5434
sS'code.rstrip'
p5435
S'<built-in method rstrip of str object>'
p5436
sS').replace'
p5437
g5410
sS'layer'
p5438
S"'/home/mayank/Desktop/web2pyAdmin/web2py/web2py/applications/FunkLoad/views/default/index.html'"
p5439
ssg5411
I193
sg5412
(dp5440
I192
S'    """'
p5441
sI193
S"    return compile(code.rstrip().replace('\\r\\n','\\n')+'\\n', layer, 'exec')"
p5442
sI194
S''
sI195
S"def restricted(code, environment=None, layer='Unknown'):"
p5443
sI196
S'    """'
p5444
sI197
S'    runs code in environment and returns the output. if an exception occurs'
p5445
sI188
S''
sI189
S'def compile2(code,layer):'
p5446
sI190
S'    """'
p5447
sI191
S"    The +'\\n' is necessary else compile fails when code ends in a comment."
p5448
ssg5424
S'(code=r"response.write(\'<!DOCTYPE html>\\r\\n<!-- pauliris...ript>  \\r\\n</body>\\r\\n</html>\\r\\n\', escape=False)", layer=\'/home/mayank/Desktop/web2pyAdmin/web2py/web2py/applications/FunkLoad/views/default/index.html\')'
p5449
sg5426
S'compile2'
p5450
sasS'pyver'
p5451
S'Python 2.7.4: /usr/bin/python'
p5452
sS'session'
p5453
g69
(g70
g71
NtRp5454
(dp5455
g74
(dp5456
sg76
(lp5457
g69
(g78
g71
NtRp5458
(dp5459
g74
(dp5460
g82
I5
ssg83
Nsg76
(lp5461
g69
(g85
g71
NtRp5462
(dp5463
g74
(dp5464
sg83
g5458
sg76
(lp5465
g69
(g90
g71
NtRp5466
(dp5467
g74
(dp5468
g94
g95
ssg83
g5462
sg76
(lp5469
S'auth'
p5470
asbag69
(g90
g71
NtRp5471
(dp5472
g74
(dp5473
g101
g102
ssg83
g5462
sg76
(lp5474
S':'
asbag69
(g90
g71
NtRp5475
(dp5476
g74
(dp5477
sg83
g5462
sg76
(lp5478
g69
(g70
g71
NtRp5479
(dp5480
g74
(dp5481
g82
I5
ssg83
g5475
sg76
(lp5482
g69
(g78
g71
NtRp5483
(dp5484
g74
(dp5485
g82
I4
ssg83
Nsg76
(lp5486
g69
(g85
g71
NtRp5487
(dp5488
g74
(dp5489
sg83
g5483
sg76
(lp5490
g69
(g90
g71
NtRp5491
(dp5492
g74
(dp5493
g94
g95
ssg83
g5487
sg76
(lp5494
S'expiration'
p5495
asbag69
(g90
g71
NtRp5496
(dp5497
g74
(dp5498
g101
g102
ssg83
g5487
sg76
(lp5499
S':'
asbag69
(g90
g71
NtRp5500
(dp5501
g74
(dp5502
sg83
g5487
sg76
(lp5503
g69
(g70
g71
NtRp5504
(dp5505
g74
(dp5506
g82
I4
ssg83
g5500
sg76
(lp5507
S'3600'
p5508
asbasbasbag69
(g85
g71
NtRp5509
(dp5510
g74
(dp5511
sg83
g5483
sg76
(lp5512
g69
(g90
g71
NtRp5513
(dp5514
g74
(dp5515
g94
g95
ssg83
g5509
sg76
(lp5516
S'hmac_key'
p5517
asbag69
(g90
g71
NtRp5518
(dp5519
g74
(dp5520
g101
g102
ssg83
g5509
sg76
(lp5521
S':'
asbag69
(g90
g71
NtRp5522
(dp5523
g74
(dp5524
sg83
g5509
sg76
(lp5525
g69
(g70
g71
NtRp5526
(dp5527
g74
(dp5528
g82
I4
ssg83
g5522
sg76
(lp5529
S'02cd42b9-e8fc-4b9c-a834-3220b7100bd5'
p5530
asbasbasbag69
(g85
g71
NtRp5531
(dp5532
g74
(dp5533
sg83
g5483
sg76
(lp5534
g69
(g90
g71
NtRp5535
(dp5536
g74
(dp5537
g94
g95
ssg83
g5531
sg76
(lp5538
S'last_visit'
p5539
asbag69
(g90
g71
NtRp5540
(dp5541
g74
(dp5542
g101
g102
ssg83
g5531
sg76
(lp5543
S':'
asbag69
(g90
g71
NtRp5544
(dp5545
g74
(dp5546
sg83
g5531
sg76
(lp5547
g69
(g70
g71
NtRp5548
(dp5549
g74
(dp5550
g82
I4
ssg83
g5544
sg76
(lp5551
S'datetime.datetime(2013, 11, 7, 17, 42, 34, 463014)'
p5552
asbasbasbag69
(g85
g71
NtRp5553
(dp5554
g74
(dp5555
sg83
g5483
sg76
(lp5556
g69
(g90
g71
NtRp5557
(dp5558
g74
(dp5559
g94
g95
ssg83
g5553
sg76
(lp5560
S'remember'
p5561
asbag69
(g90
g71
NtRp5562
(dp5563
g74
(dp5564
g101
g102
ssg83
g5553
sg76
(lp5565
S':'
asbag69
(g90
g71
NtRp5566
(dp5567
g74
(dp5568
sg83
g5553
sg76
(lp5569
g69
(g70
g71
NtRp5570
(dp5571
g74
(dp5572
g82
I4
ssg83
g5566
sg76
(lp5573
g112
asbasbasbag69
(g85
g71
NtRp5574
(dp5575
g74
(dp5576
sg83
g5483
sg76
(lp5577
g69
(g90
g71
NtRp5578
(dp5579
g74
(dp5580
g94
g95
ssg83
g5574
sg76
(lp5581
S'user'
p5582
asbag69
(g90
g71
NtRp5583
(dp5584
g74
(dp5585
g101
g102
ssg83
g5574
sg76
(lp5586
S':'
asbag69
(g90
g71
NtRp5587
(dp5588
g74
(dp5589
sg83
g5574
sg76
(lp5590
g69
(g70
g71
NtRp5591
(dp5592
g74
(dp5593
g82
I4
ssg83
g5587
sg76
(lp5594
g69
(g78
g71
NtRp5595
(dp5596
g74
(dp5597
g82
I3
ssg83
Nsg76
(lp5598
g69
(g85
g71
NtRp5599
(dp5600
g74
(dp5601
sg83
g5595
sg76
(lp5602
g69
(g90
g71
NtRp5603
(dp5604
g74
(dp5605
g94
g95
ssg83
g5599
sg76
(lp5606
S'email'
p5607
asbag69
(g90
g71
NtRp5608
(dp5609
g74
(dp5610
g101
g102
ssg83
g5599
sg76
(lp5611
S':'
asbag69
(g90
g71
NtRp5612
(dp5613
g74
(dp5614
sg83
g5599
sg76
(lp5615
g69
(g70
g71
NtRp5616
(dp5617
g74
(dp5618
g82
I3
ssg83
g5612
sg76
(lp5619
S'mayank.g@students.iiit.ac.in'
p5620
asbasbasbag69
(g85
g71
NtRp5621
(dp5622
g74
(dp5623
sg83
g5595
sg76
(lp5624
g69
(g90
g71
NtRp5625
(dp5626
g74
(dp5627
g94
g95
ssg83
g5621
sg76
(lp5628
S'first_name'
p5629
asbag69
(g90
g71
NtRp5630
(dp5631
g74
(dp5632
g101
g102
ssg83
g5621
sg76
(lp5633
S':'
asbag69
(g90
g71
NtRp5634
(dp5635
g74
(dp5636
sg83
g5621
sg76
(lp5637
g69
(g70
g71
NtRp5638
(dp5639
g74
(dp5640
g82
I3
ssg83
g5634
sg76
(lp5641
S'Mayank'
p5642
asbasbasbag69
(g85
g71
NtRp5643
(dp5644
g74
(dp5645
sg83
g5595
sg76
(lp5646
g69
(g90
g71
NtRp5647
(dp5648
g74
(dp5649
g94
g95
ssg83
g5643
sg76
(lp5650
S'id'
p5651
asbag69
(g90
g71
NtRp5652
(dp5653
g74
(dp5654
g101
g102
ssg83
g5643
sg76
(lp5655
S':'
asbag69
(g90
g71
NtRp5656
(dp5657
g74
(dp5658
sg83
g5643
sg76
(lp5659
g69
(g70
g71
NtRp5660
(dp5661
g74
(dp5662
g82
I3
ssg83
g5656
sg76
(lp5663
S'2'
asbasbasbag69
(g85
g71
NtRp5664
(dp5665
g74
(dp5666
sg83
g5595
sg76
(lp5667
g69
(g90
g71
NtRp5668
(dp5669
g74
(dp5670
g94
g95
ssg83
g5664
sg76
(lp5671
S'last_name'
p5672
asbag69
(g90
g71
NtRp5673
(dp5674
g74
(dp5675
g101
g102
ssg83
g5664
sg76
(lp5676
S':'
asbag69
(g90
g71
NtRp5677
(dp5678
g74
(dp5679
sg83
g5664
sg76
(lp5680
g69
(g70
g71
NtRp5681
(dp5682
g74
(dp5683
g82
I3
ssg83
g5677
sg76
(lp5684
S'Gupta'
p5685
asbasbasbag69
(g85
g71
NtRp5686
(dp5687
g74
(dp5688
sg83
g5595
sg76
(lp5689
g69
(g90
g71
NtRp5690
(dp5691
g74
(dp5692
g94
g95
ssg83
g5686
sg76
(lp5693
S'password'
p5694
asbag69
(g90
g71
NtRp5695
(dp5696
g74
(dp5697
g101
g102
ssg83
g5686
sg76
(lp5698
S':'
asbag69
(g90
g71
NtRp5699
(dp5700
g74
(dp5701
sg83
g5686
sg76
(lp5702
g69
(g70
g71
NtRp5703
(dp5704
g74
(dp5705
g82
I3
ssg83
g5699
sg76
(lp5706
S'pbkdf2(1000,20,sha512)$8844a2a4d26d9848$1f3639c3b362a7af40d7421ad0a6f0c662d164b6'
p5707
asbasbasbag69
(g85
g71
NtRp5708
(dp5709
g74
(dp5710
sg83
g5595
sg76
(lp5711
g69
(g90
g71
NtRp5712
(dp5713
g74
(dp5714
g94
g95
ssg83
g5708
sg76
(lp5715
S'registration_id'
p5716
asbag69
(g90
g71
NtRp5717
(dp5718
g74
(dp5719
g101
g102
ssg83
g5708
sg76
(lp5720
S':'
asbag69
(g90
g71
NtRp5721
(dp5722
g74
(dp5723
sg83
g5708
sg76
(lp5724
g69
(g70
g71
NtRp5725
(dp5726
g74
(dp5727
g82
I3
ssg83
g5721
sg76
(lp5728
S''
asbasbasbag69
(g85
g71
NtRp5729
(dp5730
g74
(dp5731
sg83
g5595
sg76
(lp5732
g69
(g90
g71
NtRp5733
(dp5734
g74
(dp5735
g94
g95
ssg83
g5729
sg76
(lp5736
S'registration_key'
p5737
asbag69
(g90
g71
NtRp5738
(dp5739
g74
(dp5740
g101
g102
ssg83
g5729
sg76
(lp5741
S':'
asbag69
(g90
g71
NtRp5742
(dp5743
g74
(dp5744
sg83
g5729
sg76
(lp5745
g69
(g70
g71
NtRp5746
(dp5747
g74
(dp5748
g82
I3
ssg83
g5742
sg76
(lp5749
S''
asbasbasbag69
(g85
g71
NtRp5750
(dp5751
g74
(dp5752
sg83
g5595
sg76
(lp5753
g69
(g90
g71
NtRp5754
(dp5755
g74
(dp5756
g94
g95
ssg83
g5750
sg76
(lp5757
S'reset_password_key'
p5758
asbag69
(g90
g71
NtRp5759
(dp5760
g74
(dp5761
g101
g102
ssg83
g5750
sg76
(lp5762
S':'
asbag69
(g90
g71
NtRp5763
(dp5764
g74
(dp5765
sg83
g5750
sg76
(lp5766
g69
(g70
g71
NtRp5767
(dp5768
g74
(dp5769
g82
I3
ssg83
g5763
sg76
(lp5770
S''
asbasbasbasbasbasbasbag69
(g85
g71
NtRp5771
(dp5772
g74
(dp5773
sg83
g5483
sg76
(lp5774
g69
(g90
g71
NtRp5775
(dp5776
g74
(dp5777
g94
g95
ssg83
g5771
sg76
(lp5778
S'user_groups'
p5779
asbag69
(g90
g71
NtRp5780
(dp5781
g74
(dp5782
g101
g102
ssg83
g5771
sg76
(lp5783
S':'
asbag69
(g90
g71
NtRp5784
(dp5785
g74
(dp5786
sg83
g5771
sg76
(lp5787
g69
(g70
g71
NtRp5788
(dp5789
g74
(dp5790
g82
I4
ssg83
g5784
sg76
(lp5791
g69
(g78
g71
NtRp5792
(dp5793
g74
(dp5794
g82
I3
ssg83
Nsg76
(lp5795
g69
(g85
g71
NtRp5796
(dp5797
g74
(dp5798
sg83
g5792
sg76
(lp5799
g69
(g90
g71
NtRp5800
(dp5801
g74
(dp5802
g94
g95
ssg83
g5796
sg76
(lp5803
S'2'
asbag69
(g90
g71
NtRp5804
(dp5805
g74
(dp5806
g101
g102
ssg83
g5796
sg76
(lp5807
S':'
asbag69
(g90
g71
NtRp5808
(dp5809
g74
(dp5810
sg83
g5796
sg76
(lp5811
g69
(g70
g71
NtRp5812
(dp5813
g74
(dp5814
g82
I3
ssg83
g5808
sg76
(lp5815
S'user_2'
p5816
asbasbasbasbasbasbasbasbasbasbasbag69
(g85
g71
NtRp5817
(dp5818
g74
(dp5819
sg83
g5458
sg76
(lp5820
g69
(g90
g71
NtRp5821
(dp5822
g74
(dp5823
g94
g95
ssg83
g5817
sg76
(lp5824
S'flash'
p5825
asbag69
(g90
g71
NtRp5826
(dp5827
g74
(dp5828
g101
g102
ssg83
g5817
sg76
(lp5829
S':'
asbag69
(g90
g71
NtRp5830
(dp5831
g74
(dp5832
sg83
g5817
sg76
(lp5833
g69
(g70
g71
NtRp5834
(dp5835
g74
(dp5836
g82
I5
ssg83
g5830
sg76
(lp5837
S'None'
p5838
asbasbasbasbasbsS'etype'
p5839
S"<type 'exceptions.SyntaxError'>"
p5840
sS'date'
p5841
S'Thu Nov  7 17:42:34 2013'
p5842
sS'response'
p5843
g69
(g70
g71
NtRp5844
(dp5845
g74
(dp5846
sg76
(lp5847
g69
(g78
g71
NtRp5848
(dp5849
g74
(dp5850
g82
I5
ssg83
Nsg76
(lp5851
g69
(g85
g71
NtRp5852
(dp5853
g74
(dp5854
sg83
g5848
sg76
(lp5855
g69
(g90
g71
NtRp5856
(dp5857
g74
(dp5858
g94
g95
ssg83
g5852
sg76
(lp5859
g167
asbag69
(g90
g71
NtRp5860
(dp5861
g74
(dp5862
g101
g102
ssg83
g5852
sg76
(lp5863
S':'
asbag69
(g90
g71
NtRp5864
(dp5865
g74
(dp5866
sg83
g5852
sg76
(lp5867
g69
(g70
g71
NtRp5868
(dp5869
g74
(dp5870
g82
I5
ssg83
g5864
sg76
(lp5871
S'<cStringIO.StringO object at 0x7f276c378308>'
p5872
asbasbasbag69
(g85
g71
NtRp5873
(dp5874
g74
(dp5875
sg83
g5848
sg76
(lp5876
g69
(g90
g71
NtRp5877
(dp5878
g74
(dp5879
g94
g95
ssg83
g5873
sg76
(lp5880
g255
asbag69
(g90
g71
NtRp5881
(dp5882
g74
(dp5883
g101
g102
ssg83
g5873
sg76
(lp5884
S':'
asbag69
(g90
g71
NtRp5885
(dp5886
g74
(dp5887
sg83
g5873
sg76
(lp5888
g69
(g70
g71
NtRp5889
(dp5890
g74
(dp5891
g82
I5
ssg83
g5885
sg76
(lp5892
g69
(g78
g71
NtRp5893
(dp5894
g74
(dp5895
g82
I4
ssg83
Nsg76
(lp5896
g69
(g85
g71
NtRp5897
(dp5898
g74
(dp5899
sg83
g5893
sg76
(lp5900
g69
(g90
g71
NtRp5901
(dp5902
g74
(dp5903
g94
g95
ssg83
g5897
sg76
(lp5904
S'session_id_funkload'
p5905
asbag69
(g90
g71
NtRp5906
(dp5907
g74
(dp5908
g101
g102
ssg83
g5897
sg76
(lp5909
S':'
asbag69
(g90
g71
NtRp5910
(dp5911
g74
(dp5912
sg83
g5897
sg76
(lp5913
g69
(g70
g71
NtRp5914
(dp5915
g74
(dp5916
g82
I4
ssg83
g5910
sg76
(lp5917
g1417
ag69
(g78
g71
NtRp5918
(dp5919
g74
(dp5920
g82
I3
ssg83
Nsg76
(lp5921
g69
(g85
g71
NtRp5922
(dp5923
g74
(dp5924
sg83
g5918
sg76
(lp5925
g69
(g90
g71
NtRp5926
(dp5927
g74
(dp5928
g94
g95
ssg83
g5922
sg76
(lp5929
g306
asbag69
(g90
g71
NtRp5930
(dp5931
g74
(dp5932
g101
g102
ssg83
g5922
sg76
(lp5933
S':'
asbag69
(g90
g71
NtRp5934
(dp5935
g74
(dp5936
sg83
g5922
sg76
(lp5937
g69
(g70
g71
NtRp5938
(dp5939
g74
(dp5940
g82
I3
ssg83
g5934
sg76
(lp5941
S''
asbasbasbag69
(g85
g71
NtRp5942
(dp5943
g74
(dp5944
sg83
g5918
sg76
(lp5945
g69
(g90
g71
NtRp5946
(dp5947
g74
(dp5948
g94
g95
ssg83
g5942
sg76
(lp5949
g327
asbag69
(g90
g71
NtRp5950
(dp5951
g74
(dp5952
g101
g102
ssg83
g5942
sg76
(lp5953
S':'
asbag69
(g90
g71
NtRp5954
(dp5955
g74
(dp5956
sg83
g5942
sg76
(lp5957
g69
(g70
g71
NtRp5958
(dp5959
g74
(dp5960
g82
I3
ssg83
g5954
sg76
(lp5961
S''
asbasbasbag69
(g85
g71
NtRp5962
(dp5963
g74
(dp5964
sg83
g5918
sg76
(lp5965
g69
(g90
g71
NtRp5966
(dp5967
g74
(dp5968
g94
g95
ssg83
g5962
sg76
(lp5969
g348
asbag69
(g90
g71
NtRp5970
(dp5971
g74
(dp5972
g101
g102
ssg83
g5962
sg76
(lp5973
S':'
asbag69
(g90
g71
NtRp5974
(dp5975
g74
(dp5976
sg83
g5962
sg76
(lp5977
g69
(g70
g71
NtRp5978
(dp5979
g74
(dp5980
g82
I3
ssg83
g5974
sg76
(lp5981
S''
asbasbasbag69
(g85
g71
NtRp5982
(dp5983
g74
(dp5984
sg83
g5918
sg76
(lp5985
g69
(g90
g71
NtRp5986
(dp5987
g74
(dp5988
g94
g95
ssg83
g5982
sg76
(lp5989
g369
asbag69
(g90
g71
NtRp5990
(dp5991
g74
(dp5992
g101
g102
ssg83
g5982
sg76
(lp5993
S':'
asbag69
(g90
g71
NtRp5994
(dp5995
g74
(dp5996
sg83
g5982
sg76
(lp5997
g69
(g70
g71
NtRp5998
(dp5999
g74
(dp6000
g82
I3
ssg83
g5994
sg76
(lp6001
S''
asbasbasbag69
(g85
g71
NtRp6002
(dp6003
g74
(dp6004
sg83
g5918
sg76
(lp6005
g69
(g90
g71
NtRp6006
(dp6007
g74
(dp6008
g94
g95
ssg83
g6002
sg76
(lp6009
g390
asbag69
(g90
g71
NtRp6010
(dp6011
g74
(dp6012
g101
g102
ssg83
g6002
sg76
(lp6013
S':'
asbag69
(g90
g71
NtRp6014
(dp6015
g74
(dp6016
sg83
g6002
sg76
(lp6017
g69
(g70
g71
NtRp6018
(dp6019
g74
(dp6020
g82
I3
ssg83
g6014
sg76
(lp6021
S''
asbasbasbag69
(g85
g71
NtRp6022
(dp6023
g74
(dp6024
sg83
g5918
sg76
(lp6025
g69
(g90
g71
NtRp6026
(dp6027
g74
(dp6028
g94
g95
ssg83
g6022
sg76
(lp6029
g411
asbag69
(g90
g71
NtRp6030
(dp6031
g74
(dp6032
g101
g102
ssg83
g6022
sg76
(lp6033
S':'
asbag69
(g90
g71
NtRp6034
(dp6035
g74
(dp6036
sg83
g6022
sg76
(lp6037
g69
(g70
g71
NtRp6038
(dp6039
g74
(dp6040
g82
I3
ssg83
g6034
sg76
(lp6041
S'/'
asbasbasbag69
(g85
g71
NtRp6042
(dp6043
g74
(dp6044
sg83
g5918
sg76
(lp6045
g69
(g90
g71
NtRp6046
(dp6047
g74
(dp6048
g94
g95
ssg83
g6042
sg76
(lp6049
g432
asbag69
(g90
g71
NtRp6050
(dp6051
g74
(dp6052
g101
g102
ssg83
g6042
sg76
(lp6053
S':'
asbag69
(g90
g71
NtRp6054
(dp6055
g74
(dp6056
sg83
g6042
sg76
(lp6057
g69
(g70
g71
NtRp6058
(dp6059
g74
(dp6060
g82
I3
ssg83
g6054
sg76
(lp6061
S''
asbasbasbag69
(g85
g71
NtRp6062
(dp6063
g74
(dp6064
sg83
g5918
sg76
(lp6065
g69
(g90
g71
NtRp6066
(dp6067
g74
(dp6068
g94
g95
ssg83
g6062
sg76
(lp6069
g453
asbag69
(g90
g71
NtRp6070
(dp6071
g74
(dp6072
g101
g102
ssg83
g6062
sg76
(lp6073
S':'
asbag69
(g90
g71
NtRp6074
(dp6075
g74
(dp6076
sg83
g6062
sg76
(lp6077
g69
(g70
g71
NtRp6078
(dp6079
g74
(dp6080
g82
I3
ssg83
g6074
sg76
(lp6081
S''
asbasbasbasbasbasbasbasbasbasbasbag69
(g85
g71
NtRp6082
(dp6083
g74
(dp6084
sg83
g5848
sg76
(lp6085
g69
(g90
g71
NtRp6086
(dp6087
g74
(dp6088
g94
g95
ssg83
g6082
sg76
(lp6089
S'delimiters'
p6090
asbag69
(g90
g71
NtRp6091
(dp6092
g74
(dp6093
g101
g102
ssg83
g6082
sg76
(lp6094
S':'
asbag69
(g90
g71
NtRp6095
(dp6096
g74
(dp6097
sg83
g6082
sg76
(lp6098
g69
(g70
g71
NtRp6099
(dp6100
g74
(dp6101
g82
I5
ssg83
g6095
sg76
(lp6102
g69
(g78
g71
NtRp6103
(dp6104
g74
(dp6105
g82
I4
ssg83
Nsg76
(lp6106
g69
(g85
g71
NtRp6107
(dp6108
g74
(dp6109
sg83
g6103
sg76
(lp6110
g69
(g90
g71
NtRp6111
(dp6112
g74
(dp6113
sg83
g6107
sg76
(lp6114
g69
(g70
g71
NtRp6115
(dp6116
g74
(dp6117
g82
I4
ssg83
g6111
sg76
(lp6118
S'{{'
p6119
asbasbasbag69
(g85
g71
NtRp6120
(dp6121
g74
(dp6122
sg83
g6103
sg76
(lp6123
g69
(g90
g71
NtRp6124
(dp6125
g74
(dp6126
sg83
g6120
sg76
(lp6127
g69
(g70
g71
NtRp6128
(dp6129
g74
(dp6130
g82
I4
ssg83
g6124
sg76
(lp6131
S'}}'
p6132
asbasbasbasbasbasbasbag69
(g85
g71
NtRp6133
(dp6134
g74
(dp6135
sg83
g5848
sg76
(lp6136
g69
(g90
g71
NtRp6137
(dp6138
g74
(dp6139
g94
g95
ssg83
g6133
sg76
(lp6140
S'files'
p6141
asbag69
(g90
g71
NtRp6142
(dp6143
g74
(dp6144
g101
g102
ssg83
g6133
sg76
(lp6145
S':'
asbag69
(g90
g71
NtRp6146
(dp6147
g74
(dp6148
sg83
g6133
sg76
(lp6149
g69
(g70
g71
NtRp6150
(dp6151
g74
(dp6152
g82
I5
ssg83
g6146
sg76
(lp6153
g69
(g78
g71
NtRp6154
(dp6155
g74
(dp6156
g82
I4
ssg83
Nsg76
(lp6157
sbasbasbasbag69
(g85
g71
NtRp6158
(dp6159
g74
(dp6160
sg83
g5848
sg76
(lp6161
g69
(g90
g71
NtRp6162
(dp6163
g74
(dp6164
g94
g95
ssg83
g6158
sg76
(lp6165
S'flash'
p6166
asbag69
(g90
g71
NtRp6167
(dp6168
g74
(dp6169
g101
g102
ssg83
g6158
sg76
(lp6170
S':'
asbag69
(g90
g71
NtRp6171
(dp6172
g74
(dp6173
sg83
g6158
sg76
(lp6174
g69
(g70
g71
NtRp6175
(dp6176
g74
(dp6177
g82
I5
ssg83
g6171
sg76
(lp6178
cgluon.languages
lazyT_unpickle
p6179
(S's\x12\x00\x00\x00Welcome to web2py!'
tRp6180
asbasbasbag69
(g85
g71
NtRp6181
(dp6182
g74
(dp6183
sg83
g5848
sg76
(lp6184
g69
(g90
g71
NtRp6185
(dp6186
g74
(dp6187
g94
g95
ssg83
g6181
sg76
(lp6188
S'generic_patterns'
p6189
asbag69
(g90
g71
NtRp6190
(dp6191
g74
(dp6192
g101
g102
ssg83
g6181
sg76
(lp6193
S':'
asbag69
(g90
g71
NtRp6194
(dp6195
g74
(dp6196
sg83
g6181
sg76
(lp6197
g69
(g70
g71
NtRp6198
(dp6199
g74
(dp6200
g82
I5
ssg83
g6194
sg76
(lp6201
g69
(g78
g71
NtRp6202
(dp6203
g74
(dp6204
g82
I4
ssg83
Nsg76
(lp6205
g69
(g85
g71
NtRp6206
(dp6207
g74
(dp6208
sg83
g6202
sg76
(lp6209
g69
(g90
g71
NtRp6210
(dp6211
g74
(dp6212
sg83
g6206
sg76
(lp6213
g69
(g70
g71
NtRp6214
(dp6215
g74
(dp6216
g82
I4
ssg83
g6210
sg76
(lp6217
S'*'
asbasbasbasbasbasbasbag69
(g85
g71
NtRp6218
(dp6219
g74
(dp6220
sg83
g5848
sg76
(lp6221
g69
(g90
g71
NtRp6222
(dp6223
g74
(dp6224
g94
g95
ssg83
g6218
sg76
(lp6225
S'google_analytics_id'
p6226
asbag69
(g90
g71
NtRp6227
(dp6228
g74
(dp6229
g101
g102
ssg83
g6218
sg76
(lp6230
S':'
asbag69
(g90
g71
NtRp6231
(dp6232
g74
(dp6233
sg83
g6218
sg76
(lp6234
g69
(g70
g71
NtRp6235
(dp6236
g74
(dp6237
g82
I5
ssg83
g6231
sg76
(lp6238
S'None'
p6239
asbasbasbag69
(g85
g71
NtRp6240
(dp6241
g74
(dp6242
sg83
g5848
sg76
(lp6243
g69
(g90
g71
NtRp6244
(dp6245
g74
(dp6246
g94
g95
ssg83
g6240
sg76
(lp6247
S'headers'
p6248
asbag69
(g90
g71
NtRp6249
(dp6250
g74
(dp6251
g101
g102
ssg83
g6240
sg76
(lp6252
S':'
asbag69
(g90
g71
NtRp6253
(dp6254
g74
(dp6255
sg83
g6240
sg76
(lp6256
g69
(g70
g71
NtRp6257
(dp6258
g74
(dp6259
g82
I5
ssg83
g6253
sg76
(lp6260
g69
(g78
g71
NtRp6261
(dp6262
g74
(dp6263
g82
I4
ssg83
Nsg76
(lp6264
g69
(g85
g71
NtRp6265
(dp6266
g74
(dp6267
sg83
g6261
sg76
(lp6268
g69
(g90
g71
NtRp6269
(dp6270
g74
(dp6271
g94
g95
ssg83
g6265
sg76
(lp6272
S'Cache-Control'
p6273
asbag69
(g90
g71
NtRp6274
(dp6275
g74
(dp6276
g101
g102
ssg83
g6265
sg76
(lp6277
S':'
asbag69
(g90
g71
NtRp6278
(dp6279
g74
(dp6280
sg83
g6265
sg76
(lp6281
g69
(g70
g71
NtRp6282
(dp6283
g74
(dp6284
g82
I4
ssg83
g6278
sg76
(lp6285
S'no-store, no-cache, must-revalidate, post-check=0, pre-check=0'
p6286
asbasbasbag69
(g85
g71
NtRp6287
(dp6288
g74
(dp6289
sg83
g6261
sg76
(lp6290
g69
(g90
g71
NtRp6291
(dp6292
g74
(dp6293
g94
g95
ssg83
g6287
sg76
(lp6294
S'Content-Type'
p6295
asbag69
(g90
g71
NtRp6296
(dp6297
g74
(dp6298
g101
g102
ssg83
g6287
sg76
(lp6299
S':'
asbag69
(g90
g71
NtRp6300
(dp6301
g74
(dp6302
sg83
g6287
sg76
(lp6303
g69
(g70
g71
NtRp6304
(dp6305
g74
(dp6306
g82
I4
ssg83
g6300
sg76
(lp6307
S'text/html; charset=utf-8'
p6308
asbasbasbag69
(g85
g71
NtRp6309
(dp6310
g74
(dp6311
sg83
g6261
sg76
(lp6312
g69
(g90
g71
NtRp6313
(dp6314
g74
(dp6315
g94
g95
ssg83
g6309
sg76
(lp6316
S'Expires'
p6317
asbag69
(g90
g71
NtRp6318
(dp6319
g74
(dp6320
g101
g102
ssg83
g6309
sg76
(lp6321
S':'
asbag69
(g90
g71
NtRp6322
(dp6323
g74
(dp6324
sg83
g6309
sg76
(lp6325
g69
(g70
g71
NtRp6326
(dp6327
g74
(dp6328
g82
I4
ssg83
g6322
sg76
(lp6329
S'Thu, 07 Nov 2013 12:12:34 GMT'
p6330
asbasbasbag69
(g85
g71
NtRp6331
(dp6332
g74
(dp6333
sg83
g6261
sg76
(lp6334
g69
(g90
g71
NtRp6335
(dp6336
g74
(dp6337
g94
g95
ssg83
g6331
sg76
(lp6338
S'Pragma'
p6339
asbag69
(g90
g71
NtRp6340
(dp6341
g74
(dp6342
g101
g102
ssg83
g6331
sg76
(lp6343
S':'
asbag69
(g90
g71
NtRp6344
(dp6345
g74
(dp6346
sg83
g6331
sg76
(lp6347
g69
(g70
g71
NtRp6348
(dp6349
g74
(dp6350
g82
I4
ssg83
g6344
sg76
(lp6351
S'no-cache'
p6352
asbasbasbag69
(g85
g71
NtRp6353
(dp6354
g74
(dp6355
sg83
g6261
sg76
(lp6356
g69
(g90
g71
NtRp6357
(dp6358
g74
(dp6359
g94
g95
ssg83
g6353
sg76
(lp6360
S'X-Powered-By'
p6361
asbag69
(g90
g71
NtRp6362
(dp6363
g74
(dp6364
g101
g102
ssg83
g6353
sg76
(lp6365
S':'
asbag69
(g90
g71
NtRp6366
(dp6367
g74
(dp6368
sg83
g6353
sg76
(lp6369
g69
(g70
g71
NtRp6370
(dp6371
g74
(dp6372
g82
I4
ssg83
g6366
sg76
(lp6373
S'web2py'
p6374
asbasbasbasbasbasbasbag69
(g85
g71
NtRp6375
(dp6376
g74
(dp6377
sg83
g5848
sg76
(lp6378
g69
(g90
g71
NtRp6379
(dp6380
g74
(dp6381
g94
g95
ssg83
g6375
sg76
(lp6382
S'menu'
p6383
asbag69
(g90
g71
NtRp6384
(dp6385
g74
(dp6386
g101
g102
ssg83
g6375
sg76
(lp6387
S':'
asbag69
(g90
g71
NtRp6388
(dp6389
g74
(dp6390
sg83
g6375
sg76
(lp6391
g69
(g70
g71
NtRp6392
(dp6393
g74
(dp6394
g82
I5
ssg83
g6388
sg76
(lp6395
g69
(g78
g71
NtRp6396
(dp6397
g74
(dp6398
g82
I4
ssg83
Nsg76
(lp6399
g69
(g85
g71
NtRp6400
(dp6401
g74
(dp6402
sg83
g6396
sg76
(lp6403
g69
(g90
g71
NtRp6404
(dp6405
g74
(dp6406
sg83
g6400
sg76
(lp6407
g69
(g70
g71
NtRp6408
(dp6409
g74
(dp6410
g82
I4
ssg83
g6404
sg76
(lp6411
g69
(g78
g71
NtRp6412
(dp6413
g74
(dp6414
g82
I3
ssg83
Nsg76
(lp6415
g69
(g85
g71
NtRp6416
(dp6417
g74
(dp6418
sg83
g6412
sg76
(lp6419
g69
(g90
g71
NtRp6420
(dp6421
g74
(dp6422
sg83
g6416
sg76
(lp6423
g69
(g70
g71
NtRp6424
(dp6425
g74
(dp6426
g82
I3
ssg83
g6420
sg76
(lp6427
g6179
(S's\x04\x00\x00\x00Home'
tRp6428
asbasbasbag69
(g85
g71
NtRp6429
(dp6430
g74
(dp6431
sg83
g6412
sg76
(lp6432
g69
(g90
g71
NtRp6433
(dp6434
g74
(dp6435
sg83
g6429
sg76
(lp6436
g69
(g70
g71
NtRp6437
(dp6438
g74
(dp6439
g82
I3
ssg83
g6433
sg76
(lp6440
g112
asbasbasbag69
(g85
g71
NtRp6441
(dp6442
g74
(dp6443
sg83
g6412
sg76
(lp6444
g69
(g90
g71
NtRp6445
(dp6446
g74
(dp6447
sg83
g6441
sg76
(lp6448
g69
(g70
g71
NtRp6449
(dp6450
g74
(dp6451
g82
I3
ssg83
g6445
sg76
(lp6452
S'/FunkLoad/default/index'
p6453
asbasbasbag69
(g85
g71
NtRp6454
(dp6455
g74
(dp6456
sg83
g6412
sg76
(lp6457
g69
(g90
g71
NtRp6458
(dp6459
g74
(dp6460
sg83
g6454
sg76
(lp6461
g69
(g70
g71
NtRp6462
(dp6463
g74
(dp6464
g82
I3
ssg83
g6458
sg76
(lp6465
g69
(g78
g71
NtRp6466
(dp6467
g74
(dp6468
g82
I2
ssg83
Nsg76
(lp6469
sbasbasbasbasbasbasbasbag69
(g85
g71
NtRp6470
(dp6471
g74
(dp6472
sg83
g6396
sg76
(lp6473
g69
(g90
g71
NtRp6474
(dp6475
g74
(dp6476
sg83
g6470
sg76
(lp6477
g69
(g70
g71
NtRp6478
(dp6479
g74
(dp6480
g82
I4
ssg83
g6474
sg76
(lp6481
g69
(g78
g71
NtRp6482
(dp6483
g74
(dp6484
g82
I3
ssg83
Nsg76
(lp6485
g69
(g85
g71
NtRp6486
(dp6487
g74
(dp6488
sg83
g6482
sg76
(lp6489
g69
(g90
g71
NtRp6490
(dp6491
g74
(dp6492
sg83
g6486
sg76
(lp6493
g69
(g70
g71
NtRp6494
(dp6495
g74
(dp6496
g82
I3
ssg83
g6490
sg76
(lp6497
g69
(cgluon.html
SPAN
p6498
g71
NtRp6499
(dp6500
g74
(dp6501
g94
S'color:yellow'
p6502
ssg83
Nsg76
(lp6503
g6374
asbasbasbasbag69
(g85
g71
NtRp6504
(dp6505
g74
(dp6506
sg83
g6482
sg76
(lp6507
g69
(g90
g71
NtRp6508
(dp6509
g74
(dp6510
sg83
g6504
sg76
(lp6511
g69
(g70
g71
NtRp6512
(dp6513
g74
(dp6514
g82
I3
ssg83
g6508
sg76
(lp6515
g112
asbasbasbag69
(g85
g71
NtRp6516
(dp6517
g74
(dp6518
sg83
g6482
sg76
(lp6519
g69
(g90
g71
NtRp6520
(dp6521
g74
(dp6522
sg83
g6516
sg76
(lp6523
g69
(g70
g71
NtRp6524
(dp6525
g74
(dp6526
g82
I3
ssg83
g6520
sg76
(lp6527
S'http://web2py.com'
p6528
asbasbasbag69
(g85
g71
NtRp6529
(dp6530
g74
(dp6531
sg83
g6482
sg76
(lp6532
g69
(g90
g71
NtRp6533
(dp6534
g74
(dp6535
sg83
g6529
sg76
(lp6536
g69
(g70
g71
NtRp6537
(dp6538
g74
(dp6539
g82
I3
ssg83
g6533
sg76
(lp6540
g69
(g78
g71
NtRp6541
(dp6542
g74
(dp6543
g82
I2
ssg83
Nsg76
(lp6544
g69
(g85
g71
NtRp6545
(dp6546
g74
(dp6547
sg83
g6541
sg76
(lp6548
g69
(g90
g71
NtRp6549
(dp6550
g74
(dp6551
sg83
g6545
sg76
(lp6552
g69
(g70
g71
NtRp6553
(dp6554
g74
(dp6555
g82
I2
ssg83
g6549
sg76
(lp6556
g69
(g78
g71
NtRp6557
(dp6558
g74
(dp6559
g82
I1
ssg83
Nsg76
(lp6560
g69
(g85
g71
NtRp6561
(dp6562
g74
(dp6563
sg83
g6557
sg76
(lp6564
g69
(g90
g71
NtRp6565
(dp6566
g74
(dp6567
sg83
g6561
sg76
(lp6568
g69
(g70
g71
NtRp6569
(dp6570
g74
(dp6571
g82
I1
ssg83
g6565
sg76
(lp6572
g6179
(S's\x08\x00\x00\x00My Sites'
tRp6573
asbasbasbag69
(g85
g71
NtRp6574
(dp6575
g74
(dp6576
sg83
g6557
sg76
(lp6577
g69
(g90
g71
NtRp6578
(dp6579
g74
(dp6580
sg83
g6574
sg76
(lp6581
g69
(g70
g71
NtRp6582
(dp6583
g74
(dp6584
g82
I1
ssg83
g6578
sg76
(lp6585
I00
asbasbasbag69
(g85
g71
NtRp6586
(dp6587
g74
(dp6588
sg83
g6557
sg76
(lp6589
g69
(g90
g71
NtRp6590
(dp6591
g74
(dp6592
sg83
g6586
sg76
(lp6593
g69
(g70
g71
NtRp6594
(dp6595
g74
(dp6596
g82
I1
ssg83
g6590
sg76
(lp6597
S'/admin/default/site'
p6598
asbasbasbasbasbasbasbag69
(g85
g71
NtRp6599
(dp6600
g74
(dp6601
sg83
g6541
sg76
(lp6602
g69
(g90
g71
NtRp6603
(dp6604
g74
(dp6605
sg83
g6599
sg76
(lp6606
g69
(g70
g71
NtRp6607
(dp6608
g74
(dp6609
g82
I2
ssg83
g6603
sg76
(lp6610
g69
(g78
g71
NtRp6611
(dp6612
g74
(dp6613
g82
I1
ssg83
Nsg76
(lp6614
g69
(g85
g71
NtRp6615
(dp6616
g74
(dp6617
sg83
g6611
sg76
(lp6618
g69
(g90
g71
NtRp6619
(dp6620
g74
(dp6621
sg83
g6615
sg76
(lp6622
g69
(g70
g71
NtRp6623
(dp6624
g74
(dp6625
g82
I1
ssg83
g6619
sg76
(lp6626
g6179
(S's\x08\x00\x00\x00This App'
tRp6627
asbasbasbag69
(g85
g71
NtRp6628
(dp6629
g74
(dp6630
sg83
g6611
sg76
(lp6631
g69
(g90
g71
NtRp6632
(dp6633
g74
(dp6634
sg83
g6628
sg76
(lp6635
g69
(g70
g71
NtRp6636
(dp6637
g74
(dp6638
g82
I1
ssg83
g6632
sg76
(lp6639
I00
asbasbasbag69
(g85
g71
NtRp6640
(dp6641
g74
(dp6642
sg83
g6611
sg76
(lp6643
g69
(g90
g71
NtRp6644
(dp6645
g74
(dp6646
sg83
g6640
sg76
(lp6647
g69
(g70
g71
NtRp6648
(dp6649
g74
(dp6650
g82
I1
ssg83
g6644
sg76
(lp6651
S'/admin/default/design/FunkLoad'
p6652
asbasbasbag69
(g85
g71
NtRp6653
(dp6654
g74
(dp6655
sg83
g6611
sg76
(lp6656
g69
(g90
g71
NtRp6657
(dp6658
g74
(dp6659
sg83
g6653
sg76
(lp6660
g69
(g70
g71
NtRp6661
(dp6662
g74
(dp6663
g82
I1
ssg83
g6657
sg76
(lp6664
(lp6665
(g6179
(S's\n\x00\x00\x00Controller'
tRp6666
I00
S'/admin/default/edit/FunkLoad/controllers/default.py'
tp6667
a(g6179
(S's\x04\x00\x00\x00View'
tRp6668
I00
S'/admin/default/edit/FunkLoad/views/default/index.html'
tp6669
a(g6179
(S's\x06\x00\x00\x00Layout'
tRp6670
I00
S'/admin/default/edit/FunkLoad/views/layout.html'
tp6671
a(g6179
(S's\n\x00\x00\x00Stylesheet'
tRp6672
I00
S'/admin/default/edit/FunkLoad/static/css/web2py.css'
tp6673
a(g6179
(S's\x08\x00\x00\x00DB Model'
tRp6674
I00
S'/admin/default/edit/FunkLoad/models/db.py'
tp6675
a(g6179
(S's\n\x00\x00\x00Menu Model'
tRp6676
I00
S'/admin/default/edit/FunkLoad/models/menu.py'
tp6677
a(g6179
(S's\x08\x00\x00\x00Database'
tRp6678
I00
S'/FunkLoad/appadmin/index'
tp6679
a(g6179
(S's\x06\x00\x00\x00Errors'
tRp6680
I00
S'/admin/default/errors/FunkLoad'
tp6681
a(g6179
(S's\x05\x00\x00\x00About'
tRp6682
I00
S'/admin/default/about/FunkLoad'
tp6683
aasbasbasbasbasbasbasbag69
(g85
g71
NtRp6684
(dp6685
g74
(dp6686
sg83
g6541
sg76
(lp6687
g69
(g90
g71
NtRp6688
(dp6689
g74
(dp6690
sg83
g6684
sg76
(lp6691
g69
(g70
g71
NtRp6692
(dp6693
g74
(dp6694
g82
I2
ssg83
g6688
sg76
(lp6695
g69
(g78
g71
NtRp6696
(dp6697
g74
(dp6698
g82
I1
ssg83
Nsg76
(lp6699
g69
(g85
g71
NtRp6700
(dp6701
g74
(dp6702
sg83
g6696
sg76
(lp6703
g69
(g90
g71
NtRp6704
(dp6705
g74
(dp6706
sg83
g6700
sg76
(lp6707
g69
(g70
g71
NtRp6708
(dp6709
g74
(dp6710
g82
I1
ssg83
g6704
sg76
(lp6711
S'web2py.com'
p6712
asbasbasbag69
(g85
g71
NtRp6713
(dp6714
g74
(dp6715
sg83
g6696
sg76
(lp6716
g69
(g90
g71
NtRp6717
(dp6718
g74
(dp6719
sg83
g6713
sg76
(lp6720
g69
(g70
g71
NtRp6721
(dp6722
g74
(dp6723
g82
I1
ssg83
g6717
sg76
(lp6724
I00
asbasbasbag69
(g85
g71
NtRp6725
(dp6726
g74
(dp6727
sg83
g6696
sg76
(lp6728
g69
(g90
g71
NtRp6729
(dp6730
g74
(dp6731
sg83
g6725
sg76
(lp6732
g69
(g70
g71
NtRp6733
(dp6734
g74
(dp6735
g82
I1
ssg83
g6729
sg76
(lp6736
S'http://www.web2py.com'
p6737
asbasbasbag69
(g85
g71
NtRp6738
(dp6739
g74
(dp6740
sg83
g6696
sg76
(lp6741
g69
(g90
g71
NtRp6742
(dp6743
g74
(dp6744
sg83
g6738
sg76
(lp6745
g69
(g70
g71
NtRp6746
(dp6747
g74
(dp6748
g82
I1
ssg83
g6742
sg76
(lp6749
(lp6750
(g6179
(S's\x08\x00\x00\x00Download'
tRp6751
I00
S'http://www.web2py.com/examples/default/download'
p6752
tp6753
a(g6179
(S's\x07\x00\x00\x00Support'
tRp6754
I00
S'http://www.web2py.com/examples/default/support'
p6755
tp6756
a(g6179
(S's\x04\x00\x00\x00Demo'
tRp6757
I00
S'http://web2py.com/demo_admin'
p6758
tp6759
a(g6179
(S's\x0e\x00\x00\x00Quick Examples'
tRp6760
I00
S'http://web2py.com/examples/default/examples'
p6761
tp6762
a(g6179
(S's\x03\x00\x00\x00FAQ'
tRp6763
I00
S'http://web2py.com/AlterEgo'
p6764
tp6765
a(g6179
(S's\x06\x00\x00\x00Videos'
tRp6766
I00
S'http://www.web2py.com/examples/default/videos/'
p6767
tp6768
a(g6179
(S's\x11\x00\x00\x00Free Applications'
tRp6769
I00
S'http://web2py.com/appliances'
p6770
tp6771
a(g6179
(S's\x07\x00\x00\x00Plugins'
tRp6772
I00
S'http://web2py.com/plugins'
p6773
tp6774
a(g6179
(S's\x07\x00\x00\x00Layouts'
tRp6775
I00
S'http://web2py.com/layouts'
p6776
tp6777
a(g6179
(S's\x07\x00\x00\x00Recipes'
tRp6778
I00
S'http://web2pyslices.com/'
p6779
tp6780
a(g6179
(S's\x08\x00\x00\x00Semantic'
tRp6781
I00
S'http://web2py.com/semantic'
p6782
tp6783
aasbasbasbasbasbasbasbag69
(g85
g71
NtRp6784
(dp6785
g74
(dp6786
sg83
g6541
sg76
(lp6787
g69
(g90
g71
NtRp6788
(dp6789
g74
(dp6790
sg83
g6784
sg76
(lp6791
g69
(g70
g71
NtRp6792
(dp6793
g74
(dp6794
g82
I2
ssg83
g6788
sg76
(lp6795
g69
(g78
g71
NtRp6796
(dp6797
g74
(dp6798
g82
I1
ssg83
Nsg76
(lp6799
g69
(g85
g71
NtRp6800
(dp6801
g74
(dp6802
sg83
g6796
sg76
(lp6803
g69
(g90
g71
NtRp6804
(dp6805
g74
(dp6806
sg83
g6800
sg76
(lp6807
g69
(g70
g71
NtRp6808
(dp6809
g74
(dp6810
g82
I1
ssg83
g6804
sg76
(lp6811
g6179
(S's\r\x00\x00\x00Documentation'
tRp6812
asbasbasbag69
(g85
g71
NtRp6813
(dp6814
g74
(dp6815
sg83
g6796
sg76
(lp6816
g69
(g90
g71
NtRp6817
(dp6818
g74
(dp6819
sg83
g6813
sg76
(lp6820
g69
(g70
g71
NtRp6821
(dp6822
g74
(dp6823
g82
I1
ssg83
g6817
sg76
(lp6824
I00
asbasbasbag69
(g85
g71
NtRp6825
(dp6826
g74
(dp6827
sg83
g6796
sg76
(lp6828
g69
(g90
g71
NtRp6829
(dp6830
g74
(dp6831
sg83
g6825
sg76
(lp6832
g69
(g70
g71
NtRp6833
(dp6834
g74
(dp6835
g82
I1
ssg83
g6829
sg76
(lp6836
S'http://www.web2py.com/book'
p6837
asbasbasbag69
(g85
g71
NtRp6838
(dp6839
g74
(dp6840
sg83
g6796
sg76
(lp6841
g69
(g90
g71
NtRp6842
(dp6843
g74
(dp6844
sg83
g6838
sg76
(lp6845
g69
(g70
g71
NtRp6846
(dp6847
g74
(dp6848
g82
I1
ssg83
g6842
sg76
(lp6849
(lp6850
(g6179
(S's\x07\x00\x00\x00Preface'
tRp6851
I00
S'http://www.web2py.com/book/default/chapter/00'
p6852
tp6853
a(g6179
(S's\x0c\x00\x00\x00Introduction'
tRp6854
I00
S'http://www.web2py.com/book/default/chapter/01'
p6855
tp6856
a(g6179
(S's\x06\x00\x00\x00Python'
tRp6857
I00
S'http://www.web2py.com/book/default/chapter/02'
p6858
tp6859
a(g6179
(S's\x08\x00\x00\x00Overview'
tRp6860
I00
S'http://www.web2py.com/book/default/chapter/03'
p6861
tp6862
a(g6179
(S's\x08\x00\x00\x00The Core'
tRp6863
I00
S'http://www.web2py.com/book/default/chapter/04'
p6864
tp6865
a(g6179
(S's\t\x00\x00\x00The Views'
tRp6866
I00
S'http://www.web2py.com/book/default/chapter/05'
p6867
tp6868
a(g6179
(S's\x08\x00\x00\x00Database'
tRp6869
I00
S'http://www.web2py.com/book/default/chapter/06'
p6870
tp6871
a(g6179
(S's\x14\x00\x00\x00Forms and Validators'
tRp6872
I00
S'http://www.web2py.com/book/default/chapter/07'
p6873
tp6874
a(g6179
(S's\r\x00\x00\x00Email and SMS'
tRp6875
I00
S'http://www.web2py.com/book/default/chapter/08'
p6876
tp6877
a(g6179
(S's\x0e\x00\x00\x00Access Control'
tRp6878
I00
S'http://www.web2py.com/book/default/chapter/09'
p6879
tp6880
a(g6179
(S's\x08\x00\x00\x00Services'
tRp6881
I00
S'http://www.web2py.com/book/default/chapter/10'
p6882
tp6883
a(g6179
(S's\x0c\x00\x00\x00Ajax Recipes'
tRp6884
I00
S'http://www.web2py.com/book/default/chapter/11'
p6885
tp6886
a(g6179
(S's\x16\x00\x00\x00Components and Plugins'
tRp6887
I00
S'http://www.web2py.com/book/default/chapter/12'
p6888
tp6889
a(g6179
(S's\x12\x00\x00\x00Deployment Recipes'
tRp6890
I00
S'http://www.web2py.com/book/default/chapter/13'
p6891
tp6892
a(g6179
(S's\r\x00\x00\x00Other Recipes'
tRp6893
I00
S'http://www.web2py.com/book/default/chapter/14'
p6894
tp6895
a(g6179
(S's\r\x00\x00\x00Buy this book'
tRp6896
I00
S'http://stores.lulu.com/web2py'
p6897
tp6898
aasbasbasbasbasbasbasbag69
(g85
g71
NtRp6899
(dp6900
g74
(dp6901
sg83
g6541
sg76
(lp6902
g69
(g90
g71
NtRp6903
(dp6904
g74
(dp6905
sg83
g6899
sg76
(lp6906
g69
(g70
g71
NtRp6907
(dp6908
g74
(dp6909
g82
I2
ssg83
g6903
sg76
(lp6910
g69
(g78
g71
NtRp6911
(dp6912
g74
(dp6913
g82
I1
ssg83
Nsg76
(lp6914
g69
(g85
g71
NtRp6915
(dp6916
g74
(dp6917
sg83
g6911
sg76
(lp6918
g69
(g90
g71
NtRp6919
(dp6920
g74
(dp6921
sg83
g6915
sg76
(lp6922
g69
(g70
g71
NtRp6923
(dp6924
g74
(dp6925
g82
I1
ssg83
g6919
sg76
(lp6926
g6179
(S's\t\x00\x00\x00Community'
tRp6927
asbasbasbag69
(g85
g71
NtRp6928
(dp6929
g74
(dp6930
sg83
g6911
sg76
(lp6931
g69
(g90
g71
NtRp6932
(dp6933
g74
(dp6934
sg83
g6928
sg76
(lp6935
g69
(g70
g71
NtRp6936
(dp6937
g74
(dp6938
g82
I1
ssg83
g6932
sg76
(lp6939
I00
asbasbasbag69
(g85
g71
NtRp6940
(dp6941
g74
(dp6942
sg83
g6911
sg76
(lp6943
g69
(g90
g71
NtRp6944
(dp6945
g74
(dp6946
sg83
g6940
sg76
(lp6947
g69
(g70
g71
NtRp6948
(dp6949
g74
(dp6950
g82
I1
ssg83
g6944
sg76
(lp6951
Nasbasbasbag69
(g85
g71
NtRp6952
(dp6953
g74
(dp6954
sg83
g6911
sg76
(lp6955
g69
(g90
g71
NtRp6956
(dp6957
g74
(dp6958
sg83
g6952
sg76
(lp6959
g69
(g70
g71
NtRp6960
(dp6961
g74
(dp6962
g82
I1
ssg83
g6956
sg76
(lp6963
(lp6964
(g6179
(S's\x06\x00\x00\x00Groups'
tRp6965
I00
S'http://www.web2py.com/examples/default/usergroups'
p6966
tp6967
a(g6179
(S's\x07\x00\x00\x00Twitter'
tRp6968
I00
S'http://twitter.com/web2py'
p6969
tp6970
a(g6179
(S's\t\x00\x00\x00Live Chat'
tRp6971
I00
S'http://webchat.freenode.net/?channels=web2py'
p6972
tp6973
aasbasbasbasbasbasbasbag69
(g85
g71
NtRp6974
(dp6975
g74
(dp6976
sg83
g6541
sg76
(lp6977
g69
(g90
g71
NtRp6978
(dp6979
g74
(dp6980
sg83
g6974
sg76
(lp6981
g69
(g70
g71
NtRp6982
(dp6983
g74
(dp6984
g82
I2
ssg83
g6978
sg76
(lp6985
g69
(g78
g71
NtRp6986
(dp6987
g74
(dp6988
g82
I1
ssg83
Nsg76
(lp6989
g69
(g85
g71
NtRp6990
(dp6991
g74
(dp6992
sg83
g6986
sg76
(lp6993
g69
(g90
g71
NtRp6994
(dp6995
g74
(dp6996
sg83
g6990
sg76
(lp6997
g69
(g70
g71
NtRp6998
(dp6999
g74
(dp7000
g82
I1
ssg83
g6994
sg76
(lp7001
g6179
(S's\x07\x00\x00\x00Plugins'
tRp7002
asbasbasbag69
(g85
g71
NtRp7003
(dp7004
g74
(dp7005
sg83
g6986
sg76
(lp7006
g69
(g90
g71
NtRp7007
(dp7008
g74
(dp7009
sg83
g7003
sg76
(lp7010
g69
(g70
g71
NtRp7011
(dp7012
g74
(dp7013
g82
I1
ssg83
g7007
sg76
(lp7014
I00
asbasbasbag69
(g85
g71
NtRp7015
(dp7016
g74
(dp7017
sg83
g6986
sg76
(lp7018
g69
(g90
g71
NtRp7019
(dp7020
g74
(dp7021
sg83
g7015
sg76
(lp7022
g69
(g70
g71
NtRp7023
(dp7024
g74
(dp7025
g82
I1
ssg83
g7019
sg76
(lp7026
Nasbasbasbag69
(g85
g71
NtRp7027
(dp7028
g74
(dp7029
sg83
g6986
sg76
(lp7030
g69
(g90
g71
NtRp7031
(dp7032
g74
(dp7033
sg83
g7027
sg76
(lp7034
g69
(g70
g71
NtRp7035
(dp7036
g74
(dp7037
g82
I1
ssg83
g7031
sg76
(lp7038
(lp7039
(S'plugin_wiki'
p7040
I00
S'http://web2py.com/examples/default/download'
p7041
tp7042
a(g6179
(S's\r\x00\x00\x00Other Plugins'
tRp7043
I00
g6773
tp7044
a(g6179
(S's\x0e\x00\x00\x00Layout Plugins'
tRp7045
I00
g6776
tp7046
aasbasbasbasbasbasbasbasbasbasbasbasbasbasbasbasbasbasbasbag69
(g85
g71
NtRp7047
(dp7048
g74
(dp7049
sg83
g5848
sg76
(lp7050
g69
(g90
g71
NtRp7051
(dp7052
g74
(dp7053
g94
g95
ssg83
g7047
sg76
(lp7054
S'meta'
p7055
asbag69
(g90
g71
NtRp7056
(dp7057
g74
(dp7058
g101
g102
ssg83
g7047
sg76
(lp7059
S':'
asbag69
(g90
g71
NtRp7060
(dp7061
g74
(dp7062
sg83
g7047
sg76
(lp7063
g69
(g70
g71
NtRp7064
(dp7065
g74
(dp7066
g82
I5
ssg83
g7060
sg76
(lp7067
g69
(g78
g71
NtRp7068
(dp7069
g74
(dp7070
g82
I4
ssg83
Nsg76
(lp7071
g69
(g85
g71
NtRp7072
(dp7073
g74
(dp7074
sg83
g7068
sg76
(lp7075
g69
(g90
g71
NtRp7076
(dp7077
g74
(dp7078
g94
g95
ssg83
g7072
sg76
(lp7079
S'author'
p7080
asbag69
(g90
g71
NtRp7081
(dp7082
g74
(dp7083
g101
g102
ssg83
g7072
sg76
(lp7084
S':'
asbag69
(g90
g71
NtRp7085
(dp7086
g74
(dp7087
sg83
g7072
sg76
(lp7088
g69
(g70
g71
NtRp7089
(dp7090
g74
(dp7091
g82
I4
ssg83
g7085
sg76
(lp7092
S'Your Name <you@example.com>'
p7093
asbasbasbag69
(g85
g71
NtRp7094
(dp7095
g74
(dp7096
sg83
g7068
sg76
(lp7097
g69
(g90
g71
NtRp7098
(dp7099
g74
(dp7100
g94
g95
ssg83
g7094
sg76
(lp7101
S'description'
p7102
asbag69
(g90
g71
NtRp7103
(dp7104
g74
(dp7105
g101
g102
ssg83
g7094
sg76
(lp7106
S':'
asbag69
(g90
g71
NtRp7107
(dp7108
g74
(dp7109
sg83
g7094
sg76
(lp7110
g69
(g70
g71
NtRp7111
(dp7112
g74
(dp7113
g82
I4
ssg83
g7107
sg76
(lp7114
S'a cool new app'
p7115
asbasbasbag69
(g85
g71
NtRp7116
(dp7117
g74
(dp7118
sg83
g7068
sg76
(lp7119
g69
(g90
g71
NtRp7120
(dp7121
g74
(dp7122
g94
g95
ssg83
g7116
sg76
(lp7123
S'generator'
p7124
asbag69
(g90
g71
NtRp7125
(dp7126
g74
(dp7127
g101
g102
ssg83
g7116
sg76
(lp7128
S':'
asbag69
(g90
g71
NtRp7129
(dp7130
g74
(dp7131
sg83
g7116
sg76
(lp7132
g69
(g70
g71
NtRp7133
(dp7134
g74
(dp7135
g82
I4
ssg83
g7129
sg76
(lp7136
S'Web2py Web Framework'
p7137
asbasbasbag69
(g85
g71
NtRp7138
(dp7139
g74
(dp7140
sg83
g7068
sg76
(lp7141
g69
(g90
g71
NtRp7142
(dp7143
g74
(dp7144
g94
g95
ssg83
g7138
sg76
(lp7145
S'keywords'
p7146
asbag69
(g90
g71
NtRp7147
(dp7148
g74
(dp7149
g101
g102
ssg83
g7138
sg76
(lp7150
S':'
asbag69
(g90
g71
NtRp7151
(dp7152
g74
(dp7153
sg83
g7138
sg76
(lp7154
g69
(g70
g71
NtRp7155
(dp7156
g74
(dp7157
g82
I4
ssg83
g7151
sg76
(lp7158
S'web2py, python, framework'
p7159
asbasbasbasbasbasbasbag69
(g85
g71
NtRp7160
(dp7161
g74
(dp7162
sg83
g5848
sg76
(lp7163
g69
(g90
g71
NtRp7164
(dp7165
g74
(dp7166
g94
g95
ssg83
g7160
sg76
(lp7167
S'models_to_run'
p7168
asbag69
(g90
g71
NtRp7169
(dp7170
g74
(dp7171
g101
g102
ssg83
g7160
sg76
(lp7172
S':'
asbag69
(g90
g71
NtRp7173
(dp7174
g74
(dp7175
sg83
g7160
sg76
(lp7176
g69
(g70
g71
NtRp7177
(dp7178
g74
(dp7179
g82
I5
ssg83
g7173
sg76
(lp7180
g69
(g78
g71
NtRp7181
(dp7182
g74
(dp7183
g82
I4
ssg83
Nsg76
(lp7184
g69
(g85
g71
NtRp7185
(dp7186
g74
(dp7187
sg83
g7181
sg76
(lp7188
g69
(g90
g71
NtRp7189
(dp7190
g74
(dp7191
sg83
g7185
sg76
(lp7192
g69
(g70
g71
NtRp7193
(dp7194
g74
(dp7195
g82
I4
ssg83
g7189
sg76
(lp7196
S'^\\w+\\.py$'
p7197
asbasbasbag69
(g85
g71
NtRp7198
(dp7199
g74
(dp7200
sg83
g7181
sg76
(lp7201
g69
(g90
g71
NtRp7202
(dp7203
g74
(dp7204
sg83
g7198
sg76
(lp7205
g69
(g70
g71
NtRp7206
(dp7207
g74
(dp7208
g82
I4
ssg83
g7202
sg76
(lp7209
S'^default/\\w+\\.py$'
p7210
asbasbasbag69
(g85
g71
NtRp7211
(dp7212
g74
(dp7213
sg83
g7181
sg76
(lp7214
g69
(g90
g71
NtRp7215
(dp7216
g74
(dp7217
sg83
g7211
sg76
(lp7218
g69
(g70
g71
NtRp7219
(dp7220
g74
(dp7221
g82
I4
ssg83
g7215
sg76
(lp7222
S'^default/index/\\w+\\.py$'
p7223
asbasbasbasbasbasbasbag69
(g85
g71
NtRp7224
(dp7225
g74
(dp7226
sg83
g5848
sg76
(lp7227
g69
(g90
g71
NtRp7228
(dp7229
g74
(dp7230
g94
g95
ssg83
g7224
sg76
(lp7231
S'postprocessing'
p7232
asbag69
(g90
g71
NtRp7233
(dp7234
g74
(dp7235
g101
g102
ssg83
g7224
sg76
(lp7236
S':'
asbag69
(g90
g71
NtRp7237
(dp7238
g74
(dp7239
sg83
g7224
sg76
(lp7240
g69
(g70
g71
NtRp7241
(dp7242
g74
(dp7243
g82
I5
ssg83
g7237
sg76
(lp7244
g69
(g78
g71
NtRp7245
(dp7246
g74
(dp7247
g82
I4
ssg83
Nsg76
(lp7248
sbasbasbasbag69
(g85
g71
NtRp7249
(dp7250
g74
(dp7251
sg83
g5848
sg76
(lp7252
g69
(g90
g71
NtRp7253
(dp7254
g74
(dp7255
g94
g95
ssg83
g7249
sg76
(lp7256
S'session_file'
p7257
asbag69
(g90
g71
NtRp7258
(dp7259
g74
(dp7260
g101
g102
ssg83
g7249
sg76
(lp7261
S':'
asbag69
(g90
g71
NtRp7262
(dp7263
g74
(dp7264
sg83
g7249
sg76
(lp7265
g69
(g70
g71
NtRp7266
(dp7267
g74
(dp7268
g82
I5
ssg83
g7262
sg76
(lp7269
S"<open file '/home/mayank/Desktop/web2pyAdmin/web2py/web2py/applications/FunkLoad/sessions/127.0.0.1-cf22ecd2-40c5-41ec-a943-aeddb5bba043', mode 'rb+' at 0x7f275855edb0>"
p7270
asbasbasbag69
(g85
g71
NtRp7271
(dp7272
g74
(dp7273
sg83
g5848
sg76
(lp7274
g69
(g90
g71
NtRp7275
(dp7276
g74
(dp7277
g94
g95
ssg83
g7271
sg76
(lp7278
S'session_filename'
p7279
asbag69
(g90
g71
NtRp7280
(dp7281
g74
(dp7282
g101
g102
ssg83
g7271
sg76
(lp7283
S':'
asbag69
(g90
g71
NtRp7284
(dp7285
g74
(dp7286
sg83
g7271
sg76
(lp7287
g69
(g70
g71
NtRp7288
(dp7289
g74
(dp7290
g82
I5
ssg83
g7284
sg76
(lp7291
S'/home/mayank/Desktop/web2pyAdmin/web2py/web2py/applications/FunkLoad/sessions/127.0.0.1-cf22ecd2-40c5-41ec-a943-aeddb5bba043'
p7292
asbasbasbag69
(g85
g71
NtRp7293
(dp7294
g74
(dp7295
sg83
g5848
sg76
(lp7296
g69
(g90
g71
NtRp7297
(dp7298
g74
(dp7299
g94
g95
ssg83
g7293
sg76
(lp7300
S'session_id'
p7301
asbag69
(g90
g71
NtRp7302
(dp7303
g74
(dp7304
g101
g102
ssg83
g7293
sg76
(lp7305
S':'
asbag69
(g90
g71
NtRp7306
(dp7307
g74
(dp7308
sg83
g7293
sg76
(lp7309
g69
(g70
g71
NtRp7310
(dp7311
g74
(dp7312
g82
I5
ssg83
g7306
sg76
(lp7313
g1417
asbasbasbag69
(g85
g71
NtRp7314
(dp7315
g74
(dp7316
sg83
g5848
sg76
(lp7317
g69
(g90
g71
NtRp7318
(dp7319
g74
(dp7320
g94
g95
ssg83
g7314
sg76
(lp7321
S'session_id_name'
p7322
asbag69
(g90
g71
NtRp7323
(dp7324
g74
(dp7325
g101
g102
ssg83
g7314
sg76
(lp7326
S':'
asbag69
(g90
g71
NtRp7327
(dp7328
g74
(dp7329
sg83
g7314
sg76
(lp7330
g69
(g70
g71
NtRp7331
(dp7332
g74
(dp7333
g82
I5
ssg83
g7327
sg76
(lp7334
g5905
asbasbasbag69
(g85
g71
NtRp7335
(dp7336
g74
(dp7337
sg83
g5848
sg76
(lp7338
g69
(g90
g71
NtRp7339
(dp7340
g74
(dp7341
g94
g95
ssg83
g7335
sg76
(lp7342
S'session_locked'
p7343
asbag69
(g90
g71
NtRp7344
(dp7345
g74
(dp7346
g101
g102
ssg83
g7335
sg76
(lp7347
S':'
asbag69
(g90
g71
NtRp7348
(dp7349
g74
(dp7350
sg83
g7335
sg76
(lp7351
g69
(g70
g71
NtRp7352
(dp7353
g74
(dp7354
g82
I5
ssg83
g7348
sg76
(lp7355
g3989
asbasbasbag69
(g85
g71
NtRp7356
(dp7357
g74
(dp7358
sg83
g5848
sg76
(lp7359
g69
(g90
g71
NtRp7360
(dp7361
g74
(dp7362
g94
g95
ssg83
g7356
sg76
(lp7363
S'session_new'
p7364
asbag69
(g90
g71
NtRp7365
(dp7366
g74
(dp7367
g101
g102
ssg83
g7356
sg76
(lp7368
S':'
asbag69
(g90
g71
NtRp7369
(dp7370
g74
(dp7371
sg83
g7356
sg76
(lp7372
g69
(g70
g71
NtRp7373
(dp7374
g74
(dp7375
g82
I5
ssg83
g7369
sg76
(lp7376
g112
asbasbasbag69
(g85
g71
NtRp7377
(dp7378
g74
(dp7379
sg83
g5848
sg76
(lp7380
g69
(g90
g71
NtRp7381
(dp7382
g74
(dp7383
g94
g95
ssg83
g7377
sg76
(lp7384
S'status'
p7385
asbag69
(g90
g71
NtRp7386
(dp7387
g74
(dp7388
g101
g102
ssg83
g7377
sg76
(lp7389
S':'
asbag69
(g90
g71
NtRp7390
(dp7391
g74
(dp7392
sg83
g7377
sg76
(lp7393
g69
(g70
g71
NtRp7394
(dp7395
g74
(dp7396
g82
I5
ssg83
g7390
sg76
(lp7397
S'200'
p7398
asbasbasbag69
(g85
g71
NtRp7399
(dp7400
g74
(dp7401
sg83
g5848
sg76
(lp7402
g69
(g90
g71
NtRp7403
(dp7404
g74
(dp7405
g94
g95
ssg83
g7399
sg76
(lp7406
S'subtitle'
p7407
asbag69
(g90
g71
NtRp7408
(dp7409
g74
(dp7410
g101
g102
ssg83
g7399
sg76
(lp7411
S':'
asbag69
(g90
g71
NtRp7412
(dp7413
g74
(dp7414
sg83
g7399
sg76
(lp7415
g69
(g70
g71
NtRp7416
(dp7417
g74
(dp7418
g82
I5
ssg83
g7412
sg76
(lp7419
g6179
(S's\r\x00\x00\x00customize me!'
tRp7420
asbasbasbag69
(g85
g71
NtRp7421
(dp7422
g74
(dp7423
sg83
g5848
sg76
(lp7424
g69
(g90
g71
NtRp7425
(dp7426
g74
(dp7427
g94
g95
ssg83
g7421
sg76
(lp7428
S'title'
p7429
asbag69
(g90
g71
NtRp7430
(dp7431
g74
(dp7432
g101
g102
ssg83
g7421
sg76
(lp7433
S':'
asbag69
(g90
g71
NtRp7434
(dp7435
g74
(dp7436
sg83
g7421
sg76
(lp7437
g69
(g70
g71
NtRp7438
(dp7439
g74
(dp7440
g82
I5
ssg83
g7434
sg76
(lp7441
S'Funkload'
p7442
asbasbasbag69
(g85
g71
NtRp7443
(dp7444
g74
(dp7445
sg83
g5848
sg76
(lp7446
g69
(g90
g71
NtRp7447
(dp7448
g74
(dp7449
g94
g95
ssg83
g7443
sg76
(lp7450
S'view'
p7451
asbag69
(g90
g71
NtRp7452
(dp7453
g74
(dp7454
g101
g102
ssg83
g7443
sg76
(lp7455
S':'
asbag69
(g90
g71
NtRp7456
(dp7457
g74
(dp7458
sg83
g7443
sg76
(lp7459
g69
(g70
g71
NtRp7460
(dp7461
g74
(dp7462
g82
I5
ssg83
g7456
sg76
(lp7463
S'default/index.html'
p7464
asbasbasbasbasbsS'locals'
p7465
(dp7466
g4
S"'/home/mayank/Desktop/web2pyAdmin/web2py/web2py/applications/FunkLoad/views/default/index.html'"
p7467
sg6
S'r"response.write(\'<!DOCTYPE html>\\r\\n<!-- pauliris...ript>  \\r\\n</body>\\r\\n</html>\\r\\n\', escape=False)"'
p7468
sssS'traceback'
p7469
S'Traceback (most recent call last):\n  File "/home/mayank/Desktop/web2pyAdmin/web2py/web2py/gluon/restricted.py", line 208, in restricted\n    ccode = compile2(code,layer)\n  File "/home/mayank/Desktop/web2pyAdmin/web2py/web2py/gluon/restricted.py", line 193, in compile2\n    return compile(code.rstrip().replace(\'\\r\\n\',\'\\n\')+\'\\n\', layer, \'exec\')\n  File "/home/mayank/Desktop/web2pyAdmin/web2py/web2py/applications/FunkLoad/views/default/index.html", line 32\n    response.files.append(URL(\'static\',css/compiled/index.css"))\n                                                               ^\nSyntaxError: EOL while scanning string literal\n'
p7470
s.