(dp1
S'output'
p2
S"<type 'exceptions.SyntaxError'> invalid syntax (index.html, line 22)"
p3
sS'layer'
p4
S'/home/mayank/Desktop/web2pyAdmin/web2py/web2py/applications/FunkLoad/views/default/index.html'
p5
sS'code'
p6
S'response.write(\'<!DOCTYPE html>\\r\\n<!-- paulirish.com/2008/conditional-stylesheets-vs-css-hacks-answer-neither/ -->\\r\\n<!--[if lt IE 7]><html class="ie ie6 ie-lte9 ie-lte8 ie-lte7 no-js" lang="\', escape=False)\nresponse.write(T.accepted_language or \'en\')\nresponse.write(\'"> <![endif]-->\\r\\n<!--[if IE 7]><html class="ie ie7 ie-lte9 ie-lte8 ie-lte7 no-js" lang="\', escape=False)\nresponse.write(T.accepted_language or \'en\')\nresponse.write(\'"> <![endif]-->\\r\\n<!--[if IE 8]><html class="ie ie8 ie-lte9 ie-lte8 no-js" lang="\', escape=False)\nresponse.write(T.accepted_language or \'en\')\nresponse.write(\'"> <![endif]-->\\r\\n<!--[if IE 9]><html class="ie9 ie-lte9 no-js" lang="\', escape=False)\nresponse.write(T.accepted_language or \'en\')\nresponse.write(\'"> <![endif]-->\\r\\n<!--[if (gt IE 9)|!(IE)]><!--> <html class="no-js" lang="\', escape=False)\nresponse.write(T.accepted_language or \'en\')\nresponse.write(\'"> <!--<![endif]-->\\r\\n<html>\\r\\n<head>\\r\\n    <meta http-equiv="Content-Type" content="text/html; charset=utf-8">\\r\\n\\t<meta name="viewport" content="width=device-width, initial-scale=1.0">\\r\\n  \\r\\n  <!-- http://dev.w3.org/html5/markup/meta.name.html -->\\r\\n  <meta name="application-name" content="\', escape=False)\nresponse.write(request.application)\nresponse.write(\'" />\\r\\n  \\r\\n  <!-- Speaking of Google, don\\\'t forget to set your site up:\\r\\n       http://google.com/webmasters -->\\r\\n  <meta name="google-site-verification" content="" />\\r\\n  \\r\\n  <!--  Mobile Viewport Fix\\r\\n\\tj.mp/mobileviewport & davidbcalhoun.com/2010/viewport-metatag\\r\\n\\tdevice-width: Occupy full width of the screen in its current orientation\\r\\n\\tinitial-scale = 1.0 retains dimensions instead of zooming out if page height > device height\\r\\n\\tuser-scalable = yes allows the user to zoom in -->\\r\\n  <meta name="viewport" content="width=device-width, initial-scale=1.0">\\r\\n  <title>\', escape=False)\nresponse.write(response.title or request.application)\nresponse.write(\'</title>\\r\\n  <link rel="shortcut icon" href="\', escape=False)\nresponse.write(URL(\'static\',\'images/favicon.ico\'))\nresponse.write(\'" type="image/x-icon">\\r\\n  <link rel="apple-touch-icon" href="\', escape=False)\nresponse.write(URL(\'static\',\'images/favicon.png\'))\nresponse.write(\'">\\r\\n  \\r\\n  <!-- All JavaScript at the bottom, except for Modernizr which enables \\r\\n\\r\\n       HTML5 elements & feature detects -->\\r\\n  <script src="\', escape=False)\nresponse.write(URL(\'static\',\'js/modernizr.custom.js\'))\nresponse.write(\'"></script>   \\r\\n  \\r\\n  <!-- include stylesheets -->\\r\\n  \', escape=False)\n<!-- bootstrap -->\nresponse.files.append(URL(\'static\',"css/bootstrap/bootstrap.css"))\nresponse.files.append(URL(\'static\',"css/bootstrap/bootstrap-responsive.css"))\nresponse.files.append(URL(\'static\',\'css/web2py.css\'))\nresponse.files.append(URL(\'static\',\'css/web2py_bootstrap.css\'))\nresponse.files.append(URL(\'static\',"css/bootstrap/bootstrap-overrides.css"))\n<!-- libraries -->\nresponse.files.append(URL(\'static\',"css/lib/jquery-ui-1.10.2.custom.css"))\nresponse.files.append(URL(\'static\',"css/lib/font-awesome.css"))\n<!-- global styles -->\nresponse.files.append(URL(\'static\',"css/layout.css"))\nresponse.files.append(URL(\'static\',"css/elements.css"))\nresponse.files.append(URL(\'static\',"css/icons.css"))\n<!-- this page specific styles -->\nresponse.files.append(URL(\'static\',css/compiled/index.css"))\n<!-- open sans font -->\nresponse.files.append(URL(\'static\',"css/css5c84.css?family=Open+Sans:300italic,400italic,600italic,700italic,800italic,400,300,600,700,800"))\n<!-- lato font -->\nresponse.files.append(URL(\'static\',"css/cssef21.css?family=Lato:300,400,700,900,300italic,400italic,700italic,900italic"))\nresponse.write(\'\\r\\n\\r\\n  \', escape=False)\nresponse.write(\'<script type="text/javascript"><!--\\n    // These variables are used by the web2py_ajax_init function in web2py_ajax.js (which is loaded below).\\n    var w2p_ajax_confirm_message = "\', escape=False)\nresponse.write(T(\'Are you sure you want to delete this object?\'))\nresponse.write(\'";\\n    var w2p_ajax_date_format = "\', escape=False)\nresponse.write(T(\'%Y-%m-%d\'))\nresponse.write(\'";\\n    var w2p_ajax_datetime_format = "\', escape=False)\nresponse.write(T(\'%Y-%m-%d %H:%M:%S\'))\nresponse.write(\'";\\n    //--></script>\\n\', escape=False)\nresponse.files.insert(0,URL(\'static\',\'js/jquery.js\'))\nresponse.files.insert(1,URL(\'static\',\'css/calendar.css\'))\nresponse.files.insert(2,URL(\'static\',\'js/calendar.js\'))\nresponse.files.insert(3,URL(\'static\',\'js/web2py.js\'))\nresponse.include_meta()\nresponse.include_files()\nresponse.write(\'\\n\', escape=False)\nresponse.write(\'\\r\\n  \\r\\n  \', escape=False)\n# using sidebars need to know what sidebar you want to use\nleft_sidebar_enabled = globals().get(\'left_sidebar_enabled\',False)\nright_sidebar_enabled = globals().get(\'right_sidebar_enabled\',False)\nmiddle_columns = {0:\'span12\',1:\'span9\',2:\'span6\'}[\n(left_sidebar_enabled and 1 or 0)+(right_sidebar_enabled and 1 or 0)]\nresponse.write(\'\\r\\n\\r\\n  <noscript><link href="\', escape=False)\nresponse.write(URL(\'static\', \'css/web2py_bootstrap_nojs.css\'))\nresponse.write(\'" rel="stylesheet" type="text/css" /></noscript>\\r\\n  \', escape=False)\nresponse.write(\'\\r\\n  \\r\\n  <!--[if lt IE 9]>\\r\\n      <script src="http://html5shim.googlecode.com/svn/trunk/html5.js"></script>\\r\\n    <![endif]-->\\r\\n</head>\\r\\n<body>\\r\\n  <!-- navbar -->\\r\\n    <div class="navbar navbar-inverse">\\r\\n        <div class="navbar-inner">\\r\\n            <button type="button" class="btn btn-navbar visible-phone" id="menu-toggler">\\r\\n                <span class="icon-bar"></span>\\r\\n                <span class="icon-bar"></span>\\r\\n                <span class="icon-bar"></span>\\r\\n            </button>\\r\\n            \\r\\n            <a class="brand" href="index.html"><img src="img/logo.png"></a>\\r\\n\\r\\n            <ul class="nav pull-right">                \\r\\n                <li class="hidden-phone">\\r\\n                    <input class="search" type="text" />\\r\\n                </li>\\r\\n                <li class="notification-dropdown hidden-phone">\\r\\n                    <a href="#" class="trigger">\\r\\n                        <i class="icon-warning-sign"></i>\\r\\n                        <span class="count">8</span>\\r\\n                    </a>\\r\\n                    <div class="pop-dialog">\\r\\n                        <div class="pointer right">\\r\\n                            <div class="arrow"></div>\\r\\n                            <div class="arrow_border"></div>\\r\\n                        </div>\\r\\n                        <div class="body">\\r\\n                            <a href="#" class="close-icon"><i class="icon-remove-sign"></i></a>\\r\\n                            <div class="notifications">\\r\\n                                <h3>You have 6 new notifications</h3>\\r\\n                                <a href="#" class="item">\\r\\n                                    <i class="icon-signin"></i> New user registration\\r\\n                                    <span class="time"><i class="icon-time"></i> 13 min.</span>\\r\\n                                </a>\\r\\n                                <a href="#" class="item">\\r\\n                                    <i class="icon-signin"></i> New user registration\\r\\n                                    <span class="time"><i class="icon-time"></i> 18 min.</span>\\r\\n                                </a>\\r\\n                                <a href="#" class="item">\\r\\n                                    <i class="icon-envelope-alt"></i> New message from Alejandra\\r\\n                                    <span class="time"><i class="icon-time"></i> 28 min.</span>\\r\\n                                </a>\\r\\n                                <a href="#" class="item">\\r\\n                                    <i class="icon-signin"></i> New user registration\\r\\n                                    <span class="time"><i class="icon-time"></i> 49 min.</span>\\r\\n                                </a>\\r\\n                                <a href="#" class="item">\\r\\n                                    <i class="icon-download-alt"></i> New order placed\\r\\n                                    <span class="time"><i class="icon-time"></i> 1 day.</span>\\r\\n                                </a>\\r\\n                                <div class="footer">\\r\\n                                    <a href="#" class="logout">View all notifications</a>\\r\\n                                </div>\\r\\n                            </div>\\r\\n                        </div>\\r\\n                    </div>\\r\\n                </li>\\r\\n                <li class="notification-dropdown hidden-phone">\\r\\n                    <a href="#" class="trigger">\\r\\n                        <i class="icon-envelope-alt"></i>\\r\\n                    </a>\\r\\n                    <div class="pop-dialog">\\r\\n                        <div class="pointer right">\\r\\n                            <div class="arrow"></div>\\r\\n                            <div class="arrow_border"></div>\\r\\n                        </div>\\r\\n                        <div class="body">\\r\\n                            <a href="#" class="close-icon"><i class="icon-remove-sign"></i></a>\\r\\n                            <div class="messages">\\r\\n                                <a href="#" class="item">\\r\\n                                    <img src="img/contact-img.png" class="display" />\\r\\n                                    <div class="name">Alejandra Galv\\xc3\\xa1n</div>\\r\\n                                    <div class="msg">\\r\\n                                        There are many variations of available, but the majority have suffered alterations.\\r\\n                                    </div>\\r\\n                                    <span class="time"><i class="icon-time"></i> 13 min.</span>\\r\\n                                </a>\\r\\n                                <a href="#" class="item">\\r\\n                                    <img src="img/contact-img2.png" class="display" />\\r\\n                                    <div class="name">Alejandra Galv\\xc3\\xa1n</div>\\r\\n                                    <div class="msg">\\r\\n                                        There are many variations of available, have suffered alterations.\\r\\n                                    </div>\\r\\n                                    <span class="time"><i class="icon-time"></i> 26 min.</span>\\r\\n                                </a>\\r\\n                                <a href="#" class="item last">\\r\\n                                    <img src="img/contact-img.png" class="display" />\\r\\n                                    <div class="name">Alejandra Galv\\xc3\\xa1n</div>\\r\\n                                    <div class="msg">\\r\\n                                        There are many variations of available, but the majority have suffered alterations.\\r\\n                                    </div>\\r\\n                                    <span class="time"><i class="icon-time"></i> 48 min.</span>\\r\\n                                </a>\\r\\n                                <div class="footer">\\r\\n                                    <a href="#" class="logout">View all messages</a>\\r\\n                                </div>\\r\\n                            </div>\\r\\n                        </div>\\r\\n                    </div>\\r\\n                </li>\\r\\n                <li class="dropdown">\\r\\n                    <a href="#" class="dropdown-toggle hidden-phone" data-toggle="dropdown">\\r\\n                        Your account\\r\\n                        <b class="caret"></b>\\r\\n                    </a>\\r\\n                    <ul class="dropdown-menu">\\r\\n                        <li><a href="personal-info.html">Personal info</a></li>\\r\\n                        <li><a href="#">Account settings</a></li>\\r\\n                        <li><a href="#">Billing</a></li>\\r\\n                        <li><a href="#">Export your data</a></li>\\r\\n                        <li><a href="#">Send feedback</a></li>\\r\\n                    </ul>\\r\\n                </li>\\r\\n                <li class="settings hidden-phone">\\r\\n                    <a href="personal-info.html" role="button">\\r\\n                        <i class="icon-cog"></i>\\r\\n                    </a>\\r\\n                </li>\\r\\n                <li class="settings hidden-phone">\\r\\n                    <a href="signin.html" role="button">\\r\\n                        <i class="icon-share-alt"></i>\\r\\n                    </a>\\r\\n                </li>\\r\\n            </ul>            \\r\\n        </div>\\r\\n    </div>\\r\\n    <!-- end navbar -->\\r\\n\\r\\n    <!-- sidebar -->\\r\\n    <div id="sidebar-nav">\\r\\n        <ul id="dashboard-menu">\\r\\n            <li class="active">\\r\\n                <div class="pointer">\\r\\n                    <div class="arrow"></div>\\r\\n                    <div class="arrow_border"></div>\\r\\n                </div>\\r\\n                <a href="index.html">\\r\\n                    <i class="icon-home"></i>\\r\\n                    <span>Home</span>\\r\\n                </a>\\r\\n            </li>            \\r\\n            <li>\\r\\n                <a href="chart-showcase.html">\\r\\n                    <i class="icon-signal"></i>\\r\\n                    <span>Charts</span>\\r\\n                </a>\\r\\n            </li>\\r\\n            <li>\\r\\n                <a class="dropdown-toggle" href="#">\\r\\n                    <i class="icon-group"></i>\\r\\n                    <span>Users</span>\\r\\n                    <i class="icon-chevron-down"></i>\\r\\n                </a>\\r\\n                <ul class="submenu">\\r\\n                    <li><a href="user-list.html">User list</a></li>\\r\\n                    <li><a href="new-user.html">New user form</a></li>\\r\\n                    <li><a href="user-profile.html">User profile</a></li>\\r\\n                </ul>\\r\\n            </li>\\r\\n            <li>\\r\\n                <a class="dropdown-toggle" href="#">\\r\\n                    <i class="icon-edit"></i>\\r\\n                    <span>Forms</span>\\r\\n                    <i class="icon-chevron-down"></i>\\r\\n                </a>\\r\\n                <ul class="submenu">\\r\\n                    <li><a href="form-showcase.html">Form showcase</a></li>\\r\\n                    <li><a href="form-wizard.html">Form wizard</a></li>\\r\\n                </ul>\\r\\n            </li>\\r\\n            <li>\\r\\n                <a href="gallery.html">\\r\\n                    <i class="icon-picture"></i>\\r\\n                    <span>Gallery</span>\\r\\n                </a>\\r\\n            </li>\\r\\n            <li>\\r\\n                <a href="calendar.html">\\r\\n                    <i class="icon-calendar-empty"></i>\\r\\n                    <span>Calendar</span>\\r\\n                </a>\\r\\n            </li>\\r\\n            <li>\\r\\n                <a href="tables.html">\\r\\n                    <i class="icon-th-large"></i>\\r\\n                    <span>Tables</span>\\r\\n                </a>\\r\\n            </li>\\r\\n            <li>\\r\\n                <a class="dropdown-toggle ui-elements" href="#">\\r\\n                    <i class="icon-code-fork"></i>\\r\\n                    <span>UI Elements</span>\\r\\n                    <i class="icon-chevron-down"></i>\\r\\n                </a>\\r\\n                <ul class="submenu">\\r\\n                    <li><a href="ui-elements.html">UI Elements</a></li>\\r\\n                    <li><a href="icons.html">Icons</a></li>\\r\\n                </ul>\\r\\n            </li>\\r\\n            <li>\\r\\n                <a href="personal-info.html">\\r\\n                    <i class="icon-cog"></i>\\r\\n                    <span>My Info</span>\\r\\n                </a>\\r\\n            </li>\\r\\n            <li>\\r\\n                <a class="dropdown-toggle" href="#">\\r\\n                    <i class="icon-share-alt"></i>\\r\\n                    <span>Extras</span>\\r\\n                    <i class="icon-chevron-down"></i>\\r\\n                </a>\\r\\n                <ul class="submenu">\\r\\n                    <li><a href="code-editor.html">Code editor</a></li>\\r\\n                    <li><a href="grids.html">Grids</a></li>\\r\\n                    <li><a href="signin.html">Sign in</a></li>\\r\\n                    <li><a href="signup.html">Sign up</a></li>\\r\\n                </ul>\\r\\n            </li>\\r\\n        </ul>\\r\\n    </div>\\r\\n    <!-- end sidebar -->\\r\\n  \\r\\n  <div class="container">\\r\\n    <div class="flash">\', escape=False)\nresponse.write(response.flash or \'\')\nresponse.write(\'</div>\\r\\n\\r\\n    <!-- Masthead ================================================== -->\\r\\n    <header class="mastheader" id="header">\\r\\n      <div class="page-header">\\r\\n\\t<h1>\\r\\n\\t  \', escape=False)\nresponse.write(response.title or request.application)\nresponse.write(\'\\r\\n\\t  <small>\', escape=False)\nresponse.write(response.subtitle or \'\')\nresponse.write(\'</small>\\r\\n\\t</h1>\\r\\n      </div>\\r\\n    </header>\\r\\n    \\r\\n    <section id="main" class="main span12">\\r\\n      <div class="row">\\r\\n\\t\', escape=False)\nif left_sidebar_enabled:\n    response.write(\'\\r\\n\\t<div class="span3 left-sidebar">\\r\\n\\t  \', escape=False)\n    response.write(\'\\r\\n\\t  <h3>Left Sidebar</h3>\\r\\n\\t  <p></p>\\r\\n\\t  \', escape=False)\n    response.write(\'\\r\\n\\t</div>\\r\\n\\t\', escape=False)\n    pass\nresponse.write(\'\\r\\n\\t\\r\\n\\t<div class="\', escape=False)\nresponse.write(middle_columns)\nresponse.write(\'">\\r\\n\\t  \', escape=False)\nresponse.write(\'\\r\\n\\t  \', escape=False)\nresponse.write(\'\\n<body>\\n   \\n\\n\\n\\t<!-- main container -->\\n    <div class="content">\\n\\n        <div class="container-fluid">\\n\\n            <!-- upper main stats -->\\n            <div id="main-stats">\\n                <div class="row-fluid stats-row">\\n                    <div class="span3 stat">\\n                        <div class="data">\\n                            <span class="number">2457</span>\\n                            visits\\n                        </div>\\n                        <span class="date">Today</span>\\n                    </div>\\n                    <div class="span3 stat">\\n                        <div class="data">\\n                            <span class="number">3240</span>\\n                            users\\n                        </div>\\n                        <span class="date">February 2013</span>\\n                    </div>\\n                    <div class="span3 stat">\\n                        <div class="data">\\n                            <span class="number">322</span>\\n                            orders\\n                        </div>\\n                        <span class="date">This week</span>\\n                    </div>\\n                    <div class="span3 stat last">\\n                        <div class="data">\\n                            <span class="number">$2,340</span>\\n                            sales\\n                        </div>\\n                        <span class="date">last 30 days</span>\\n                    </div>\\n                </div>\\n            </div>\\n            <!-- end upper main stats -->\\n\\n            <div id="pad-wrapper">\\n\\n                <!-- statistics chart built with jQuery Flot -->\\n                <div class="row-fluid chart">\\n                    <h4>\\n                        Statistics\\n                         <div class="btn-group pull-right">\\n                            <button class="glow left">DAY</button>\\n                            <button class="glow middle active">MONTH</button>\\n                            <button class="glow right">YEAR</button>\\n                        </div>\\n                    </h4>\\n                    <div class="span12">\\n                        <div id="statsChart"></div>\\n                    </div>\\n                </div>\\n                <!-- end statistics chart -->\\n\\n                <!-- UI Elements section -->\\n                <div class="row-fluid section ui-elements">\\n                    <h4>UI Elements</h4>\\n                    <div class="span5 knobs">\\n                        <div class="knob-wrapper">\\n                            <input type="text" value="50" class="knob" data-thickness=".3" data-inputColor="#333" data-fgColor="#30a1ec" data-bgColor="#d4ecfd" data-width="150">\\n                            <div class="info">\\n                                <div class="param">\\n                                    <span class="line blue"></span>\\n                                    Active users\\n                                </div>\\n                            </div>\\n                        </div>\\n                        <div class="knob-wrapper">\\n                            <input type="text" value="75" class="knob second" data-thickness=".3" data-inputColor="#333" data-fgColor="#3d88ba" data-bgColor="#d4ecfd" data-width="150">\\n                            <div class="info">\\n                                <div class="param">\\n                                    <span class="line blue"></span>\\n                                    % disk space usage\\n                                </div>\\n                            </div>\\n                        </div>                        \\n                    </div>\\n                    <div class="span6 showcase">\\n                        <div class="ui-sliders">\\n                            <div class="slider slider-sample1 vertical-handler"></div>\\n                            <div class="slider slider-sample2"></div>\\n                            <div class="slider slider-sample3"></div>\\n                        </div>\\n                        <div class="ui-group">\\n                            <a class="btn-flat inverse">Large Button</a>\\n                            <a class="btn-flat gray">Large Button</a>\\n                            <a class="btn-flat default">Large Button</a>\\n                            <a class="btn-flat primary">Large Button</a>\\n                        </div>                        \\n\\n                        <div class="ui-group">\\n                            <a class="btn-flat icon">\\n                                <i class="tool"></i> Icon button\\n                            </a>\\n                            <a class="btn-glow small inverse">\\n                                <i class="shuffle"></i>\\n                            </a>\\n                            <a class="btn-glow small primary">\\n                                <i class="setting"></i>\\n                            </a>\\n                            <a class="btn-glow small default">\\n                                <i class="attach"></i>\\n                            </a>\\n                            <div class="ui-select">\\n                                <select>\\n                                    <option selected>Dropdown</option>\\n                                    <option>Custom selects</option>\\n                                    <option>Pure css styles</option>\\n                                </select>\\n                            </div>\\n\\n                            <div class="btn-group">\\n                                <button class="glow left">LEFT</button>\\n                                <button class="glow right">RIGHT</button>\\n                            </div>\\n                        </div>\\n                    </div>\\n                </div>\\n                <!-- end UI elements section -->\\n\\n                <!-- table sample -->\\n                <!-- the script for the toggle all checkboxes from header is located in js/theme.js -->\\n                <div class="table-products section">\\n                    <div class="row-fluid head">\\n                        <div class="span12">\\n                            <h4>Products <small>Table sample</small></h4>\\n                        </div>\\n                    </div>\\n\\n                    <div class="row-fluid filter-block">\\n                        <div class="pull-right">\\n                            <div class="ui-select">\\n                                <select>\\n                                  <option>Filter users</option>\\n                                  <option>Signed last 30 days</option>\\n                                  <option>Active users</option>\\n                                </select>\\n                            </div>\\n                            <input type="text" class="search">\\n                            <a class="btn-flat new-product">+ Add product</a>\\n                        </div>\\n                    </div>\\n\\n                    <div class="row-fluid">\\n                        <table class="table table-hover">\\n                            <thead>\\n                                <tr>\\n                                    <th class="span3">\\n                                        <input type="checkbox">\\n                                        Product\\n                                    </th>\\n                                    <th class="span3">\\n                                        <span class="line"></span>Description\\n                                    </th>\\n                                    <th class="span3">\\n                                        <span class="line"></span>Status\\n                                    </th>\\n                                </tr>\\n                            </thead>\\n                            <tbody>\\n                                <!-- row -->\\n                                <tr class="first">\\n                                    <td>\\n                                        <input type="checkbox">\\n                                        <div class="img">\\n                                            <img src="img/table-img.png">\\n                                        </div>\\n                                        <a href="#">There are many variations </a>\\n                                    </td>\\n                                    <td class="description">\\n                                        if you are going to use a passage of Lorem Ipsum.\\n                                    </td>\\n                                    <td>\\n                                        <span class="label label-success">Active</span>\\n                                        <ul class="actions">\\n                                            <li><i class="table-edit"></i></span></li>\\n                                            <li><i class="table-settings"></i></li>\\n                                            <li class="last"><i class="table-delete"></i></li>\\n                                        </ul>\\n                                    </td>\\n                                </tr>\\n                                <!-- row -->\\n                                <tr>\\n                                    <td>\\n                                        <input type="checkbox">\\n                                        <div class="img">\\n                                            <img src="img/table-img.png">\\n                                        </div>\\n                                        <a href="#">Internet tend</a>\\n                                    </td>\\n                                    <td class="description">\\n                                        There are many variations of passages.\\n                                    </td>\\n                                    <td>\\n                                        <ul class="actions">\\n                                            <li><i class="table-edit"></i></span></li>\\n                                            <li><i class="table-settings"></i></li>\\n                                            <li class="last"><i class="table-delete"></i></li>\\n                                        </ul>\\n                                    </td>\\n                                </tr>\\n                                <!-- row -->\\n                                <tr>\\n                                    <td>\\n                                        <input type="checkbox">\\n                                        <div class="img">\\n                                            <img src="img/table-img.png">\\n                                        </div>\\n                                        <a href="#">Many desktop publishing </a>\\n                                    </td>\\n                                    <td class="description">\\n                                        if you are going to use a passage of Lorem Ipsum.\\n                                    </td>\\n                                    <td>\\n                                        <ul class="actions">\\n                                            <li><i class="table-edit"></i></span></li>\\n                                            <li><i class="table-settings"></i></li>\\n                                            <li class="last"><i class="table-delete"></i></li>\\n                                        </ul>\\n                                    </td>\\n                                </tr>\\n                                <!-- row -->\\n                                <tr>\\n                                    <td>\\n                                        <input type="checkbox">\\n                                        <div class="img">\\n                                            <img src="img/table-img.png">\\n                                        </div>\\n                                        <a href="#">Generate Lorem </a>\\n                                    </td>\\n                                    <td class="description">\\n                                        There are many variations of passages.\\n                                    </td>\\n                                    <td>\\n                                        <span class="label label-info">Standby</span>\\n                                        <ul class="actions">\\n                                            <li><i class="table-edit"></i></span></li>\\n                                            <li><i class="table-settings"></i></li>\\n                                            <li class="last"><i class="table-delete"></i></li>\\n                                        </ul>\\n                                    </td>\\n                                </tr>\\n                                <!-- row -->\\n                                <tr>\\n                                    <td>\\n                                        <input type="checkbox">\\n                                        <div class="img">\\n                                            <img src="img/table-img.png">\\n                                        </div>\\n                                        <a href="#">Internet tend</a>\\n                                    </td>\\n                                    <td class="description">\\n                                        There are many variations of passages.\\n                                    </td>\\n                                    <td>                                        \\n                                        <ul class="actions">\\n                                            <li><i class="table-edit"></i></span></li>\\n                                            <li><i class="table-settings"></i></li>\\n                                            <li class="last"><i class="table-delete"></i></li>\\n                                        </ul>\\n                                    </td>\\n                                </tr>\\n                            </tbody>\\n                        </table>\\n                    </div>\\n                    <div class="pagination">\\n                      <ul>\\n                        <li><a href="#">&#8249;</a></li>\\n                        <li><a class="active" href="#">1</a></li>\\n                        <li><a href="#">2</a></li>\\n                        <li><a href="#">3</a></li>\\n                        <li><a href="#">4</a></li>\\n                        <li><a href="#">&#8250;</a></li>\\n                      </ul>\\n                    </div>\\n                </div>\\n                <!-- end table sample -->\\n            </div>\\n        </div>\\n    </div>\\n\\n\\n\\n</body>\\n\\n<!-- Mirrored from detail.herokuapp.com/index.html by HTTrack Website Copier/3.x [XR&CO\\\'2008], Wed, 10 Jul 2013 20:51:54 GMT -->\\n</html>\\n\', escape=False)\nresponse.write(\'\\r\\n\\t  \', escape=False)\nresponse.write(\'\\r\\n\\t</div>\\r\\n\\t\\r\\n\\t\', escape=False)\nif right_sidebar_enabled:\n    response.write(\'\\r\\n\\t<div class="span3">\\r\\n\\t  \', escape=False)\n    response.write(\'\\r\\n\\t  <h3>Right Sidebar</h3>\\r\\n\\t  <p></p>\\r\\n\\t  \', escape=False)\n    response.write(\'\\r\\n\\t</div>    \\r\\n\\t\', escape=False)\n    pass\nresponse.write(\'\\r\\n      </div><!--/row-->\\r\\n    </section><!--/main-->\\r\\n    \\r\\n    <!-- Footer ================================================== -->\\r\\n    <footer class="footer" id="footer">\\r\\n      \', escape=False)\nresponse.write(\' <!-- this is default footer -->\\r\\n      <div class="footer-content">\\r\\n\\t<div class="copyright pull-left">\', escape=False)\nresponse.write(T(\'Copyright\'))\nresponse.write(\' &#169; \', escape=False)\nresponse.write(request.now.year)\nresponse.write(\'</div>\\r\\n\\t<div id="poweredBy" class="pull-right">\\r\\n\\t  \', escape=False)\nresponse.write(T(\'Powered by\'))\nresponse.write(\'\\r\\n\\t  <a href="http://www.web2py.com/">web2py</a>\\r\\n\\t</div>\\r\\n      </div>\\r\\n      \', escape=False)\nresponse.write(\'\\r\\n    </footer>\\r\\n    \\r\\n  </div> <!-- /container -->\\r\\n\\r\\n\\r\\n\\r\\n    <script src="\', escape=False)\nresponse.write(URL(\'static\',\'js/jquery-latest.js\'))\nresponse.write(\'"></script>\\r\\n    <script src="\', escape=False)\nresponse.write(URL(\'static\',\'js/bootstrap.min.js\'))\nresponse.write(\'"></script>\\r\\n    <script src="\', escape=False)\nresponse.write(URL(\'static\',\'js/jquery-ui-1.10.2.custom.min.js\'))\nresponse.write(\'"></script>\\r\\n    <!-- knob -->\\r\\n    <script src="\', escape=False)\nresponse.write(URL(\'static\',\'js/jquery.knob.js\'))\nresponse.write(\'"></script>\\r\\n    <!-- flot charts -->\\r\\n    <script src="\', escape=False)\nresponse.write(URL(\'static\',\'js/jquery.flot.js\'))\nresponse.write(\'"></script>\\r\\n    <script src="\', escape=False)\nresponse.write(URL(\'static\',\'js/jquery.flot.stack.js\'))\nresponse.write(\'"></script>\\r\\n    <script src="\', escape=False)\nresponse.write(URL(\'static\',\'js/jquery.flot.resize.js\'))\nresponse.write(\'"></script>\\r\\n    <script src="\', escape=False)\nresponse.write(URL(\'static\',\'js/theme.js\'))\nresponse.write(\'"></script>\\r\\n\\r\\n    <script type="text/javascript">\\r\\n        $(function () {\\r\\n\\r\\n            // jQuery Knobs\\r\\n            $(".knob").knob();\\r\\n\\r\\n\\r\\n\\r\\n            // jQuery UI Sliders\\r\\n            $(".slider-sample1").slider({\\r\\n                value: 100,\\r\\n                min: 1,\\r\\n                max: 500\\r\\n            });\\r\\n            $(".slider-sample2").slider({\\r\\n                range: "min",\\r\\n                value: 130,\\r\\n                min: 1,\\r\\n                max: 500\\r\\n            });\\r\\n            $(".slider-sample3").slider({\\r\\n                range: true,\\r\\n                min: 0,\\r\\n                max: 500,\\r\\n                values: [ 40, 170 ],\\r\\n            });\\r\\n\\r\\n            \\r\\n\\r\\n            // jQuery Flot Chart\\r\\n            var visits = [[1, 50], [2, 40], [3, 45], [4, 23],[5, 55],[6, 65],[7, 61],[8, 70],[9, 65],[10, 75],[11, 57],[12, 59]];\\r\\n            var visitors = [[1, 25], [2, 50], [3, 23], [4, 48],[5, 38],[6, 40],[7, 47],[8, 55],[9, 43],[10,50],[11,47],[12, 39]];\\r\\n\\r\\n            var plot = $.plot($("#statsChart"),\\r\\n                [ { data: visits, label: "Signups"},\\r\\n                 { data: visitors, label: "Visits" }], {\\r\\n                    series: {\\r\\n                        lines: { show: true,\\r\\n                                lineWidth: 1,\\r\\n                                fill: true, \\r\\n                                fillColor: { colors: [ { opacity: 0.1 }, { opacity: 0.13 } ] }\\r\\n                             },\\r\\n                        points: { show: true, \\r\\n                                 lineWidth: 2,\\r\\n                                 radius: 3\\r\\n                             },\\r\\n                        shadowSize: 0,\\r\\n                        stack: true\\r\\n                    },\\r\\n                    grid: { hoverable: true, \\r\\n                           clickable: true, \\r\\n                           tickColor: "#f9f9f9",\\r\\n                           borderWidth: 0\\r\\n                        },\\r\\n                    legend: {\\r\\n                            // show: false\\r\\n                            labelBoxBorderColor: "#fff"\\r\\n                        },  \\r\\n                    colors: ["#a7b5c5", "#30a0eb"],\\r\\n                    xaxis: {\\r\\n                        ticks: [[1, "JAN"], [2, "FEB"], [3, "MAR"], [4,"APR"], [5,"MAY"], [6,"JUN"], \\r\\n                               [7,"JUL"], [8,"AUG"], [9,"SEP"], [10,"OCT"], [11,"NOV"], [12,"DEC"]],\\r\\n                        font: {\\r\\n                            size: 12,\\r\\n                            family: "Open Sans, Arial",\\r\\n                            variant: "small-caps",\\r\\n                            color: "#697695"\\r\\n                        }\\r\\n                    },\\r\\n                    yaxis: {\\r\\n                        ticks:3, \\r\\n                        tickDecimals: 0,\\r\\n                        font: {size:12, color: "#9da3a9"}\\r\\n                    }\\r\\n                 });\\r\\n\\r\\n            function showTooltip(x, y, contents) {\\r\\n                $(\\\'<div id="tooltip">\\\' + contents + \\\'</div>\\\').css( {\\r\\n                    position: \\\'absolute\\\',\\r\\n                    display: \\\'none\\\',\\r\\n                    top: y - 30,\\r\\n                    left: x - 50,\\r\\n                    color: "#fff",\\r\\n                    padding: \\\'2px 5px\\\',\\r\\n                    \\\'border-radius\\\': \\\'6px\\\',\\r\\n                    \\\'background-color\\\': \\\'#000\\\',\\r\\n                    opacity: 0.80\\r\\n                }).appendTo("body").fadeIn(200);\\r\\n            }\\r\\n\\r\\n            var previousPoint = null;\\r\\n            $("#statsChart").bind("plothover", function (event, pos, item) {\\r\\n                if (item) {\\r\\n                    if (previousPoint != item.dataIndex) {\\r\\n                        previousPoint = item.dataIndex;\\r\\n\\r\\n                        $("#tooltip").remove();\\r\\n                        var x = item.datapoint[0].toFixed(0),\\r\\n                            y = item.datapoint[1].toFixed(0);\\r\\n\\r\\n                        var month = item.series.xaxis.ticks[item.dataIndex].label;\\r\\n\\r\\n                        showTooltip(item.pageX, item.pageY,\\r\\n                                    item.series.label + " of " + month + ": " + y);\\r\\n                    }\\r\\n                }\\r\\n                else {\\r\\n                    $("#tooltip").remove();\\r\\n                    previousPoint = null;\\r\\n                }\\r\\n            });\\r\\n        });\\r\\n    </script>\\r\\n  <!--[if lt IE 7 ]>\\r\\n      <script src="\', escape=False)\nresponse.write(URL(\'static\',\'js/dd_belatedpng.js\'))\nresponse.write(\'"></script>\\r\\n      <script> DD_belatedPNG.fix(\\\'img, .png_bg\\\'); //fix any <img> or .png_bg background-images </script>\\r\\n      <![endif]-->\\r\\n  \', escape=False)\nif response.google_analytics_id:\n    response.write(\'<script type="text/javascript"> var _gaq = _gaq || []; _gaq.push([\\\'_setAccount\\\', \\\'\', escape=False)\n    response.write(response.google_analytics_id)\n    response.write("\']); _gaq.push([\'_trackPageview\']); (function() { var ga = document.createElement(\'script\'); ga.type = \'text/javascript\'; ga.async = true; ga.src = (\'https:\' == document.location.protocol ? \'https://ssl\' : \'http://www\') + \'.google-analytics.com/ga.js\'; var s = document.getElementsByTagName(\'script\')[0]; s.parentNode.insertBefore(ga, s); })(); </script> ", escape=False)\n    pass\nresponse.write(\'\\r\\n  <script src="\', escape=False)\nresponse.write(URL(\'static\',\'js/share.js\',vars=dict(static=URL(\'static\',\'images\'))))\nresponse.write(\'"></script>  \\r\\n</body>\\r\\n</html>\\r\\n\', escape=False)'
p7
sS'snapshot'
p8
(dp9
S'exception'
p10
(dp11
S'__getslice__'
p12
S"<method-wrapper '__getslice__' of exceptions.SyntaxError object>"
p13
sS'text'
p14
S"'<!-- bootstrap -->\\n'"
p15
sS'__str__'
p16
S"<method-wrapper '__str__' of exceptions.SyntaxError object>"
p17
sS'__reduce__'
p18
S'<built-in method __reduce__ of exceptions.SyntaxError object>'
p19
sS'__dict__'
p20
S'{}'
p21
sS'__sizeof__'
p22
S'<built-in method __sizeof__ of exceptions.SyntaxError object>'
p23
sS'__init__'
p24
S"<method-wrapper '__init__' of exceptions.SyntaxError object>"
p25
sS'__setattr__'
p26
S"<method-wrapper '__setattr__' of exceptions.SyntaxError object>"
p27
sS'__reduce_ex__'
p28
S'<built-in method __reduce_ex__ of exceptions.SyntaxError object>'
p29
sS'__new__'
p30
S'<built-in method __new__ of type object>'
p31
sS'__format__'
p32
S'<built-in method __format__ of exceptions.SyntaxError object>'
p33
sS'__class__'
p34
S"<type 'exceptions.SyntaxError'>"
p35
sS'filename'
p36
S"'/home/mayank/Desktop/web2pyAdmin/web2py/web2py/applications/FunkLoad/views/default/index.html'"
p37
sS'lineno'
p38
S'22'
p39
sS'msg'
p40
S"'invalid syntax'"
p41
sS'__doc__'
p42
S"'Invalid syntax.'"
p43
sS'__getitem__'
p44
S"<method-wrapper '__getitem__' of exceptions.SyntaxError object>"
p45
sS'__setstate__'
p46
S'<built-in method __setstate__ of exceptions.SyntaxError object>'
p47
sS'__getattribute__'
p48
S"<method-wrapper '__getattribute__' of exceptions.SyntaxError object>"
p49
sS'print_file_and_line'
p50
S'None'
p51
sS'args'
p52
S"('invalid syntax', ('/home/mayank/Desktop/web2pyAdmin/web2py/web2py/applications/FunkLoad/views/default/index.html', 22, 1, '<!-- bootstrap -->\\n'))"
p53
sS'__subclasshook__'
p54
S'<built-in method __subclasshook__ of type object>'
p55
sS'offset'
p56
S'1'
sS'__unicode__'
p57
S'<built-in method __unicode__ of exceptions.SyntaxError object>'
p58
sS'__delattr__'
p59
S"<method-wrapper '__delattr__' of exceptions.SyntaxError object>"
p60
sS'__repr__'
p61
S"<method-wrapper '__repr__' of exceptions.SyntaxError object>"
p62
sS'__hash__'
p63
S"<method-wrapper '__hash__' of exceptions.SyntaxError object>"
p64
ssS'evalue'
p65
S'invalid syntax (index.html, line 22)'
p66
sS'request'
p67
ccopy_reg
_reconstructor
p68
(cgluon.html
BEAUTIFY
p69
c__builtin__
object
p70
NtRp71
(dp72
S'attributes'
p73
(dp74
sS'components'
p75
(lp76
g68
(cgluon.html
TABLE
p77
g70
NtRp78
(dp79
g73
(dp80
S'level'
p81
I5
ssS'parent'
p82
Nsg75
(lp83
g68
(cgluon.html
TR
p84
g70
NtRp85
(dp86
g73
(dp87
sg82
g78
sg75
(lp88
g68
(cgluon.html
TD
p89
g70
NtRp90
(dp91
g73
(dp92
S'_style'
p93
S'font-weight:bold;vertical-align:top'
p94
ssg82
g85
sg75
(lp95
S'ajax'
p96
asbag68
(g89
g70
NtRp97
(dp98
g73
(dp99
S'_valign'
p100
S'top'
p101
ssg82
g85
sg75
(lp102
S':'
asbag68
(g89
g70
NtRp103
(dp104
g73
(dp105
sg82
g85
sg75
(lp106
g68
(g69
g70
NtRp107
(dp108
g73
(dp109
g81
I5
ssg82
g103
sg75
(lp110
S'False'
p111
asbasbasbag68
(g84
g70
NtRp112
(dp113
g73
(dp114
sg82
g78
sg75
(lp115
g68
(g89
g70
NtRp116
(dp117
g73
(dp118
g93
g94
ssg82
g112
sg75
(lp119
S'application'
p120
asbag68
(g89
g70
NtRp121
(dp122
g73
(dp123
g100
g101
ssg82
g112
sg75
(lp124
S':'
asbag68
(g89
g70
NtRp125
(dp126
g73
(dp127
sg82
g112
sg75
(lp128
g68
(g69
g70
NtRp129
(dp130
g73
(dp131
g81
I5
ssg82
g125
sg75
(lp132
S'FunkLoad'
p133
asbasbasbag68
(g84
g70
NtRp134
(dp135
g73
(dp136
sg82
g78
sg75
(lp137
g68
(g89
g70
NtRp138
(dp139
g73
(dp140
g93
g94
ssg82
g134
sg75
(lp141
g52
asbag68
(g89
g70
NtRp142
(dp143
g73
(dp144
g100
g101
ssg82
g134
sg75
(lp145
S':'
asbag68
(g89
g70
NtRp146
(dp147
g73
(dp148
sg82
g134
sg75
(lp149
g68
(g69
g70
NtRp150
(dp151
g73
(dp152
g81
I5
ssg82
g146
sg75
(lp153
g68
(g77
g70
NtRp154
(dp155
g73
(dp156
g81
I4
ssg82
Nsg75
(lp157
sbasbasbasbag68
(g84
g70
NtRp158
(dp159
g73
(dp160
sg82
g78
sg75
(lp161
g68
(g89
g70
NtRp162
(dp163
g73
(dp164
g93
g94
ssg82
g158
sg75
(lp165
S'body'
p166
asbag68
(g89
g70
NtRp167
(dp168
g73
(dp169
g100
g101
ssg82
g158
sg75
(lp170
S':'
asbag68
(g89
g70
NtRp171
(dp172
g73
(dp173
sg82
g158
sg75
(lp174
g68
(g69
g70
NtRp175
(dp176
g73
(dp177
g81
I5
ssg82
g171
sg75
(lp178
S'<cStringIO.StringO object at 0x7f2758475c00>'
p179
asbasbasbag68
(g84
g70
NtRp180
(dp181
g73
(dp182
sg82
g78
sg75
(lp183
g68
(g89
g70
NtRp184
(dp185
g73
(dp186
g93
g94
ssg82
g180
sg75
(lp187
S'cid'
p188
asbag68
(g89
g70
NtRp189
(dp190
g73
(dp191
g100
g101
ssg82
g180
sg75
(lp192
S':'
asbag68
(g89
g70
NtRp193
(dp194
g73
(dp195
sg82
g180
sg75
(lp196
g68
(g69
g70
NtRp197
(dp198
g73
(dp199
g81
I5
ssg82
g193
sg75
(lp200
S'None'
p201
asbasbasbag68
(g84
g70
NtRp202
(dp203
g73
(dp204
sg82
g78
sg75
(lp205
g68
(g89
g70
NtRp206
(dp207
g73
(dp208
g93
g94
ssg82
g202
sg75
(lp209
S'client'
p210
asbag68
(g89
g70
NtRp211
(dp212
g73
(dp213
g100
g101
ssg82
g202
sg75
(lp214
S':'
asbag68
(g89
g70
NtRp215
(dp216
g73
(dp217
sg82
g202
sg75
(lp218
g68
(g69
g70
NtRp219
(dp220
g73
(dp221
g81
I5
ssg82
g215
sg75
(lp222
S'127.0.0.1'
p223
asbasbasbag68
(g84
g70
NtRp224
(dp225
g73
(dp226
sg82
g78
sg75
(lp227
g68
(g89
g70
NtRp228
(dp229
g73
(dp230
g93
g94
ssg82
g224
sg75
(lp231
S'controller'
p232
asbag68
(g89
g70
NtRp233
(dp234
g73
(dp235
g100
g101
ssg82
g224
sg75
(lp236
S':'
asbag68
(g89
g70
NtRp237
(dp238
g73
(dp239
sg82
g224
sg75
(lp240
g68
(g69
g70
NtRp241
(dp242
g73
(dp243
g81
I5
ssg82
g237
sg75
(lp244
S'default'
p245
asbasbasbag68
(g84
g70
NtRp246
(dp247
g73
(dp248
sg82
g78
sg75
(lp249
g68
(g89
g70
NtRp250
(dp251
g73
(dp252
g93
g94
ssg82
g246
sg75
(lp253
S'cookies'
p254
asbag68
(g89
g70
NtRp255
(dp256
g73
(dp257
g100
g101
ssg82
g246
sg75
(lp258
S':'
asbag68
(g89
g70
NtRp259
(dp260
g73
(dp261
sg82
g246
sg75
(lp262
g68
(g69
g70
NtRp263
(dp264
g73
(dp265
g81
I5
ssg82
g259
sg75
(lp266
g68
(g77
g70
NtRp267
(dp268
g73
(dp269
g81
I4
ssg82
Nsg75
(lp270
g68
(g84
g70
NtRp271
(dp272
g73
(dp273
sg82
g267
sg75
(lp274
g68
(g89
g70
NtRp275
(dp276
g73
(dp277
g93
g94
ssg82
g271
sg75
(lp278
S'session_id_201101004'
p279
asbag68
(g89
g70
NtRp280
(dp281
g73
(dp282
g100
g101
ssg82
g271
sg75
(lp283
S':'
asbag68
(g89
g70
NtRp284
(dp285
g73
(dp286
sg82
g271
sg75
(lp287
g68
(g69
g70
NtRp288
(dp289
g73
(dp290
g81
I4
ssg82
g284
sg75
(lp291
S'127.0.0.1-37104b76-a05f-4c4f-b3d3-8fec1b91826f'
p292
ag68
(g77
g70
NtRp293
(dp294
g73
(dp295
g81
I3
ssg82
Nsg75
(lp296
g68
(g84
g70
NtRp297
(dp298
g73
(dp299
sg82
g293
sg75
(lp300
g68
(g89
g70
NtRp301
(dp302
g73
(dp303
g93
g94
ssg82
g297
sg75
(lp304
S'comment'
p305
asbag68
(g89
g70
NtRp306
(dp307
g73
(dp308
g100
g101
ssg82
g297
sg75
(lp309
S':'
asbag68
(g89
g70
NtRp310
(dp311
g73
(dp312
sg82
g297
sg75
(lp313
g68
(g69
g70
NtRp314
(dp315
g73
(dp316
g81
I3
ssg82
g310
sg75
(lp317
S''
asbasbasbag68
(g84
g70
NtRp318
(dp319
g73
(dp320
sg82
g293
sg75
(lp321
g68
(g89
g70
NtRp322
(dp323
g73
(dp324
g93
g94
ssg82
g318
sg75
(lp325
S'domain'
p326
asbag68
(g89
g70
NtRp327
(dp328
g73
(dp329
g100
g101
ssg82
g318
sg75
(lp330
S':'
asbag68
(g89
g70
NtRp331
(dp332
g73
(dp333
sg82
g318
sg75
(lp334
g68
(g69
g70
NtRp335
(dp336
g73
(dp337
g81
I3
ssg82
g331
sg75
(lp338
S''
asbasbasbag68
(g84
g70
NtRp339
(dp340
g73
(dp341
sg82
g293
sg75
(lp342
g68
(g89
g70
NtRp343
(dp344
g73
(dp345
g93
g94
ssg82
g339
sg75
(lp346
S'expires'
p347
asbag68
(g89
g70
NtRp348
(dp349
g73
(dp350
g100
g101
ssg82
g339
sg75
(lp351
S':'
asbag68
(g89
g70
NtRp352
(dp353
g73
(dp354
sg82
g339
sg75
(lp355
g68
(g69
g70
NtRp356
(dp357
g73
(dp358
g81
I3
ssg82
g352
sg75
(lp359
S''
asbasbasbag68
(g84
g70
NtRp360
(dp361
g73
(dp362
sg82
g293
sg75
(lp363
g68
(g89
g70
NtRp364
(dp365
g73
(dp366
g93
g94
ssg82
g360
sg75
(lp367
S'httponly'
p368
asbag68
(g89
g70
NtRp369
(dp370
g73
(dp371
g100
g101
ssg82
g360
sg75
(lp372
S':'
asbag68
(g89
g70
NtRp373
(dp374
g73
(dp375
sg82
g360
sg75
(lp376
g68
(g69
g70
NtRp377
(dp378
g73
(dp379
g81
I3
ssg82
g373
sg75
(lp380
S''
asbasbasbag68
(g84
g70
NtRp381
(dp382
g73
(dp383
sg82
g293
sg75
(lp384
g68
(g89
g70
NtRp385
(dp386
g73
(dp387
g93
g94
ssg82
g381
sg75
(lp388
S'max-age'
p389
asbag68
(g89
g70
NtRp390
(dp391
g73
(dp392
g100
g101
ssg82
g381
sg75
(lp393
S':'
asbag68
(g89
g70
NtRp394
(dp395
g73
(dp396
sg82
g381
sg75
(lp397
g68
(g69
g70
NtRp398
(dp399
g73
(dp400
g81
I3
ssg82
g394
sg75
(lp401
S''
asbasbasbag68
(g84
g70
NtRp402
(dp403
g73
(dp404
sg82
g293
sg75
(lp405
g68
(g89
g70
NtRp406
(dp407
g73
(dp408
g93
g94
ssg82
g402
sg75
(lp409
S'path'
p410
asbag68
(g89
g70
NtRp411
(dp412
g73
(dp413
g100
g101
ssg82
g402
sg75
(lp414
S':'
asbag68
(g89
g70
NtRp415
(dp416
g73
(dp417
sg82
g402
sg75
(lp418
g68
(g69
g70
NtRp419
(dp420
g73
(dp421
g81
I3
ssg82
g415
sg75
(lp422
S''
asbasbasbag68
(g84
g70
NtRp423
(dp424
g73
(dp425
sg82
g293
sg75
(lp426
g68
(g89
g70
NtRp427
(dp428
g73
(dp429
g93
g94
ssg82
g423
sg75
(lp430
S'secure'
p431
asbag68
(g89
g70
NtRp432
(dp433
g73
(dp434
g100
g101
ssg82
g423
sg75
(lp435
S':'
asbag68
(g89
g70
NtRp436
(dp437
g73
(dp438
sg82
g423
sg75
(lp439
g68
(g69
g70
NtRp440
(dp441
g73
(dp442
g81
I3
ssg82
g436
sg75
(lp443
S''
asbasbasbag68
(g84
g70
NtRp444
(dp445
g73
(dp446
sg82
g293
sg75
(lp447
g68
(g89
g70
NtRp448
(dp449
g73
(dp450
g93
g94
ssg82
g444
sg75
(lp451
S'version'
p452
asbag68
(g89
g70
NtRp453
(dp454
g73
(dp455
g100
g101
ssg82
g444
sg75
(lp456
S':'
asbag68
(g89
g70
NtRp457
(dp458
g73
(dp459
sg82
g444
sg75
(lp460
g68
(g69
g70
NtRp461
(dp462
g73
(dp463
g81
I3
ssg82
g457
sg75
(lp464
S''
asbasbasbasbasbasbasbag68
(g84
g70
NtRp465
(dp466
g73
(dp467
sg82
g267
sg75
(lp468
g68
(g89
g70
NtRp469
(dp470
g73
(dp471
g93
g94
ssg82
g465
sg75
(lp472
S'session_id_201125035'
p473
asbag68
(g89
g70
NtRp474
(dp475
g73
(dp476
g100
g101
ssg82
g465
sg75
(lp477
S':'
asbag68
(g89
g70
NtRp478
(dp479
g73
(dp480
sg82
g465
sg75
(lp481
g68
(g69
g70
NtRp482
(dp483
g73
(dp484
g81
I4
ssg82
g478
sg75
(lp485
S'127.0.0.1-36c9dda9-18cd-4798-bb80-7958e8854f14'
p486
ag68
(g77
g70
NtRp487
(dp488
g73
(dp489
g81
I3
ssg82
Nsg75
(lp490
g68
(g84
g70
NtRp491
(dp492
g73
(dp493
sg82
g487
sg75
(lp494
g68
(g89
g70
NtRp495
(dp496
g73
(dp497
g93
g94
ssg82
g491
sg75
(lp498
g305
asbag68
(g89
g70
NtRp499
(dp500
g73
(dp501
g100
g101
ssg82
g491
sg75
(lp502
S':'
asbag68
(g89
g70
NtRp503
(dp504
g73
(dp505
sg82
g491
sg75
(lp506
g68
(g69
g70
NtRp507
(dp508
g73
(dp509
g81
I3
ssg82
g503
sg75
(lp510
S''
asbasbasbag68
(g84
g70
NtRp511
(dp512
g73
(dp513
sg82
g487
sg75
(lp514
g68
(g89
g70
NtRp515
(dp516
g73
(dp517
g93
g94
ssg82
g511
sg75
(lp518
g326
asbag68
(g89
g70
NtRp519
(dp520
g73
(dp521
g100
g101
ssg82
g511
sg75
(lp522
S':'
asbag68
(g89
g70
NtRp523
(dp524
g73
(dp525
sg82
g511
sg75
(lp526
g68
(g69
g70
NtRp527
(dp528
g73
(dp529
g81
I3
ssg82
g523
sg75
(lp530
S''
asbasbasbag68
(g84
g70
NtRp531
(dp532
g73
(dp533
sg82
g487
sg75
(lp534
g68
(g89
g70
NtRp535
(dp536
g73
(dp537
g93
g94
ssg82
g531
sg75
(lp538
g347
asbag68
(g89
g70
NtRp539
(dp540
g73
(dp541
g100
g101
ssg82
g531
sg75
(lp542
S':'
asbag68
(g89
g70
NtRp543
(dp544
g73
(dp545
sg82
g531
sg75
(lp546
g68
(g69
g70
NtRp547
(dp548
g73
(dp549
g81
I3
ssg82
g543
sg75
(lp550
S''
asbasbasbag68
(g84
g70
NtRp551
(dp552
g73
(dp553
sg82
g487
sg75
(lp554
g68
(g89
g70
NtRp555
(dp556
g73
(dp557
g93
g94
ssg82
g551
sg75
(lp558
g368
asbag68
(g89
g70
NtRp559
(dp560
g73
(dp561
g100
g101
ssg82
g551
sg75
(lp562
S':'
asbag68
(g89
g70
NtRp563
(dp564
g73
(dp565
sg82
g551
sg75
(lp566
g68
(g69
g70
NtRp567
(dp568
g73
(dp569
g81
I3
ssg82
g563
sg75
(lp570
S''
asbasbasbag68
(g84
g70
NtRp571
(dp572
g73
(dp573
sg82
g487
sg75
(lp574
g68
(g89
g70
NtRp575
(dp576
g73
(dp577
g93
g94
ssg82
g571
sg75
(lp578
g389
asbag68
(g89
g70
NtRp579
(dp580
g73
(dp581
g100
g101
ssg82
g571
sg75
(lp582
S':'
asbag68
(g89
g70
NtRp583
(dp584
g73
(dp585
sg82
g571
sg75
(lp586
g68
(g69
g70
NtRp587
(dp588
g73
(dp589
g81
I3
ssg82
g583
sg75
(lp590
S''
asbasbasbag68
(g84
g70
NtRp591
(dp592
g73
(dp593
sg82
g487
sg75
(lp594
g68
(g89
g70
NtRp595
(dp596
g73
(dp597
g93
g94
ssg82
g591
sg75
(lp598
g410
asbag68
(g89
g70
NtRp599
(dp600
g73
(dp601
g100
g101
ssg82
g591
sg75
(lp602
S':'
asbag68
(g89
g70
NtRp603
(dp604
g73
(dp605
sg82
g591
sg75
(lp606
g68
(g69
g70
NtRp607
(dp608
g73
(dp609
g81
I3
ssg82
g603
sg75
(lp610
S''
asbasbasbag68
(g84
g70
NtRp611
(dp612
g73
(dp613
sg82
g487
sg75
(lp614
g68
(g89
g70
NtRp615
(dp616
g73
(dp617
g93
g94
ssg82
g611
sg75
(lp618
g431
asbag68
(g89
g70
NtRp619
(dp620
g73
(dp621
g100
g101
ssg82
g611
sg75
(lp622
S':'
asbag68
(g89
g70
NtRp623
(dp624
g73
(dp625
sg82
g611
sg75
(lp626
g68
(g69
g70
NtRp627
(dp628
g73
(dp629
g81
I3
ssg82
g623
sg75
(lp630
S''
asbasbasbag68
(g84
g70
NtRp631
(dp632
g73
(dp633
sg82
g487
sg75
(lp634
g68
(g89
g70
NtRp635
(dp636
g73
(dp637
g93
g94
ssg82
g631
sg75
(lp638
g452
asbag68
(g89
g70
NtRp639
(dp640
g73
(dp641
g100
g101
ssg82
g631
sg75
(lp642
S':'
asbag68
(g89
g70
NtRp643
(dp644
g73
(dp645
sg82
g631
sg75
(lp646
g68
(g69
g70
NtRp647
(dp648
g73
(dp649
g81
I3
ssg82
g643
sg75
(lp650
S''
asbasbasbasbasbasbasbag68
(g84
g70
NtRp651
(dp652
g73
(dp653
sg82
g267
sg75
(lp654
g68
(g89
g70
NtRp655
(dp656
g73
(dp657
g93
g94
ssg82
g651
sg75
(lp658
S'session_id_admin'
p659
asbag68
(g89
g70
NtRp660
(dp661
g73
(dp662
g100
g101
ssg82
g651
sg75
(lp663
S':'
asbag68
(g89
g70
NtRp664
(dp665
g73
(dp666
sg82
g651
sg75
(lp667
g68
(g69
g70
NtRp668
(dp669
g73
(dp670
g81
I4
ssg82
g664
sg75
(lp671
S'127.0.0.1-b03da5bd-920e-41b1-8f3a-a02aae2edb6f'
p672
ag68
(g77
g70
NtRp673
(dp674
g73
(dp675
g81
I3
ssg82
Nsg75
(lp676
g68
(g84
g70
NtRp677
(dp678
g73
(dp679
sg82
g673
sg75
(lp680
g68
(g89
g70
NtRp681
(dp682
g73
(dp683
g93
g94
ssg82
g677
sg75
(lp684
g305
asbag68
(g89
g70
NtRp685
(dp686
g73
(dp687
g100
g101
ssg82
g677
sg75
(lp688
S':'
asbag68
(g89
g70
NtRp689
(dp690
g73
(dp691
sg82
g677
sg75
(lp692
g68
(g69
g70
NtRp693
(dp694
g73
(dp695
g81
I3
ssg82
g689
sg75
(lp696
S''
asbasbasbag68
(g84
g70
NtRp697
(dp698
g73
(dp699
sg82
g673
sg75
(lp700
g68
(g89
g70
NtRp701
(dp702
g73
(dp703
g93
g94
ssg82
g697
sg75
(lp704
g326
asbag68
(g89
g70
NtRp705
(dp706
g73
(dp707
g100
g101
ssg82
g697
sg75
(lp708
S':'
asbag68
(g89
g70
NtRp709
(dp710
g73
(dp711
sg82
g697
sg75
(lp712
g68
(g69
g70
NtRp713
(dp714
g73
(dp715
g81
I3
ssg82
g709
sg75
(lp716
S''
asbasbasbag68
(g84
g70
NtRp717
(dp718
g73
(dp719
sg82
g673
sg75
(lp720
g68
(g89
g70
NtRp721
(dp722
g73
(dp723
g93
g94
ssg82
g717
sg75
(lp724
g347
asbag68
(g89
g70
NtRp725
(dp726
g73
(dp727
g100
g101
ssg82
g717
sg75
(lp728
S':'
asbag68
(g89
g70
NtRp729
(dp730
g73
(dp731
sg82
g717
sg75
(lp732
g68
(g69
g70
NtRp733
(dp734
g73
(dp735
g81
I3
ssg82
g729
sg75
(lp736
S''
asbasbasbag68
(g84
g70
NtRp737
(dp738
g73
(dp739
sg82
g673
sg75
(lp740
g68
(g89
g70
NtRp741
(dp742
g73
(dp743
g93
g94
ssg82
g737
sg75
(lp744
g368
asbag68
(g89
g70
NtRp745
(dp746
g73
(dp747
g100
g101
ssg82
g737
sg75
(lp748
S':'
asbag68
(g89
g70
NtRp749
(dp750
g73
(dp751
sg82
g737
sg75
(lp752
g68
(g69
g70
NtRp753
(dp754
g73
(dp755
g81
I3
ssg82
g749
sg75
(lp756
S''
asbasbasbag68
(g84
g70
NtRp757
(dp758
g73
(dp759
sg82
g673
sg75
(lp760
g68
(g89
g70
NtRp761
(dp762
g73
(dp763
g93
g94
ssg82
g757
sg75
(lp764
g389
asbag68
(g89
g70
NtRp765
(dp766
g73
(dp767
g100
g101
ssg82
g757
sg75
(lp768
S':'
asbag68
(g89
g70
NtRp769
(dp770
g73
(dp771
sg82
g757
sg75
(lp772
g68
(g69
g70
NtRp773
(dp774
g73
(dp775
g81
I3
ssg82
g769
sg75
(lp776
S''
asbasbasbag68
(g84
g70
NtRp777
(dp778
g73
(dp779
sg82
g673
sg75
(lp780
g68
(g89
g70
NtRp781
(dp782
g73
(dp783
g93
g94
ssg82
g777
sg75
(lp784
g410
asbag68
(g89
g70
NtRp785
(dp786
g73
(dp787
g100
g101
ssg82
g777
sg75
(lp788
S':'
asbag68
(g89
g70
NtRp789
(dp790
g73
(dp791
sg82
g777
sg75
(lp792
g68
(g69
g70
NtRp793
(dp794
g73
(dp795
g81
I3
ssg82
g789
sg75
(lp796
S''
asbasbasbag68
(g84
g70
NtRp797
(dp798
g73
(dp799
sg82
g673
sg75
(lp800
g68
(g89
g70
NtRp801
(dp802
g73
(dp803
g93
g94
ssg82
g797
sg75
(lp804
g431
asbag68
(g89
g70
NtRp805
(dp806
g73
(dp807
g100
g101
ssg82
g797
sg75
(lp808
S':'
asbag68
(g89
g70
NtRp809
(dp810
g73
(dp811
sg82
g797
sg75
(lp812
g68
(g69
g70
NtRp813
(dp814
g73
(dp815
g81
I3
ssg82
g809
sg75
(lp816
S''
asbasbasbag68
(g84
g70
NtRp817
(dp818
g73
(dp819
sg82
g673
sg75
(lp820
g68
(g89
g70
NtRp821
(dp822
g73
(dp823
g93
g94
ssg82
g817
sg75
(lp824
g452
asbag68
(g89
g70
NtRp825
(dp826
g73
(dp827
g100
g101
ssg82
g817
sg75
(lp828
S':'
asbag68
(g89
g70
NtRp829
(dp830
g73
(dp831
sg82
g817
sg75
(lp832
g68
(g69
g70
NtRp833
(dp834
g73
(dp835
g81
I3
ssg82
g829
sg75
(lp836
S''
asbasbasbasbasbasbasbag68
(g84
g70
NtRp837
(dp838
g73
(dp839
sg82
g267
sg75
(lp840
g68
(g89
g70
NtRp841
(dp842
g73
(dp843
g93
g94
ssg82
g837
sg75
(lp844
S'session_id_attempt'
p845
asbag68
(g89
g70
NtRp846
(dp847
g73
(dp848
g100
g101
ssg82
g837
sg75
(lp849
S':'
asbag68
(g89
g70
NtRp850
(dp851
g73
(dp852
sg82
g837
sg75
(lp853
g68
(g69
g70
NtRp854
(dp855
g73
(dp856
g81
I4
ssg82
g850
sg75
(lp857
S'127.0.0.1-71461326-318d-43aa-b478-e80f172f301b'
p858
ag68
(g77
g70
NtRp859
(dp860
g73
(dp861
g81
I3
ssg82
Nsg75
(lp862
g68
(g84
g70
NtRp863
(dp864
g73
(dp865
sg82
g859
sg75
(lp866
g68
(g89
g70
NtRp867
(dp868
g73
(dp869
g93
g94
ssg82
g863
sg75
(lp870
g305
asbag68
(g89
g70
NtRp871
(dp872
g73
(dp873
g100
g101
ssg82
g863
sg75
(lp874
S':'
asbag68
(g89
g70
NtRp875
(dp876
g73
(dp877
sg82
g863
sg75
(lp878
g68
(g69
g70
NtRp879
(dp880
g73
(dp881
g81
I3
ssg82
g875
sg75
(lp882
S''
asbasbasbag68
(g84
g70
NtRp883
(dp884
g73
(dp885
sg82
g859
sg75
(lp886
g68
(g89
g70
NtRp887
(dp888
g73
(dp889
g93
g94
ssg82
g883
sg75
(lp890
g326
asbag68
(g89
g70
NtRp891
(dp892
g73
(dp893
g100
g101
ssg82
g883
sg75
(lp894
S':'
asbag68
(g89
g70
NtRp895
(dp896
g73
(dp897
sg82
g883
sg75
(lp898
g68
(g69
g70
NtRp899
(dp900
g73
(dp901
g81
I3
ssg82
g895
sg75
(lp902
S''
asbasbasbag68
(g84
g70
NtRp903
(dp904
g73
(dp905
sg82
g859
sg75
(lp906
g68
(g89
g70
NtRp907
(dp908
g73
(dp909
g93
g94
ssg82
g903
sg75
(lp910
g347
asbag68
(g89
g70
NtRp911
(dp912
g73
(dp913
g100
g101
ssg82
g903
sg75
(lp914
S':'
asbag68
(g89
g70
NtRp915
(dp916
g73
(dp917
sg82
g903
sg75
(lp918
g68
(g69
g70
NtRp919
(dp920
g73
(dp921
g81
I3
ssg82
g915
sg75
(lp922
S''
asbasbasbag68
(g84
g70
NtRp923
(dp924
g73
(dp925
sg82
g859
sg75
(lp926
g68
(g89
g70
NtRp927
(dp928
g73
(dp929
g93
g94
ssg82
g923
sg75
(lp930
g368
asbag68
(g89
g70
NtRp931
(dp932
g73
(dp933
g100
g101
ssg82
g923
sg75
(lp934
S':'
asbag68
(g89
g70
NtRp935
(dp936
g73
(dp937
sg82
g923
sg75
(lp938
g68
(g69
g70
NtRp939
(dp940
g73
(dp941
g81
I3
ssg82
g935
sg75
(lp942
S''
asbasbasbag68
(g84
g70
NtRp943
(dp944
g73
(dp945
sg82
g859
sg75
(lp946
g68
(g89
g70
NtRp947
(dp948
g73
(dp949
g93
g94
ssg82
g943
sg75
(lp950
g389
asbag68
(g89
g70
NtRp951
(dp952
g73
(dp953
g100
g101
ssg82
g943
sg75
(lp954
S':'
asbag68
(g89
g70
NtRp955
(dp956
g73
(dp957
sg82
g943
sg75
(lp958
g68
(g69
g70
NtRp959
(dp960
g73
(dp961
g81
I3
ssg82
g955
sg75
(lp962
S''
asbasbasbag68
(g84
g70
NtRp963
(dp964
g73
(dp965
sg82
g859
sg75
(lp966
g68
(g89
g70
NtRp967
(dp968
g73
(dp969
g93
g94
ssg82
g963
sg75
(lp970
g410
asbag68
(g89
g70
NtRp971
(dp972
g73
(dp973
g100
g101
ssg82
g963
sg75
(lp974
S':'
asbag68
(g89
g70
NtRp975
(dp976
g73
(dp977
sg82
g963
sg75
(lp978
g68
(g69
g70
NtRp979
(dp980
g73
(dp981
g81
I3
ssg82
g975
sg75
(lp982
S''
asbasbasbag68
(g84
g70
NtRp983
(dp984
g73
(dp985
sg82
g859
sg75
(lp986
g68
(g89
g70
NtRp987
(dp988
g73
(dp989
g93
g94
ssg82
g983
sg75
(lp990
g431
asbag68
(g89
g70
NtRp991
(dp992
g73
(dp993
g100
g101
ssg82
g983
sg75
(lp994
S':'
asbag68
(g89
g70
NtRp995
(dp996
g73
(dp997
sg82
g983
sg75
(lp998
g68
(g69
g70
NtRp999
(dp1000
g73
(dp1001
g81
I3
ssg82
g995
sg75
(lp1002
S''
asbasbasbag68
(g84
g70
NtRp1003
(dp1004
g73
(dp1005
sg82
g859
sg75
(lp1006
g68
(g89
g70
NtRp1007
(dp1008
g73
(dp1009
g93
g94
ssg82
g1003
sg75
(lp1010
g452
asbag68
(g89
g70
NtRp1011
(dp1012
g73
(dp1013
g100
g101
ssg82
g1003
sg75
(lp1014
S':'
asbag68
(g89
g70
NtRp1015
(dp1016
g73
(dp1017
sg82
g1003
sg75
(lp1018
g68
(g69
g70
NtRp1019
(dp1020
g73
(dp1021
g81
I3
ssg82
g1015
sg75
(lp1022
S''
asbasbasbasbasbasbasbag68
(g84
g70
NtRp1023
(dp1024
g73
(dp1025
sg82
g267
sg75
(lp1026
g68
(g89
g70
NtRp1027
(dp1028
g73
(dp1029
g93
g94
ssg82
g1023
sg75
(lp1030
S'session_id_attempt4'
p1031
asbag68
(g89
g70
NtRp1032
(dp1033
g73
(dp1034
g100
g101
ssg82
g1023
sg75
(lp1035
S':'
asbag68
(g89
g70
NtRp1036
(dp1037
g73
(dp1038
sg82
g1023
sg75
(lp1039
g68
(g69
g70
NtRp1040
(dp1041
g73
(dp1042
g81
I4
ssg82
g1036
sg75
(lp1043
S'127.0.0.1-efc7b12d-c437-44c8-998b-7ce7c59157bf'
p1044
ag68
(g77
g70
NtRp1045
(dp1046
g73
(dp1047
g81
I3
ssg82
Nsg75
(lp1048
g68
(g84
g70
NtRp1049
(dp1050
g73
(dp1051
sg82
g1045
sg75
(lp1052
g68
(g89
g70
NtRp1053
(dp1054
g73
(dp1055
g93
g94
ssg82
g1049
sg75
(lp1056
g305
asbag68
(g89
g70
NtRp1057
(dp1058
g73
(dp1059
g100
g101
ssg82
g1049
sg75
(lp1060
S':'
asbag68
(g89
g70
NtRp1061
(dp1062
g73
(dp1063
sg82
g1049
sg75
(lp1064
g68
(g69
g70
NtRp1065
(dp1066
g73
(dp1067
g81
I3
ssg82
g1061
sg75
(lp1068
S''
asbasbasbag68
(g84
g70
NtRp1069
(dp1070
g73
(dp1071
sg82
g1045
sg75
(lp1072
g68
(g89
g70
NtRp1073
(dp1074
g73
(dp1075
g93
g94
ssg82
g1069
sg75
(lp1076
g326
asbag68
(g89
g70
NtRp1077
(dp1078
g73
(dp1079
g100
g101
ssg82
g1069
sg75
(lp1080
S':'
asbag68
(g89
g70
NtRp1081
(dp1082
g73
(dp1083
sg82
g1069
sg75
(lp1084
g68
(g69
g70
NtRp1085
(dp1086
g73
(dp1087
g81
I3
ssg82
g1081
sg75
(lp1088
S''
asbasbasbag68
(g84
g70
NtRp1089
(dp1090
g73
(dp1091
sg82
g1045
sg75
(lp1092
g68
(g89
g70
NtRp1093
(dp1094
g73
(dp1095
g93
g94
ssg82
g1089
sg75
(lp1096
g347
asbag68
(g89
g70
NtRp1097
(dp1098
g73
(dp1099
g100
g101
ssg82
g1089
sg75
(lp1100
S':'
asbag68
(g89
g70
NtRp1101
(dp1102
g73
(dp1103
sg82
g1089
sg75
(lp1104
g68
(g69
g70
NtRp1105
(dp1106
g73
(dp1107
g81
I3
ssg82
g1101
sg75
(lp1108
S''
asbasbasbag68
(g84
g70
NtRp1109
(dp1110
g73
(dp1111
sg82
g1045
sg75
(lp1112
g68
(g89
g70
NtRp1113
(dp1114
g73
(dp1115
g93
g94
ssg82
g1109
sg75
(lp1116
g368
asbag68
(g89
g70
NtRp1117
(dp1118
g73
(dp1119
g100
g101
ssg82
g1109
sg75
(lp1120
S':'
asbag68
(g89
g70
NtRp1121
(dp1122
g73
(dp1123
sg82
g1109
sg75
(lp1124
g68
(g69
g70
NtRp1125
(dp1126
g73
(dp1127
g81
I3
ssg82
g1121
sg75
(lp1128
S''
asbasbasbag68
(g84
g70
NtRp1129
(dp1130
g73
(dp1131
sg82
g1045
sg75
(lp1132
g68
(g89
g70
NtRp1133
(dp1134
g73
(dp1135
g93
g94
ssg82
g1129
sg75
(lp1136
g389
asbag68
(g89
g70
NtRp1137
(dp1138
g73
(dp1139
g100
g101
ssg82
g1129
sg75
(lp1140
S':'
asbag68
(g89
g70
NtRp1141
(dp1142
g73
(dp1143
sg82
g1129
sg75
(lp1144
g68
(g69
g70
NtRp1145
(dp1146
g73
(dp1147
g81
I3
ssg82
g1141
sg75
(lp1148
S''
asbasbasbag68
(g84
g70
NtRp1149
(dp1150
g73
(dp1151
sg82
g1045
sg75
(lp1152
g68
(g89
g70
NtRp1153
(dp1154
g73
(dp1155
g93
g94
ssg82
g1149
sg75
(lp1156
g410
asbag68
(g89
g70
NtRp1157
(dp1158
g73
(dp1159
g100
g101
ssg82
g1149
sg75
(lp1160
S':'
asbag68
(g89
g70
NtRp1161
(dp1162
g73
(dp1163
sg82
g1149
sg75
(lp1164
g68
(g69
g70
NtRp1165
(dp1166
g73
(dp1167
g81
I3
ssg82
g1161
sg75
(lp1168
S''
asbasbasbag68
(g84
g70
NtRp1169
(dp1170
g73
(dp1171
sg82
g1045
sg75
(lp1172
g68
(g89
g70
NtRp1173
(dp1174
g73
(dp1175
g93
g94
ssg82
g1169
sg75
(lp1176
g431
asbag68
(g89
g70
NtRp1177
(dp1178
g73
(dp1179
g100
g101
ssg82
g1169
sg75
(lp1180
S':'
asbag68
(g89
g70
NtRp1181
(dp1182
g73
(dp1183
sg82
g1169
sg75
(lp1184
g68
(g69
g70
NtRp1185
(dp1186
g73
(dp1187
g81
I3
ssg82
g1181
sg75
(lp1188
S''
asbasbasbag68
(g84
g70
NtRp1189
(dp1190
g73
(dp1191
sg82
g1045
sg75
(lp1192
g68
(g89
g70
NtRp1193
(dp1194
g73
(dp1195
g93
g94
ssg82
g1189
sg75
(lp1196
g452
asbag68
(g89
g70
NtRp1197
(dp1198
g73
(dp1199
g100
g101
ssg82
g1189
sg75
(lp1200
S':'
asbag68
(g89
g70
NtRp1201
(dp1202
g73
(dp1203
sg82
g1189
sg75
(lp1204
g68
(g69
g70
NtRp1205
(dp1206
g73
(dp1207
g81
I3
ssg82
g1201
sg75
(lp1208
S''
asbasbasbasbasbasbasbag68
(g84
g70
NtRp1209
(dp1210
g73
(dp1211
sg82
g267
sg75
(lp1212
g68
(g89
g70
NtRp1213
(dp1214
g73
(dp1215
g93
g94
ssg82
g1209
sg75
(lp1216
S'session_id_ecesurvey'
p1217
asbag68
(g89
g70
NtRp1218
(dp1219
g73
(dp1220
g100
g101
ssg82
g1209
sg75
(lp1221
S':'
asbag68
(g89
g70
NtRp1222
(dp1223
g73
(dp1224
sg82
g1209
sg75
(lp1225
g68
(g69
g70
NtRp1226
(dp1227
g73
(dp1228
g81
I4
ssg82
g1222
sg75
(lp1229
S'127.0.0.1-bc3583dd-f150-4d62-b588-7c1291bc84a1'
p1230
ag68
(g77
g70
NtRp1231
(dp1232
g73
(dp1233
g81
I3
ssg82
Nsg75
(lp1234
g68
(g84
g70
NtRp1235
(dp1236
g73
(dp1237
sg82
g1231
sg75
(lp1238
g68
(g89
g70
NtRp1239
(dp1240
g73
(dp1241
g93
g94
ssg82
g1235
sg75
(lp1242
g305
asbag68
(g89
g70
NtRp1243
(dp1244
g73
(dp1245
g100
g101
ssg82
g1235
sg75
(lp1246
S':'
asbag68
(g89
g70
NtRp1247
(dp1248
g73
(dp1249
sg82
g1235
sg75
(lp1250
g68
(g69
g70
NtRp1251
(dp1252
g73
(dp1253
g81
I3
ssg82
g1247
sg75
(lp1254
S''
asbasbasbag68
(g84
g70
NtRp1255
(dp1256
g73
(dp1257
sg82
g1231
sg75
(lp1258
g68
(g89
g70
NtRp1259
(dp1260
g73
(dp1261
g93
g94
ssg82
g1255
sg75
(lp1262
g326
asbag68
(g89
g70
NtRp1263
(dp1264
g73
(dp1265
g100
g101
ssg82
g1255
sg75
(lp1266
S':'
asbag68
(g89
g70
NtRp1267
(dp1268
g73
(dp1269
sg82
g1255
sg75
(lp1270
g68
(g69
g70
NtRp1271
(dp1272
g73
(dp1273
g81
I3
ssg82
g1267
sg75
(lp1274
S''
asbasbasbag68
(g84
g70
NtRp1275
(dp1276
g73
(dp1277
sg82
g1231
sg75
(lp1278
g68
(g89
g70
NtRp1279
(dp1280
g73
(dp1281
g93
g94
ssg82
g1275
sg75
(lp1282
g347
asbag68
(g89
g70
NtRp1283
(dp1284
g73
(dp1285
g100
g101
ssg82
g1275
sg75
(lp1286
S':'
asbag68
(g89
g70
NtRp1287
(dp1288
g73
(dp1289
sg82
g1275
sg75
(lp1290
g68
(g69
g70
NtRp1291
(dp1292
g73
(dp1293
g81
I3
ssg82
g1287
sg75
(lp1294
S''
asbasbasbag68
(g84
g70
NtRp1295
(dp1296
g73
(dp1297
sg82
g1231
sg75
(lp1298
g68
(g89
g70
NtRp1299
(dp1300
g73
(dp1301
g93
g94
ssg82
g1295
sg75
(lp1302
g368
asbag68
(g89
g70
NtRp1303
(dp1304
g73
(dp1305
g100
g101
ssg82
g1295
sg75
(lp1306
S':'
asbag68
(g89
g70
NtRp1307
(dp1308
g73
(dp1309
sg82
g1295
sg75
(lp1310
g68
(g69
g70
NtRp1311
(dp1312
g73
(dp1313
g81
I3
ssg82
g1307
sg75
(lp1314
S''
asbasbasbag68
(g84
g70
NtRp1315
(dp1316
g73
(dp1317
sg82
g1231
sg75
(lp1318
g68
(g89
g70
NtRp1319
(dp1320
g73
(dp1321
g93
g94
ssg82
g1315
sg75
(lp1322
g389
asbag68
(g89
g70
NtRp1323
(dp1324
g73
(dp1325
g100
g101
ssg82
g1315
sg75
(lp1326
S':'
asbag68
(g89
g70
NtRp1327
(dp1328
g73
(dp1329
sg82
g1315
sg75
(lp1330
g68
(g69
g70
NtRp1331
(dp1332
g73
(dp1333
g81
I3
ssg82
g1327
sg75
(lp1334
S''
asbasbasbag68
(g84
g70
NtRp1335
(dp1336
g73
(dp1337
sg82
g1231
sg75
(lp1338
g68
(g89
g70
NtRp1339
(dp1340
g73
(dp1341
g93
g94
ssg82
g1335
sg75
(lp1342
g410
asbag68
(g89
g70
NtRp1343
(dp1344
g73
(dp1345
g100
g101
ssg82
g1335
sg75
(lp1346
S':'
asbag68
(g89
g70
NtRp1347
(dp1348
g73
(dp1349
sg82
g1335
sg75
(lp1350
g68
(g69
g70
NtRp1351
(dp1352
g73
(dp1353
g81
I3
ssg82
g1347
sg75
(lp1354
S''
asbasbasbag68
(g84
g70
NtRp1355
(dp1356
g73
(dp1357
sg82
g1231
sg75
(lp1358
g68
(g89
g70
NtRp1359
(dp1360
g73
(dp1361
g93
g94
ssg82
g1355
sg75
(lp1362
g431
asbag68
(g89
g70
NtRp1363
(dp1364
g73
(dp1365
g100
g101
ssg82
g1355
sg75
(lp1366
S':'
asbag68
(g89
g70
NtRp1367
(dp1368
g73
(dp1369
sg82
g1355
sg75
(lp1370
g68
(g69
g70
NtRp1371
(dp1372
g73
(dp1373
g81
I3
ssg82
g1367
sg75
(lp1374
S''
asbasbasbag68
(g84
g70
NtRp1375
(dp1376
g73
(dp1377
sg82
g1231
sg75
(lp1378
g68
(g89
g70
NtRp1379
(dp1380
g73
(dp1381
g93
g94
ssg82
g1375
sg75
(lp1382
g452
asbag68
(g89
g70
NtRp1383
(dp1384
g73
(dp1385
g100
g101
ssg82
g1375
sg75
(lp1386
S':'
asbag68
(g89
g70
NtRp1387
(dp1388
g73
(dp1389
sg82
g1375
sg75
(lp1390
g68
(g69
g70
NtRp1391
(dp1392
g73
(dp1393
g81
I3
ssg82
g1387
sg75
(lp1394
S''
asbasbasbasbasbasbasbag68
(g84
g70
NtRp1395
(dp1396
g73
(dp1397
sg82
g267
sg75
(lp1398
g68
(g89
g70
NtRp1399
(dp1400
g73
(dp1401
g93
g94
ssg82
g1395
sg75
(lp1402
S'session_id_funkload'
p1403
asbag68
(g89
g70
NtRp1404
(dp1405
g73
(dp1406
g100
g101
ssg82
g1395
sg75
(lp1407
S':'
asbag68
(g89
g70
NtRp1408
(dp1409
g73
(dp1410
sg82
g1395
sg75
(lp1411
g68
(g69
g70
NtRp1412
(dp1413
g73
(dp1414
g81
I4
ssg82
g1408
sg75
(lp1415
S'127.0.0.1-cf22ecd2-40c5-41ec-a943-aeddb5bba043'
p1416
ag68
(g77
g70
NtRp1417
(dp1418
g73
(dp1419
g81
I3
ssg82
Nsg75
(lp1420
g68
(g84
g70
NtRp1421
(dp1422
g73
(dp1423
sg82
g1417
sg75
(lp1424
g68
(g89
g70
NtRp1425
(dp1426
g73
(dp1427
g93
g94
ssg82
g1421
sg75
(lp1428
g305
asbag68
(g89
g70
NtRp1429
(dp1430
g73
(dp1431
g100
g101
ssg82
g1421
sg75
(lp1432
S':'
asbag68
(g89
g70
NtRp1433
(dp1434
g73
(dp1435
sg82
g1421
sg75
(lp1436
g68
(g69
g70
NtRp1437
(dp1438
g73
(dp1439
g81
I3
ssg82
g1433
sg75
(lp1440
S''
asbasbasbag68
(g84
g70
NtRp1441
(dp1442
g73
(dp1443
sg82
g1417
sg75
(lp1444
g68
(g89
g70
NtRp1445
(dp1446
g73
(dp1447
g93
g94
ssg82
g1441
sg75
(lp1448
g326
asbag68
(g89
g70
NtRp1449
(dp1450
g73
(dp1451
g100
g101
ssg82
g1441
sg75
(lp1452
S':'
asbag68
(g89
g70
NtRp1453
(dp1454
g73
(dp1455
sg82
g1441
sg75
(lp1456
g68
(g69
g70
NtRp1457
(dp1458
g73
(dp1459
g81
I3
ssg82
g1453
sg75
(lp1460
S''
asbasbasbag68
(g84
g70
NtRp1461
(dp1462
g73
(dp1463
sg82
g1417
sg75
(lp1464
g68
(g89
g70
NtRp1465
(dp1466
g73
(dp1467
g93
g94
ssg82
g1461
sg75
(lp1468
g347
asbag68
(g89
g70
NtRp1469
(dp1470
g73
(dp1471
g100
g101
ssg82
g1461
sg75
(lp1472
S':'
asbag68
(g89
g70
NtRp1473
(dp1474
g73
(dp1475
sg82
g1461
sg75
(lp1476
g68
(g69
g70
NtRp1477
(dp1478
g73
(dp1479
g81
I3
ssg82
g1473
sg75
(lp1480
S''
asbasbasbag68
(g84
g70
NtRp1481
(dp1482
g73
(dp1483
sg82
g1417
sg75
(lp1484
g68
(g89
g70
NtRp1485
(dp1486
g73
(dp1487
g93
g94
ssg82
g1481
sg75
(lp1488
g368
asbag68
(g89
g70
NtRp1489
(dp1490
g73
(dp1491
g100
g101
ssg82
g1481
sg75
(lp1492
S':'
asbag68
(g89
g70
NtRp1493
(dp1494
g73
(dp1495
sg82
g1481
sg75
(lp1496
g68
(g69
g70
NtRp1497
(dp1498
g73
(dp1499
g81
I3
ssg82
g1493
sg75
(lp1500
S''
asbasbasbag68
(g84
g70
NtRp1501
(dp1502
g73
(dp1503
sg82
g1417
sg75
(lp1504
g68
(g89
g70
NtRp1505
(dp1506
g73
(dp1507
g93
g94
ssg82
g1501
sg75
(lp1508
g389
asbag68
(g89
g70
NtRp1509
(dp1510
g73
(dp1511
g100
g101
ssg82
g1501
sg75
(lp1512
S':'
asbag68
(g89
g70
NtRp1513
(dp1514
g73
(dp1515
sg82
g1501
sg75
(lp1516
g68
(g69
g70
NtRp1517
(dp1518
g73
(dp1519
g81
I3
ssg82
g1513
sg75
(lp1520
S''
asbasbasbag68
(g84
g70
NtRp1521
(dp1522
g73
(dp1523
sg82
g1417
sg75
(lp1524
g68
(g89
g70
NtRp1525
(dp1526
g73
(dp1527
g93
g94
ssg82
g1521
sg75
(lp1528
g410
asbag68
(g89
g70
NtRp1529
(dp1530
g73
(dp1531
g100
g101
ssg82
g1521
sg75
(lp1532
S':'
asbag68
(g89
g70
NtRp1533
(dp1534
g73
(dp1535
sg82
g1521
sg75
(lp1536
g68
(g69
g70
NtRp1537
(dp1538
g73
(dp1539
g81
I3
ssg82
g1533
sg75
(lp1540
S''
asbasbasbag68
(g84
g70
NtRp1541
(dp1542
g73
(dp1543
sg82
g1417
sg75
(lp1544
g68
(g89
g70
NtRp1545
(dp1546
g73
(dp1547
g93
g94
ssg82
g1541
sg75
(lp1548
g431
asbag68
(g89
g70
NtRp1549
(dp1550
g73
(dp1551
g100
g101
ssg82
g1541
sg75
(lp1552
S':'
asbag68
(g89
g70
NtRp1553
(dp1554
g73
(dp1555
sg82
g1541
sg75
(lp1556
g68
(g69
g70
NtRp1557
(dp1558
g73
(dp1559
g81
I3
ssg82
g1553
sg75
(lp1560
S''
asbasbasbag68
(g84
g70
NtRp1561
(dp1562
g73
(dp1563
sg82
g1417
sg75
(lp1564
g68
(g89
g70
NtRp1565
(dp1566
g73
(dp1567
g93
g94
ssg82
g1561
sg75
(lp1568
g452
asbag68
(g89
g70
NtRp1569
(dp1570
g73
(dp1571
g100
g101
ssg82
g1561
sg75
(lp1572
S':'
asbag68
(g89
g70
NtRp1573
(dp1574
g73
(dp1575
sg82
g1561
sg75
(lp1576
g68
(g69
g70
NtRp1577
(dp1578
g73
(dp1579
g81
I3
ssg82
g1573
sg75
(lp1580
S''
asbasbasbasbasbasbasbag68
(g84
g70
NtRp1581
(dp1582
g73
(dp1583
sg82
g267
sg75
(lp1584
g68
(g89
g70
NtRp1585
(dp1586
g73
(dp1587
g93
g94
ssg82
g1581
sg75
(lp1588
S'session_id_kkk'
p1589
asbag68
(g89
g70
NtRp1590
(dp1591
g73
(dp1592
g100
g101
ssg82
g1581
sg75
(lp1593
S':'
asbag68
(g89
g70
NtRp1594
(dp1595
g73
(dp1596
sg82
g1581
sg75
(lp1597
g68
(g69
g70
NtRp1598
(dp1599
g73
(dp1600
g81
I4
ssg82
g1594
sg75
(lp1601
S'127.0.0.1-d744a8ac-5c3d-4346-8de5-2240765037bf'
p1602
ag68
(g77
g70
NtRp1603
(dp1604
g73
(dp1605
g81
I3
ssg82
Nsg75
(lp1606
g68
(g84
g70
NtRp1607
(dp1608
g73
(dp1609
sg82
g1603
sg75
(lp1610
g68
(g89
g70
NtRp1611
(dp1612
g73
(dp1613
g93
g94
ssg82
g1607
sg75
(lp1614
g305
asbag68
(g89
g70
NtRp1615
(dp1616
g73
(dp1617
g100
g101
ssg82
g1607
sg75
(lp1618
S':'
asbag68
(g89
g70
NtRp1619
(dp1620
g73
(dp1621
sg82
g1607
sg75
(lp1622
g68
(g69
g70
NtRp1623
(dp1624
g73
(dp1625
g81
I3
ssg82
g1619
sg75
(lp1626
S''
asbasbasbag68
(g84
g70
NtRp1627
(dp1628
g73
(dp1629
sg82
g1603
sg75
(lp1630
g68
(g89
g70
NtRp1631
(dp1632
g73
(dp1633
g93
g94
ssg82
g1627
sg75
(lp1634
g326
asbag68
(g89
g70
NtRp1635
(dp1636
g73
(dp1637
g100
g101
ssg82
g1627
sg75
(lp1638
S':'
asbag68
(g89
g70
NtRp1639
(dp1640
g73
(dp1641
sg82
g1627
sg75
(lp1642
g68
(g69
g70
NtRp1643
(dp1644
g73
(dp1645
g81
I3
ssg82
g1639
sg75
(lp1646
S''
asbasbasbag68
(g84
g70
NtRp1647
(dp1648
g73
(dp1649
sg82
g1603
sg75
(lp1650
g68
(g89
g70
NtRp1651
(dp1652
g73
(dp1653
g93
g94
ssg82
g1647
sg75
(lp1654
g347
asbag68
(g89
g70
NtRp1655
(dp1656
g73
(dp1657
g100
g101
ssg82
g1647
sg75
(lp1658
S':'
asbag68
(g89
g70
NtRp1659
(dp1660
g73
(dp1661
sg82
g1647
sg75
(lp1662
g68
(g69
g70
NtRp1663
(dp1664
g73
(dp1665
g81
I3
ssg82
g1659
sg75
(lp1666
S''
asbasbasbag68
(g84
g70
NtRp1667
(dp1668
g73
(dp1669
sg82
g1603
sg75
(lp1670
g68
(g89
g70
NtRp1671
(dp1672
g73
(dp1673
g93
g94
ssg82
g1667
sg75
(lp1674
g368
asbag68
(g89
g70
NtRp1675
(dp1676
g73
(dp1677
g100
g101
ssg82
g1667
sg75
(lp1678
S':'
asbag68
(g89
g70
NtRp1679
(dp1680
g73
(dp1681
sg82
g1667
sg75
(lp1682
g68
(g69
g70
NtRp1683
(dp1684
g73
(dp1685
g81
I3
ssg82
g1679
sg75
(lp1686
S''
asbasbasbag68
(g84
g70
NtRp1687
(dp1688
g73
(dp1689
sg82
g1603
sg75
(lp1690
g68
(g89
g70
NtRp1691
(dp1692
g73
(dp1693
g93
g94
ssg82
g1687
sg75
(lp1694
g389
asbag68
(g89
g70
NtRp1695
(dp1696
g73
(dp1697
g100
g101
ssg82
g1687
sg75
(lp1698
S':'
asbag68
(g89
g70
NtRp1699
(dp1700
g73
(dp1701
sg82
g1687
sg75
(lp1702
g68
(g69
g70
NtRp1703
(dp1704
g73
(dp1705
g81
I3
ssg82
g1699
sg75
(lp1706
S''
asbasbasbag68
(g84
g70
NtRp1707
(dp1708
g73
(dp1709
sg82
g1603
sg75
(lp1710
g68
(g89
g70
NtRp1711
(dp1712
g73
(dp1713
g93
g94
ssg82
g1707
sg75
(lp1714
g410
asbag68
(g89
g70
NtRp1715
(dp1716
g73
(dp1717
g100
g101
ssg82
g1707
sg75
(lp1718
S':'
asbag68
(g89
g70
NtRp1719
(dp1720
g73
(dp1721
sg82
g1707
sg75
(lp1722
g68
(g69
g70
NtRp1723
(dp1724
g73
(dp1725
g81
I3
ssg82
g1719
sg75
(lp1726
S''
asbasbasbag68
(g84
g70
NtRp1727
(dp1728
g73
(dp1729
sg82
g1603
sg75
(lp1730
g68
(g89
g70
NtRp1731
(dp1732
g73
(dp1733
g93
g94
ssg82
g1727
sg75
(lp1734
g431
asbag68
(g89
g70
NtRp1735
(dp1736
g73
(dp1737
g100
g101
ssg82
g1727
sg75
(lp1738
S':'
asbag68
(g89
g70
NtRp1739
(dp1740
g73
(dp1741
sg82
g1727
sg75
(lp1742
g68
(g69
g70
NtRp1743
(dp1744
g73
(dp1745
g81
I3
ssg82
g1739
sg75
(lp1746
S''
asbasbasbag68
(g84
g70
NtRp1747
(dp1748
g73
(dp1749
sg82
g1603
sg75
(lp1750
g68
(g89
g70
NtRp1751
(dp1752
g73
(dp1753
g93
g94
ssg82
g1747
sg75
(lp1754
g452
asbag68
(g89
g70
NtRp1755
(dp1756
g73
(dp1757
g100
g101
ssg82
g1747
sg75
(lp1758
S':'
asbag68
(g89
g70
NtRp1759
(dp1760
g73
(dp1761
sg82
g1747
sg75
(lp1762
g68
(g69
g70
NtRp1763
(dp1764
g73
(dp1765
g81
I3
ssg82
g1759
sg75
(lp1766
S''
asbasbasbasbasbasbasbag68
(g84
g70
NtRp1767
(dp1768
g73
(dp1769
sg82
g267
sg75
(lp1770
g68
(g89
g70
NtRp1771
(dp1772
g73
(dp1773
g93
g94
ssg82
g1767
sg75
(lp1774
S'session_id_orentation'
p1775
asbag68
(g89
g70
NtRp1776
(dp1777
g73
(dp1778
g100
g101
ssg82
g1767
sg75
(lp1779
S':'
asbag68
(g89
g70
NtRp1780
(dp1781
g73
(dp1782
sg82
g1767
sg75
(lp1783
g68
(g69
g70
NtRp1784
(dp1785
g73
(dp1786
g81
I4
ssg82
g1780
sg75
(lp1787
S'127.0.0.1-0ac45cd4-167b-443f-88dd-dc1703dec226'
p1788
ag68
(g77
g70
NtRp1789
(dp1790
g73
(dp1791
g81
I3
ssg82
Nsg75
(lp1792
g68
(g84
g70
NtRp1793
(dp1794
g73
(dp1795
sg82
g1789
sg75
(lp1796
g68
(g89
g70
NtRp1797
(dp1798
g73
(dp1799
g93
g94
ssg82
g1793
sg75
(lp1800
g305
asbag68
(g89
g70
NtRp1801
(dp1802
g73
(dp1803
g100
g101
ssg82
g1793
sg75
(lp1804
S':'
asbag68
(g89
g70
NtRp1805
(dp1806
g73
(dp1807
sg82
g1793
sg75
(lp1808
g68
(g69
g70
NtRp1809
(dp1810
g73
(dp1811
g81
I3
ssg82
g1805
sg75
(lp1812
S''
asbasbasbag68
(g84
g70
NtRp1813
(dp1814
g73
(dp1815
sg82
g1789
sg75
(lp1816
g68
(g89
g70
NtRp1817
(dp1818
g73
(dp1819
g93
g94
ssg82
g1813
sg75
(lp1820
g326
asbag68
(g89
g70
NtRp1821
(dp1822
g73
(dp1823
g100
g101
ssg82
g1813
sg75
(lp1824
S':'
asbag68
(g89
g70
NtRp1825
(dp1826
g73
(dp1827
sg82
g1813
sg75
(lp1828
g68
(g69
g70
NtRp1829
(dp1830
g73
(dp1831
g81
I3
ssg82
g1825
sg75
(lp1832
S''
asbasbasbag68
(g84
g70
NtRp1833
(dp1834
g73
(dp1835
sg82
g1789
sg75
(lp1836
g68
(g89
g70
NtRp1837
(dp1838
g73
(dp1839
g93
g94
ssg82
g1833
sg75
(lp1840
g347
asbag68
(g89
g70
NtRp1841
(dp1842
g73
(dp1843
g100
g101
ssg82
g1833
sg75
(lp1844
S':'
asbag68
(g89
g70
NtRp1845
(dp1846
g73
(dp1847
sg82
g1833
sg75
(lp1848
g68
(g69
g70
NtRp1849
(dp1850
g73
(dp1851
g81
I3
ssg82
g1845
sg75
(lp1852
S''
asbasbasbag68
(g84
g70
NtRp1853
(dp1854
g73
(dp1855
sg82
g1789
sg75
(lp1856
g68
(g89
g70
NtRp1857
(dp1858
g73
(dp1859
g93
g94
ssg82
g1853
sg75
(lp1860
g368
asbag68
(g89
g70
NtRp1861
(dp1862
g73
(dp1863
g100
g101
ssg82
g1853
sg75
(lp1864
S':'
asbag68
(g89
g70
NtRp1865
(dp1866
g73
(dp1867
sg82
g1853
sg75
(lp1868
g68
(g69
g70
NtRp1869
(dp1870
g73
(dp1871
g81
I3
ssg82
g1865
sg75
(lp1872
S''
asbasbasbag68
(g84
g70
NtRp1873
(dp1874
g73
(dp1875
sg82
g1789
sg75
(lp1876
g68
(g89
g70
NtRp1877
(dp1878
g73
(dp1879
g93
g94
ssg82
g1873
sg75
(lp1880
g389
asbag68
(g89
g70
NtRp1881
(dp1882
g73
(dp1883
g100
g101
ssg82
g1873
sg75
(lp1884
S':'
asbag68
(g89
g70
NtRp1885
(dp1886
g73
(dp1887
sg82
g1873
sg75
(lp1888
g68
(g69
g70
NtRp1889
(dp1890
g73
(dp1891
g81
I3
ssg82
g1885
sg75
(lp1892
S''
asbasbasbag68
(g84
g70
NtRp1893
(dp1894
g73
(dp1895
sg82
g1789
sg75
(lp1896
g68
(g89
g70
NtRp1897
(dp1898
g73
(dp1899
g93
g94
ssg82
g1893
sg75
(lp1900
g410
asbag68
(g89
g70
NtRp1901
(dp1902
g73
(dp1903
g100
g101
ssg82
g1893
sg75
(lp1904
S':'
asbag68
(g89
g70
NtRp1905
(dp1906
g73
(dp1907
sg82
g1893
sg75
(lp1908
g68
(g69
g70
NtRp1909
(dp1910
g73
(dp1911
g81
I3
ssg82
g1905
sg75
(lp1912
S''
asbasbasbag68
(g84
g70
NtRp1913
(dp1914
g73
(dp1915
sg82
g1789
sg75
(lp1916
g68
(g89
g70
NtRp1917
(dp1918
g73
(dp1919
g93
g94
ssg82
g1913
sg75
(lp1920
g431
asbag68
(g89
g70
NtRp1921
(dp1922
g73
(dp1923
g100
g101
ssg82
g1913
sg75
(lp1924
S':'
asbag68
(g89
g70
NtRp1925
(dp1926
g73
(dp1927
sg82
g1913
sg75
(lp1928
g68
(g69
g70
NtRp1929
(dp1930
g73
(dp1931
g81
I3
ssg82
g1925
sg75
(lp1932
S''
asbasbasbag68
(g84
g70
NtRp1933
(dp1934
g73
(dp1935
sg82
g1789
sg75
(lp1936
g68
(g89
g70
NtRp1937
(dp1938
g73
(dp1939
g93
g94
ssg82
g1933
sg75
(lp1940
g452
asbag68
(g89
g70
NtRp1941
(dp1942
g73
(dp1943
g100
g101
ssg82
g1933
sg75
(lp1944
S':'
asbag68
(g89
g70
NtRp1945
(dp1946
g73
(dp1947
sg82
g1933
sg75
(lp1948
g68
(g69
g70
NtRp1949
(dp1950
g73
(dp1951
g81
I3
ssg82
g1945
sg75
(lp1952
S''
asbasbasbasbasbasbasbag68
(g84
g70
NtRp1953
(dp1954
g73
(dp1955
sg82
g267
sg75
(lp1956
g68
(g89
g70
NtRp1957
(dp1958
g73
(dp1959
g93
g94
ssg82
g1953
sg75
(lp1960
S'session_id_placement_portal'
p1961
asbag68
(g89
g70
NtRp1962
(dp1963
g73
(dp1964
g100
g101
ssg82
g1953
sg75
(lp1965
S':'
asbag68
(g89
g70
NtRp1966
(dp1967
g73
(dp1968
sg82
g1953
sg75
(lp1969
g68
(g69
g70
NtRp1970
(dp1971
g73
(dp1972
g81
I4
ssg82
g1966
sg75
(lp1973
S'127.0.0.1-3bec308b-1561-4ac1-ab22-997211fef898'
p1974
ag68
(g77
g70
NtRp1975
(dp1976
g73
(dp1977
g81
I3
ssg82
Nsg75
(lp1978
g68
(g84
g70
NtRp1979
(dp1980
g73
(dp1981
sg82
g1975
sg75
(lp1982
g68
(g89
g70
NtRp1983
(dp1984
g73
(dp1985
g93
g94
ssg82
g1979
sg75
(lp1986
g305
asbag68
(g89
g70
NtRp1987
(dp1988
g73
(dp1989
g100
g101
ssg82
g1979
sg75
(lp1990
S':'
asbag68
(g89
g70
NtRp1991
(dp1992
g73
(dp1993
sg82
g1979
sg75
(lp1994
g68
(g69
g70
NtRp1995
(dp1996
g73
(dp1997
g81
I3
ssg82
g1991
sg75
(lp1998
S''
asbasbasbag68
(g84
g70
NtRp1999
(dp2000
g73
(dp2001
sg82
g1975
sg75
(lp2002
g68
(g89
g70
NtRp2003
(dp2004
g73
(dp2005
g93
g94
ssg82
g1999
sg75
(lp2006
g326
asbag68
(g89
g70
NtRp2007
(dp2008
g73
(dp2009
g100
g101
ssg82
g1999
sg75
(lp2010
S':'
asbag68
(g89
g70
NtRp2011
(dp2012
g73
(dp2013
sg82
g1999
sg75
(lp2014
g68
(g69
g70
NtRp2015
(dp2016
g73
(dp2017
g81
I3
ssg82
g2011
sg75
(lp2018
S''
asbasbasbag68
(g84
g70
NtRp2019
(dp2020
g73
(dp2021
sg82
g1975
sg75
(lp2022
g68
(g89
g70
NtRp2023
(dp2024
g73
(dp2025
g93
g94
ssg82
g2019
sg75
(lp2026
g347
asbag68
(g89
g70
NtRp2027
(dp2028
g73
(dp2029
g100
g101
ssg82
g2019
sg75
(lp2030
S':'
asbag68
(g89
g70
NtRp2031
(dp2032
g73
(dp2033
sg82
g2019
sg75
(lp2034
g68
(g69
g70
NtRp2035
(dp2036
g73
(dp2037
g81
I3
ssg82
g2031
sg75
(lp2038
S''
asbasbasbag68
(g84
g70
NtRp2039
(dp2040
g73
(dp2041
sg82
g1975
sg75
(lp2042
g68
(g89
g70
NtRp2043
(dp2044
g73
(dp2045
g93
g94
ssg82
g2039
sg75
(lp2046
g368
asbag68
(g89
g70
NtRp2047
(dp2048
g73
(dp2049
g100
g101
ssg82
g2039
sg75
(lp2050
S':'
asbag68
(g89
g70
NtRp2051
(dp2052
g73
(dp2053
sg82
g2039
sg75
(lp2054
g68
(g69
g70
NtRp2055
(dp2056
g73
(dp2057
g81
I3
ssg82
g2051
sg75
(lp2058
S''
asbasbasbag68
(g84
g70
NtRp2059
(dp2060
g73
(dp2061
sg82
g1975
sg75
(lp2062
g68
(g89
g70
NtRp2063
(dp2064
g73
(dp2065
g93
g94
ssg82
g2059
sg75
(lp2066
g389
asbag68
(g89
g70
NtRp2067
(dp2068
g73
(dp2069
g100
g101
ssg82
g2059
sg75
(lp2070
S':'
asbag68
(g89
g70
NtRp2071
(dp2072
g73
(dp2073
sg82
g2059
sg75
(lp2074
g68
(g69
g70
NtRp2075
(dp2076
g73
(dp2077
g81
I3
ssg82
g2071
sg75
(lp2078
S''
asbasbasbag68
(g84
g70
NtRp2079
(dp2080
g73
(dp2081
sg82
g1975
sg75
(lp2082
g68
(g89
g70
NtRp2083
(dp2084
g73
(dp2085
g93
g94
ssg82
g2079
sg75
(lp2086
g410
asbag68
(g89
g70
NtRp2087
(dp2088
g73
(dp2089
g100
g101
ssg82
g2079
sg75
(lp2090
S':'
asbag68
(g89
g70
NtRp2091
(dp2092
g73
(dp2093
sg82
g2079
sg75
(lp2094
g68
(g69
g70
NtRp2095
(dp2096
g73
(dp2097
g81
I3
ssg82
g2091
sg75
(lp2098
S''
asbasbasbag68
(g84
g70
NtRp2099
(dp2100
g73
(dp2101
sg82
g1975
sg75
(lp2102
g68
(g89
g70
NtRp2103
(dp2104
g73
(dp2105
g93
g94
ssg82
g2099
sg75
(lp2106
g431
asbag68
(g89
g70
NtRp2107
(dp2108
g73
(dp2109
g100
g101
ssg82
g2099
sg75
(lp2110
S':'
asbag68
(g89
g70
NtRp2111
(dp2112
g73
(dp2113
sg82
g2099
sg75
(lp2114
g68
(g69
g70
NtRp2115
(dp2116
g73
(dp2117
g81
I3
ssg82
g2111
sg75
(lp2118
S''
asbasbasbag68
(g84
g70
NtRp2119
(dp2120
g73
(dp2121
sg82
g1975
sg75
(lp2122
g68
(g89
g70
NtRp2123
(dp2124
g73
(dp2125
g93
g94
ssg82
g2119
sg75
(lp2126
g452
asbag68
(g89
g70
NtRp2127
(dp2128
g73
(dp2129
g100
g101
ssg82
g2119
sg75
(lp2130
S':'
asbag68
(g89
g70
NtRp2131
(dp2132
g73
(dp2133
sg82
g2119
sg75
(lp2134
g68
(g69
g70
NtRp2135
(dp2136
g73
(dp2137
g81
I3
ssg82
g2131
sg75
(lp2138
S''
asbasbasbasbasbasbasbag68
(g84
g70
NtRp2139
(dp2140
g73
(dp2141
sg82
g267
sg75
(lp2142
g68
(g89
g70
NtRp2143
(dp2144
g73
(dp2145
g93
g94
ssg82
g2139
sg75
(lp2146
S'session_id_serc'
p2147
asbag68
(g89
g70
NtRp2148
(dp2149
g73
(dp2150
g100
g101
ssg82
g2139
sg75
(lp2151
S':'
asbag68
(g89
g70
NtRp2152
(dp2153
g73
(dp2154
sg82
g2139
sg75
(lp2155
g68
(g69
g70
NtRp2156
(dp2157
g73
(dp2158
g81
I4
ssg82
g2152
sg75
(lp2159
S'127.0.0.1-4ba64b28-9f26-46de-9d97-2038a1a727dd'
p2160
ag68
(g77
g70
NtRp2161
(dp2162
g73
(dp2163
g81
I3
ssg82
Nsg75
(lp2164
g68
(g84
g70
NtRp2165
(dp2166
g73
(dp2167
sg82
g2161
sg75
(lp2168
g68
(g89
g70
NtRp2169
(dp2170
g73
(dp2171
g93
g94
ssg82
g2165
sg75
(lp2172
g305
asbag68
(g89
g70
NtRp2173
(dp2174
g73
(dp2175
g100
g101
ssg82
g2165
sg75
(lp2176
S':'
asbag68
(g89
g70
NtRp2177
(dp2178
g73
(dp2179
sg82
g2165
sg75
(lp2180
g68
(g69
g70
NtRp2181
(dp2182
g73
(dp2183
g81
I3
ssg82
g2177
sg75
(lp2184
S''
asbasbasbag68
(g84
g70
NtRp2185
(dp2186
g73
(dp2187
sg82
g2161
sg75
(lp2188
g68
(g89
g70
NtRp2189
(dp2190
g73
(dp2191
g93
g94
ssg82
g2185
sg75
(lp2192
g326
asbag68
(g89
g70
NtRp2193
(dp2194
g73
(dp2195
g100
g101
ssg82
g2185
sg75
(lp2196
S':'
asbag68
(g89
g70
NtRp2197
(dp2198
g73
(dp2199
sg82
g2185
sg75
(lp2200
g68
(g69
g70
NtRp2201
(dp2202
g73
(dp2203
g81
I3
ssg82
g2197
sg75
(lp2204
S''
asbasbasbag68
(g84
g70
NtRp2205
(dp2206
g73
(dp2207
sg82
g2161
sg75
(lp2208
g68
(g89
g70
NtRp2209
(dp2210
g73
(dp2211
g93
g94
ssg82
g2205
sg75
(lp2212
g347
asbag68
(g89
g70
NtRp2213
(dp2214
g73
(dp2215
g100
g101
ssg82
g2205
sg75
(lp2216
S':'
asbag68
(g89
g70
NtRp2217
(dp2218
g73
(dp2219
sg82
g2205
sg75
(lp2220
g68
(g69
g70
NtRp2221
(dp2222
g73
(dp2223
g81
I3
ssg82
g2217
sg75
(lp2224
S''
asbasbasbag68
(g84
g70
NtRp2225
(dp2226
g73
(dp2227
sg82
g2161
sg75
(lp2228
g68
(g89
g70
NtRp2229
(dp2230
g73
(dp2231
g93
g94
ssg82
g2225
sg75
(lp2232
g368
asbag68
(g89
g70
NtRp2233
(dp2234
g73
(dp2235
g100
g101
ssg82
g2225
sg75
(lp2236
S':'
asbag68
(g89
g70
NtRp2237
(dp2238
g73
(dp2239
sg82
g2225
sg75
(lp2240
g68
(g69
g70
NtRp2241
(dp2242
g73
(dp2243
g81
I3
ssg82
g2237
sg75
(lp2244
S''
asbasbasbag68
(g84
g70
NtRp2245
(dp2246
g73
(dp2247
sg82
g2161
sg75
(lp2248
g68
(g89
g70
NtRp2249
(dp2250
g73
(dp2251
g93
g94
ssg82
g2245
sg75
(lp2252
g389
asbag68
(g89
g70
NtRp2253
(dp2254
g73
(dp2255
g100
g101
ssg82
g2245
sg75
(lp2256
S':'
asbag68
(g89
g70
NtRp2257
(dp2258
g73
(dp2259
sg82
g2245
sg75
(lp2260
g68
(g69
g70
NtRp2261
(dp2262
g73
(dp2263
g81
I3
ssg82
g2257
sg75
(lp2264
S''
asbasbasbag68
(g84
g70
NtRp2265
(dp2266
g73
(dp2267
sg82
g2161
sg75
(lp2268
g68
(g89
g70
NtRp2269
(dp2270
g73
(dp2271
g93
g94
ssg82
g2265
sg75
(lp2272
g410
asbag68
(g89
g70
NtRp2273
(dp2274
g73
(dp2275
g100
g101
ssg82
g2265
sg75
(lp2276
S':'
asbag68
(g89
g70
NtRp2277
(dp2278
g73
(dp2279
sg82
g2265
sg75
(lp2280
g68
(g69
g70
NtRp2281
(dp2282
g73
(dp2283
g81
I3
ssg82
g2277
sg75
(lp2284
S''
asbasbasbag68
(g84
g70
NtRp2285
(dp2286
g73
(dp2287
sg82
g2161
sg75
(lp2288
g68
(g89
g70
NtRp2289
(dp2290
g73
(dp2291
g93
g94
ssg82
g2285
sg75
(lp2292
g431
asbag68
(g89
g70
NtRp2293
(dp2294
g73
(dp2295
g100
g101
ssg82
g2285
sg75
(lp2296
S':'
asbag68
(g89
g70
NtRp2297
(dp2298
g73
(dp2299
sg82
g2285
sg75
(lp2300
g68
(g69
g70
NtRp2301
(dp2302
g73
(dp2303
g81
I3
ssg82
g2297
sg75
(lp2304
S''
asbasbasbag68
(g84
g70
NtRp2305
(dp2306
g73
(dp2307
sg82
g2161
sg75
(lp2308
g68
(g89
g70
NtRp2309
(dp2310
g73
(dp2311
g93
g94
ssg82
g2305
sg75
(lp2312
g452
asbag68
(g89
g70
NtRp2313
(dp2314
g73
(dp2315
g100
g101
ssg82
g2305
sg75
(lp2316
S':'
asbag68
(g89
g70
NtRp2317
(dp2318
g73
(dp2319
sg82
g2305
sg75
(lp2320
g68
(g69
g70
NtRp2321
(dp2322
g73
(dp2323
g81
I3
ssg82
g2317
sg75
(lp2324
S''
asbasbasbasbasbasbasbag68
(g84
g70
NtRp2325
(dp2326
g73
(dp2327
sg82
g267
sg75
(lp2328
g68
(g89
g70
NtRp2329
(dp2330
g73
(dp2331
g93
g94
ssg82
g2325
sg75
(lp2332
S'session_id_survey'
p2333
asbag68
(g89
g70
NtRp2334
(dp2335
g73
(dp2336
g100
g101
ssg82
g2325
sg75
(lp2337
S':'
asbag68
(g89
g70
NtRp2338
(dp2339
g73
(dp2340
sg82
g2325
sg75
(lp2341
g68
(g69
g70
NtRp2342
(dp2343
g73
(dp2344
g81
I4
ssg82
g2338
sg75
(lp2345
S'127.0.0.1-11471859-ac59-4dbb-b26b-d05d1ed5f9fd'
p2346
ag68
(g77
g70
NtRp2347
(dp2348
g73
(dp2349
g81
I3
ssg82
Nsg75
(lp2350
g68
(g84
g70
NtRp2351
(dp2352
g73
(dp2353
sg82
g2347
sg75
(lp2354
g68
(g89
g70
NtRp2355
(dp2356
g73
(dp2357
g93
g94
ssg82
g2351
sg75
(lp2358
g305
asbag68
(g89
g70
NtRp2359
(dp2360
g73
(dp2361
g100
g101
ssg82
g2351
sg75
(lp2362
S':'
asbag68
(g89
g70
NtRp2363
(dp2364
g73
(dp2365
sg82
g2351
sg75
(lp2366
g68
(g69
g70
NtRp2367
(dp2368
g73
(dp2369
g81
I3
ssg82
g2363
sg75
(lp2370
S''
asbasbasbag68
(g84
g70
NtRp2371
(dp2372
g73
(dp2373
sg82
g2347
sg75
(lp2374
g68
(g89
g70
NtRp2375
(dp2376
g73
(dp2377
g93
g94
ssg82
g2371
sg75
(lp2378
g326
asbag68
(g89
g70
NtRp2379
(dp2380
g73
(dp2381
g100
g101
ssg82
g2371
sg75
(lp2382
S':'
asbag68
(g89
g70
NtRp2383
(dp2384
g73
(dp2385
sg82
g2371
sg75
(lp2386
g68
(g69
g70
NtRp2387
(dp2388
g73
(dp2389
g81
I3
ssg82
g2383
sg75
(lp2390
S''
asbasbasbag68
(g84
g70
NtRp2391
(dp2392
g73
(dp2393
sg82
g2347
sg75
(lp2394
g68
(g89
g70
NtRp2395
(dp2396
g73
(dp2397
g93
g94
ssg82
g2391
sg75
(lp2398
g347
asbag68
(g89
g70
NtRp2399
(dp2400
g73
(dp2401
g100
g101
ssg82
g2391
sg75
(lp2402
S':'
asbag68
(g89
g70
NtRp2403
(dp2404
g73
(dp2405
sg82
g2391
sg75
(lp2406
g68
(g69
g70
NtRp2407
(dp2408
g73
(dp2409
g81
I3
ssg82
g2403
sg75
(lp2410
S''
asbasbasbag68
(g84
g70
NtRp2411
(dp2412
g73
(dp2413
sg82
g2347
sg75
(lp2414
g68
(g89
g70
NtRp2415
(dp2416
g73
(dp2417
g93
g94
ssg82
g2411
sg75
(lp2418
g368
asbag68
(g89
g70
NtRp2419
(dp2420
g73
(dp2421
g100
g101
ssg82
g2411
sg75
(lp2422
S':'
asbag68
(g89
g70
NtRp2423
(dp2424
g73
(dp2425
sg82
g2411
sg75
(lp2426
g68
(g69
g70
NtRp2427
(dp2428
g73
(dp2429
g81
I3
ssg82
g2423
sg75
(lp2430
S''
asbasbasbag68
(g84
g70
NtRp2431
(dp2432
g73
(dp2433
sg82
g2347
sg75
(lp2434
g68
(g89
g70
NtRp2435
(dp2436
g73
(dp2437
g93
g94
ssg82
g2431
sg75
(lp2438
g389
asbag68
(g89
g70
NtRp2439
(dp2440
g73
(dp2441
g100
g101
ssg82
g2431
sg75
(lp2442
S':'
asbag68
(g89
g70
NtRp2443
(dp2444
g73
(dp2445
sg82
g2431
sg75
(lp2446
g68
(g69
g70
NtRp2447
(dp2448
g73
(dp2449
g81
I3
ssg82
g2443
sg75
(lp2450
S''
asbasbasbag68
(g84
g70
NtRp2451
(dp2452
g73
(dp2453
sg82
g2347
sg75
(lp2454
g68
(g89
g70
NtRp2455
(dp2456
g73
(dp2457
g93
g94
ssg82
g2451
sg75
(lp2458
g410
asbag68
(g89
g70
NtRp2459
(dp2460
g73
(dp2461
g100
g101
ssg82
g2451
sg75
(lp2462
S':'
asbag68
(g89
g70
NtRp2463
(dp2464
g73
(dp2465
sg82
g2451
sg75
(lp2466
g68
(g69
g70
NtRp2467
(dp2468
g73
(dp2469
g81
I3
ssg82
g2463
sg75
(lp2470
S''
asbasbasbag68
(g84
g70
NtRp2471
(dp2472
g73
(dp2473
sg82
g2347
sg75
(lp2474
g68
(g89
g70
NtRp2475
(dp2476
g73
(dp2477
g93
g94
ssg82
g2471
sg75
(lp2478
g431
asbag68
(g89
g70
NtRp2479
(dp2480
g73
(dp2481
g100
g101
ssg82
g2471
sg75
(lp2482
S':'
asbag68
(g89
g70
NtRp2483
(dp2484
g73
(dp2485
sg82
g2471
sg75
(lp2486
g68
(g69
g70
NtRp2487
(dp2488
g73
(dp2489
g81
I3
ssg82
g2483
sg75
(lp2490
S''
asbasbasbag68
(g84
g70
NtRp2491
(dp2492
g73
(dp2493
sg82
g2347
sg75
(lp2494
g68
(g89
g70
NtRp2495
(dp2496
g73
(dp2497
g93
g94
ssg82
g2491
sg75
(lp2498
g452
asbag68
(g89
g70
NtRp2499
(dp2500
g73
(dp2501
g100
g101
ssg82
g2491
sg75
(lp2502
S':'
asbag68
(g89
g70
NtRp2503
(dp2504
g73
(dp2505
sg82
g2491
sg75
(lp2506
g68
(g69
g70
NtRp2507
(dp2508
g73
(dp2509
g81
I3
ssg82
g2503
sg75
(lp2510
S''
asbasbasbasbasbasbasbag68
(g84
g70
NtRp2511
(dp2512
g73
(dp2513
sg82
g267
sg75
(lp2514
g68
(g89
g70
NtRp2515
(dp2516
g73
(dp2517
g93
g94
ssg82
g2511
sg75
(lp2518
S'session_id_taship'
p2519
asbag68
(g89
g70
NtRp2520
(dp2521
g73
(dp2522
g100
g101
ssg82
g2511
sg75
(lp2523
S':'
asbag68
(g89
g70
NtRp2524
(dp2525
g73
(dp2526
sg82
g2511
sg75
(lp2527
g68
(g69
g70
NtRp2528
(dp2529
g73
(dp2530
g81
I4
ssg82
g2524
sg75
(lp2531
S'127.0.0.1-546c086b-cc9a-49ea-8a01-88e3b411c0b7'
p2532
ag68
(g77
g70
NtRp2533
(dp2534
g73
(dp2535
g81
I3
ssg82
Nsg75
(lp2536
g68
(g84
g70
NtRp2537
(dp2538
g73
(dp2539
sg82
g2533
sg75
(lp2540
g68
(g89
g70
NtRp2541
(dp2542
g73
(dp2543
g93
g94
ssg82
g2537
sg75
(lp2544
g305
asbag68
(g89
g70
NtRp2545
(dp2546
g73
(dp2547
g100
g101
ssg82
g2537
sg75
(lp2548
S':'
asbag68
(g89
g70
NtRp2549
(dp2550
g73
(dp2551
sg82
g2537
sg75
(lp2552
g68
(g69
g70
NtRp2553
(dp2554
g73
(dp2555
g81
I3
ssg82
g2549
sg75
(lp2556
S''
asbasbasbag68
(g84
g70
NtRp2557
(dp2558
g73
(dp2559
sg82
g2533
sg75
(lp2560
g68
(g89
g70
NtRp2561
(dp2562
g73
(dp2563
g93
g94
ssg82
g2557
sg75
(lp2564
g326
asbag68
(g89
g70
NtRp2565
(dp2566
g73
(dp2567
g100
g101
ssg82
g2557
sg75
(lp2568
S':'
asbag68
(g89
g70
NtRp2569
(dp2570
g73
(dp2571
sg82
g2557
sg75
(lp2572
g68
(g69
g70
NtRp2573
(dp2574
g73
(dp2575
g81
I3
ssg82
g2569
sg75
(lp2576
S''
asbasbasbag68
(g84
g70
NtRp2577
(dp2578
g73
(dp2579
sg82
g2533
sg75
(lp2580
g68
(g89
g70
NtRp2581
(dp2582
g73
(dp2583
g93
g94
ssg82
g2577
sg75
(lp2584
g347
asbag68
(g89
g70
NtRp2585
(dp2586
g73
(dp2587
g100
g101
ssg82
g2577
sg75
(lp2588
S':'
asbag68
(g89
g70
NtRp2589
(dp2590
g73
(dp2591
sg82
g2577
sg75
(lp2592
g68
(g69
g70
NtRp2593
(dp2594
g73
(dp2595
g81
I3
ssg82
g2589
sg75
(lp2596
S''
asbasbasbag68
(g84
g70
NtRp2597
(dp2598
g73
(dp2599
sg82
g2533
sg75
(lp2600
g68
(g89
g70
NtRp2601
(dp2602
g73
(dp2603
g93
g94
ssg82
g2597
sg75
(lp2604
g368
asbag68
(g89
g70
NtRp2605
(dp2606
g73
(dp2607
g100
g101
ssg82
g2597
sg75
(lp2608
S':'
asbag68
(g89
g70
NtRp2609
(dp2610
g73
(dp2611
sg82
g2597
sg75
(lp2612
g68
(g69
g70
NtRp2613
(dp2614
g73
(dp2615
g81
I3
ssg82
g2609
sg75
(lp2616
S''
asbasbasbag68
(g84
g70
NtRp2617
(dp2618
g73
(dp2619
sg82
g2533
sg75
(lp2620
g68
(g89
g70
NtRp2621
(dp2622
g73
(dp2623
g93
g94
ssg82
g2617
sg75
(lp2624
g389
asbag68
(g89
g70
NtRp2625
(dp2626
g73
(dp2627
g100
g101
ssg82
g2617
sg75
(lp2628
S':'
asbag68
(g89
g70
NtRp2629
(dp2630
g73
(dp2631
sg82
g2617
sg75
(lp2632
g68
(g69
g70
NtRp2633
(dp2634
g73
(dp2635
g81
I3
ssg82
g2629
sg75
(lp2636
S''
asbasbasbag68
(g84
g70
NtRp2637
(dp2638
g73
(dp2639
sg82
g2533
sg75
(lp2640
g68
(g89
g70
NtRp2641
(dp2642
g73
(dp2643
g93
g94
ssg82
g2637
sg75
(lp2644
g410
asbag68
(g89
g70
NtRp2645
(dp2646
g73
(dp2647
g100
g101
ssg82
g2637
sg75
(lp2648
S':'
asbag68
(g89
g70
NtRp2649
(dp2650
g73
(dp2651
sg82
g2637
sg75
(lp2652
g68
(g69
g70
NtRp2653
(dp2654
g73
(dp2655
g81
I3
ssg82
g2649
sg75
(lp2656
S''
asbasbasbag68
(g84
g70
NtRp2657
(dp2658
g73
(dp2659
sg82
g2533
sg75
(lp2660
g68
(g89
g70
NtRp2661
(dp2662
g73
(dp2663
g93
g94
ssg82
g2657
sg75
(lp2664
g431
asbag68
(g89
g70
NtRp2665
(dp2666
g73
(dp2667
g100
g101
ssg82
g2657
sg75
(lp2668
S':'
asbag68
(g89
g70
NtRp2669
(dp2670
g73
(dp2671
sg82
g2657
sg75
(lp2672
g68
(g69
g70
NtRp2673
(dp2674
g73
(dp2675
g81
I3
ssg82
g2669
sg75
(lp2676
S''
asbasbasbag68
(g84
g70
NtRp2677
(dp2678
g73
(dp2679
sg82
g2533
sg75
(lp2680
g68
(g89
g70
NtRp2681
(dp2682
g73
(dp2683
g93
g94
ssg82
g2677
sg75
(lp2684
g452
asbag68
(g89
g70
NtRp2685
(dp2686
g73
(dp2687
g100
g101
ssg82
g2677
sg75
(lp2688
S':'
asbag68
(g89
g70
NtRp2689
(dp2690
g73
(dp2691
sg82
g2677
sg75
(lp2692
g68
(g69
g70
NtRp2693
(dp2694
g73
(dp2695
g81
I3
ssg82
g2689
sg75
(lp2696
S''
asbasbasbasbasbasbasbag68
(g84
g70
NtRp2697
(dp2698
g73
(dp2699
sg82
g267
sg75
(lp2700
g68
(g89
g70
NtRp2701
(dp2702
g73
(dp2703
g93
g94
ssg82
g2697
sg75
(lp2704
S'session_id_test'
p2705
asbag68
(g89
g70
NtRp2706
(dp2707
g73
(dp2708
g100
g101
ssg82
g2697
sg75
(lp2709
S':'
asbag68
(g89
g70
NtRp2710
(dp2711
g73
(dp2712
sg82
g2697
sg75
(lp2713
g68
(g69
g70
NtRp2714
(dp2715
g73
(dp2716
g81
I4
ssg82
g2710
sg75
(lp2717
S'127.0.0.1-fd7c879f-51db-4919-b1ed-ba91e8b59325'
p2718
ag68
(g77
g70
NtRp2719
(dp2720
g73
(dp2721
g81
I3
ssg82
Nsg75
(lp2722
g68
(g84
g70
NtRp2723
(dp2724
g73
(dp2725
sg82
g2719
sg75
(lp2726
g68
(g89
g70
NtRp2727
(dp2728
g73
(dp2729
g93
g94
ssg82
g2723
sg75
(lp2730
g305
asbag68
(g89
g70
NtRp2731
(dp2732
g73
(dp2733
g100
g101
ssg82
g2723
sg75
(lp2734
S':'
asbag68
(g89
g70
NtRp2735
(dp2736
g73
(dp2737
sg82
g2723
sg75
(lp2738
g68
(g69
g70
NtRp2739
(dp2740
g73
(dp2741
g81
I3
ssg82
g2735
sg75
(lp2742
S''
asbasbasbag68
(g84
g70
NtRp2743
(dp2744
g73
(dp2745
sg82
g2719
sg75
(lp2746
g68
(g89
g70
NtRp2747
(dp2748
g73
(dp2749
g93
g94
ssg82
g2743
sg75
(lp2750
g326
asbag68
(g89
g70
NtRp2751
(dp2752
g73
(dp2753
g100
g101
ssg82
g2743
sg75
(lp2754
S':'
asbag68
(g89
g70
NtRp2755
(dp2756
g73
(dp2757
sg82
g2743
sg75
(lp2758
g68
(g69
g70
NtRp2759
(dp2760
g73
(dp2761
g81
I3
ssg82
g2755
sg75
(lp2762
S''
asbasbasbag68
(g84
g70
NtRp2763
(dp2764
g73
(dp2765
sg82
g2719
sg75
(lp2766
g68
(g89
g70
NtRp2767
(dp2768
g73
(dp2769
g93
g94
ssg82
g2763
sg75
(lp2770
g347
asbag68
(g89
g70
NtRp2771
(dp2772
g73
(dp2773
g100
g101
ssg82
g2763
sg75
(lp2774
S':'
asbag68
(g89
g70
NtRp2775
(dp2776
g73
(dp2777
sg82
g2763
sg75
(lp2778
g68
(g69
g70
NtRp2779
(dp2780
g73
(dp2781
g81
I3
ssg82
g2775
sg75
(lp2782
S''
asbasbasbag68
(g84
g70
NtRp2783
(dp2784
g73
(dp2785
sg82
g2719
sg75
(lp2786
g68
(g89
g70
NtRp2787
(dp2788
g73
(dp2789
g93
g94
ssg82
g2783
sg75
(lp2790
g368
asbag68
(g89
g70
NtRp2791
(dp2792
g73
(dp2793
g100
g101
ssg82
g2783
sg75
(lp2794
S':'
asbag68
(g89
g70
NtRp2795
(dp2796
g73
(dp2797
sg82
g2783
sg75
(lp2798
g68
(g69
g70
NtRp2799
(dp2800
g73
(dp2801
g81
I3
ssg82
g2795
sg75
(lp2802
S''
asbasbasbag68
(g84
g70
NtRp2803
(dp2804
g73
(dp2805
sg82
g2719
sg75
(lp2806
g68
(g89
g70
NtRp2807
(dp2808
g73
(dp2809
g93
g94
ssg82
g2803
sg75
(lp2810
g389
asbag68
(g89
g70
NtRp2811
(dp2812
g73
(dp2813
g100
g101
ssg82
g2803
sg75
(lp2814
S':'
asbag68
(g89
g70
NtRp2815
(dp2816
g73
(dp2817
sg82
g2803
sg75
(lp2818
g68
(g69
g70
NtRp2819
(dp2820
g73
(dp2821
g81
I3
ssg82
g2815
sg75
(lp2822
S''
asbasbasbag68
(g84
g70
NtRp2823
(dp2824
g73
(dp2825
sg82
g2719
sg75
(lp2826
g68
(g89
g70
NtRp2827
(dp2828
g73
(dp2829
g93
g94
ssg82
g2823
sg75
(lp2830
g410
asbag68
(g89
g70
NtRp2831
(dp2832
g73
(dp2833
g100
g101
ssg82
g2823
sg75
(lp2834
S':'
asbag68
(g89
g70
NtRp2835
(dp2836
g73
(dp2837
sg82
g2823
sg75
(lp2838
g68
(g69
g70
NtRp2839
(dp2840
g73
(dp2841
g81
I3
ssg82
g2835
sg75
(lp2842
S''
asbasbasbag68
(g84
g70
NtRp2843
(dp2844
g73
(dp2845
sg82
g2719
sg75
(lp2846
g68
(g89
g70
NtRp2847
(dp2848
g73
(dp2849
g93
g94
ssg82
g2843
sg75
(lp2850
g431
asbag68
(g89
g70
NtRp2851
(dp2852
g73
(dp2853
g100
g101
ssg82
g2843
sg75
(lp2854
S':'
asbag68
(g89
g70
NtRp2855
(dp2856
g73
(dp2857
sg82
g2843
sg75
(lp2858
g68
(g69
g70
NtRp2859
(dp2860
g73
(dp2861
g81
I3
ssg82
g2855
sg75
(lp2862
S''
asbasbasbag68
(g84
g70
NtRp2863
(dp2864
g73
(dp2865
sg82
g2719
sg75
(lp2866
g68
(g89
g70
NtRp2867
(dp2868
g73
(dp2869
g93
g94
ssg82
g2863
sg75
(lp2870
g452
asbag68
(g89
g70
NtRp2871
(dp2872
g73
(dp2873
g100
g101
ssg82
g2863
sg75
(lp2874
S':'
asbag68
(g89
g70
NtRp2875
(dp2876
g73
(dp2877
sg82
g2863
sg75
(lp2878
g68
(g69
g70
NtRp2879
(dp2880
g73
(dp2881
g81
I3
ssg82
g2875
sg75
(lp2882
S''
asbasbasbasbasbasbasbag68
(g84
g70
NtRp2883
(dp2884
g73
(dp2885
sg82
g267
sg75
(lp2886
g68
(g89
g70
NtRp2887
(dp2888
g73
(dp2889
g93
g94
ssg82
g2883
sg75
(lp2890
S'session_id_welcome'
p2891
asbag68
(g89
g70
NtRp2892
(dp2893
g73
(dp2894
g100
g101
ssg82
g2883
sg75
(lp2895
S':'
asbag68
(g89
g70
NtRp2896
(dp2897
g73
(dp2898
sg82
g2883
sg75
(lp2899
g68
(g69
g70
NtRp2900
(dp2901
g73
(dp2902
g81
I4
ssg82
g2896
sg75
(lp2903
S'127.0.0.1-40e56d65-60f2-4b2b-8123-c6cd4e4e3f3d'
p2904
ag68
(g77
g70
NtRp2905
(dp2906
g73
(dp2907
g81
I3
ssg82
Nsg75
(lp2908
g68
(g84
g70
NtRp2909
(dp2910
g73
(dp2911
sg82
g2905
sg75
(lp2912
g68
(g89
g70
NtRp2913
(dp2914
g73
(dp2915
g93
g94
ssg82
g2909
sg75
(lp2916
g305
asbag68
(g89
g70
NtRp2917
(dp2918
g73
(dp2919
g100
g101
ssg82
g2909
sg75
(lp2920
S':'
asbag68
(g89
g70
NtRp2921
(dp2922
g73
(dp2923
sg82
g2909
sg75
(lp2924
g68
(g69
g70
NtRp2925
(dp2926
g73
(dp2927
g81
I3
ssg82
g2921
sg75
(lp2928
S''
asbasbasbag68
(g84
g70
NtRp2929
(dp2930
g73
(dp2931
sg82
g2905
sg75
(lp2932
g68
(g89
g70
NtRp2933
(dp2934
g73
(dp2935
g93
g94
ssg82
g2929
sg75
(lp2936
g326
asbag68
(g89
g70
NtRp2937
(dp2938
g73
(dp2939
g100
g101
ssg82
g2929
sg75
(lp2940
S':'
asbag68
(g89
g70
NtRp2941
(dp2942
g73
(dp2943
sg82
g2929
sg75
(lp2944
g68
(g69
g70
NtRp2945
(dp2946
g73
(dp2947
g81
I3
ssg82
g2941
sg75
(lp2948
S''
asbasbasbag68
(g84
g70
NtRp2949
(dp2950
g73
(dp2951
sg82
g2905
sg75
(lp2952
g68
(g89
g70
NtRp2953
(dp2954
g73
(dp2955
g93
g94
ssg82
g2949
sg75
(lp2956
g347
asbag68
(g89
g70
NtRp2957
(dp2958
g73
(dp2959
g100
g101
ssg82
g2949
sg75
(lp2960
S':'
asbag68
(g89
g70
NtRp2961
(dp2962
g73
(dp2963
sg82
g2949
sg75
(lp2964
g68
(g69
g70
NtRp2965
(dp2966
g73
(dp2967
g81
I3
ssg82
g2961
sg75
(lp2968
S''
asbasbasbag68
(g84
g70
NtRp2969
(dp2970
g73
(dp2971
sg82
g2905
sg75
(lp2972
g68
(g89
g70
NtRp2973
(dp2974
g73
(dp2975
g93
g94
ssg82
g2969
sg75
(lp2976
g368
asbag68
(g89
g70
NtRp2977
(dp2978
g73
(dp2979
g100
g101
ssg82
g2969
sg75
(lp2980
S':'
asbag68
(g89
g70
NtRp2981
(dp2982
g73
(dp2983
sg82
g2969
sg75
(lp2984
g68
(g69
g70
NtRp2985
(dp2986
g73
(dp2987
g81
I3
ssg82
g2981
sg75
(lp2988
S''
asbasbasbag68
(g84
g70
NtRp2989
(dp2990
g73
(dp2991
sg82
g2905
sg75
(lp2992
g68
(g89
g70
NtRp2993
(dp2994
g73
(dp2995
g93
g94
ssg82
g2989
sg75
(lp2996
g389
asbag68
(g89
g70
NtRp2997
(dp2998
g73
(dp2999
g100
g101
ssg82
g2989
sg75
(lp3000
S':'
asbag68
(g89
g70
NtRp3001
(dp3002
g73
(dp3003
sg82
g2989
sg75
(lp3004
g68
(g69
g70
NtRp3005
(dp3006
g73
(dp3007
g81
I3
ssg82
g3001
sg75
(lp3008
S''
asbasbasbag68
(g84
g70
NtRp3009
(dp3010
g73
(dp3011
sg82
g2905
sg75
(lp3012
g68
(g89
g70
NtRp3013
(dp3014
g73
(dp3015
g93
g94
ssg82
g3009
sg75
(lp3016
g410
asbag68
(g89
g70
NtRp3017
(dp3018
g73
(dp3019
g100
g101
ssg82
g3009
sg75
(lp3020
S':'
asbag68
(g89
g70
NtRp3021
(dp3022
g73
(dp3023
sg82
g3009
sg75
(lp3024
g68
(g69
g70
NtRp3025
(dp3026
g73
(dp3027
g81
I3
ssg82
g3021
sg75
(lp3028
S''
asbasbasbag68
(g84
g70
NtRp3029
(dp3030
g73
(dp3031
sg82
g2905
sg75
(lp3032
g68
(g89
g70
NtRp3033
(dp3034
g73
(dp3035
g93
g94
ssg82
g3029
sg75
(lp3036
g431
asbag68
(g89
g70
NtRp3037
(dp3038
g73
(dp3039
g100
g101
ssg82
g3029
sg75
(lp3040
S':'
asbag68
(g89
g70
NtRp3041
(dp3042
g73
(dp3043
sg82
g3029
sg75
(lp3044
g68
(g69
g70
NtRp3045
(dp3046
g73
(dp3047
g81
I3
ssg82
g3041
sg75
(lp3048
S''
asbasbasbag68
(g84
g70
NtRp3049
(dp3050
g73
(dp3051
sg82
g2905
sg75
(lp3052
g68
(g89
g70
NtRp3053
(dp3054
g73
(dp3055
g93
g94
ssg82
g3049
sg75
(lp3056
g452
asbag68
(g89
g70
NtRp3057
(dp3058
g73
(dp3059
g100
g101
ssg82
g3049
sg75
(lp3060
S':'
asbag68
(g89
g70
NtRp3061
(dp3062
g73
(dp3063
sg82
g3049
sg75
(lp3064
g68
(g69
g70
NtRp3065
(dp3066
g73
(dp3067
g81
I3
ssg82
g3061
sg75
(lp3068
S''
asbasbasbasbasbasbasbasbasbasbasbag68
(g84
g70
NtRp3069
(dp3070
g73
(dp3071
sg82
g78
sg75
(lp3072
g68
(g89
g70
NtRp3073
(dp3074
g73
(dp3075
g93
g94
ssg82
g3069
sg75
(lp3076
S'env'
p3077
asbag68
(g89
g70
NtRp3078
(dp3079
g73
(dp3080
g100
g101
ssg82
g3069
sg75
(lp3081
S':'
asbag68
(g89
g70
NtRp3082
(dp3083
g73
(dp3084
sg82
g3069
sg75
(lp3085
g68
(g69
g70
NtRp3086
(dp3087
g73
(dp3088
g81
I5
ssg82
g3082
sg75
(lp3089
g68
(g77
g70
NtRp3090
(dp3091
g73
(dp3092
g81
I4
ssg82
Nsg75
(lp3093
g68
(g84
g70
NtRp3094
(dp3095
g73
(dp3096
sg82
g3090
sg75
(lp3097
g68
(g89
g70
NtRp3098
(dp3099
g73
(dp3100
g93
g94
ssg82
g3094
sg75
(lp3101
S'app_folders'
p3102
asbag68
(g89
g70
NtRp3103
(dp3104
g73
(dp3105
g100
g101
ssg82
g3094
sg75
(lp3106
S':'
asbag68
(g89
g70
NtRp3107
(dp3108
g73
(dp3109
sg82
g3094
sg75
(lp3110
g68
(g69
g70
NtRp3111
(dp3112
g73
(dp3113
g81
I4
ssg82
g3107
sg75
(lp3114
S"set(['/home/mayank/Desktop/web2pyAdmin/web2py/web2py/applications/welcome/', '/home/mayank/Desktop/web2pyAdmin/web2py/web2py/applications/admin/', '/home/mayank/Desktop/web2pyAdmin/web2py/web2py/applications/FunkLoad/'])"
p3115
asbasbasbag68
(g84
g70
NtRp3116
(dp3117
g73
(dp3118
sg82
g3090
sg75
(lp3119
g68
(g89
g70
NtRp3120
(dp3121
g73
(dp3122
g93
g94
ssg82
g3116
sg75
(lp3123
S'applications_parent'
p3124
asbag68
(g89
g70
NtRp3125
(dp3126
g73
(dp3127
g100
g101
ssg82
g3116
sg75
(lp3128
S':'
asbag68
(g89
g70
NtRp3129
(dp3130
g73
(dp3131
sg82
g3116
sg75
(lp3132
g68
(g69
g70
NtRp3133
(dp3134
g73
(dp3135
g81
I4
ssg82
g3129
sg75
(lp3136
S'/home/mayank/Desktop/web2pyAdmin/web2py/web2py'
p3137
asbasbasbag68
(g84
g70
NtRp3138
(dp3139
g73
(dp3140
sg82
g3090
sg75
(lp3141
g68
(g89
g70
NtRp3142
(dp3143
g73
(dp3144
g93
g94
ssg82
g3138
sg75
(lp3145
S'cmd_args'
p3146
asbag68
(g89
g70
NtRp3147
(dp3148
g73
(dp3149
g100
g101
ssg82
g3138
sg75
(lp3150
S':'
asbag68
(g89
g70
NtRp3151
(dp3152
g73
(dp3153
sg82
g3138
sg75
(lp3154
g68
(g69
g70
NtRp3155
(dp3156
g73
(dp3157
g81
I4
ssg82
g3151
sg75
(lp3158
g68
(g77
g70
NtRp3159
(dp3160
g73
(dp3161
g81
I3
ssg82
Nsg75
(lp3162
sbasbasbasbag68
(g84
g70
NtRp3163
(dp3164
g73
(dp3165
sg82
g3090
sg75
(lp3166
g68
(g89
g70
NtRp3167
(dp3168
g73
(dp3169
g93
g94
ssg82
g3163
sg75
(lp3170
S'cmd_options'
p3171
asbag68
(g89
g70
NtRp3172
(dp3173
g73
(dp3174
g100
g101
ssg82
g3163
sg75
(lp3175
S':'
asbag68
(g89
g70
NtRp3176
(dp3177
g73
(dp3178
sg82
g3163
sg75
(lp3179
g68
(g69
g70
NtRp3180
(dp3181
g73
(dp3182
g81
I4
ssg82
g3176
sg75
(lp3183
S"<Values at 0x181b290: {'verbose': False, 'ip': '127.0.0.1', 'with_scheduler': False, 'ips': ['127.0.1.1', '10.1.33.121'], 'shutdown_timeout': 5, 'taskbar': False, 'port': 8000, 'maxthreads': None, 'softcron': False, 'server_name': 'mayank', 'bpython': False, 'nogui': False, 'nocron': False, 'extcron': False, 'run_system_tests': False, 'test': None, 'folder': '/home/mayank/Desktop/web2pyAdmin/web2py/web2py', 'config': '', 'import_models': False, 'winservice': '', 'shell': None, 'run': '', 'log_filename': 'httpserver.log', 'debuglevel': 30, 'args': [''], 'socket_timeout': 5, 'ssl_ca_certificate': None, 'scheduler': None, 'profiler_filename': None, 'ssl_private_key': '', 'scheduler_groups': None, 'password': 'mayank', 'request_queue_size': 5, 'ssl_certificate': '', 'cronjob': False, 'numthreads': None, 'quiet': False, 'interfaces': None, 'minthreads': None, 'timeout': 10, 'plain': False, 'nobanner': False, 'pid_filename': 'httpserver.pid'}>"
p3184
asbasbasbag68
(g84
g70
NtRp3185
(dp3186
g73
(dp3187
sg82
g3090
sg75
(lp3188
g68
(g89
g70
NtRp3189
(dp3190
g73
(dp3191
g93
g94
ssg82
g3185
sg75
(lp3192
S'db_sessions'
p3193
asbag68
(g89
g70
NtRp3194
(dp3195
g73
(dp3196
g100
g101
ssg82
g3185
sg75
(lp3197
S':'
asbag68
(g89
g70
NtRp3198
(dp3199
g73
(dp3200
sg82
g3185
sg75
(lp3201
g68
(g69
g70
NtRp3202
(dp3203
g73
(dp3204
g81
I4
ssg82
g3198
sg75
(lp3205
S'set([])'
p3206
asbasbasbag68
(g84
g70
NtRp3207
(dp3208
g73
(dp3209
sg82
g3090
sg75
(lp3210
g68
(g89
g70
NtRp3211
(dp3212
g73
(dp3213
g93
g94
ssg82
g3207
sg75
(lp3214
S'debugging'
p3215
asbag68
(g89
g70
NtRp3216
(dp3217
g73
(dp3218
g100
g101
ssg82
g3207
sg75
(lp3219
S':'
asbag68
(g89
g70
NtRp3220
(dp3221
g73
(dp3222
sg82
g3207
sg75
(lp3223
g68
(g69
g70
NtRp3224
(dp3225
g73
(dp3226
g81
I4
ssg82
g3220
sg75
(lp3227
g111
asbasbasbag68
(g84
g70
NtRp3228
(dp3229
g73
(dp3230
sg82
g3090
sg75
(lp3231
g68
(g89
g70
NtRp3232
(dp3233
g73
(dp3234
g93
g94
ssg82
g3228
sg75
(lp3235
S'gluon_parent'
p3236
asbag68
(g89
g70
NtRp3237
(dp3238
g73
(dp3239
g100
g101
ssg82
g3228
sg75
(lp3240
S':'
asbag68
(g89
g70
NtRp3241
(dp3242
g73
(dp3243
sg82
g3228
sg75
(lp3244
g68
(g69
g70
NtRp3245
(dp3246
g73
(dp3247
g81
I4
ssg82
g3241
sg75
(lp3248
S'/home/mayank/Desktop/web2pyAdmin/web2py/web2py'
p3249
asbasbasbag68
(g84
g70
NtRp3250
(dp3251
g73
(dp3252
sg82
g3090
sg75
(lp3253
g68
(g89
g70
NtRp3254
(dp3255
g73
(dp3256
g93
g94
ssg82
g3250
sg75
(lp3257
S'http_accept'
p3258
asbag68
(g89
g70
NtRp3259
(dp3260
g73
(dp3261
g100
g101
ssg82
g3250
sg75
(lp3262
S':'
asbag68
(g89
g70
NtRp3263
(dp3264
g73
(dp3265
sg82
g3250
sg75
(lp3266
g68
(g69
g70
NtRp3267
(dp3268
g73
(dp3269
g81
I4
ssg82
g3263
sg75
(lp3270
S'text/html,application/xhtml+xml,application/xml;q=0.9,image/webp,*/*;q=0.8'
p3271
asbasbasbag68
(g84
g70
NtRp3272
(dp3273
g73
(dp3274
sg82
g3090
sg75
(lp3275
g68
(g89
g70
NtRp3276
(dp3277
g73
(dp3278
g93
g94
ssg82
g3272
sg75
(lp3279
S'http_accept_encoding'
p3280
asbag68
(g89
g70
NtRp3281
(dp3282
g73
(dp3283
g100
g101
ssg82
g3272
sg75
(lp3284
S':'
asbag68
(g89
g70
NtRp3285
(dp3286
g73
(dp3287
sg82
g3272
sg75
(lp3288
g68
(g69
g70
NtRp3289
(dp3290
g73
(dp3291
g81
I4
ssg82
g3285
sg75
(lp3292
S'gzip,deflate,sdch'
p3293
asbasbasbag68
(g84
g70
NtRp3294
(dp3295
g73
(dp3296
sg82
g3090
sg75
(lp3297
g68
(g89
g70
NtRp3298
(dp3299
g73
(dp3300
g93
g94
ssg82
g3294
sg75
(lp3301
S'http_accept_language'
p3302
asbag68
(g89
g70
NtRp3303
(dp3304
g73
(dp3305
g100
g101
ssg82
g3294
sg75
(lp3306
S':'
asbag68
(g89
g70
NtRp3307
(dp3308
g73
(dp3309
sg82
g3294
sg75
(lp3310
g68
(g69
g70
NtRp3311
(dp3312
g73
(dp3313
g81
I4
ssg82
g3307
sg75
(lp3314
S'en-US,en;q=0.8'
p3315
asbasbasbag68
(g84
g70
NtRp3316
(dp3317
g73
(dp3318
sg82
g3090
sg75
(lp3319
g68
(g89
g70
NtRp3320
(dp3321
g73
(dp3322
g93
g94
ssg82
g3316
sg75
(lp3323
S'http_connection'
p3324
asbag68
(g89
g70
NtRp3325
(dp3326
g73
(dp3327
g100
g101
ssg82
g3316
sg75
(lp3328
S':'
asbag68
(g89
g70
NtRp3329
(dp3330
g73
(dp3331
sg82
g3316
sg75
(lp3332
g68
(g69
g70
NtRp3333
(dp3334
g73
(dp3335
g81
I4
ssg82
g3329
sg75
(lp3336
S'keep-alive'
p3337
asbasbasbag68
(g84
g70
NtRp3338
(dp3339
g73
(dp3340
sg82
g3090
sg75
(lp3341
g68
(g89
g70
NtRp3342
(dp3343
g73
(dp3344
g93
g94
ssg82
g3338
sg75
(lp3345
S'http_cookie'
p3346
asbag68
(g89
g70
NtRp3347
(dp3348
g73
(dp3349
g100
g101
ssg82
g3338
sg75
(lp3350
S':'
asbag68
(g89
g70
NtRp3351
(dp3352
g73
(dp3353
sg82
g3338
sg75
(lp3354
g68
(g69
g70
NtRp3355
(dp3356
g73
(dp3357
g81
I4
ssg82
g3351
sg75
(lp3358
S'session_id_survey=127.0.0.1-11471859-ac59-4dbb-b26b-d05d1ed5f9fd; session_id_orentation=127.0.0.1-0ac45cd4-167b-443f-88dd-dc1703dec226; session_id_test=127.0.0.1-fd7c879f-51db-4919-b1ed-ba91e8b59325; session_id_kkk=127.0.0.1-d744a8ac-5c3d-4346-8de5-2240765037bf; session_id_attempt4=127.0.0.1-efc7b12d-c437-44c8-998b-7ce7c59157bf; session_id_attempt=127.0.0.1-71461326-318d-43aa-b478-e80f172f301b; session_id_201101004=127.0.0.1-37104b76-a05f-4c4f-b3d3-8fec1b91826f; session_id_201125035=127.0.0.1-36c9dda9-18cd-4798-bb80-7958e8854f14; session_id_serc=127.0.0.1-4ba64b28-9f26-46de-9d97-2038a1a727dd; session_id_ecesurvey=127.0.0.1-bc3583dd-f150-4d62-b588-7c1291bc84a1; session_id_placement_portal=127.0.0.1-3bec308b-1561-4ac1-ab22-997211fef898; session_id_taship=127.0.0.1-546c086b-cc9a-49ea-8a01-88e3b411c0b7; session_id_welcome=127.0.0.1-40e56d65-60f2-4b2b-8123-c6cd4e4e3f3d; session_id_admin=127.0.0.1-b03da5bd-920e-41b1-8f3a-a02aae2edb6f; session_id_funkload=127.0.0.1-cf22ecd2-40c5-41ec-a943-aeddb5bba043'
p3359
asbasbasbag68
(g84
g70
NtRp3360
(dp3361
g73
(dp3362
sg82
g3090
sg75
(lp3363
g68
(g89
g70
NtRp3364
(dp3365
g73
(dp3366
g93
g94
ssg82
g3360
sg75
(lp3367
S'http_host'
p3368
asbag68
(g89
g70
NtRp3369
(dp3370
g73
(dp3371
g100
g101
ssg82
g3360
sg75
(lp3372
S':'
asbag68
(g89
g70
NtRp3373
(dp3374
g73
(dp3375
sg82
g3360
sg75
(lp3376
g68
(g69
g70
NtRp3377
(dp3378
g73
(dp3379
g81
I4
ssg82
g3373
sg75
(lp3380
S'127.0.0.1:8000'
p3381
asbasbasbag68
(g84
g70
NtRp3382
(dp3383
g73
(dp3384
sg82
g3090
sg75
(lp3385
g68
(g89
g70
NtRp3386
(dp3387
g73
(dp3388
g93
g94
ssg82
g3382
sg75
(lp3389
S'http_referer'
p3390
asbag68
(g89
g70
NtRp3391
(dp3392
g73
(dp3393
g100
g101
ssg82
g3382
sg75
(lp3394
S':'
asbag68
(g89
g70
NtRp3395
(dp3396
g73
(dp3397
sg82
g3382
sg75
(lp3398
g68
(g69
g70
NtRp3399
(dp3400
g73
(dp3401
g81
I4
ssg82
g3395
sg75
(lp3402
S'http://127.0.0.1:8000/FunkLoad/default/user/login?_next=%2FFunkLoad%2Fdefault%2Findex'
p3403
asbasbasbag68
(g84
g70
NtRp3404
(dp3405
g73
(dp3406
sg82
g3090
sg75
(lp3407
g68
(g89
g70
NtRp3408
(dp3409
g73
(dp3410
g93
g94
ssg82
g3404
sg75
(lp3411
S'http_user_agent'
p3412
asbag68
(g89
g70
NtRp3413
(dp3414
g73
(dp3415
g100
g101
ssg82
g3404
sg75
(lp3416
S':'
asbag68
(g89
g70
NtRp3417
(dp3418
g73
(dp3419
sg82
g3404
sg75
(lp3420
g68
(g69
g70
NtRp3421
(dp3422
g73
(dp3423
g81
I4
ssg82
g3417
sg75
(lp3424
S'Mozilla/5.0 (X11; Linux x86_64) AppleWebKit/537.36 (KHTML, like Gecko) Chrome/30.0.1599.114 Safari/537.36'
p3425
asbasbasbag68
(g84
g70
NtRp3426
(dp3427
g73
(dp3428
sg82
g3090
sg75
(lp3429
g68
(g89
g70
NtRp3430
(dp3431
g73
(dp3432
g93
g94
ssg82
g3426
sg75
(lp3433
S'is_jython'
p3434
asbag68
(g89
g70
NtRp3435
(dp3436
g73
(dp3437
g100
g101
ssg82
g3426
sg75
(lp3438
S':'
asbag68
(g89
g70
NtRp3439
(dp3440
g73
(dp3441
sg82
g3426
sg75
(lp3442
g68
(g69
g70
NtRp3443
(dp3444
g73
(dp3445
g81
I4
ssg82
g3439
sg75
(lp3446
g111
asbasbasbag68
(g84
g70
NtRp3447
(dp3448
g73
(dp3449
sg82
g3090
sg75
(lp3450
g68
(g89
g70
NtRp3451
(dp3452
g73
(dp3453
g93
g94
ssg82
g3447
sg75
(lp3454
S'is_pypy'
p3455
asbag68
(g89
g70
NtRp3456
(dp3457
g73
(dp3458
g100
g101
ssg82
g3447
sg75
(lp3459
S':'
asbag68
(g89
g70
NtRp3460
(dp3461
g73
(dp3462
sg82
g3447
sg75
(lp3463
g68
(g69
g70
NtRp3464
(dp3465
g73
(dp3466
g81
I4
ssg82
g3460
sg75
(lp3467
g111
asbasbasbag68
(g84
g70
NtRp3468
(dp3469
g73
(dp3470
sg82
g3090
sg75
(lp3471
g68
(g89
g70
NtRp3472
(dp3473
g73
(dp3474
g93
g94
ssg82
g3468
sg75
(lp3475
S'path_info'
p3476
asbag68
(g89
g70
NtRp3477
(dp3478
g73
(dp3479
g100
g101
ssg82
g3468
sg75
(lp3480
S':'
asbag68
(g89
g70
NtRp3481
(dp3482
g73
(dp3483
sg82
g3468
sg75
(lp3484
g68
(g69
g70
NtRp3485
(dp3486
g73
(dp3487
g81
I4
ssg82
g3481
sg75
(lp3488
S'/FunkLoad/default/index'
p3489
asbasbasbag68
(g84
g70
NtRp3490
(dp3491
g73
(dp3492
sg82
g3090
sg75
(lp3493
g68
(g89
g70
NtRp3494
(dp3495
g73
(dp3496
g93
g94
ssg82
g3490
sg75
(lp3497
S'query_string'
p3498
asbag68
(g89
g70
NtRp3499
(dp3500
g73
(dp3501
g100
g101
ssg82
g3490
sg75
(lp3502
S':'
asbag68
(g89
g70
NtRp3503
(dp3504
g73
(dp3505
sg82
g3490
sg75
(lp3506
g68
(g69
g70
NtRp3507
(dp3508
g73
(dp3509
g81
I4
ssg82
g3503
sg75
(lp3510
S''
asbasbasbag68
(g84
g70
NtRp3511
(dp3512
g73
(dp3513
sg82
g3090
sg75
(lp3514
g68
(g89
g70
NtRp3515
(dp3516
g73
(dp3517
g93
g94
ssg82
g3511
sg75
(lp3518
S'remote_addr'
p3519
asbag68
(g89
g70
NtRp3520
(dp3521
g73
(dp3522
g100
g101
ssg82
g3511
sg75
(lp3523
S':'
asbag68
(g89
g70
NtRp3524
(dp3525
g73
(dp3526
sg82
g3511
sg75
(lp3527
g68
(g69
g70
NtRp3528
(dp3529
g73
(dp3530
g81
I4
ssg82
g3524
sg75
(lp3531
g223
asbasbasbag68
(g84
g70
NtRp3532
(dp3533
g73
(dp3534
sg82
g3090
sg75
(lp3535
g68
(g89
g70
NtRp3536
(dp3537
g73
(dp3538
g93
g94
ssg82
g3532
sg75
(lp3539
S'remote_port'
p3540
asbag68
(g89
g70
NtRp3541
(dp3542
g73
(dp3543
g100
g101
ssg82
g3532
sg75
(lp3544
S':'
asbag68
(g89
g70
NtRp3545
(dp3546
g73
(dp3547
sg82
g3532
sg75
(lp3548
g68
(g69
g70
NtRp3549
(dp3550
g73
(dp3551
g81
I4
ssg82
g3545
sg75
(lp3552
S'34450'
p3553
asbasbasbag68
(g84
g70
NtRp3554
(dp3555
g73
(dp3556
sg82
g3090
sg75
(lp3557
g68
(g89
g70
NtRp3558
(dp3559
g73
(dp3560
g93
g94
ssg82
g3554
sg75
(lp3561
S'request_method'
p3562
asbag68
(g89
g70
NtRp3563
(dp3564
g73
(dp3565
g100
g101
ssg82
g3554
sg75
(lp3566
S':'
asbag68
(g89
g70
NtRp3567
(dp3568
g73
(dp3569
sg82
g3554
sg75
(lp3570
g68
(g69
g70
NtRp3571
(dp3572
g73
(dp3573
g81
I4
ssg82
g3567
sg75
(lp3574
S'GET'
p3575
asbasbasbag68
(g84
g70
NtRp3576
(dp3577
g73
(dp3578
sg82
g3090
sg75
(lp3579
g68
(g89
g70
NtRp3580
(dp3581
g73
(dp3582
g93
g94
ssg82
g3576
sg75
(lp3583
S'request_uri'
p3584
asbag68
(g89
g70
NtRp3585
(dp3586
g73
(dp3587
g100
g101
ssg82
g3576
sg75
(lp3588
S':'
asbag68
(g89
g70
NtRp3589
(dp3590
g73
(dp3591
sg82
g3576
sg75
(lp3592
g68
(g69
g70
NtRp3593
(dp3594
g73
(dp3595
g81
I4
ssg82
g3589
sg75
(lp3596
g3489
asbasbasbag68
(g84
g70
NtRp3597
(dp3598
g73
(dp3599
sg82
g3090
sg75
(lp3600
g68
(g89
g70
NtRp3601
(dp3602
g73
(dp3603
g93
g94
ssg82
g3597
sg75
(lp3604
S'script_name'
p3605
asbag68
(g89
g70
NtRp3606
(dp3607
g73
(dp3608
g100
g101
ssg82
g3597
sg75
(lp3609
S':'
asbag68
(g89
g70
NtRp3610
(dp3611
g73
(dp3612
sg82
g3597
sg75
(lp3613
g68
(g69
g70
NtRp3614
(dp3615
g73
(dp3616
g81
I4
ssg82
g3610
sg75
(lp3617
S''
asbasbasbag68
(g84
g70
NtRp3618
(dp3619
g73
(dp3620
sg82
g3090
sg75
(lp3621
g68
(g89
g70
NtRp3622
(dp3623
g73
(dp3624
g93
g94
ssg82
g3618
sg75
(lp3625
S'server_name'
p3626
asbag68
(g89
g70
NtRp3627
(dp3628
g73
(dp3629
g100
g101
ssg82
g3618
sg75
(lp3630
S':'
asbag68
(g89
g70
NtRp3631
(dp3632
g73
(dp3633
sg82
g3618
sg75
(lp3634
g68
(g69
g70
NtRp3635
(dp3636
g73
(dp3637
g81
I4
ssg82
g3631
sg75
(lp3638
S'mayank'
p3639
asbasbasbag68
(g84
g70
NtRp3640
(dp3641
g73
(dp3642
sg82
g3090
sg75
(lp3643
g68
(g89
g70
NtRp3644
(dp3645
g73
(dp3646
g93
g94
ssg82
g3640
sg75
(lp3647
S'server_port'
p3648
asbag68
(g89
g70
NtRp3649
(dp3650
g73
(dp3651
g100
g101
ssg82
g3640
sg75
(lp3652
S':'
asbag68
(g89
g70
NtRp3653
(dp3654
g73
(dp3655
sg82
g3640
sg75
(lp3656
g68
(g69
g70
NtRp3657
(dp3658
g73
(dp3659
g81
I4
ssg82
g3653
sg75
(lp3660
S'8000'
p3661
asbasbasbag68
(g84
g70
NtRp3662
(dp3663
g73
(dp3664
sg82
g3090
sg75
(lp3665
g68
(g89
g70
NtRp3666
(dp3667
g73
(dp3668
g93
g94
ssg82
g3662
sg75
(lp3669
S'server_protocol'
p3670
asbag68
(g89
g70
NtRp3671
(dp3672
g73
(dp3673
g100
g101
ssg82
g3662
sg75
(lp3674
S':'
asbag68
(g89
g70
NtRp3675
(dp3676
g73
(dp3677
sg82
g3662
sg75
(lp3678
g68
(g69
g70
NtRp3679
(dp3680
g73
(dp3681
g81
I4
ssg82
g3675
sg75
(lp3682
S'HTTP/1.1'
p3683
asbasbasbag68
(g84
g70
NtRp3684
(dp3685
g73
(dp3686
sg82
g3090
sg75
(lp3687
g68
(g89
g70
NtRp3688
(dp3689
g73
(dp3690
g93
g94
ssg82
g3684
sg75
(lp3691
S'server_software'
p3692
asbag68
(g89
g70
NtRp3693
(dp3694
g73
(dp3695
g100
g101
ssg82
g3684
sg75
(lp3696
S':'
asbag68
(g89
g70
NtRp3697
(dp3698
g73
(dp3699
sg82
g3684
sg75
(lp3700
g68
(g69
g70
NtRp3701
(dp3702
g73
(dp3703
g81
I4
ssg82
g3697
sg75
(lp3704
S'Rocket 1.2.4'
p3705
asbasbasbag68
(g84
g70
NtRp3706
(dp3707
g73
(dp3708
sg82
g3090
sg75
(lp3709
g68
(g89
g70
NtRp3710
(dp3711
g73
(dp3712
g93
g94
ssg82
g3706
sg75
(lp3713
S'web2py_crontype'
p3714
asbag68
(g89
g70
NtRp3715
(dp3716
g73
(dp3717
g100
g101
ssg82
g3706
sg75
(lp3718
S':'
asbag68
(g89
g70
NtRp3719
(dp3720
g73
(dp3721
sg82
g3706
sg75
(lp3722
g68
(g69
g70
NtRp3723
(dp3724
g73
(dp3725
g81
I4
ssg82
g3719
sg75
(lp3726
S'hard'
p3727
asbasbasbag68
(g84
g70
NtRp3728
(dp3729
g73
(dp3730
sg82
g3090
sg75
(lp3731
g68
(g89
g70
NtRp3732
(dp3733
g73
(dp3734
g93
g94
ssg82
g3728
sg75
(lp3735
S'web2py_path'
p3736
asbag68
(g89
g70
NtRp3737
(dp3738
g73
(dp3739
g100
g101
ssg82
g3728
sg75
(lp3740
S':'
asbag68
(g89
g70
NtRp3741
(dp3742
g73
(dp3743
sg82
g3728
sg75
(lp3744
g68
(g69
g70
NtRp3745
(dp3746
g73
(dp3747
g81
I4
ssg82
g3741
sg75
(lp3748
g3137
asbasbasbag68
(g84
g70
NtRp3749
(dp3750
g73
(dp3751
sg82
g3090
sg75
(lp3752
g68
(g89
g70
NtRp3753
(dp3754
g73
(dp3755
g93
g94
ssg82
g3749
sg75
(lp3756
S'web2py_version'
p3757
asbag68
(g89
g70
NtRp3758
(dp3759
g73
(dp3760
g100
g101
ssg82
g3749
sg75
(lp3761
S':'
asbag68
(g89
g70
NtRp3762
(dp3763
g73
(dp3764
sg82
g3749
sg75
(lp3765
g68
(g69
g70
NtRp3766
(dp3767
g73
(dp3768
g81
I4
ssg82
g3762
sg75
(lp3769
g68
(g77
g70
NtRp3770
(dp3771
g73
(dp3772
g81
I3
ssg82
Nsg75
(lp3773
g68
(g84
g70
NtRp3774
(dp3775
g73
(dp3776
sg82
g3770
sg75
(lp3777
g68
(g89
g70
NtRp3778
(dp3779
g73
(dp3780
sg82
g3774
sg75
(lp3781
g68
(g69
g70
NtRp3782
(dp3783
g73
(dp3784
g81
I3
ssg82
g3778
sg75
(lp3785
S'2'
asbasbasbag68
(g84
g70
NtRp3786
(dp3787
g73
(dp3788
sg82
g3770
sg75
(lp3789
g68
(g89
g70
NtRp3790
(dp3791
g73
(dp3792
sg82
g3786
sg75
(lp3793
g68
(g69
g70
NtRp3794
(dp3795
g73
(dp3796
g81
I3
ssg82
g3790
sg75
(lp3797
S'0'
asbasbasbag68
(g84
g70
NtRp3798
(dp3799
g73
(dp3800
sg82
g3770
sg75
(lp3801
g68
(g89
g70
NtRp3802
(dp3803
g73
(dp3804
sg82
g3798
sg75
(lp3805
g68
(g69
g70
NtRp3806
(dp3807
g73
(dp3808
g81
I3
ssg82
g3802
sg75
(lp3809
S'8'
asbasbasbag68
(g84
g70
NtRp3810
(dp3811
g73
(dp3812
sg82
g3770
sg75
(lp3813
g68
(g89
g70
NtRp3814
(dp3815
g73
(dp3816
sg82
g3810
sg75
(lp3817
g68
(g69
g70
NtRp3818
(dp3819
g73
(dp3820
g81
I3
ssg82
g3814
sg75
(lp3821
S'datetime.datetime(2012, 9, 7, 3, 47, 51)'
p3822
asbasbasbag68
(g84
g70
NtRp3823
(dp3824
g73
(dp3825
sg82
g3770
sg75
(lp3826
g68
(g89
g70
NtRp3827
(dp3828
g73
(dp3829
sg82
g3823
sg75
(lp3830
g68
(g69
g70
NtRp3831
(dp3832
g73
(dp3833
g81
I3
ssg82
g3827
sg75
(lp3834
S'stable'
p3835
asbasbasbasbasbasbasbag68
(g84
g70
NtRp3836
(dp3837
g73
(dp3838
sg82
g3090
sg75
(lp3839
g68
(g89
g70
NtRp3840
(dp3841
g73
(dp3842
g93
g94
ssg82
g3836
sg75
(lp3843
S'wsgi_errors'
p3844
asbag68
(g89
g70
NtRp3845
(dp3846
g73
(dp3847
g100
g101
ssg82
g3836
sg75
(lp3848
S':'
asbag68
(g89
g70
NtRp3849
(dp3850
g73
(dp3851
sg82
g3836
sg75
(lp3852
g68
(g69
g70
NtRp3853
(dp3854
g73
(dp3855
g81
I4
ssg82
g3849
sg75
(lp3856
S"<open file '<stderr>', mode 'w' at 0x7f279010d1e0>"
p3857
asbasbasbag68
(g84
g70
NtRp3858
(dp3859
g73
(dp3860
sg82
g3090
sg75
(lp3861
g68
(g89
g70
NtRp3862
(dp3863
g73
(dp3864
g93
g94
ssg82
g3858
sg75
(lp3865
S'wsgi_file_wrapper'
p3866
asbag68
(g89
g70
NtRp3867
(dp3868
g73
(dp3869
g100
g101
ssg82
g3858
sg75
(lp3870
S':'
asbag68
(g89
g70
NtRp3871
(dp3872
g73
(dp3873
sg82
g3858
sg75
(lp3874
g68
(g69
g70
NtRp3875
(dp3876
g73
(dp3877
g81
I4
ssg82
g3871
sg75
(lp3878
S'<class wsgiref.util.FileWrapper at 0x13d6530>'
p3879
asbasbasbag68
(g84
g70
NtRp3880
(dp3881
g73
(dp3882
sg82
g3090
sg75
(lp3883
g68
(g89
g70
NtRp3884
(dp3885
g73
(dp3886
g93
g94
ssg82
g3880
sg75
(lp3887
S'wsgi_input'
p3888
asbag68
(g89
g70
NtRp3889
(dp3890
g73
(dp3891
g100
g101
ssg82
g3880
sg75
(lp3892
S':'
asbag68
(g89
g70
NtRp3893
(dp3894
g73
(dp3895
sg82
g3880
sg75
(lp3896
g68
(g69
g70
NtRp3897
(dp3898
g73
(dp3899
g81
I4
ssg82
g3893
sg75
(lp3900
S'<socket._fileobject object at 0x7f27740d5450>'
p3901
asbasbasbag68
(g84
g70
NtRp3902
(dp3903
g73
(dp3904
sg82
g3090
sg75
(lp3905
g68
(g89
g70
NtRp3906
(dp3907
g73
(dp3908
g93
g94
ssg82
g3902
sg75
(lp3909
S'wsgi_multiprocess'
p3910
asbag68
(g89
g70
NtRp3911
(dp3912
g73
(dp3913
g100
g101
ssg82
g3902
sg75
(lp3914
S':'
asbag68
(g89
g70
NtRp3915
(dp3916
g73
(dp3917
sg82
g3902
sg75
(lp3918
g68
(g69
g70
NtRp3919
(dp3920
g73
(dp3921
g81
I4
ssg82
g3915
sg75
(lp3922
g111
asbasbasbag68
(g84
g70
NtRp3923
(dp3924
g73
(dp3925
sg82
g3090
sg75
(lp3926
g68
(g89
g70
NtRp3927
(dp3928
g73
(dp3929
g93
g94
ssg82
g3923
sg75
(lp3930
S'wsgi_multithread'
p3931
asbag68
(g89
g70
NtRp3932
(dp3933
g73
(dp3934
g100
g101
ssg82
g3923
sg75
(lp3935
S':'
asbag68
(g89
g70
NtRp3936
(dp3937
g73
(dp3938
sg82
g3923
sg75
(lp3939
g68
(g69
g70
NtRp3940
(dp3941
g73
(dp3942
g81
I4
ssg82
g3936
sg75
(lp3943
S'True'
p3944
asbasbasbag68
(g84
g70
NtRp3945
(dp3946
g73
(dp3947
sg82
g3090
sg75
(lp3948
g68
(g89
g70
NtRp3949
(dp3950
g73
(dp3951
g93
g94
ssg82
g3945
sg75
(lp3952
S'wsgi_run_once'
p3953
asbag68
(g89
g70
NtRp3954
(dp3955
g73
(dp3956
g100
g101
ssg82
g3945
sg75
(lp3957
S':'
asbag68
(g89
g70
NtRp3958
(dp3959
g73
(dp3960
sg82
g3945
sg75
(lp3961
g68
(g69
g70
NtRp3962
(dp3963
g73
(dp3964
g81
I4
ssg82
g3958
sg75
(lp3965
g111
asbasbasbag68
(g84
g70
NtRp3966
(dp3967
g73
(dp3968
sg82
g3090
sg75
(lp3969
g68
(g89
g70
NtRp3970
(dp3971
g73
(dp3972
g93
g94
ssg82
g3966
sg75
(lp3973
S'wsgi_url_scheme'
p3974
asbag68
(g89
g70
NtRp3975
(dp3976
g73
(dp3977
g100
g101
ssg82
g3966
sg75
(lp3978
S':'
asbag68
(g89
g70
NtRp3979
(dp3980
g73
(dp3981
sg82
g3966
sg75
(lp3982
g68
(g69
g70
NtRp3983
(dp3984
g73
(dp3985
g81
I4
ssg82
g3979
sg75
(lp3986
S'http'
p3987
asbasbasbag68
(g84
g70
NtRp3988
(dp3989
g73
(dp3990
sg82
g3090
sg75
(lp3991
g68
(g89
g70
NtRp3992
(dp3993
g73
(dp3994
g93
g94
ssg82
g3988
sg75
(lp3995
S'wsgi_version'
p3996
asbag68
(g89
g70
NtRp3997
(dp3998
g73
(dp3999
g100
g101
ssg82
g3988
sg75
(lp4000
S':'
asbag68
(g89
g70
NtRp4001
(dp4002
g73
(dp4003
sg82
g3988
sg75
(lp4004
g68
(g69
g70
NtRp4005
(dp4006
g73
(dp4007
g81
I4
ssg82
g4001
sg75
(lp4008
g68
(g77
g70
NtRp4009
(dp4010
g73
(dp4011
g81
I3
ssg82
Nsg75
(lp4012
g68
(g84
g70
NtRp4013
(dp4014
g73
(dp4015
sg82
g4009
sg75
(lp4016
g68
(g89
g70
NtRp4017
(dp4018
g73
(dp4019
sg82
g4013
sg75
(lp4020
g68
(g69
g70
NtRp4021
(dp4022
g73
(dp4023
g81
I3
ssg82
g4017
sg75
(lp4024
S'1'
asbasbasbag68
(g84
g70
NtRp4025
(dp4026
g73
(dp4027
sg82
g4009
sg75
(lp4028
g68
(g89
g70
NtRp4029
(dp4030
g73
(dp4031
sg82
g4025
sg75
(lp4032
g68
(g69
g70
NtRp4033
(dp4034
g73
(dp4035
g81
I3
ssg82
g4029
sg75
(lp4036
S'0'
asbasbasbasbasbasbasbasbasbasbasbag68
(g84
g70
NtRp4037
(dp4038
g73
(dp4039
sg82
g78
sg75
(lp4040
g68
(g89
g70
NtRp4041
(dp4042
g73
(dp4043
g93
g94
ssg82
g4037
sg75
(lp4044
S'extension'
p4045
asbag68
(g89
g70
NtRp4046
(dp4047
g73
(dp4048
g100
g101
ssg82
g4037
sg75
(lp4049
S':'
asbag68
(g89
g70
NtRp4050
(dp4051
g73
(dp4052
sg82
g4037
sg75
(lp4053
g68
(g69
g70
NtRp4054
(dp4055
g73
(dp4056
g81
I5
ssg82
g4050
sg75
(lp4057
S'html'
p4058
asbasbasbag68
(g84
g70
NtRp4059
(dp4060
g73
(dp4061
sg82
g78
sg75
(lp4062
g68
(g89
g70
NtRp4063
(dp4064
g73
(dp4065
g93
g94
ssg82
g4059
sg75
(lp4066
S'folder'
p4067
asbag68
(g89
g70
NtRp4068
(dp4069
g73
(dp4070
g100
g101
ssg82
g4059
sg75
(lp4071
S':'
asbag68
(g89
g70
NtRp4072
(dp4073
g73
(dp4074
sg82
g4059
sg75
(lp4075
g68
(g69
g70
NtRp4076
(dp4077
g73
(dp4078
g81
I5
ssg82
g4072
sg75
(lp4079
S'/home/mayank/Desktop/web2pyAdmin/web2py/web2py/applications/FunkLoad/'
p4080
asbasbasbag68
(g84
g70
NtRp4081
(dp4082
g73
(dp4083
sg82
g78
sg75
(lp4084
g68
(g89
g70
NtRp4085
(dp4086
g73
(dp4087
g93
g94
ssg82
g4081
sg75
(lp4088
S'function'
p4089
asbag68
(g89
g70
NtRp4090
(dp4091
g73
(dp4092
g100
g101
ssg82
g4081
sg75
(lp4093
S':'
asbag68
(g89
g70
NtRp4094
(dp4095
g73
(dp4096
sg82
g4081
sg75
(lp4097
g68
(g69
g70
NtRp4098
(dp4099
g73
(dp4100
g81
I5
ssg82
g4094
sg75
(lp4101
S'index'
p4102
asbasbasbag68
(g84
g70
NtRp4103
(dp4104
g73
(dp4105
sg82
g78
sg75
(lp4106
g68
(g89
g70
NtRp4107
(dp4108
g73
(dp4109
g93
g94
ssg82
g4103
sg75
(lp4110
S'get_vars'
p4111
asbag68
(g89
g70
NtRp4112
(dp4113
g73
(dp4114
g100
g101
ssg82
g4103
sg75
(lp4115
S':'
asbag68
(g89
g70
NtRp4116
(dp4117
g73
(dp4118
sg82
g4103
sg75
(lp4119
g68
(g69
g70
NtRp4120
(dp4121
g73
(dp4122
g81
I5
ssg82
g4116
sg75
(lp4123
g68
(g77
g70
NtRp4124
(dp4125
g73
(dp4126
g81
I4
ssg82
Nsg75
(lp4127
sbasbasbasbag68
(g84
g70
NtRp4128
(dp4129
g73
(dp4130
sg82
g78
sg75
(lp4131
g68
(g89
g70
NtRp4132
(dp4133
g73
(dp4134
g93
g94
ssg82
g4128
sg75
(lp4135
S'global_settings'
p4136
asbag68
(g89
g70
NtRp4137
(dp4138
g73
(dp4139
g100
g101
ssg82
g4128
sg75
(lp4140
S':'
asbag68
(g89
g70
NtRp4141
(dp4142
g73
(dp4143
sg82
g4128
sg75
(lp4144
g68
(g69
g70
NtRp4145
(dp4146
g73
(dp4147
g81
I5
ssg82
g4141
sg75
(lp4148
g68
(g77
g70
NtRp4149
(dp4150
g73
(dp4151
g81
I4
ssg82
Nsg75
(lp4152
g68
(g84
g70
NtRp4153
(dp4154
g73
(dp4155
sg82
g4149
sg75
(lp4156
g68
(g89
g70
NtRp4157
(dp4158
g73
(dp4159
g93
g94
ssg82
g4153
sg75
(lp4160
g3102
asbag68
(g89
g70
NtRp4161
(dp4162
g73
(dp4163
g100
g101
ssg82
g4153
sg75
(lp4164
S':'
asbag68
(g89
g70
NtRp4165
(dp4166
g73
(dp4167
sg82
g4153
sg75
(lp4168
g68
(g69
g70
NtRp4169
(dp4170
g73
(dp4171
g81
I4
ssg82
g4165
sg75
(lp4172
S"set(['/home/mayank/Desktop/web2pyAdmin/web2py/web2py/applications/welcome/', '/home/mayank/Desktop/web2pyAdmin/web2py/web2py/applications/admin/', '/home/mayank/Desktop/web2pyAdmin/web2py/web2py/applications/FunkLoad/'])"
p4173
asbasbasbag68
(g84
g70
NtRp4174
(dp4175
g73
(dp4176
sg82
g4149
sg75
(lp4177
g68
(g89
g70
NtRp4178
(dp4179
g73
(dp4180
g93
g94
ssg82
g4174
sg75
(lp4181
g3124
asbag68
(g89
g70
NtRp4182
(dp4183
g73
(dp4184
g100
g101
ssg82
g4174
sg75
(lp4185
S':'
asbag68
(g89
g70
NtRp4186
(dp4187
g73
(dp4188
sg82
g4174
sg75
(lp4189
g68
(g69
g70
NtRp4190
(dp4191
g73
(dp4192
g81
I4
ssg82
g4186
sg75
(lp4193
g3137
asbasbasbag68
(g84
g70
NtRp4194
(dp4195
g73
(dp4196
sg82
g4149
sg75
(lp4197
g68
(g89
g70
NtRp4198
(dp4199
g73
(dp4200
g93
g94
ssg82
g4194
sg75
(lp4201
g3146
asbag68
(g89
g70
NtRp4202
(dp4203
g73
(dp4204
g100
g101
ssg82
g4194
sg75
(lp4205
S':'
asbag68
(g89
g70
NtRp4206
(dp4207
g73
(dp4208
sg82
g4194
sg75
(lp4209
g68
(g69
g70
NtRp4210
(dp4211
g73
(dp4212
g81
I4
ssg82
g4206
sg75
(lp4213
g68
(g77
g70
NtRp4214
(dp4215
g73
(dp4216
g81
I3
ssg82
Nsg75
(lp4217
sbasbasbasbag68
(g84
g70
NtRp4218
(dp4219
g73
(dp4220
sg82
g4149
sg75
(lp4221
g68
(g89
g70
NtRp4222
(dp4223
g73
(dp4224
g93
g94
ssg82
g4218
sg75
(lp4225
g3171
asbag68
(g89
g70
NtRp4226
(dp4227
g73
(dp4228
g100
g101
ssg82
g4218
sg75
(lp4229
S':'
asbag68
(g89
g70
NtRp4230
(dp4231
g73
(dp4232
sg82
g4218
sg75
(lp4233
g68
(g69
g70
NtRp4234
(dp4235
g73
(dp4236
g81
I4
ssg82
g4230
sg75
(lp4237
S"<Values at 0x181b290: {'verbose': False, 'ip': '127.0.0.1', 'with_scheduler': False, 'ips': ['127.0.1.1', '10.1.33.121'], 'shutdown_timeout': 5, 'taskbar': False, 'port': 8000, 'maxthreads': None, 'softcron': False, 'server_name': 'mayank', 'bpython': False, 'nogui': False, 'nocron': False, 'extcron': False, 'run_system_tests': False, 'test': None, 'folder': '/home/mayank/Desktop/web2pyAdmin/web2py/web2py', 'config': '', 'import_models': False, 'winservice': '', 'shell': None, 'run': '', 'log_filename': 'httpserver.log', 'debuglevel': 30, 'args': [''], 'socket_timeout': 5, 'ssl_ca_certificate': None, 'scheduler': None, 'profiler_filename': None, 'ssl_private_key': '', 'scheduler_groups': None, 'password': 'mayank', 'request_queue_size': 5, 'ssl_certificate': '', 'cronjob': False, 'numthreads': None, 'quiet': False, 'interfaces': None, 'minthreads': None, 'timeout': 10, 'plain': False, 'nobanner': False, 'pid_filename': 'httpserver.pid'}>"
p4238
asbasbasbag68
(g84
g70
NtRp4239
(dp4240
g73
(dp4241
sg82
g4149
sg75
(lp4242
g68
(g89
g70
NtRp4243
(dp4244
g73
(dp4245
g93
g94
ssg82
g4239
sg75
(lp4246
g3193
asbag68
(g89
g70
NtRp4247
(dp4248
g73
(dp4249
g100
g101
ssg82
g4239
sg75
(lp4250
S':'
asbag68
(g89
g70
NtRp4251
(dp4252
g73
(dp4253
sg82
g4239
sg75
(lp4254
g68
(g69
g70
NtRp4255
(dp4256
g73
(dp4257
g81
I4
ssg82
g4251
sg75
(lp4258
S'set([])'
p4259
asbasbasbag68
(g84
g70
NtRp4260
(dp4261
g73
(dp4262
sg82
g4149
sg75
(lp4263
g68
(g89
g70
NtRp4264
(dp4265
g73
(dp4266
g93
g94
ssg82
g4260
sg75
(lp4267
g3215
asbag68
(g89
g70
NtRp4268
(dp4269
g73
(dp4270
g100
g101
ssg82
g4260
sg75
(lp4271
S':'
asbag68
(g89
g70
NtRp4272
(dp4273
g73
(dp4274
sg82
g4260
sg75
(lp4275
g68
(g69
g70
NtRp4276
(dp4277
g73
(dp4278
g81
I4
ssg82
g4272
sg75
(lp4279
g111
asbasbasbag68
(g84
g70
NtRp4280
(dp4281
g73
(dp4282
sg82
g4149
sg75
(lp4283
g68
(g89
g70
NtRp4284
(dp4285
g73
(dp4286
g93
g94
ssg82
g4280
sg75
(lp4287
g3236
asbag68
(g89
g70
NtRp4288
(dp4289
g73
(dp4290
g100
g101
ssg82
g4280
sg75
(lp4291
S':'
asbag68
(g89
g70
NtRp4292
(dp4293
g73
(dp4294
sg82
g4280
sg75
(lp4295
g68
(g69
g70
NtRp4296
(dp4297
g73
(dp4298
g81
I4
ssg82
g4292
sg75
(lp4299
g3249
asbasbasbag68
(g84
g70
NtRp4300
(dp4301
g73
(dp4302
sg82
g4149
sg75
(lp4303
g68
(g89
g70
NtRp4304
(dp4305
g73
(dp4306
g93
g94
ssg82
g4300
sg75
(lp4307
g3434
asbag68
(g89
g70
NtRp4308
(dp4309
g73
(dp4310
g100
g101
ssg82
g4300
sg75
(lp4311
S':'
asbag68
(g89
g70
NtRp4312
(dp4313
g73
(dp4314
sg82
g4300
sg75
(lp4315
g68
(g69
g70
NtRp4316
(dp4317
g73
(dp4318
g81
I4
ssg82
g4312
sg75
(lp4319
g111
asbasbasbag68
(g84
g70
NtRp4320
(dp4321
g73
(dp4322
sg82
g4149
sg75
(lp4323
g68
(g89
g70
NtRp4324
(dp4325
g73
(dp4326
g93
g94
ssg82
g4320
sg75
(lp4327
g3455
asbag68
(g89
g70
NtRp4328
(dp4329
g73
(dp4330
g100
g101
ssg82
g4320
sg75
(lp4331
S':'
asbag68
(g89
g70
NtRp4332
(dp4333
g73
(dp4334
sg82
g4320
sg75
(lp4335
g68
(g69
g70
NtRp4336
(dp4337
g73
(dp4338
g81
I4
ssg82
g4332
sg75
(lp4339
g111
asbasbasbag68
(g84
g70
NtRp4340
(dp4341
g73
(dp4342
sg82
g4149
sg75
(lp4343
g68
(g89
g70
NtRp4344
(dp4345
g73
(dp4346
g93
g94
ssg82
g4340
sg75
(lp4347
g3714
asbag68
(g89
g70
NtRp4348
(dp4349
g73
(dp4350
g100
g101
ssg82
g4340
sg75
(lp4351
S':'
asbag68
(g89
g70
NtRp4352
(dp4353
g73
(dp4354
sg82
g4340
sg75
(lp4355
g68
(g69
g70
NtRp4356
(dp4357
g73
(dp4358
g81
I4
ssg82
g4352
sg75
(lp4359
g3727
asbasbasbag68
(g84
g70
NtRp4360
(dp4361
g73
(dp4362
sg82
g4149
sg75
(lp4363
g68
(g89
g70
NtRp4364
(dp4365
g73
(dp4366
g93
g94
ssg82
g4360
sg75
(lp4367
g3757
asbag68
(g89
g70
NtRp4368
(dp4369
g73
(dp4370
g100
g101
ssg82
g4360
sg75
(lp4371
S':'
asbag68
(g89
g70
NtRp4372
(dp4373
g73
(dp4374
sg82
g4360
sg75
(lp4375
g68
(g69
g70
NtRp4376
(dp4377
g73
(dp4378
g81
I4
ssg82
g4372
sg75
(lp4379
g68
(g77
g70
NtRp4380
(dp4381
g73
(dp4382
g81
I3
ssg82
Nsg75
(lp4383
g68
(g84
g70
NtRp4384
(dp4385
g73
(dp4386
sg82
g4380
sg75
(lp4387
g68
(g89
g70
NtRp4388
(dp4389
g73
(dp4390
sg82
g4384
sg75
(lp4391
g68
(g69
g70
NtRp4392
(dp4393
g73
(dp4394
g81
I3
ssg82
g4388
sg75
(lp4395
S'2'
asbasbasbag68
(g84
g70
NtRp4396
(dp4397
g73
(dp4398
sg82
g4380
sg75
(lp4399
g68
(g89
g70
NtRp4400
(dp4401
g73
(dp4402
sg82
g4396
sg75
(lp4403
g68
(g69
g70
NtRp4404
(dp4405
g73
(dp4406
g81
I3
ssg82
g4400
sg75
(lp4407
S'0'
asbasbasbag68
(g84
g70
NtRp4408
(dp4409
g73
(dp4410
sg82
g4380
sg75
(lp4411
g68
(g89
g70
NtRp4412
(dp4413
g73
(dp4414
sg82
g4408
sg75
(lp4415
g68
(g69
g70
NtRp4416
(dp4417
g73
(dp4418
g81
I3
ssg82
g4412
sg75
(lp4419
S'8'
asbasbasbag68
(g84
g70
NtRp4420
(dp4421
g73
(dp4422
sg82
g4380
sg75
(lp4423
g68
(g89
g70
NtRp4424
(dp4425
g73
(dp4426
sg82
g4420
sg75
(lp4427
g68
(g69
g70
NtRp4428
(dp4429
g73
(dp4430
g81
I3
ssg82
g4424
sg75
(lp4431
S'datetime.datetime(2012, 9, 7, 3, 47, 51)'
p4432
asbasbasbag68
(g84
g70
NtRp4433
(dp4434
g73
(dp4435
sg82
g4380
sg75
(lp4436
g68
(g89
g70
NtRp4437
(dp4438
g73
(dp4439
sg82
g4433
sg75
(lp4440
g68
(g69
g70
NtRp4441
(dp4442
g73
(dp4443
g81
I3
ssg82
g4437
sg75
(lp4444
g3835
asbasbasbasbasbasbasbasbasbasbasbag68
(g84
g70
NtRp4445
(dp4446
g73
(dp4447
sg82
g78
sg75
(lp4448
g68
(g89
g70
NtRp4449
(dp4450
g73
(dp4451
g93
g94
ssg82
g4445
sg75
(lp4452
S'is_https'
p4453
asbag68
(g89
g70
NtRp4454
(dp4455
g73
(dp4456
g100
g101
ssg82
g4445
sg75
(lp4457
S':'
asbag68
(g89
g70
NtRp4458
(dp4459
g73
(dp4460
sg82
g4445
sg75
(lp4461
g68
(g69
g70
NtRp4462
(dp4463
g73
(dp4464
g81
I5
ssg82
g4458
sg75
(lp4465
g111
asbasbasbag68
(g84
g70
NtRp4466
(dp4467
g73
(dp4468
sg82
g78
sg75
(lp4469
g68
(g89
g70
NtRp4470
(dp4471
g73
(dp4472
g93
g94
ssg82
g4466
sg75
(lp4473
S'is_local'
p4474
asbag68
(g89
g70
NtRp4475
(dp4476
g73
(dp4477
g100
g101
ssg82
g4466
sg75
(lp4478
S':'
asbag68
(g89
g70
NtRp4479
(dp4480
g73
(dp4481
sg82
g4466
sg75
(lp4482
g68
(g69
g70
NtRp4483
(dp4484
g73
(dp4485
g81
I5
ssg82
g4479
sg75
(lp4486
g3944
asbasbasbag68
(g84
g70
NtRp4487
(dp4488
g73
(dp4489
sg82
g78
sg75
(lp4490
g68
(g89
g70
NtRp4491
(dp4492
g73
(dp4493
g93
g94
ssg82
g4487
sg75
(lp4494
S'is_restful'
p4495
asbag68
(g89
g70
NtRp4496
(dp4497
g73
(dp4498
g100
g101
ssg82
g4487
sg75
(lp4499
S':'
asbag68
(g89
g70
NtRp4500
(dp4501
g73
(dp4502
sg82
g4487
sg75
(lp4503
g68
(g69
g70
NtRp4504
(dp4505
g73
(dp4506
g81
I5
ssg82
g4500
sg75
(lp4507
g111
asbasbasbag68
(g84
g70
NtRp4508
(dp4509
g73
(dp4510
sg82
g78
sg75
(lp4511
g68
(g89
g70
NtRp4512
(dp4513
g73
(dp4514
g93
g94
ssg82
g4508
sg75
(lp4515
S'now'
p4516
asbag68
(g89
g70
NtRp4517
(dp4518
g73
(dp4519
g100
g101
ssg82
g4508
sg75
(lp4520
S':'
asbag68
(g89
g70
NtRp4521
(dp4522
g73
(dp4523
sg82
g4508
sg75
(lp4524
g68
(g69
g70
NtRp4525
(dp4526
g73
(dp4527
g81
I5
ssg82
g4521
sg75
(lp4528
S'datetime.datetime(2013, 11, 7, 17, 35, 0, 919102)'
p4529
asbasbasbag68
(g84
g70
NtRp4530
(dp4531
g73
(dp4532
sg82
g78
sg75
(lp4533
g68
(g89
g70
NtRp4534
(dp4535
g73
(dp4536
g93
g94
ssg82
g4530
sg75
(lp4537
S'post_vars'
p4538
asbag68
(g89
g70
NtRp4539
(dp4540
g73
(dp4541
g100
g101
ssg82
g4530
sg75
(lp4542
S':'
asbag68
(g89
g70
NtRp4543
(dp4544
g73
(dp4545
sg82
g4530
sg75
(lp4546
g68
(g69
g70
NtRp4547
(dp4548
g73
(dp4549
g81
I5
ssg82
g4543
sg75
(lp4550
g68
(g77
g70
NtRp4551
(dp4552
g73
(dp4553
g81
I4
ssg82
Nsg75
(lp4554
sbasbasbasbag68
(g84
g70
NtRp4555
(dp4556
g73
(dp4557
sg82
g78
sg75
(lp4558
g68
(g89
g70
NtRp4559
(dp4560
g73
(dp4561
g93
g94
ssg82
g4555
sg75
(lp4562
S'raw_args'
p4563
asbag68
(g89
g70
NtRp4564
(dp4565
g73
(dp4566
g100
g101
ssg82
g4555
sg75
(lp4567
S':'
asbag68
(g89
g70
NtRp4568
(dp4569
g73
(dp4570
sg82
g4555
sg75
(lp4571
g68
(g69
g70
NtRp4572
(dp4573
g73
(dp4574
g81
I5
ssg82
g4568
sg75
(lp4575
S'None'
p4576
asbasbasbag68
(g84
g70
NtRp4577
(dp4578
g73
(dp4579
sg82
g78
sg75
(lp4580
g68
(g89
g70
NtRp4581
(dp4582
g73
(dp4583
g93
g94
ssg82
g4577
sg75
(lp4584
S'raw_extension'
p4585
asbag68
(g89
g70
NtRp4586
(dp4587
g73
(dp4588
g100
g101
ssg82
g4577
sg75
(lp4589
S':'
asbag68
(g89
g70
NtRp4590
(dp4591
g73
(dp4592
sg82
g4577
sg75
(lp4593
g68
(g69
g70
NtRp4594
(dp4595
g73
(dp4596
g81
I5
ssg82
g4590
sg75
(lp4597
S'None'
p4598
asbasbasbag68
(g84
g70
NtRp4599
(dp4600
g73
(dp4601
sg82
g78
sg75
(lp4602
g68
(g89
g70
NtRp4603
(dp4604
g73
(dp4605
g93
g94
ssg82
g4599
sg75
(lp4606
S'url'
p4607
asbag68
(g89
g70
NtRp4608
(dp4609
g73
(dp4610
g100
g101
ssg82
g4599
sg75
(lp4611
S':'
asbag68
(g89
g70
NtRp4612
(dp4613
g73
(dp4614
sg82
g4599
sg75
(lp4615
g68
(g69
g70
NtRp4616
(dp4617
g73
(dp4618
g81
I5
ssg82
g4612
sg75
(lp4619
g3489
asbasbasbag68
(g84
g70
NtRp4620
(dp4621
g73
(dp4622
sg82
g78
sg75
(lp4623
g68
(g89
g70
NtRp4624
(dp4625
g73
(dp4626
g93
g94
ssg82
g4620
sg75
(lp4627
S'utcnow'
p4628
asbag68
(g89
g70
NtRp4629
(dp4630
g73
(dp4631
g100
g101
ssg82
g4620
sg75
(lp4632
S':'
asbag68
(g89
g70
NtRp4633
(dp4634
g73
(dp4635
sg82
g4620
sg75
(lp4636
g68
(g69
g70
NtRp4637
(dp4638
g73
(dp4639
g81
I5
ssg82
g4633
sg75
(lp4640
S'datetime.datetime(2013, 11, 7, 12, 5, 0, 919142)'
p4641
asbasbasbag68
(g84
g70
NtRp4642
(dp4643
g73
(dp4644
sg82
g78
sg75
(lp4645
g68
(g89
g70
NtRp4646
(dp4647
g73
(dp4648
g93
g94
ssg82
g4642
sg75
(lp4649
S'uuid'
p4650
asbag68
(g89
g70
NtRp4651
(dp4652
g73
(dp4653
g100
g101
ssg82
g4642
sg75
(lp4654
S':'
asbag68
(g89
g70
NtRp4655
(dp4656
g73
(dp4657
sg82
g4642
sg75
(lp4658
g68
(g69
g70
NtRp4659
(dp4660
g73
(dp4661
g81
I5
ssg82
g4655
sg75
(lp4662
S'FunkLoad/127.0.0.1.2013-11-07.17-35-00.a7831e7d-9ce3-44df-880b-29ed3430af33'
p4663
asbasbasbag68
(g84
g70
NtRp4664
(dp4665
g73
(dp4666
sg82
g78
sg75
(lp4667
g68
(g89
g70
NtRp4668
(dp4669
g73
(dp4670
g93
g94
ssg82
g4664
sg75
(lp4671
S'vars'
p4672
asbag68
(g89
g70
NtRp4673
(dp4674
g73
(dp4675
g100
g101
ssg82
g4664
sg75
(lp4676
S':'
asbag68
(g89
g70
NtRp4677
(dp4678
g73
(dp4679
sg82
g4664
sg75
(lp4680
g68
(g69
g70
NtRp4681
(dp4682
g73
(dp4683
g81
I5
ssg82
g4677
sg75
(lp4684
g68
(g77
g70
NtRp4685
(dp4686
g73
(dp4687
g81
I4
ssg82
Nsg75
(lp4688
sbasbasbasbag68
(g84
g70
NtRp4689
(dp4690
g73
(dp4691
sg82
g78
sg75
(lp4692
g68
(g89
g70
NtRp4693
(dp4694
g73
(dp4695
g93
g94
ssg82
g4689
sg75
(lp4696
S'wsgi'
p4697
asbag68
(g89
g70
NtRp4698
(dp4699
g73
(dp4700
g100
g101
ssg82
g4689
sg75
(lp4701
S':'
asbag68
(g89
g70
NtRp4702
(dp4703
g73
(dp4704
sg82
g4689
sg75
(lp4705
g68
(g69
g70
NtRp4706
(dp4707
g73
(dp4708
g81
I5
ssg82
g4702
sg75
(lp4709
g68
(g77
g70
NtRp4710
(dp4711
g73
(dp4712
g81
I4
ssg82
Nsg75
(lp4713
g68
(g84
g70
NtRp4714
(dp4715
g73
(dp4716
sg82
g4710
sg75
(lp4717
g68
(g89
g70
NtRp4718
(dp4719
g73
(dp4720
g93
g94
ssg82
g4714
sg75
(lp4721
S'environ'
p4722
asbag68
(g89
g70
NtRp4723
(dp4724
g73
(dp4725
g100
g101
ssg82
g4714
sg75
(lp4726
S':'
asbag68
(g89
g70
NtRp4727
(dp4728
g73
(dp4729
sg82
g4714
sg75
(lp4730
g68
(g69
g70
NtRp4731
(dp4732
g73
(dp4733
g81
I4
ssg82
g4727
sg75
(lp4734
g68
(g77
g70
NtRp4735
(dp4736
g73
(dp4737
g81
I3
ssg82
Nsg75
(lp4738
g68
(g84
g70
NtRp4739
(dp4740
g73
(dp4741
sg82
g4735
sg75
(lp4742
g68
(g89
g70
NtRp4743
(dp4744
g73
(dp4745
g93
g94
ssg82
g4739
sg75
(lp4746
S'HTTP_ACCEPT'
p4747
asbag68
(g89
g70
NtRp4748
(dp4749
g73
(dp4750
g100
g101
ssg82
g4739
sg75
(lp4751
S':'
asbag68
(g89
g70
NtRp4752
(dp4753
g73
(dp4754
sg82
g4739
sg75
(lp4755
g68
(g69
g70
NtRp4756
(dp4757
g73
(dp4758
g81
I3
ssg82
g4752
sg75
(lp4759
g3271
asbasbasbag68
(g84
g70
NtRp4760
(dp4761
g73
(dp4762
sg82
g4735
sg75
(lp4763
g68
(g89
g70
NtRp4764
(dp4765
g73
(dp4766
g93
g94
ssg82
g4760
sg75
(lp4767
S'HTTP_ACCEPT_ENCODING'
p4768
asbag68
(g89
g70
NtRp4769
(dp4770
g73
(dp4771
g100
g101
ssg82
g4760
sg75
(lp4772
S':'
asbag68
(g89
g70
NtRp4773
(dp4774
g73
(dp4775
sg82
g4760
sg75
(lp4776
g68
(g69
g70
NtRp4777
(dp4778
g73
(dp4779
g81
I3
ssg82
g4773
sg75
(lp4780
g3293
asbasbasbag68
(g84
g70
NtRp4781
(dp4782
g73
(dp4783
sg82
g4735
sg75
(lp4784
g68
(g89
g70
NtRp4785
(dp4786
g73
(dp4787
g93
g94
ssg82
g4781
sg75
(lp4788
S'HTTP_ACCEPT_LANGUAGE'
p4789
asbag68
(g89
g70
NtRp4790
(dp4791
g73
(dp4792
g100
g101
ssg82
g4781
sg75
(lp4793
S':'
asbag68
(g89
g70
NtRp4794
(dp4795
g73
(dp4796
sg82
g4781
sg75
(lp4797
g68
(g69
g70
NtRp4798
(dp4799
g73
(dp4800
g81
I3
ssg82
g4794
sg75
(lp4801
g3315
asbasbasbag68
(g84
g70
NtRp4802
(dp4803
g73
(dp4804
sg82
g4735
sg75
(lp4805
g68
(g89
g70
NtRp4806
(dp4807
g73
(dp4808
g93
g94
ssg82
g4802
sg75
(lp4809
S'HTTP_CONNECTION'
p4810
asbag68
(g89
g70
NtRp4811
(dp4812
g73
(dp4813
g100
g101
ssg82
g4802
sg75
(lp4814
S':'
asbag68
(g89
g70
NtRp4815
(dp4816
g73
(dp4817
sg82
g4802
sg75
(lp4818
g68
(g69
g70
NtRp4819
(dp4820
g73
(dp4821
g81
I3
ssg82
g4815
sg75
(lp4822
g3337
asbasbasbag68
(g84
g70
NtRp4823
(dp4824
g73
(dp4825
sg82
g4735
sg75
(lp4826
g68
(g89
g70
NtRp4827
(dp4828
g73
(dp4829
g93
g94
ssg82
g4823
sg75
(lp4830
S'HTTP_COOKIE'
p4831
asbag68
(g89
g70
NtRp4832
(dp4833
g73
(dp4834
g100
g101
ssg82
g4823
sg75
(lp4835
S':'
asbag68
(g89
g70
NtRp4836
(dp4837
g73
(dp4838
sg82
g4823
sg75
(lp4839
g68
(g69
g70
NtRp4840
(dp4841
g73
(dp4842
g81
I3
ssg82
g4836
sg75
(lp4843
g3359
asbasbasbag68
(g84
g70
NtRp4844
(dp4845
g73
(dp4846
sg82
g4735
sg75
(lp4847
g68
(g89
g70
NtRp4848
(dp4849
g73
(dp4850
g93
g94
ssg82
g4844
sg75
(lp4851
S'HTTP_HOST'
p4852
asbag68
(g89
g70
NtRp4853
(dp4854
g73
(dp4855
g100
g101
ssg82
g4844
sg75
(lp4856
S':'
asbag68
(g89
g70
NtRp4857
(dp4858
g73
(dp4859
sg82
g4844
sg75
(lp4860
g68
(g69
g70
NtRp4861
(dp4862
g73
(dp4863
g81
I3
ssg82
g4857
sg75
(lp4864
g3381
asbasbasbag68
(g84
g70
NtRp4865
(dp4866
g73
(dp4867
sg82
g4735
sg75
(lp4868
g68
(g89
g70
NtRp4869
(dp4870
g73
(dp4871
g93
g94
ssg82
g4865
sg75
(lp4872
S'HTTP_REFERER'
p4873
asbag68
(g89
g70
NtRp4874
(dp4875
g73
(dp4876
g100
g101
ssg82
g4865
sg75
(lp4877
S':'
asbag68
(g89
g70
NtRp4878
(dp4879
g73
(dp4880
sg82
g4865
sg75
(lp4881
g68
(g69
g70
NtRp4882
(dp4883
g73
(dp4884
g81
I3
ssg82
g4878
sg75
(lp4885
g3403
asbasbasbag68
(g84
g70
NtRp4886
(dp4887
g73
(dp4888
sg82
g4735
sg75
(lp4889
g68
(g89
g70
NtRp4890
(dp4891
g73
(dp4892
g93
g94
ssg82
g4886
sg75
(lp4893
S'HTTP_USER_AGENT'
p4894
asbag68
(g89
g70
NtRp4895
(dp4896
g73
(dp4897
g100
g101
ssg82
g4886
sg75
(lp4898
S':'
asbag68
(g89
g70
NtRp4899
(dp4900
g73
(dp4901
sg82
g4886
sg75
(lp4902
g68
(g69
g70
NtRp4903
(dp4904
g73
(dp4905
g81
I3
ssg82
g4899
sg75
(lp4906
g3425
asbasbasbag68
(g84
g70
NtRp4907
(dp4908
g73
(dp4909
sg82
g4735
sg75
(lp4910
g68
(g89
g70
NtRp4911
(dp4912
g73
(dp4913
g93
g94
ssg82
g4907
sg75
(lp4914
S'PATH_INFO'
p4915
asbag68
(g89
g70
NtRp4916
(dp4917
g73
(dp4918
g100
g101
ssg82
g4907
sg75
(lp4919
S':'
asbag68
(g89
g70
NtRp4920
(dp4921
g73
(dp4922
sg82
g4907
sg75
(lp4923
g68
(g69
g70
NtRp4924
(dp4925
g73
(dp4926
g81
I3
ssg82
g4920
sg75
(lp4927
g3489
asbasbasbag68
(g84
g70
NtRp4928
(dp4929
g73
(dp4930
sg82
g4735
sg75
(lp4931
g68
(g89
g70
NtRp4932
(dp4933
g73
(dp4934
g93
g94
ssg82
g4928
sg75
(lp4935
S'QUERY_STRING'
p4936
asbag68
(g89
g70
NtRp4937
(dp4938
g73
(dp4939
g100
g101
ssg82
g4928
sg75
(lp4940
S':'
asbag68
(g89
g70
NtRp4941
(dp4942
g73
(dp4943
sg82
g4928
sg75
(lp4944
g68
(g69
g70
NtRp4945
(dp4946
g73
(dp4947
g81
I3
ssg82
g4941
sg75
(lp4948
S''
asbasbasbag68
(g84
g70
NtRp4949
(dp4950
g73
(dp4951
sg82
g4735
sg75
(lp4952
g68
(g89
g70
NtRp4953
(dp4954
g73
(dp4955
g93
g94
ssg82
g4949
sg75
(lp4956
S'REMOTE_ADDR'
p4957
asbag68
(g89
g70
NtRp4958
(dp4959
g73
(dp4960
g100
g101
ssg82
g4949
sg75
(lp4961
S':'
asbag68
(g89
g70
NtRp4962
(dp4963
g73
(dp4964
sg82
g4949
sg75
(lp4965
g68
(g69
g70
NtRp4966
(dp4967
g73
(dp4968
g81
I3
ssg82
g4962
sg75
(lp4969
g223
asbasbasbag68
(g84
g70
NtRp4970
(dp4971
g73
(dp4972
sg82
g4735
sg75
(lp4973
g68
(g89
g70
NtRp4974
(dp4975
g73
(dp4976
g93
g94
ssg82
g4970
sg75
(lp4977
S'REMOTE_PORT'
p4978
asbag68
(g89
g70
NtRp4979
(dp4980
g73
(dp4981
g100
g101
ssg82
g4970
sg75
(lp4982
S':'
asbag68
(g89
g70
NtRp4983
(dp4984
g73
(dp4985
sg82
g4970
sg75
(lp4986
g68
(g69
g70
NtRp4987
(dp4988
g73
(dp4989
g81
I3
ssg82
g4983
sg75
(lp4990
g3553
asbasbasbag68
(g84
g70
NtRp4991
(dp4992
g73
(dp4993
sg82
g4735
sg75
(lp4994
g68
(g89
g70
NtRp4995
(dp4996
g73
(dp4997
g93
g94
ssg82
g4991
sg75
(lp4998
S'REQUEST_METHOD'
p4999
asbag68
(g89
g70
NtRp5000
(dp5001
g73
(dp5002
g100
g101
ssg82
g4991
sg75
(lp5003
S':'
asbag68
(g89
g70
NtRp5004
(dp5005
g73
(dp5006
sg82
g4991
sg75
(lp5007
g68
(g69
g70
NtRp5008
(dp5009
g73
(dp5010
g81
I3
ssg82
g5004
sg75
(lp5011
g3575
asbasbasbag68
(g84
g70
NtRp5012
(dp5013
g73
(dp5014
sg82
g4735
sg75
(lp5015
g68
(g89
g70
NtRp5016
(dp5017
g73
(dp5018
g93
g94
ssg82
g5012
sg75
(lp5019
S'REQUEST_URI'
p5020
asbag68
(g89
g70
NtRp5021
(dp5022
g73
(dp5023
g100
g101
ssg82
g5012
sg75
(lp5024
S':'
asbag68
(g89
g70
NtRp5025
(dp5026
g73
(dp5027
sg82
g5012
sg75
(lp5028
g68
(g69
g70
NtRp5029
(dp5030
g73
(dp5031
g81
I3
ssg82
g5025
sg75
(lp5032
g3489
asbasbasbag68
(g84
g70
NtRp5033
(dp5034
g73
(dp5035
sg82
g4735
sg75
(lp5036
g68
(g89
g70
NtRp5037
(dp5038
g73
(dp5039
g93
g94
ssg82
g5033
sg75
(lp5040
S'SCRIPT_NAME'
p5041
asbag68
(g89
g70
NtRp5042
(dp5043
g73
(dp5044
g100
g101
ssg82
g5033
sg75
(lp5045
S':'
asbag68
(g89
g70
NtRp5046
(dp5047
g73
(dp5048
sg82
g5033
sg75
(lp5049
g68
(g69
g70
NtRp5050
(dp5051
g73
(dp5052
g81
I3
ssg82
g5046
sg75
(lp5053
S''
asbasbasbag68
(g84
g70
NtRp5054
(dp5055
g73
(dp5056
sg82
g4735
sg75
(lp5057
g68
(g89
g70
NtRp5058
(dp5059
g73
(dp5060
g93
g94
ssg82
g5054
sg75
(lp5061
S'SERVER_NAME'
p5062
asbag68
(g89
g70
NtRp5063
(dp5064
g73
(dp5065
g100
g101
ssg82
g5054
sg75
(lp5066
S':'
asbag68
(g89
g70
NtRp5067
(dp5068
g73
(dp5069
sg82
g5054
sg75
(lp5070
g68
(g69
g70
NtRp5071
(dp5072
g73
(dp5073
g81
I3
ssg82
g5067
sg75
(lp5074
g3639
asbasbasbag68
(g84
g70
NtRp5075
(dp5076
g73
(dp5077
sg82
g4735
sg75
(lp5078
g68
(g89
g70
NtRp5079
(dp5080
g73
(dp5081
g93
g94
ssg82
g5075
sg75
(lp5082
S'SERVER_PORT'
p5083
asbag68
(g89
g70
NtRp5084
(dp5085
g73
(dp5086
g100
g101
ssg82
g5075
sg75
(lp5087
S':'
asbag68
(g89
g70
NtRp5088
(dp5089
g73
(dp5090
sg82
g5075
sg75
(lp5091
g68
(g69
g70
NtRp5092
(dp5093
g73
(dp5094
g81
I3
ssg82
g5088
sg75
(lp5095
g3661
asbasbasbag68
(g84
g70
NtRp5096
(dp5097
g73
(dp5098
sg82
g4735
sg75
(lp5099
g68
(g89
g70
NtRp5100
(dp5101
g73
(dp5102
g93
g94
ssg82
g5096
sg75
(lp5103
S'SERVER_PROTOCOL'
p5104
asbag68
(g89
g70
NtRp5105
(dp5106
g73
(dp5107
g100
g101
ssg82
g5096
sg75
(lp5108
S':'
asbag68
(g89
g70
NtRp5109
(dp5110
g73
(dp5111
sg82
g5096
sg75
(lp5112
g68
(g69
g70
NtRp5113
(dp5114
g73
(dp5115
g81
I3
ssg82
g5109
sg75
(lp5116
g3683
asbasbasbag68
(g84
g70
NtRp5117
(dp5118
g73
(dp5119
sg82
g4735
sg75
(lp5120
g68
(g89
g70
NtRp5121
(dp5122
g73
(dp5123
g93
g94
ssg82
g5117
sg75
(lp5124
S'SERVER_SOFTWARE'
p5125
asbag68
(g89
g70
NtRp5126
(dp5127
g73
(dp5128
g100
g101
ssg82
g5117
sg75
(lp5129
S':'
asbag68
(g89
g70
NtRp5130
(dp5131
g73
(dp5132
sg82
g5117
sg75
(lp5133
g68
(g69
g70
NtRp5134
(dp5135
g73
(dp5136
g81
I3
ssg82
g5130
sg75
(lp5137
g3705
asbasbasbag68
(g84
g70
NtRp5138
(dp5139
g73
(dp5140
sg82
g4735
sg75
(lp5141
g68
(g89
g70
NtRp5142
(dp5143
g73
(dp5144
g93
g94
ssg82
g5138
sg75
(lp5145
S'wsgi.errors'
p5146
asbag68
(g89
g70
NtRp5147
(dp5148
g73
(dp5149
g100
g101
ssg82
g5138
sg75
(lp5150
S':'
asbag68
(g89
g70
NtRp5151
(dp5152
g73
(dp5153
sg82
g5138
sg75
(lp5154
g68
(g69
g70
NtRp5155
(dp5156
g73
(dp5157
g81
I3
ssg82
g5151
sg75
(lp5158
S"<open file '<stderr>', mode 'w' at 0x7f279010d1e0>"
p5159
asbasbasbag68
(g84
g70
NtRp5160
(dp5161
g73
(dp5162
sg82
g4735
sg75
(lp5163
g68
(g89
g70
NtRp5164
(dp5165
g73
(dp5166
g93
g94
ssg82
g5160
sg75
(lp5167
S'wsgi.file_wrapper'
p5168
asbag68
(g89
g70
NtRp5169
(dp5170
g73
(dp5171
g100
g101
ssg82
g5160
sg75
(lp5172
S':'
asbag68
(g89
g70
NtRp5173
(dp5174
g73
(dp5175
sg82
g5160
sg75
(lp5176
g68
(g69
g70
NtRp5177
(dp5178
g73
(dp5179
g81
I3
ssg82
g5173
sg75
(lp5180
S'<class wsgiref.util.FileWrapper at 0x13d6530>'
p5181
asbasbasbag68
(g84
g70
NtRp5182
(dp5183
g73
(dp5184
sg82
g4735
sg75
(lp5185
g68
(g89
g70
NtRp5186
(dp5187
g73
(dp5188
g93
g94
ssg82
g5182
sg75
(lp5189
S'wsgi.input'
p5190
asbag68
(g89
g70
NtRp5191
(dp5192
g73
(dp5193
g100
g101
ssg82
g5182
sg75
(lp5194
S':'
asbag68
(g89
g70
NtRp5195
(dp5196
g73
(dp5197
sg82
g5182
sg75
(lp5198
g68
(g69
g70
NtRp5199
(dp5200
g73
(dp5201
g81
I3
ssg82
g5195
sg75
(lp5202
S'<cStringIO.StringO object at 0x7f2758475c00>'
p5203
asbasbasbag68
(g84
g70
NtRp5204
(dp5205
g73
(dp5206
sg82
g4735
sg75
(lp5207
g68
(g89
g70
NtRp5208
(dp5209
g73
(dp5210
g93
g94
ssg82
g5204
sg75
(lp5211
S'wsgi.multiprocess'
p5212
asbag68
(g89
g70
NtRp5213
(dp5214
g73
(dp5215
g100
g101
ssg82
g5204
sg75
(lp5216
S':'
asbag68
(g89
g70
NtRp5217
(dp5218
g73
(dp5219
sg82
g5204
sg75
(lp5220
g68
(g69
g70
NtRp5221
(dp5222
g73
(dp5223
g81
I3
ssg82
g5217
sg75
(lp5224
g111
asbasbasbag68
(g84
g70
NtRp5225
(dp5226
g73
(dp5227
sg82
g4735
sg75
(lp5228
g68
(g89
g70
NtRp5229
(dp5230
g73
(dp5231
g93
g94
ssg82
g5225
sg75
(lp5232
S'wsgi.multithread'
p5233
asbag68
(g89
g70
NtRp5234
(dp5235
g73
(dp5236
g100
g101
ssg82
g5225
sg75
(lp5237
S':'
asbag68
(g89
g70
NtRp5238
(dp5239
g73
(dp5240
sg82
g5225
sg75
(lp5241
g68
(g69
g70
NtRp5242
(dp5243
g73
(dp5244
g81
I3
ssg82
g5238
sg75
(lp5245
g3944
asbasbasbag68
(g84
g70
NtRp5246
(dp5247
g73
(dp5248
sg82
g4735
sg75
(lp5249
g68
(g89
g70
NtRp5250
(dp5251
g73
(dp5252
g93
g94
ssg82
g5246
sg75
(lp5253
S'wsgi.run_once'
p5254
asbag68
(g89
g70
NtRp5255
(dp5256
g73
(dp5257
g100
g101
ssg82
g5246
sg75
(lp5258
S':'
asbag68
(g89
g70
NtRp5259
(dp5260
g73
(dp5261
sg82
g5246
sg75
(lp5262
g68
(g69
g70
NtRp5263
(dp5264
g73
(dp5265
g81
I3
ssg82
g5259
sg75
(lp5266
g111
asbasbasbag68
(g84
g70
NtRp5267
(dp5268
g73
(dp5269
sg82
g4735
sg75
(lp5270
g68
(g89
g70
NtRp5271
(dp5272
g73
(dp5273
g93
g94
ssg82
g5267
sg75
(lp5274
S'wsgi.url_scheme'
p5275
asbag68
(g89
g70
NtRp5276
(dp5277
g73
(dp5278
g100
g101
ssg82
g5267
sg75
(lp5279
S':'
asbag68
(g89
g70
NtRp5280
(dp5281
g73
(dp5282
sg82
g5267
sg75
(lp5283
g68
(g69
g70
NtRp5284
(dp5285
g73
(dp5286
g81
I3
ssg82
g5280
sg75
(lp5287
g3987
asbasbasbag68
(g84
g70
NtRp5288
(dp5289
g73
(dp5290
sg82
g4735
sg75
(lp5291
g68
(g89
g70
NtRp5292
(dp5293
g73
(dp5294
g93
g94
ssg82
g5288
sg75
(lp5295
S'wsgi.version'
p5296
asbag68
(g89
g70
NtRp5297
(dp5298
g73
(dp5299
g100
g101
ssg82
g5288
sg75
(lp5300
S':'
asbag68
(g89
g70
NtRp5301
(dp5302
g73
(dp5303
sg82
g5288
sg75
(lp5304
g68
(g69
g70
NtRp5305
(dp5306
g73
(dp5307
g81
I3
ssg82
g5301
sg75
(lp5308
S'1'
asbasbasbasbasbasbasbasbasbasbasbasbasbsS'frames'
p5309
(lp5310
(dp5311
S'file'
p5312
S'/home/mayank/Desktop/web2pyAdmin/web2py/web2py/gluon/restricted.py'
p5313
sS'dump'
p5314
(dp5315
S'code'
p5316
S'r"response.write(\'<!DOCTYPE html>\\r\\n<!-- pauliris...ript>  \\r\\n</body>\\r\\n</html>\\r\\n\', escape=False)"'
p5317
sS'layer'
p5318
S"'/home/mayank/Desktop/web2pyAdmin/web2py/web2py/applications/FunkLoad/views/default/index.html'"
p5319
sS'global compile2'
p5320
S'<function compile2>'
p5321
sS'ccode'
p5322
S'undefined'
p5323
ssS'lnum'
p5324
I208
sS'lines'
p5325
(dp5326
I203
S"    environment['__name__'] = '__restricted__'"
p5327
sI204
S'    try:'
p5328
sI205
S'        if type(code) == types.CodeType:'
p5329
sI206
S'            ccode = code'
p5330
sI207
S'        else:'
p5331
sI208
S'            ccode = compile2(code,layer)'
p5332
sI209
S'        exec ccode in environment'
p5333
sI210
S'    except HTTP:'
p5334
sI211
S'        raise'
p5335
sI212
S'    except RestrictedError:'
p5336
ssS'call'
p5337
S'(code=r"response.write(\'<!DOCTYPE html>\\r\\n<!-- pauliris...ript>  \\r\\n</body>\\r\\n</html>\\r\\n\', escape=False)", environment={\'A\': <class \'gluon.html.A\'>, \'Auth\': <class \'gluon.tools.Auth\'>, \'B\': <class \'gluon.html.B\'>, \'BEAUTIFY\': <class \'gluon.html.BEAUTIFY\'>, \'BODY\': <class \'gluon.html.BODY\'>, \'BR\': <class \'gluon.html.BR\'>, \'BUTTON\': <class \'gluon.html.BUTTON\'>, \'CAT\': <class \'gluon.html.CAT\'>, \'CENTER\': <class \'gluon.html.CENTER\'>, \'CLEANUP\': <class \'gluon.validators.CLEANUP\'>, ...}, layer=\'/home/mayank/Desktop/web2pyAdmin/web2py/web2py/applications/FunkLoad/views/default/index.html\')'
p5338
sS'func'
p5339
S'restricted'
p5340
sa(dp5341
g5312
S'/home/mayank/Desktop/web2pyAdmin/web2py/web2py/gluon/restricted.py'
p5342
sg5314
(dp5343
S'builtincompile'
p5344
S'<built-in function compile>'
p5345
sS'code'
p5346
S'r"response.write(\'<!DOCTYPE html>\\r\\n<!-- pauliris...ript>  \\r\\n</body>\\r\\n</html>\\r\\n\', escape=False)"'
p5347
sS'code.rstrip'
p5348
S'<built-in method rstrip of str object>'
p5349
sS').replace'
p5350
g5323
sS'layer'
p5351
S"'/home/mayank/Desktop/web2pyAdmin/web2py/web2py/applications/FunkLoad/views/default/index.html'"
p5352
ssg5324
I193
sg5325
(dp5353
I192
S'    """'
p5354
sI193
S"    return compile(code.rstrip().replace('\\r\\n','\\n')+'\\n', layer, 'exec')"
p5355
sI194
S''
sI195
S"def restricted(code, environment=None, layer='Unknown'):"
p5356
sI196
S'    """'
p5357
sI197
S'    runs code in environment and returns the output. if an exception occurs'
p5358
sI188
S''
sI189
S'def compile2(code,layer):'
p5359
sI190
S'    """'
p5360
sI191
S"    The +'\\n' is necessary else compile fails when code ends in a comment."
p5361
ssg5337
S'(code=r"response.write(\'<!DOCTYPE html>\\r\\n<!-- pauliris...ript>  \\r\\n</body>\\r\\n</html>\\r\\n\', escape=False)", layer=\'/home/mayank/Desktop/web2pyAdmin/web2py/web2py/applications/FunkLoad/views/default/index.html\')'
p5362
sg5339
S'compile2'
p5363
sasS'pyver'
p5364
S'Python 2.7.4: /usr/bin/python'
p5365
sS'session'
p5366
g68
(g69
g70
NtRp5367
(dp5368
g73
(dp5369
sg75
(lp5370
g68
(g77
g70
NtRp5371
(dp5372
g73
(dp5373
g81
I5
ssg82
Nsg75
(lp5374
g68
(g84
g70
NtRp5375
(dp5376
g73
(dp5377
sg82
g5371
sg75
(lp5378
g68
(g89
g70
NtRp5379
(dp5380
g73
(dp5381
g93
g94
ssg82
g5375
sg75
(lp5382
S'auth'
p5383
asbag68
(g89
g70
NtRp5384
(dp5385
g73
(dp5386
g100
g101
ssg82
g5375
sg75
(lp5387
S':'
asbag68
(g89
g70
NtRp5388
(dp5389
g73
(dp5390
sg82
g5375
sg75
(lp5391
g68
(g69
g70
NtRp5392
(dp5393
g73
(dp5394
g81
I5
ssg82
g5388
sg75
(lp5395
g68
(g77
g70
NtRp5396
(dp5397
g73
(dp5398
g81
I4
ssg82
Nsg75
(lp5399
g68
(g84
g70
NtRp5400
(dp5401
g73
(dp5402
sg82
g5396
sg75
(lp5403
g68
(g89
g70
NtRp5404
(dp5405
g73
(dp5406
g93
g94
ssg82
g5400
sg75
(lp5407
S'expiration'
p5408
asbag68
(g89
g70
NtRp5409
(dp5410
g73
(dp5411
g100
g101
ssg82
g5400
sg75
(lp5412
S':'
asbag68
(g89
g70
NtRp5413
(dp5414
g73
(dp5415
sg82
g5400
sg75
(lp5416
g68
(g69
g70
NtRp5417
(dp5418
g73
(dp5419
g81
I4
ssg82
g5413
sg75
(lp5420
S'3600'
p5421
asbasbasbag68
(g84
g70
NtRp5422
(dp5423
g73
(dp5424
sg82
g5396
sg75
(lp5425
g68
(g89
g70
NtRp5426
(dp5427
g73
(dp5428
g93
g94
ssg82
g5422
sg75
(lp5429
S'hmac_key'
p5430
asbag68
(g89
g70
NtRp5431
(dp5432
g73
(dp5433
g100
g101
ssg82
g5422
sg75
(lp5434
S':'
asbag68
(g89
g70
NtRp5435
(dp5436
g73
(dp5437
sg82
g5422
sg75
(lp5438
g68
(g69
g70
NtRp5439
(dp5440
g73
(dp5441
g81
I4
ssg82
g5435
sg75
(lp5442
S'02cd42b9-e8fc-4b9c-a834-3220b7100bd5'
p5443
asbasbasbag68
(g84
g70
NtRp5444
(dp5445
g73
(dp5446
sg82
g5396
sg75
(lp5447
g68
(g89
g70
NtRp5448
(dp5449
g73
(dp5450
g93
g94
ssg82
g5444
sg75
(lp5451
S'last_visit'
p5452
asbag68
(g89
g70
NtRp5453
(dp5454
g73
(dp5455
g100
g101
ssg82
g5444
sg75
(lp5456
S':'
asbag68
(g89
g70
NtRp5457
(dp5458
g73
(dp5459
sg82
g5444
sg75
(lp5460
g68
(g69
g70
NtRp5461
(dp5462
g73
(dp5463
g81
I4
ssg82
g5457
sg75
(lp5464
S'datetime.datetime(2013, 11, 7, 17, 35, 0, 742544)'
p5465
asbasbasbag68
(g84
g70
NtRp5466
(dp5467
g73
(dp5468
sg82
g5396
sg75
(lp5469
g68
(g89
g70
NtRp5470
(dp5471
g73
(dp5472
g93
g94
ssg82
g5466
sg75
(lp5473
S'remember'
p5474
asbag68
(g89
g70
NtRp5475
(dp5476
g73
(dp5477
g100
g101
ssg82
g5466
sg75
(lp5478
S':'
asbag68
(g89
g70
NtRp5479
(dp5480
g73
(dp5481
sg82
g5466
sg75
(lp5482
g68
(g69
g70
NtRp5483
(dp5484
g73
(dp5485
g81
I4
ssg82
g5479
sg75
(lp5486
g111
asbasbasbag68
(g84
g70
NtRp5487
(dp5488
g73
(dp5489
sg82
g5396
sg75
(lp5490
g68
(g89
g70
NtRp5491
(dp5492
g73
(dp5493
g93
g94
ssg82
g5487
sg75
(lp5494
S'user'
p5495
asbag68
(g89
g70
NtRp5496
(dp5497
g73
(dp5498
g100
g101
ssg82
g5487
sg75
(lp5499
S':'
asbag68
(g89
g70
NtRp5500
(dp5501
g73
(dp5502
sg82
g5487
sg75
(lp5503
g68
(g69
g70
NtRp5504
(dp5505
g73
(dp5506
g81
I4
ssg82
g5500
sg75
(lp5507
g68
(g77
g70
NtRp5508
(dp5509
g73
(dp5510
g81
I3
ssg82
Nsg75
(lp5511
g68
(g84
g70
NtRp5512
(dp5513
g73
(dp5514
sg82
g5508
sg75
(lp5515
g68
(g89
g70
NtRp5516
(dp5517
g73
(dp5518
g93
g94
ssg82
g5512
sg75
(lp5519
S'email'
p5520
asbag68
(g89
g70
NtRp5521
(dp5522
g73
(dp5523
g100
g101
ssg82
g5512
sg75
(lp5524
S':'
asbag68
(g89
g70
NtRp5525
(dp5526
g73
(dp5527
sg82
g5512
sg75
(lp5528
g68
(g69
g70
NtRp5529
(dp5530
g73
(dp5531
g81
I3
ssg82
g5525
sg75
(lp5532
S'mayank.g@students.iiit.ac.in'
p5533
asbasbasbag68
(g84
g70
NtRp5534
(dp5535
g73
(dp5536
sg82
g5508
sg75
(lp5537
g68
(g89
g70
NtRp5538
(dp5539
g73
(dp5540
g93
g94
ssg82
g5534
sg75
(lp5541
S'first_name'
p5542
asbag68
(g89
g70
NtRp5543
(dp5544
g73
(dp5545
g100
g101
ssg82
g5534
sg75
(lp5546
S':'
asbag68
(g89
g70
NtRp5547
(dp5548
g73
(dp5549
sg82
g5534
sg75
(lp5550
g68
(g69
g70
NtRp5551
(dp5552
g73
(dp5553
g81
I3
ssg82
g5547
sg75
(lp5554
S'Mayank'
p5555
asbasbasbag68
(g84
g70
NtRp5556
(dp5557
g73
(dp5558
sg82
g5508
sg75
(lp5559
g68
(g89
g70
NtRp5560
(dp5561
g73
(dp5562
g93
g94
ssg82
g5556
sg75
(lp5563
S'id'
p5564
asbag68
(g89
g70
NtRp5565
(dp5566
g73
(dp5567
g100
g101
ssg82
g5556
sg75
(lp5568
S':'
asbag68
(g89
g70
NtRp5569
(dp5570
g73
(dp5571
sg82
g5556
sg75
(lp5572
g68
(g69
g70
NtRp5573
(dp5574
g73
(dp5575
g81
I3
ssg82
g5569
sg75
(lp5576
S'2'
asbasbasbag68
(g84
g70
NtRp5577
(dp5578
g73
(dp5579
sg82
g5508
sg75
(lp5580
g68
(g89
g70
NtRp5581
(dp5582
g73
(dp5583
g93
g94
ssg82
g5577
sg75
(lp5584
S'last_name'
p5585
asbag68
(g89
g70
NtRp5586
(dp5587
g73
(dp5588
g100
g101
ssg82
g5577
sg75
(lp5589
S':'
asbag68
(g89
g70
NtRp5590
(dp5591
g73
(dp5592
sg82
g5577
sg75
(lp5593
g68
(g69
g70
NtRp5594
(dp5595
g73
(dp5596
g81
I3
ssg82
g5590
sg75
(lp5597
S'Gupta'
p5598
asbasbasbag68
(g84
g70
NtRp5599
(dp5600
g73
(dp5601
sg82
g5508
sg75
(lp5602
g68
(g89
g70
NtRp5603
(dp5604
g73
(dp5605
g93
g94
ssg82
g5599
sg75
(lp5606
S'password'
p5607
asbag68
(g89
g70
NtRp5608
(dp5609
g73
(dp5610
g100
g101
ssg82
g5599
sg75
(lp5611
S':'
asbag68
(g89
g70
NtRp5612
(dp5613
g73
(dp5614
sg82
g5599
sg75
(lp5615
g68
(g69
g70
NtRp5616
(dp5617
g73
(dp5618
g81
I3
ssg82
g5612
sg75
(lp5619
S'pbkdf2(1000,20,sha512)$8844a2a4d26d9848$1f3639c3b362a7af40d7421ad0a6f0c662d164b6'
p5620
asbasbasbag68
(g84
g70
NtRp5621
(dp5622
g73
(dp5623
sg82
g5508
sg75
(lp5624
g68
(g89
g70
NtRp5625
(dp5626
g73
(dp5627
g93
g94
ssg82
g5621
sg75
(lp5628
S'registration_id'
p5629
asbag68
(g89
g70
NtRp5630
(dp5631
g73
(dp5632
g100
g101
ssg82
g5621
sg75
(lp5633
S':'
asbag68
(g89
g70
NtRp5634
(dp5635
g73
(dp5636
sg82
g5621
sg75
(lp5637
g68
(g69
g70
NtRp5638
(dp5639
g73
(dp5640
g81
I3
ssg82
g5634
sg75
(lp5641
S''
asbasbasbag68
(g84
g70
NtRp5642
(dp5643
g73
(dp5644
sg82
g5508
sg75
(lp5645
g68
(g89
g70
NtRp5646
(dp5647
g73
(dp5648
g93
g94
ssg82
g5642
sg75
(lp5649
S'registration_key'
p5650
asbag68
(g89
g70
NtRp5651
(dp5652
g73
(dp5653
g100
g101
ssg82
g5642
sg75
(lp5654
S':'
asbag68
(g89
g70
NtRp5655
(dp5656
g73
(dp5657
sg82
g5642
sg75
(lp5658
g68
(g69
g70
NtRp5659
(dp5660
g73
(dp5661
g81
I3
ssg82
g5655
sg75
(lp5662
S''
asbasbasbag68
(g84
g70
NtRp5663
(dp5664
g73
(dp5665
sg82
g5508
sg75
(lp5666
g68
(g89
g70
NtRp5667
(dp5668
g73
(dp5669
g93
g94
ssg82
g5663
sg75
(lp5670
S'reset_password_key'
p5671
asbag68
(g89
g70
NtRp5672
(dp5673
g73
(dp5674
g100
g101
ssg82
g5663
sg75
(lp5675
S':'
asbag68
(g89
g70
NtRp5676
(dp5677
g73
(dp5678
sg82
g5663
sg75
(lp5679
g68
(g69
g70
NtRp5680
(dp5681
g73
(dp5682
g81
I3
ssg82
g5676
sg75
(lp5683
S''
asbasbasbasbasbasbasbag68
(g84
g70
NtRp5684
(dp5685
g73
(dp5686
sg82
g5396
sg75
(lp5687
g68
(g89
g70
NtRp5688
(dp5689
g73
(dp5690
g93
g94
ssg82
g5684
sg75
(lp5691
S'user_groups'
p5692
asbag68
(g89
g70
NtRp5693
(dp5694
g73
(dp5695
g100
g101
ssg82
g5684
sg75
(lp5696
S':'
asbag68
(g89
g70
NtRp5697
(dp5698
g73
(dp5699
sg82
g5684
sg75
(lp5700
g68
(g69
g70
NtRp5701
(dp5702
g73
(dp5703
g81
I4
ssg82
g5697
sg75
(lp5704
g68
(g77
g70
NtRp5705
(dp5706
g73
(dp5707
g81
I3
ssg82
Nsg75
(lp5708
g68
(g84
g70
NtRp5709
(dp5710
g73
(dp5711
sg82
g5705
sg75
(lp5712
g68
(g89
g70
NtRp5713
(dp5714
g73
(dp5715
g93
g94
ssg82
g5709
sg75
(lp5716
S'2'
asbag68
(g89
g70
NtRp5717
(dp5718
g73
(dp5719
g100
g101
ssg82
g5709
sg75
(lp5720
S':'
asbag68
(g89
g70
NtRp5721
(dp5722
g73
(dp5723
sg82
g5709
sg75
(lp5724
g68
(g69
g70
NtRp5725
(dp5726
g73
(dp5727
g81
I3
ssg82
g5721
sg75
(lp5728
S'user_2'
p5729
asbasbasbasbasbasbasbasbasbasbasbag68
(g84
g70
NtRp5730
(dp5731
g73
(dp5732
sg82
g5371
sg75
(lp5733
g68
(g89
g70
NtRp5734
(dp5735
g73
(dp5736
g93
g94
ssg82
g5730
sg75
(lp5737
S'flash'
p5738
asbag68
(g89
g70
NtRp5739
(dp5740
g73
(dp5741
g100
g101
ssg82
g5730
sg75
(lp5742
S':'
asbag68
(g89
g70
NtRp5743
(dp5744
g73
(dp5745
sg82
g5730
sg75
(lp5746
g68
(g69
g70
NtRp5747
(dp5748
g73
(dp5749
g81
I5
ssg82
g5743
sg75
(lp5750
S'None'
p5751
asbasbasbasbasbsS'etype'
p5752
S"<type 'exceptions.SyntaxError'>"
p5753
sS'date'
p5754
S'Thu Nov  7 17:35:00 2013'
p5755
sS'response'
p5756
g68
(g69
g70
NtRp5757
(dp5758
g73
(dp5759
sg75
(lp5760
g68
(g77
g70
NtRp5761
(dp5762
g73
(dp5763
g81
I5
ssg82
Nsg75
(lp5764
g68
(g84
g70
NtRp5765
(dp5766
g73
(dp5767
sg82
g5761
sg75
(lp5768
g68
(g89
g70
NtRp5769
(dp5770
g73
(dp5771
g93
g94
ssg82
g5765
sg75
(lp5772
g166
asbag68
(g89
g70
NtRp5773
(dp5774
g73
(dp5775
g100
g101
ssg82
g5765
sg75
(lp5776
S':'
asbag68
(g89
g70
NtRp5777
(dp5778
g73
(dp5779
sg82
g5765
sg75
(lp5780
g68
(g69
g70
NtRp5781
(dp5782
g73
(dp5783
g81
I5
ssg82
g5777
sg75
(lp5784
S'<cStringIO.StringO object at 0x7f276c3d37a0>'
p5785
asbasbasbag68
(g84
g70
NtRp5786
(dp5787
g73
(dp5788
sg82
g5761
sg75
(lp5789
g68
(g89
g70
NtRp5790
(dp5791
g73
(dp5792
g93
g94
ssg82
g5786
sg75
(lp5793
g254
asbag68
(g89
g70
NtRp5794
(dp5795
g73
(dp5796
g100
g101
ssg82
g5786
sg75
(lp5797
S':'
asbag68
(g89
g70
NtRp5798
(dp5799
g73
(dp5800
sg82
g5786
sg75
(lp5801
g68
(g69
g70
NtRp5802
(dp5803
g73
(dp5804
g81
I5
ssg82
g5798
sg75
(lp5805
g68
(g77
g70
NtRp5806
(dp5807
g73
(dp5808
g81
I4
ssg82
Nsg75
(lp5809
g68
(g84
g70
NtRp5810
(dp5811
g73
(dp5812
sg82
g5806
sg75
(lp5813
g68
(g89
g70
NtRp5814
(dp5815
g73
(dp5816
g93
g94
ssg82
g5810
sg75
(lp5817
S'session_id_funkload'
p5818
asbag68
(g89
g70
NtRp5819
(dp5820
g73
(dp5821
g100
g101
ssg82
g5810
sg75
(lp5822
S':'
asbag68
(g89
g70
NtRp5823
(dp5824
g73
(dp5825
sg82
g5810
sg75
(lp5826
g68
(g69
g70
NtRp5827
(dp5828
g73
(dp5829
g81
I4
ssg82
g5823
sg75
(lp5830
g1416
ag68
(g77
g70
NtRp5831
(dp5832
g73
(dp5833
g81
I3
ssg82
Nsg75
(lp5834
g68
(g84
g70
NtRp5835
(dp5836
g73
(dp5837
sg82
g5831
sg75
(lp5838
g68
(g89
g70
NtRp5839
(dp5840
g73
(dp5841
g93
g94
ssg82
g5835
sg75
(lp5842
g305
asbag68
(g89
g70
NtRp5843
(dp5844
g73
(dp5845
g100
g101
ssg82
g5835
sg75
(lp5846
S':'
asbag68
(g89
g70
NtRp5847
(dp5848
g73
(dp5849
sg82
g5835
sg75
(lp5850
g68
(g69
g70
NtRp5851
(dp5852
g73
(dp5853
g81
I3
ssg82
g5847
sg75
(lp5854
S''
asbasbasbag68
(g84
g70
NtRp5855
(dp5856
g73
(dp5857
sg82
g5831
sg75
(lp5858
g68
(g89
g70
NtRp5859
(dp5860
g73
(dp5861
g93
g94
ssg82
g5855
sg75
(lp5862
g326
asbag68
(g89
g70
NtRp5863
(dp5864
g73
(dp5865
g100
g101
ssg82
g5855
sg75
(lp5866
S':'
asbag68
(g89
g70
NtRp5867
(dp5868
g73
(dp5869
sg82
g5855
sg75
(lp5870
g68
(g69
g70
NtRp5871
(dp5872
g73
(dp5873
g81
I3
ssg82
g5867
sg75
(lp5874
S''
asbasbasbag68
(g84
g70
NtRp5875
(dp5876
g73
(dp5877
sg82
g5831
sg75
(lp5878
g68
(g89
g70
NtRp5879
(dp5880
g73
(dp5881
g93
g94
ssg82
g5875
sg75
(lp5882
g347
asbag68
(g89
g70
NtRp5883
(dp5884
g73
(dp5885
g100
g101
ssg82
g5875
sg75
(lp5886
S':'
asbag68
(g89
g70
NtRp5887
(dp5888
g73
(dp5889
sg82
g5875
sg75
(lp5890
g68
(g69
g70
NtRp5891
(dp5892
g73
(dp5893
g81
I3
ssg82
g5887
sg75
(lp5894
S''
asbasbasbag68
(g84
g70
NtRp5895
(dp5896
g73
(dp5897
sg82
g5831
sg75
(lp5898
g68
(g89
g70
NtRp5899
(dp5900
g73
(dp5901
g93
g94
ssg82
g5895
sg75
(lp5902
g368
asbag68
(g89
g70
NtRp5903
(dp5904
g73
(dp5905
g100
g101
ssg82
g5895
sg75
(lp5906
S':'
asbag68
(g89
g70
NtRp5907
(dp5908
g73
(dp5909
sg82
g5895
sg75
(lp5910
g68
(g69
g70
NtRp5911
(dp5912
g73
(dp5913
g81
I3
ssg82
g5907
sg75
(lp5914
S''
asbasbasbag68
(g84
g70
NtRp5915
(dp5916
g73
(dp5917
sg82
g5831
sg75
(lp5918
g68
(g89
g70
NtRp5919
(dp5920
g73
(dp5921
g93
g94
ssg82
g5915
sg75
(lp5922
g389
asbag68
(g89
g70
NtRp5923
(dp5924
g73
(dp5925
g100
g101
ssg82
g5915
sg75
(lp5926
S':'
asbag68
(g89
g70
NtRp5927
(dp5928
g73
(dp5929
sg82
g5915
sg75
(lp5930
g68
(g69
g70
NtRp5931
(dp5932
g73
(dp5933
g81
I3
ssg82
g5927
sg75
(lp5934
S''
asbasbasbag68
(g84
g70
NtRp5935
(dp5936
g73
(dp5937
sg82
g5831
sg75
(lp5938
g68
(g89
g70
NtRp5939
(dp5940
g73
(dp5941
g93
g94
ssg82
g5935
sg75
(lp5942
g410
asbag68
(g89
g70
NtRp5943
(dp5944
g73
(dp5945
g100
g101
ssg82
g5935
sg75
(lp5946
S':'
asbag68
(g89
g70
NtRp5947
(dp5948
g73
(dp5949
sg82
g5935
sg75
(lp5950
g68
(g69
g70
NtRp5951
(dp5952
g73
(dp5953
g81
I3
ssg82
g5947
sg75
(lp5954
S'/'
asbasbasbag68
(g84
g70
NtRp5955
(dp5956
g73
(dp5957
sg82
g5831
sg75
(lp5958
g68
(g89
g70
NtRp5959
(dp5960
g73
(dp5961
g93
g94
ssg82
g5955
sg75
(lp5962
g431
asbag68
(g89
g70
NtRp5963
(dp5964
g73
(dp5965
g100
g101
ssg82
g5955
sg75
(lp5966
S':'
asbag68
(g89
g70
NtRp5967
(dp5968
g73
(dp5969
sg82
g5955
sg75
(lp5970
g68
(g69
g70
NtRp5971
(dp5972
g73
(dp5973
g81
I3
ssg82
g5967
sg75
(lp5974
S''
asbasbasbag68
(g84
g70
NtRp5975
(dp5976
g73
(dp5977
sg82
g5831
sg75
(lp5978
g68
(g89
g70
NtRp5979
(dp5980
g73
(dp5981
g93
g94
ssg82
g5975
sg75
(lp5982
g452
asbag68
(g89
g70
NtRp5983
(dp5984
g73
(dp5985
g100
g101
ssg82
g5975
sg75
(lp5986
S':'
asbag68
(g89
g70
NtRp5987
(dp5988
g73
(dp5989
sg82
g5975
sg75
(lp5990
g68
(g69
g70
NtRp5991
(dp5992
g73
(dp5993
g81
I3
ssg82
g5987
sg75
(lp5994
S''
asbasbasbasbasbasbasbasbasbasbasbag68
(g84
g70
NtRp5995
(dp5996
g73
(dp5997
sg82
g5761
sg75
(lp5998
g68
(g89
g70
NtRp5999
(dp6000
g73
(dp6001
g93
g94
ssg82
g5995
sg75
(lp6002
S'delimiters'
p6003
asbag68
(g89
g70
NtRp6004
(dp6005
g73
(dp6006
g100
g101
ssg82
g5995
sg75
(lp6007
S':'
asbag68
(g89
g70
NtRp6008
(dp6009
g73
(dp6010
sg82
g5995
sg75
(lp6011
g68
(g69
g70
NtRp6012
(dp6013
g73
(dp6014
g81
I5
ssg82
g6008
sg75
(lp6015
g68
(g77
g70
NtRp6016
(dp6017
g73
(dp6018
g81
I4
ssg82
Nsg75
(lp6019
g68
(g84
g70
NtRp6020
(dp6021
g73
(dp6022
sg82
g6016
sg75
(lp6023
g68
(g89
g70
NtRp6024
(dp6025
g73
(dp6026
sg82
g6020
sg75
(lp6027
g68
(g69
g70
NtRp6028
(dp6029
g73
(dp6030
g81
I4
ssg82
g6024
sg75
(lp6031
S'{{'
p6032
asbasbasbag68
(g84
g70
NtRp6033
(dp6034
g73
(dp6035
sg82
g6016
sg75
(lp6036
g68
(g89
g70
NtRp6037
(dp6038
g73
(dp6039
sg82
g6033
sg75
(lp6040
g68
(g69
g70
NtRp6041
(dp6042
g73
(dp6043
g81
I4
ssg82
g6037
sg75
(lp6044
S'}}'
p6045
asbasbasbasbasbasbasbag68
(g84
g70
NtRp6046
(dp6047
g73
(dp6048
sg82
g5761
sg75
(lp6049
g68
(g89
g70
NtRp6050
(dp6051
g73
(dp6052
g93
g94
ssg82
g6046
sg75
(lp6053
S'files'
p6054
asbag68
(g89
g70
NtRp6055
(dp6056
g73
(dp6057
g100
g101
ssg82
g6046
sg75
(lp6058
S':'
asbag68
(g89
g70
NtRp6059
(dp6060
g73
(dp6061
sg82
g6046
sg75
(lp6062
g68
(g69
g70
NtRp6063
(dp6064
g73
(dp6065
g81
I5
ssg82
g6059
sg75
(lp6066
g68
(g77
g70
NtRp6067
(dp6068
g73
(dp6069
g81
I4
ssg82
Nsg75
(lp6070
sbasbasbasbag68
(g84
g70
NtRp6071
(dp6072
g73
(dp6073
sg82
g5761
sg75
(lp6074
g68
(g89
g70
NtRp6075
(dp6076
g73
(dp6077
g93
g94
ssg82
g6071
sg75
(lp6078
S'flash'
p6079
asbag68
(g89
g70
NtRp6080
(dp6081
g73
(dp6082
g100
g101
ssg82
g6071
sg75
(lp6083
S':'
asbag68
(g89
g70
NtRp6084
(dp6085
g73
(dp6086
sg82
g6071
sg75
(lp6087
g68
(g69
g70
NtRp6088
(dp6089
g73
(dp6090
g81
I5
ssg82
g6084
sg75
(lp6091
cgluon.languages
lazyT_unpickle
p6092
(S's\x12\x00\x00\x00Welcome to web2py!'
tRp6093
asbasbasbag68
(g84
g70
NtRp6094
(dp6095
g73
(dp6096
sg82
g5761
sg75
(lp6097
g68
(g89
g70
NtRp6098
(dp6099
g73
(dp6100
g93
g94
ssg82
g6094
sg75
(lp6101
S'generic_patterns'
p6102
asbag68
(g89
g70
NtRp6103
(dp6104
g73
(dp6105
g100
g101
ssg82
g6094
sg75
(lp6106
S':'
asbag68
(g89
g70
NtRp6107
(dp6108
g73
(dp6109
sg82
g6094
sg75
(lp6110
g68
(g69
g70
NtRp6111
(dp6112
g73
(dp6113
g81
I5
ssg82
g6107
sg75
(lp6114
g68
(g77
g70
NtRp6115
(dp6116
g73
(dp6117
g81
I4
ssg82
Nsg75
(lp6118
g68
(g84
g70
NtRp6119
(dp6120
g73
(dp6121
sg82
g6115
sg75
(lp6122
g68
(g89
g70
NtRp6123
(dp6124
g73
(dp6125
sg82
g6119
sg75
(lp6126
g68
(g69
g70
NtRp6127
(dp6128
g73
(dp6129
g81
I4
ssg82
g6123
sg75
(lp6130
S'*'
asbasbasbasbasbasbasbag68
(g84
g70
NtRp6131
(dp6132
g73
(dp6133
sg82
g5761
sg75
(lp6134
g68
(g89
g70
NtRp6135
(dp6136
g73
(dp6137
g93
g94
ssg82
g6131
sg75
(lp6138
S'google_analytics_id'
p6139
asbag68
(g89
g70
NtRp6140
(dp6141
g73
(dp6142
g100
g101
ssg82
g6131
sg75
(lp6143
S':'
asbag68
(g89
g70
NtRp6144
(dp6145
g73
(dp6146
sg82
g6131
sg75
(lp6147
g68
(g69
g70
NtRp6148
(dp6149
g73
(dp6150
g81
I5
ssg82
g6144
sg75
(lp6151
S'None'
p6152
asbasbasbag68
(g84
g70
NtRp6153
(dp6154
g73
(dp6155
sg82
g5761
sg75
(lp6156
g68
(g89
g70
NtRp6157
(dp6158
g73
(dp6159
g93
g94
ssg82
g6153
sg75
(lp6160
S'headers'
p6161
asbag68
(g89
g70
NtRp6162
(dp6163
g73
(dp6164
g100
g101
ssg82
g6153
sg75
(lp6165
S':'
asbag68
(g89
g70
NtRp6166
(dp6167
g73
(dp6168
sg82
g6153
sg75
(lp6169
g68
(g69
g70
NtRp6170
(dp6171
g73
(dp6172
g81
I5
ssg82
g6166
sg75
(lp6173
g68
(g77
g70
NtRp6174
(dp6175
g73
(dp6176
g81
I4
ssg82
Nsg75
(lp6177
g68
(g84
g70
NtRp6178
(dp6179
g73
(dp6180
sg82
g6174
sg75
(lp6181
g68
(g89
g70
NtRp6182
(dp6183
g73
(dp6184
g93
g94
ssg82
g6178
sg75
(lp6185
S'Cache-Control'
p6186
asbag68
(g89
g70
NtRp6187
(dp6188
g73
(dp6189
g100
g101
ssg82
g6178
sg75
(lp6190
S':'
asbag68
(g89
g70
NtRp6191
(dp6192
g73
(dp6193
sg82
g6178
sg75
(lp6194
g68
(g69
g70
NtRp6195
(dp6196
g73
(dp6197
g81
I4
ssg82
g6191
sg75
(lp6198
S'no-store, no-cache, must-revalidate, post-check=0, pre-check=0'
p6199
asbasbasbag68
(g84
g70
NtRp6200
(dp6201
g73
(dp6202
sg82
g6174
sg75
(lp6203
g68
(g89
g70
NtRp6204
(dp6205
g73
(dp6206
g93
g94
ssg82
g6200
sg75
(lp6207
S'Content-Type'
p6208
asbag68
(g89
g70
NtRp6209
(dp6210
g73
(dp6211
g100
g101
ssg82
g6200
sg75
(lp6212
S':'
asbag68
(g89
g70
NtRp6213
(dp6214
g73
(dp6215
sg82
g6200
sg75
(lp6216
g68
(g69
g70
NtRp6217
(dp6218
g73
(dp6219
g81
I4
ssg82
g6213
sg75
(lp6220
S'text/html; charset=utf-8'
p6221
asbasbasbag68
(g84
g70
NtRp6222
(dp6223
g73
(dp6224
sg82
g6174
sg75
(lp6225
g68
(g89
g70
NtRp6226
(dp6227
g73
(dp6228
g93
g94
ssg82
g6222
sg75
(lp6229
S'Expires'
p6230
asbag68
(g89
g70
NtRp6231
(dp6232
g73
(dp6233
g100
g101
ssg82
g6222
sg75
(lp6234
S':'
asbag68
(g89
g70
NtRp6235
(dp6236
g73
(dp6237
sg82
g6222
sg75
(lp6238
g68
(g69
g70
NtRp6239
(dp6240
g73
(dp6241
g81
I4
ssg82
g6235
sg75
(lp6242
S'Thu, 07 Nov 2013 12:05:00 GMT'
p6243
asbasbasbag68
(g84
g70
NtRp6244
(dp6245
g73
(dp6246
sg82
g6174
sg75
(lp6247
g68
(g89
g70
NtRp6248
(dp6249
g73
(dp6250
g93
g94
ssg82
g6244
sg75
(lp6251
S'Pragma'
p6252
asbag68
(g89
g70
NtRp6253
(dp6254
g73
(dp6255
g100
g101
ssg82
g6244
sg75
(lp6256
S':'
asbag68
(g89
g70
NtRp6257
(dp6258
g73
(dp6259
sg82
g6244
sg75
(lp6260
g68
(g69
g70
NtRp6261
(dp6262
g73
(dp6263
g81
I4
ssg82
g6257
sg75
(lp6264
S'no-cache'
p6265
asbasbasbag68
(g84
g70
NtRp6266
(dp6267
g73
(dp6268
sg82
g6174
sg75
(lp6269
g68
(g89
g70
NtRp6270
(dp6271
g73
(dp6272
g93
g94
ssg82
g6266
sg75
(lp6273
S'X-Powered-By'
p6274
asbag68
(g89
g70
NtRp6275
(dp6276
g73
(dp6277
g100
g101
ssg82
g6266
sg75
(lp6278
S':'
asbag68
(g89
g70
NtRp6279
(dp6280
g73
(dp6281
sg82
g6266
sg75
(lp6282
g68
(g69
g70
NtRp6283
(dp6284
g73
(dp6285
g81
I4
ssg82
g6279
sg75
(lp6286
S'web2py'
p6287
asbasbasbasbasbasbasbag68
(g84
g70
NtRp6288
(dp6289
g73
(dp6290
sg82
g5761
sg75
(lp6291
g68
(g89
g70
NtRp6292
(dp6293
g73
(dp6294
g93
g94
ssg82
g6288
sg75
(lp6295
S'menu'
p6296
asbag68
(g89
g70
NtRp6297
(dp6298
g73
(dp6299
g100
g101
ssg82
g6288
sg75
(lp6300
S':'
asbag68
(g89
g70
NtRp6301
(dp6302
g73
(dp6303
sg82
g6288
sg75
(lp6304
g68
(g69
g70
NtRp6305
(dp6306
g73
(dp6307
g81
I5
ssg82
g6301
sg75
(lp6308
g68
(g77
g70
NtRp6309
(dp6310
g73
(dp6311
g81
I4
ssg82
Nsg75
(lp6312
g68
(g84
g70
NtRp6313
(dp6314
g73
(dp6315
sg82
g6309
sg75
(lp6316
g68
(g89
g70
NtRp6317
(dp6318
g73
(dp6319
sg82
g6313
sg75
(lp6320
g68
(g69
g70
NtRp6321
(dp6322
g73
(dp6323
g81
I4
ssg82
g6317
sg75
(lp6324
g68
(g77
g70
NtRp6325
(dp6326
g73
(dp6327
g81
I3
ssg82
Nsg75
(lp6328
g68
(g84
g70
NtRp6329
(dp6330
g73
(dp6331
sg82
g6325
sg75
(lp6332
g68
(g89
g70
NtRp6333
(dp6334
g73
(dp6335
sg82
g6329
sg75
(lp6336
g68
(g69
g70
NtRp6337
(dp6338
g73
(dp6339
g81
I3
ssg82
g6333
sg75
(lp6340
g6092
(S's\x04\x00\x00\x00Home'
tRp6341
asbasbasbag68
(g84
g70
NtRp6342
(dp6343
g73
(dp6344
sg82
g6325
sg75
(lp6345
g68
(g89
g70
NtRp6346
(dp6347
g73
(dp6348
sg82
g6342
sg75
(lp6349
g68
(g69
g70
NtRp6350
(dp6351
g73
(dp6352
g81
I3
ssg82
g6346
sg75
(lp6353
g111
asbasbasbag68
(g84
g70
NtRp6354
(dp6355
g73
(dp6356
sg82
g6325
sg75
(lp6357
g68
(g89
g70
NtRp6358
(dp6359
g73
(dp6360
sg82
g6354
sg75
(lp6361
g68
(g69
g70
NtRp6362
(dp6363
g73
(dp6364
g81
I3
ssg82
g6358
sg75
(lp6365
S'/FunkLoad/default/index'
p6366
asbasbasbag68
(g84
g70
NtRp6367
(dp6368
g73
(dp6369
sg82
g6325
sg75
(lp6370
g68
(g89
g70
NtRp6371
(dp6372
g73
(dp6373
sg82
g6367
sg75
(lp6374
g68
(g69
g70
NtRp6375
(dp6376
g73
(dp6377
g81
I3
ssg82
g6371
sg75
(lp6378
g68
(g77
g70
NtRp6379
(dp6380
g73
(dp6381
g81
I2
ssg82
Nsg75
(lp6382
sbasbasbasbasbasbasbasbag68
(g84
g70
NtRp6383
(dp6384
g73
(dp6385
sg82
g6309
sg75
(lp6386
g68
(g89
g70
NtRp6387
(dp6388
g73
(dp6389
sg82
g6383
sg75
(lp6390
g68
(g69
g70
NtRp6391
(dp6392
g73
(dp6393
g81
I4
ssg82
g6387
sg75
(lp6394
g68
(g77
g70
NtRp6395
(dp6396
g73
(dp6397
g81
I3
ssg82
Nsg75
(lp6398
g68
(g84
g70
NtRp6399
(dp6400
g73
(dp6401
sg82
g6395
sg75
(lp6402
g68
(g89
g70
NtRp6403
(dp6404
g73
(dp6405
sg82
g6399
sg75
(lp6406
g68
(g69
g70
NtRp6407
(dp6408
g73
(dp6409
g81
I3
ssg82
g6403
sg75
(lp6410
g68
(cgluon.html
SPAN
p6411
g70
NtRp6412
(dp6413
g73
(dp6414
g93
S'color:yellow'
p6415
ssg82
Nsg75
(lp6416
g6287
asbasbasbasbag68
(g84
g70
NtRp6417
(dp6418
g73
(dp6419
sg82
g6395
sg75
(lp6420
g68
(g89
g70
NtRp6421
(dp6422
g73
(dp6423
sg82
g6417
sg75
(lp6424
g68
(g69
g70
NtRp6425
(dp6426
g73
(dp6427
g81
I3
ssg82
g6421
sg75
(lp6428
g111
asbasbasbag68
(g84
g70
NtRp6429
(dp6430
g73
(dp6431
sg82
g6395
sg75
(lp6432
g68
(g89
g70
NtRp6433
(dp6434
g73
(dp6435
sg82
g6429
sg75
(lp6436
g68
(g69
g70
NtRp6437
(dp6438
g73
(dp6439
g81
I3
ssg82
g6433
sg75
(lp6440
S'http://web2py.com'
p6441
asbasbasbag68
(g84
g70
NtRp6442
(dp6443
g73
(dp6444
sg82
g6395
sg75
(lp6445
g68
(g89
g70
NtRp6446
(dp6447
g73
(dp6448
sg82
g6442
sg75
(lp6449
g68
(g69
g70
NtRp6450
(dp6451
g73
(dp6452
g81
I3
ssg82
g6446
sg75
(lp6453
g68
(g77
g70
NtRp6454
(dp6455
g73
(dp6456
g81
I2
ssg82
Nsg75
(lp6457
g68
(g84
g70
NtRp6458
(dp6459
g73
(dp6460
sg82
g6454
sg75
(lp6461
g68
(g89
g70
NtRp6462
(dp6463
g73
(dp6464
sg82
g6458
sg75
(lp6465
g68
(g69
g70
NtRp6466
(dp6467
g73
(dp6468
g81
I2
ssg82
g6462
sg75
(lp6469
g68
(g77
g70
NtRp6470
(dp6471
g73
(dp6472
g81
I1
ssg82
Nsg75
(lp6473
g68
(g84
g70
NtRp6474
(dp6475
g73
(dp6476
sg82
g6470
sg75
(lp6477
g68
(g89
g70
NtRp6478
(dp6479
g73
(dp6480
sg82
g6474
sg75
(lp6481
g68
(g69
g70
NtRp6482
(dp6483
g73
(dp6484
g81
I1
ssg82
g6478
sg75
(lp6485
g6092
(S's\x08\x00\x00\x00My Sites'
tRp6486
asbasbasbag68
(g84
g70
NtRp6487
(dp6488
g73
(dp6489
sg82
g6470
sg75
(lp6490
g68
(g89
g70
NtRp6491
(dp6492
g73
(dp6493
sg82
g6487
sg75
(lp6494
g68
(g69
g70
NtRp6495
(dp6496
g73
(dp6497
g81
I1
ssg82
g6491
sg75
(lp6498
I00
asbasbasbag68
(g84
g70
NtRp6499
(dp6500
g73
(dp6501
sg82
g6470
sg75
(lp6502
g68
(g89
g70
NtRp6503
(dp6504
g73
(dp6505
sg82
g6499
sg75
(lp6506
g68
(g69
g70
NtRp6507
(dp6508
g73
(dp6509
g81
I1
ssg82
g6503
sg75
(lp6510
S'/admin/default/site'
p6511
asbasbasbasbasbasbasbag68
(g84
g70
NtRp6512
(dp6513
g73
(dp6514
sg82
g6454
sg75
(lp6515
g68
(g89
g70
NtRp6516
(dp6517
g73
(dp6518
sg82
g6512
sg75
(lp6519
g68
(g69
g70
NtRp6520
(dp6521
g73
(dp6522
g81
I2
ssg82
g6516
sg75
(lp6523
g68
(g77
g70
NtRp6524
(dp6525
g73
(dp6526
g81
I1
ssg82
Nsg75
(lp6527
g68
(g84
g70
NtRp6528
(dp6529
g73
(dp6530
sg82
g6524
sg75
(lp6531
g68
(g89
g70
NtRp6532
(dp6533
g73
(dp6534
sg82
g6528
sg75
(lp6535
g68
(g69
g70
NtRp6536
(dp6537
g73
(dp6538
g81
I1
ssg82
g6532
sg75
(lp6539
g6092
(S's\x08\x00\x00\x00This App'
tRp6540
asbasbasbag68
(g84
g70
NtRp6541
(dp6542
g73
(dp6543
sg82
g6524
sg75
(lp6544
g68
(g89
g70
NtRp6545
(dp6546
g73
(dp6547
sg82
g6541
sg75
(lp6548
g68
(g69
g70
NtRp6549
(dp6550
g73
(dp6551
g81
I1
ssg82
g6545
sg75
(lp6552
I00
asbasbasbag68
(g84
g70
NtRp6553
(dp6554
g73
(dp6555
sg82
g6524
sg75
(lp6556
g68
(g89
g70
NtRp6557
(dp6558
g73
(dp6559
sg82
g6553
sg75
(lp6560
g68
(g69
g70
NtRp6561
(dp6562
g73
(dp6563
g81
I1
ssg82
g6557
sg75
(lp6564
S'/admin/default/design/FunkLoad'
p6565
asbasbasbag68
(g84
g70
NtRp6566
(dp6567
g73
(dp6568
sg82
g6524
sg75
(lp6569
g68
(g89
g70
NtRp6570
(dp6571
g73
(dp6572
sg82
g6566
sg75
(lp6573
g68
(g69
g70
NtRp6574
(dp6575
g73
(dp6576
g81
I1
ssg82
g6570
sg75
(lp6577
(lp6578
(g6092
(S's\n\x00\x00\x00Controller'
tRp6579
I00
S'/admin/default/edit/FunkLoad/controllers/default.py'
tp6580
a(g6092
(S's\x04\x00\x00\x00View'
tRp6581
I00
S'/admin/default/edit/FunkLoad/views/default/index.html'
tp6582
a(g6092
(S's\x06\x00\x00\x00Layout'
tRp6583
I00
S'/admin/default/edit/FunkLoad/views/layout.html'
tp6584
a(g6092
(S's\n\x00\x00\x00Stylesheet'
tRp6585
I00
S'/admin/default/edit/FunkLoad/static/css/web2py.css'
tp6586
a(g6092
(S's\x08\x00\x00\x00DB Model'
tRp6587
I00
S'/admin/default/edit/FunkLoad/models/db.py'
tp6588
a(g6092
(S's\n\x00\x00\x00Menu Model'
tRp6589
I00
S'/admin/default/edit/FunkLoad/models/menu.py'
tp6590
a(g6092
(S's\x08\x00\x00\x00Database'
tRp6591
I00
S'/FunkLoad/appadmin/index'
tp6592
a(g6092
(S's\x06\x00\x00\x00Errors'
tRp6593
I00
S'/admin/default/errors/FunkLoad'
tp6594
a(g6092
(S's\x05\x00\x00\x00About'
tRp6595
I00
S'/admin/default/about/FunkLoad'
tp6596
aasbasbasbasbasbasbasbag68
(g84
g70
NtRp6597
(dp6598
g73
(dp6599
sg82
g6454
sg75
(lp6600
g68
(g89
g70
NtRp6601
(dp6602
g73
(dp6603
sg82
g6597
sg75
(lp6604
g68
(g69
g70
NtRp6605
(dp6606
g73
(dp6607
g81
I2
ssg82
g6601
sg75
(lp6608
g68
(g77
g70
NtRp6609
(dp6610
g73
(dp6611
g81
I1
ssg82
Nsg75
(lp6612
g68
(g84
g70
NtRp6613
(dp6614
g73
(dp6615
sg82
g6609
sg75
(lp6616
g68
(g89
g70
NtRp6617
(dp6618
g73
(dp6619
sg82
g6613
sg75
(lp6620
g68
(g69
g70
NtRp6621
(dp6622
g73
(dp6623
g81
I1
ssg82
g6617
sg75
(lp6624
S'web2py.com'
p6625
asbasbasbag68
(g84
g70
NtRp6626
(dp6627
g73
(dp6628
sg82
g6609
sg75
(lp6629
g68
(g89
g70
NtRp6630
(dp6631
g73
(dp6632
sg82
g6626
sg75
(lp6633
g68
(g69
g70
NtRp6634
(dp6635
g73
(dp6636
g81
I1
ssg82
g6630
sg75
(lp6637
I00
asbasbasbag68
(g84
g70
NtRp6638
(dp6639
g73
(dp6640
sg82
g6609
sg75
(lp6641
g68
(g89
g70
NtRp6642
(dp6643
g73
(dp6644
sg82
g6638
sg75
(lp6645
g68
(g69
g70
NtRp6646
(dp6647
g73
(dp6648
g81
I1
ssg82
g6642
sg75
(lp6649
S'http://www.web2py.com'
p6650
asbasbasbag68
(g84
g70
NtRp6651
(dp6652
g73
(dp6653
sg82
g6609
sg75
(lp6654
g68
(g89
g70
NtRp6655
(dp6656
g73
(dp6657
sg82
g6651
sg75
(lp6658
g68
(g69
g70
NtRp6659
(dp6660
g73
(dp6661
g81
I1
ssg82
g6655
sg75
(lp6662
(lp6663
(g6092
(S's\x08\x00\x00\x00Download'
tRp6664
I00
S'http://www.web2py.com/examples/default/download'
p6665
tp6666
a(g6092
(S's\x07\x00\x00\x00Support'
tRp6667
I00
S'http://www.web2py.com/examples/default/support'
p6668
tp6669
a(g6092
(S's\x04\x00\x00\x00Demo'
tRp6670
I00
S'http://web2py.com/demo_admin'
p6671
tp6672
a(g6092
(S's\x0e\x00\x00\x00Quick Examples'
tRp6673
I00
S'http://web2py.com/examples/default/examples'
p6674
tp6675
a(g6092
(S's\x03\x00\x00\x00FAQ'
tRp6676
I00
S'http://web2py.com/AlterEgo'
p6677
tp6678
a(g6092
(S's\x06\x00\x00\x00Videos'
tRp6679
I00
S'http://www.web2py.com/examples/default/videos/'
p6680
tp6681
a(g6092
(S's\x11\x00\x00\x00Free Applications'
tRp6682
I00
S'http://web2py.com/appliances'
p6683
tp6684
a(g6092
(S's\x07\x00\x00\x00Plugins'
tRp6685
I00
S'http://web2py.com/plugins'
p6686
tp6687
a(g6092
(S's\x07\x00\x00\x00Layouts'
tRp6688
I00
S'http://web2py.com/layouts'
p6689
tp6690
a(g6092
(S's\x07\x00\x00\x00Recipes'
tRp6691
I00
S'http://web2pyslices.com/'
p6692
tp6693
a(g6092
(S's\x08\x00\x00\x00Semantic'
tRp6694
I00
S'http://web2py.com/semantic'
p6695
tp6696
aasbasbasbasbasbasbasbag68
(g84
g70
NtRp6697
(dp6698
g73
(dp6699
sg82
g6454
sg75
(lp6700
g68
(g89
g70
NtRp6701
(dp6702
g73
(dp6703
sg82
g6697
sg75
(lp6704
g68
(g69
g70
NtRp6705
(dp6706
g73
(dp6707
g81
I2
ssg82
g6701
sg75
(lp6708
g68
(g77
g70
NtRp6709
(dp6710
g73
(dp6711
g81
I1
ssg82
Nsg75
(lp6712
g68
(g84
g70
NtRp6713
(dp6714
g73
(dp6715
sg82
g6709
sg75
(lp6716
g68
(g89
g70
NtRp6717
(dp6718
g73
(dp6719
sg82
g6713
sg75
(lp6720
g68
(g69
g70
NtRp6721
(dp6722
g73
(dp6723
g81
I1
ssg82
g6717
sg75
(lp6724
g6092
(S's\r\x00\x00\x00Documentation'
tRp6725
asbasbasbag68
(g84
g70
NtRp6726
(dp6727
g73
(dp6728
sg82
g6709
sg75
(lp6729
g68
(g89
g70
NtRp6730
(dp6731
g73
(dp6732
sg82
g6726
sg75
(lp6733
g68
(g69
g70
NtRp6734
(dp6735
g73
(dp6736
g81
I1
ssg82
g6730
sg75
(lp6737
I00
asbasbasbag68
(g84
g70
NtRp6738
(dp6739
g73
(dp6740
sg82
g6709
sg75
(lp6741
g68
(g89
g70
NtRp6742
(dp6743
g73
(dp6744
sg82
g6738
sg75
(lp6745
g68
(g69
g70
NtRp6746
(dp6747
g73
(dp6748
g81
I1
ssg82
g6742
sg75
(lp6749
S'http://www.web2py.com/book'
p6750
asbasbasbag68
(g84
g70
NtRp6751
(dp6752
g73
(dp6753
sg82
g6709
sg75
(lp6754
g68
(g89
g70
NtRp6755
(dp6756
g73
(dp6757
sg82
g6751
sg75
(lp6758
g68
(g69
g70
NtRp6759
(dp6760
g73
(dp6761
g81
I1
ssg82
g6755
sg75
(lp6762
(lp6763
(g6092
(S's\x07\x00\x00\x00Preface'
tRp6764
I00
S'http://www.web2py.com/book/default/chapter/00'
p6765
tp6766
a(g6092
(S's\x0c\x00\x00\x00Introduction'
tRp6767
I00
S'http://www.web2py.com/book/default/chapter/01'
p6768
tp6769
a(g6092
(S's\x06\x00\x00\x00Python'
tRp6770
I00
S'http://www.web2py.com/book/default/chapter/02'
p6771
tp6772
a(g6092
(S's\x08\x00\x00\x00Overview'
tRp6773
I00
S'http://www.web2py.com/book/default/chapter/03'
p6774
tp6775
a(g6092
(S's\x08\x00\x00\x00The Core'
tRp6776
I00
S'http://www.web2py.com/book/default/chapter/04'
p6777
tp6778
a(g6092
(S's\t\x00\x00\x00The Views'
tRp6779
I00
S'http://www.web2py.com/book/default/chapter/05'
p6780
tp6781
a(g6092
(S's\x08\x00\x00\x00Database'
tRp6782
I00
S'http://www.web2py.com/book/default/chapter/06'
p6783
tp6784
a(g6092
(S's\x14\x00\x00\x00Forms and Validators'
tRp6785
I00
S'http://www.web2py.com/book/default/chapter/07'
p6786
tp6787
a(g6092
(S's\r\x00\x00\x00Email and SMS'
tRp6788
I00
S'http://www.web2py.com/book/default/chapter/08'
p6789
tp6790
a(g6092
(S's\x0e\x00\x00\x00Access Control'
tRp6791
I00
S'http://www.web2py.com/book/default/chapter/09'
p6792
tp6793
a(g6092
(S's\x08\x00\x00\x00Services'
tRp6794
I00
S'http://www.web2py.com/book/default/chapter/10'
p6795
tp6796
a(g6092
(S's\x0c\x00\x00\x00Ajax Recipes'
tRp6797
I00
S'http://www.web2py.com/book/default/chapter/11'
p6798
tp6799
a(g6092
(S's\x16\x00\x00\x00Components and Plugins'
tRp6800
I00
S'http://www.web2py.com/book/default/chapter/12'
p6801
tp6802
a(g6092
(S's\x12\x00\x00\x00Deployment Recipes'
tRp6803
I00
S'http://www.web2py.com/book/default/chapter/13'
p6804
tp6805
a(g6092
(S's\r\x00\x00\x00Other Recipes'
tRp6806
I00
S'http://www.web2py.com/book/default/chapter/14'
p6807
tp6808
a(g6092
(S's\r\x00\x00\x00Buy this book'
tRp6809
I00
S'http://stores.lulu.com/web2py'
p6810
tp6811
aasbasbasbasbasbasbasbag68
(g84
g70
NtRp6812
(dp6813
g73
(dp6814
sg82
g6454
sg75
(lp6815
g68
(g89
g70
NtRp6816
(dp6817
g73
(dp6818
sg82
g6812
sg75
(lp6819
g68
(g69
g70
NtRp6820
(dp6821
g73
(dp6822
g81
I2
ssg82
g6816
sg75
(lp6823
g68
(g77
g70
NtRp6824
(dp6825
g73
(dp6826
g81
I1
ssg82
Nsg75
(lp6827
g68
(g84
g70
NtRp6828
(dp6829
g73
(dp6830
sg82
g6824
sg75
(lp6831
g68
(g89
g70
NtRp6832
(dp6833
g73
(dp6834
sg82
g6828
sg75
(lp6835
g68
(g69
g70
NtRp6836
(dp6837
g73
(dp6838
g81
I1
ssg82
g6832
sg75
(lp6839
g6092
(S's\t\x00\x00\x00Community'
tRp6840
asbasbasbag68
(g84
g70
NtRp6841
(dp6842
g73
(dp6843
sg82
g6824
sg75
(lp6844
g68
(g89
g70
NtRp6845
(dp6846
g73
(dp6847
sg82
g6841
sg75
(lp6848
g68
(g69
g70
NtRp6849
(dp6850
g73
(dp6851
g81
I1
ssg82
g6845
sg75
(lp6852
I00
asbasbasbag68
(g84
g70
NtRp6853
(dp6854
g73
(dp6855
sg82
g6824
sg75
(lp6856
g68
(g89
g70
NtRp6857
(dp6858
g73
(dp6859
sg82
g6853
sg75
(lp6860
g68
(g69
g70
NtRp6861
(dp6862
g73
(dp6863
g81
I1
ssg82
g6857
sg75
(lp6864
Nasbasbasbag68
(g84
g70
NtRp6865
(dp6866
g73
(dp6867
sg82
g6824
sg75
(lp6868
g68
(g89
g70
NtRp6869
(dp6870
g73
(dp6871
sg82
g6865
sg75
(lp6872
g68
(g69
g70
NtRp6873
(dp6874
g73
(dp6875
g81
I1
ssg82
g6869
sg75
(lp6876
(lp6877
(g6092
(S's\x06\x00\x00\x00Groups'
tRp6878
I00
S'http://www.web2py.com/examples/default/usergroups'
p6879
tp6880
a(g6092
(S's\x07\x00\x00\x00Twitter'
tRp6881
I00
S'http://twitter.com/web2py'
p6882
tp6883
a(g6092
(S's\t\x00\x00\x00Live Chat'
tRp6884
I00
S'http://webchat.freenode.net/?channels=web2py'
p6885
tp6886
aasbasbasbasbasbasbasbag68
(g84
g70
NtRp6887
(dp6888
g73
(dp6889
sg82
g6454
sg75
(lp6890
g68
(g89
g70
NtRp6891
(dp6892
g73
(dp6893
sg82
g6887
sg75
(lp6894
g68
(g69
g70
NtRp6895
(dp6896
g73
(dp6897
g81
I2
ssg82
g6891
sg75
(lp6898
g68
(g77
g70
NtRp6899
(dp6900
g73
(dp6901
g81
I1
ssg82
Nsg75
(lp6902
g68
(g84
g70
NtRp6903
(dp6904
g73
(dp6905
sg82
g6899
sg75
(lp6906
g68
(g89
g70
NtRp6907
(dp6908
g73
(dp6909
sg82
g6903
sg75
(lp6910
g68
(g69
g70
NtRp6911
(dp6912
g73
(dp6913
g81
I1
ssg82
g6907
sg75
(lp6914
g6092
(S's\x07\x00\x00\x00Plugins'
tRp6915
asbasbasbag68
(g84
g70
NtRp6916
(dp6917
g73
(dp6918
sg82
g6899
sg75
(lp6919
g68
(g89
g70
NtRp6920
(dp6921
g73
(dp6922
sg82
g6916
sg75
(lp6923
g68
(g69
g70
NtRp6924
(dp6925
g73
(dp6926
g81
I1
ssg82
g6920
sg75
(lp6927
I00
asbasbasbag68
(g84
g70
NtRp6928
(dp6929
g73
(dp6930
sg82
g6899
sg75
(lp6931
g68
(g89
g70
NtRp6932
(dp6933
g73
(dp6934
sg82
g6928
sg75
(lp6935
g68
(g69
g70
NtRp6936
(dp6937
g73
(dp6938
g81
I1
ssg82
g6932
sg75
(lp6939
Nasbasbasbag68
(g84
g70
NtRp6940
(dp6941
g73
(dp6942
sg82
g6899
sg75
(lp6943
g68
(g89
g70
NtRp6944
(dp6945
g73
(dp6946
sg82
g6940
sg75
(lp6947
g68
(g69
g70
NtRp6948
(dp6949
g73
(dp6950
g81
I1
ssg82
g6944
sg75
(lp6951
(lp6952
(S'plugin_wiki'
p6953
I00
S'http://web2py.com/examples/default/download'
p6954
tp6955
a(g6092
(S's\r\x00\x00\x00Other Plugins'
tRp6956
I00
g6686
tp6957
a(g6092
(S's\x0e\x00\x00\x00Layout Plugins'
tRp6958
I00
g6689
tp6959
aasbasbasbasbasbasbasbasbasbasbasbasbasbasbasbasbasbasbasbag68
(g84
g70
NtRp6960
(dp6961
g73
(dp6962
sg82
g5761
sg75
(lp6963
g68
(g89
g70
NtRp6964
(dp6965
g73
(dp6966
g93
g94
ssg82
g6960
sg75
(lp6967
S'meta'
p6968
asbag68
(g89
g70
NtRp6969
(dp6970
g73
(dp6971
g100
g101
ssg82
g6960
sg75
(lp6972
S':'
asbag68
(g89
g70
NtRp6973
(dp6974
g73
(dp6975
sg82
g6960
sg75
(lp6976
g68
(g69
g70
NtRp6977
(dp6978
g73
(dp6979
g81
I5
ssg82
g6973
sg75
(lp6980
g68
(g77
g70
NtRp6981
(dp6982
g73
(dp6983
g81
I4
ssg82
Nsg75
(lp6984
g68
(g84
g70
NtRp6985
(dp6986
g73
(dp6987
sg82
g6981
sg75
(lp6988
g68
(g89
g70
NtRp6989
(dp6990
g73
(dp6991
g93
g94
ssg82
g6985
sg75
(lp6992
S'author'
p6993
asbag68
(g89
g70
NtRp6994
(dp6995
g73
(dp6996
g100
g101
ssg82
g6985
sg75
(lp6997
S':'
asbag68
(g89
g70
NtRp6998
(dp6999
g73
(dp7000
sg82
g6985
sg75
(lp7001
g68
(g69
g70
NtRp7002
(dp7003
g73
(dp7004
g81
I4
ssg82
g6998
sg75
(lp7005
S'Your Name <you@example.com>'
p7006
asbasbasbag68
(g84
g70
NtRp7007
(dp7008
g73
(dp7009
sg82
g6981
sg75
(lp7010
g68
(g89
g70
NtRp7011
(dp7012
g73
(dp7013
g93
g94
ssg82
g7007
sg75
(lp7014
S'description'
p7015
asbag68
(g89
g70
NtRp7016
(dp7017
g73
(dp7018
g100
g101
ssg82
g7007
sg75
(lp7019
S':'
asbag68
(g89
g70
NtRp7020
(dp7021
g73
(dp7022
sg82
g7007
sg75
(lp7023
g68
(g69
g70
NtRp7024
(dp7025
g73
(dp7026
g81
I4
ssg82
g7020
sg75
(lp7027
S'a cool new app'
p7028
asbasbasbag68
(g84
g70
NtRp7029
(dp7030
g73
(dp7031
sg82
g6981
sg75
(lp7032
g68
(g89
g70
NtRp7033
(dp7034
g73
(dp7035
g93
g94
ssg82
g7029
sg75
(lp7036
S'generator'
p7037
asbag68
(g89
g70
NtRp7038
(dp7039
g73
(dp7040
g100
g101
ssg82
g7029
sg75
(lp7041
S':'
asbag68
(g89
g70
NtRp7042
(dp7043
g73
(dp7044
sg82
g7029
sg75
(lp7045
g68
(g69
g70
NtRp7046
(dp7047
g73
(dp7048
g81
I4
ssg82
g7042
sg75
(lp7049
S'Web2py Web Framework'
p7050
asbasbasbag68
(g84
g70
NtRp7051
(dp7052
g73
(dp7053
sg82
g6981
sg75
(lp7054
g68
(g89
g70
NtRp7055
(dp7056
g73
(dp7057
g93
g94
ssg82
g7051
sg75
(lp7058
S'keywords'
p7059
asbag68
(g89
g70
NtRp7060
(dp7061
g73
(dp7062
g100
g101
ssg82
g7051
sg75
(lp7063
S':'
asbag68
(g89
g70
NtRp7064
(dp7065
g73
(dp7066
sg82
g7051
sg75
(lp7067
g68
(g69
g70
NtRp7068
(dp7069
g73
(dp7070
g81
I4
ssg82
g7064
sg75
(lp7071
S'web2py, python, framework'
p7072
asbasbasbasbasbasbasbag68
(g84
g70
NtRp7073
(dp7074
g73
(dp7075
sg82
g5761
sg75
(lp7076
g68
(g89
g70
NtRp7077
(dp7078
g73
(dp7079
g93
g94
ssg82
g7073
sg75
(lp7080
S'models_to_run'
p7081
asbag68
(g89
g70
NtRp7082
(dp7083
g73
(dp7084
g100
g101
ssg82
g7073
sg75
(lp7085
S':'
asbag68
(g89
g70
NtRp7086
(dp7087
g73
(dp7088
sg82
g7073
sg75
(lp7089
g68
(g69
g70
NtRp7090
(dp7091
g73
(dp7092
g81
I5
ssg82
g7086
sg75
(lp7093
g68
(g77
g70
NtRp7094
(dp7095
g73
(dp7096
g81
I4
ssg82
Nsg75
(lp7097
g68
(g84
g70
NtRp7098
(dp7099
g73
(dp7100
sg82
g7094
sg75
(lp7101
g68
(g89
g70
NtRp7102
(dp7103
g73
(dp7104
sg82
g7098
sg75
(lp7105
g68
(g69
g70
NtRp7106
(dp7107
g73
(dp7108
g81
I4
ssg82
g7102
sg75
(lp7109
S'^\\w+\\.py$'
p7110
asbasbasbag68
(g84
g70
NtRp7111
(dp7112
g73
(dp7113
sg82
g7094
sg75
(lp7114
g68
(g89
g70
NtRp7115
(dp7116
g73
(dp7117
sg82
g7111
sg75
(lp7118
g68
(g69
g70
NtRp7119
(dp7120
g73
(dp7121
g81
I4
ssg82
g7115
sg75
(lp7122
S'^default/\\w+\\.py$'
p7123
asbasbasbag68
(g84
g70
NtRp7124
(dp7125
g73
(dp7126
sg82
g7094
sg75
(lp7127
g68
(g89
g70
NtRp7128
(dp7129
g73
(dp7130
sg82
g7124
sg75
(lp7131
g68
(g69
g70
NtRp7132
(dp7133
g73
(dp7134
g81
I4
ssg82
g7128
sg75
(lp7135
S'^default/index/\\w+\\.py$'
p7136
asbasbasbasbasbasbasbag68
(g84
g70
NtRp7137
(dp7138
g73
(dp7139
sg82
g5761
sg75
(lp7140
g68
(g89
g70
NtRp7141
(dp7142
g73
(dp7143
g93
g94
ssg82
g7137
sg75
(lp7144
S'postprocessing'
p7145
asbag68
(g89
g70
NtRp7146
(dp7147
g73
(dp7148
g100
g101
ssg82
g7137
sg75
(lp7149
S':'
asbag68
(g89
g70
NtRp7150
(dp7151
g73
(dp7152
sg82
g7137
sg75
(lp7153
g68
(g69
g70
NtRp7154
(dp7155
g73
(dp7156
g81
I5
ssg82
g7150
sg75
(lp7157
g68
(g77
g70
NtRp7158
(dp7159
g73
(dp7160
g81
I4
ssg82
Nsg75
(lp7161
sbasbasbasbag68
(g84
g70
NtRp7162
(dp7163
g73
(dp7164
sg82
g5761
sg75
(lp7165
g68
(g89
g70
NtRp7166
(dp7167
g73
(dp7168
g93
g94
ssg82
g7162
sg75
(lp7169
S'session_file'
p7170
asbag68
(g89
g70
NtRp7171
(dp7172
g73
(dp7173
g100
g101
ssg82
g7162
sg75
(lp7174
S':'
asbag68
(g89
g70
NtRp7175
(dp7176
g73
(dp7177
sg82
g7162
sg75
(lp7178
g68
(g69
g70
NtRp7179
(dp7180
g73
(dp7181
g81
I5
ssg82
g7175
sg75
(lp7182
S"<open file '/home/mayank/Desktop/web2pyAdmin/web2py/web2py/applications/FunkLoad/sessions/127.0.0.1-cf22ecd2-40c5-41ec-a943-aeddb5bba043', mode 'rb+' at 0x7f27640ccae0>"
p7183
asbasbasbag68
(g84
g70
NtRp7184
(dp7185
g73
(dp7186
sg82
g5761
sg75
(lp7187
g68
(g89
g70
NtRp7188
(dp7189
g73
(dp7190
g93
g94
ssg82
g7184
sg75
(lp7191
S'session_filename'
p7192
asbag68
(g89
g70
NtRp7193
(dp7194
g73
(dp7195
g100
g101
ssg82
g7184
sg75
(lp7196
S':'
asbag68
(g89
g70
NtRp7197
(dp7198
g73
(dp7199
sg82
g7184
sg75
(lp7200
g68
(g69
g70
NtRp7201
(dp7202
g73
(dp7203
g81
I5
ssg82
g7197
sg75
(lp7204
S'/home/mayank/Desktop/web2pyAdmin/web2py/web2py/applications/FunkLoad/sessions/127.0.0.1-cf22ecd2-40c5-41ec-a943-aeddb5bba043'
p7205
asbasbasbag68
(g84
g70
NtRp7206
(dp7207
g73
(dp7208
sg82
g5761
sg75
(lp7209
g68
(g89
g70
NtRp7210
(dp7211
g73
(dp7212
g93
g94
ssg82
g7206
sg75
(lp7213
S'session_id'
p7214
asbag68
(g89
g70
NtRp7215
(dp7216
g73
(dp7217
g100
g101
ssg82
g7206
sg75
(lp7218
S':'
asbag68
(g89
g70
NtRp7219
(dp7220
g73
(dp7221
sg82
g7206
sg75
(lp7222
g68
(g69
g70
NtRp7223
(dp7224
g73
(dp7225
g81
I5
ssg82
g7219
sg75
(lp7226
g1416
asbasbasbag68
(g84
g70
NtRp7227
(dp7228
g73
(dp7229
sg82
g5761
sg75
(lp7230
g68
(g89
g70
NtRp7231
(dp7232
g73
(dp7233
g93
g94
ssg82
g7227
sg75
(lp7234
S'session_id_name'
p7235
asbag68
(g89
g70
NtRp7236
(dp7237
g73
(dp7238
g100
g101
ssg82
g7227
sg75
(lp7239
S':'
asbag68
(g89
g70
NtRp7240
(dp7241
g73
(dp7242
sg82
g7227
sg75
(lp7243
g68
(g69
g70
NtRp7244
(dp7245
g73
(dp7246
g81
I5
ssg82
g7240
sg75
(lp7247
g5818
asbasbasbag68
(g84
g70
NtRp7248
(dp7249
g73
(dp7250
sg82
g5761
sg75
(lp7251
g68
(g89
g70
NtRp7252
(dp7253
g73
(dp7254
g93
g94
ssg82
g7248
sg75
(lp7255
S'session_locked'
p7256
asbag68
(g89
g70
NtRp7257
(dp7258
g73
(dp7259
g100
g101
ssg82
g7248
sg75
(lp7260
S':'
asbag68
(g89
g70
NtRp7261
(dp7262
g73
(dp7263
sg82
g7248
sg75
(lp7264
g68
(g69
g70
NtRp7265
(dp7266
g73
(dp7267
g81
I5
ssg82
g7261
sg75
(lp7268
g3944
asbasbasbag68
(g84
g70
NtRp7269
(dp7270
g73
(dp7271
sg82
g5761
sg75
(lp7272
g68
(g89
g70
NtRp7273
(dp7274
g73
(dp7275
g93
g94
ssg82
g7269
sg75
(lp7276
S'session_new'
p7277
asbag68
(g89
g70
NtRp7278
(dp7279
g73
(dp7280
g100
g101
ssg82
g7269
sg75
(lp7281
S':'
asbag68
(g89
g70
NtRp7282
(dp7283
g73
(dp7284
sg82
g7269
sg75
(lp7285
g68
(g69
g70
NtRp7286
(dp7287
g73
(dp7288
g81
I5
ssg82
g7282
sg75
(lp7289
g111
asbasbasbag68
(g84
g70
NtRp7290
(dp7291
g73
(dp7292
sg82
g5761
sg75
(lp7293
g68
(g89
g70
NtRp7294
(dp7295
g73
(dp7296
g93
g94
ssg82
g7290
sg75
(lp7297
S'status'
p7298
asbag68
(g89
g70
NtRp7299
(dp7300
g73
(dp7301
g100
g101
ssg82
g7290
sg75
(lp7302
S':'
asbag68
(g89
g70
NtRp7303
(dp7304
g73
(dp7305
sg82
g7290
sg75
(lp7306
g68
(g69
g70
NtRp7307
(dp7308
g73
(dp7309
g81
I5
ssg82
g7303
sg75
(lp7310
S'200'
p7311
asbasbasbag68
(g84
g70
NtRp7312
(dp7313
g73
(dp7314
sg82
g5761
sg75
(lp7315
g68
(g89
g70
NtRp7316
(dp7317
g73
(dp7318
g93
g94
ssg82
g7312
sg75
(lp7319
S'subtitle'
p7320
asbag68
(g89
g70
NtRp7321
(dp7322
g73
(dp7323
g100
g101
ssg82
g7312
sg75
(lp7324
S':'
asbag68
(g89
g70
NtRp7325
(dp7326
g73
(dp7327
sg82
g7312
sg75
(lp7328
g68
(g69
g70
NtRp7329
(dp7330
g73
(dp7331
g81
I5
ssg82
g7325
sg75
(lp7332
g6092
(S's\r\x00\x00\x00customize me!'
tRp7333
asbasbasbag68
(g84
g70
NtRp7334
(dp7335
g73
(dp7336
sg82
g5761
sg75
(lp7337
g68
(g89
g70
NtRp7338
(dp7339
g73
(dp7340
g93
g94
ssg82
g7334
sg75
(lp7341
S'title'
p7342
asbag68
(g89
g70
NtRp7343
(dp7344
g73
(dp7345
g100
g101
ssg82
g7334
sg75
(lp7346
S':'
asbag68
(g89
g70
NtRp7347
(dp7348
g73
(dp7349
sg82
g7334
sg75
(lp7350
g68
(g69
g70
NtRp7351
(dp7352
g73
(dp7353
g81
I5
ssg82
g7347
sg75
(lp7354
S'Funkload'
p7355
asbasbasbag68
(g84
g70
NtRp7356
(dp7357
g73
(dp7358
sg82
g5761
sg75
(lp7359
g68
(g89
g70
NtRp7360
(dp7361
g73
(dp7362
g93
g94
ssg82
g7356
sg75
(lp7363
S'view'
p7364
asbag68
(g89
g70
NtRp7365
(dp7366
g73
(dp7367
g100
g101
ssg82
g7356
sg75
(lp7368
S':'
asbag68
(g89
g70
NtRp7369
(dp7370
g73
(dp7371
sg82
g7356
sg75
(lp7372
g68
(g69
g70
NtRp7373
(dp7374
g73
(dp7375
g81
I5
ssg82
g7369
sg75
(lp7376
S'default/index.html'
p7377
asbasbasbasbasbsS'locals'
p7378
(dp7379
g4
S"'/home/mayank/Desktop/web2pyAdmin/web2py/web2py/applications/FunkLoad/views/default/index.html'"
p7380
sg6
S'r"response.write(\'<!DOCTYPE html>\\r\\n<!-- pauliris...ript>  \\r\\n</body>\\r\\n</html>\\r\\n\', escape=False)"'
p7381
sssS'traceback'
p7382
S'Traceback (most recent call last):\n  File "/home/mayank/Desktop/web2pyAdmin/web2py/web2py/gluon/restricted.py", line 208, in restricted\n    ccode = compile2(code,layer)\n  File "/home/mayank/Desktop/web2pyAdmin/web2py/web2py/gluon/restricted.py", line 193, in compile2\n    return compile(code.rstrip().replace(\'\\r\\n\',\'\\n\')+\'\\n\', layer, \'exec\')\n  File "/home/mayank/Desktop/web2pyAdmin/web2py/web2py/applications/FunkLoad/views/default/index.html", line 22\n    <!-- bootstrap -->\n    ^\nSyntaxError: invalid syntax\n'
p7383
s.